ccopy_reg
_reconstructor
p0
(cnltk.classify.naivebayes
NaiveBayesClassifier
p1
c__builtin__
object
p2
Ntp3
Rp4
(dp5
S'_labels'
p6
(lp7
S'OTHER'
p8
aS'PERSON'
p9
aS'LOCATION'
p10
aS'NUMBER'
p11
aS'DATE'
p12
aS'TIME'
p13
aS'MONEY'
p14
aS'PERCENT'
p15
asS'_feature_probdist'
p16
(dp17
(g8
S'first'
p18
tp19
g0
(cnltk.probability
ELEProbDist
p20
g2
Ntp21
Rp22
(dp23
S'_gamma'
p24
F0.5
sS'_N'
p25
I1250
sS'_freqdist'
p26
g0
(cnltk.probability
FreqDist
p27
c__builtin__
dict
p28
(dp29
S'musician'
p30
I1
sS'names'
p31
I1
sS'winnie'
p32
I1
sS'who'
p33
I2
sS'mississippi'
p34
I1
sS'at'
p35
I1
sS'in'
p36
I19
sS'madonna'
p37
I2
sS'ray'
p38
I2
sS'a'
p39
I1
sS'on'
p40
I2
sS'what'
p41
I1112
sS'italy'
p42
I1
sS'name'
p43
I34
sS'for'
p44
I1
sS'how'
p45
I7
sS'when'
p46
I1
sS'jude'
p47
I2
sS'to'
p48
I2
sS'garry'
p49
I1
sS'which'
p50
I43
sS'stuart'
p51
I2
sS'the'
p52
I6
sS'where'
p53
I2
sS'aspartame'
p54
I3
stp55
Rp56
(dp57
g25
I1250
sS'_max_cache'
p58
NsS'_item_cache'
p59
NsS'_Nr_cache'
p60
NsbsS'_bins'
p61
I48
sS'_divisor'
p62
F1274.0
sbs(g11
S'head'
p63
tp64
g0
(g20
g2
Ntp65
Rp66
(dp67
g24
F0.5
sg25
I505
sg26
g0
(g27
g28
(dp68
S''
p69
I142
sS'colleges'
p70
I1
sS'code'
p71
I1
sS'office'
p72
I1
sS'queen'
p73
I1
sS'astronauts'
p74
I2
sS'years'
p75
I9
sS'sperm'
p76
I1
sS'colors'
p77
I4
sS'spaces'
p78
I2
sS'businesses'
p79
I1
sS'questions'
p80
I2
sS'cds'
p81
I1
sS'soldiers'
p82
I6
sS'speed'
p83
I3
sS'children'
p84
I1
sS'superbowls'
p85
I1
sS'layers'
p86
I1
sS'web'
p87
I1
sS'votes'
p88
I1
sS'vietnamese'
p89
I1
sS'electricity'
p90
I1
sS'megawatts'
p91
I1
sS'day'
p92
I3
sS'languages'
p93
I3
sS'degrees'
p94
I2
sS'teaspoon'
p95
I1
sS'thousands'
p96
I1
sS'wingspan'
p97
I1
sS'tiles'
p98
I1
sS'beatles'
p99
I1
sS'referees'
p100
I1
sS'runs'
p101
I2
sS'acreage'
p102
I1
sS'fingers'
p103
I1
sS'penny-farthings'
p104
I1
sS'words'
p105
I1
sS'hands'
p106
I1
sS'schools'
p107
I1
sS'quarters'
p108
I1
sS'wings'
p109
I1
sS'verses'
p110
I1
sS'school'
p111
I1
sS'sizes'
p112
I1
sS'chairs'
p113
I1
sS'james'
p114
I1
sS'countries'
p115
I4
sS'grammys'
p116
I1
sS'casinos'
p117
I1
sS'shots'
p118
I1
sS'corners'
p119
I1
sS'pizza'
p120
I1
sS'disks'
p121
I1
sS'jews'
p122
I1
sS'weight'
p123
I5
sS'people'
p124
I30
sS'elevators'
p125
I1
sS'energy'
p126
I1
sS'seats'
p127
I1
sS'villi'
p128
I1
sS'rate'
p129
I3
sS'frequency'
p130
I2
sS'meters'
p131
I2
sS'year'
p132
I1
sS'grooves'
p133
I2
sS'acid'
p134
I2
sS'dimensions'
p135
I1
sS'calcium'
p136
I1
sS'rings'
p137
I1
sS'mines'
p138
I1
sS'score'
p139
I3
sS'toll'
p140
I4
sS'squares'
p141
I1
sS'equivalent'
p142
I3
sS'u.s.'
p143
I3
sS'lakes'
p144
I1
sS'answers'
p145
I1
sS'hours'
p146
I1
sS'caffeine'
p147
I2
sS'englishmen'
p148
I1
sS'baseball'
p149
I1
sS'hostages'
p150
I1
sS'teaspoons'
p151
I1
sS'pitchers'
p152
I1
sS'cities'
p153
I1
sS'counties'
p154
I1
sS'digits'
p155
I3
sS'watts'
p156
I1
sS'generals'
p157
I1
sS'engines'
p158
I1
sS'stations'
p159
I1
sS'leos'
p160
I1
sS'months'
p161
I2
sS'calories'
p162
I4
sS'days'
p163
I1
sS'times'
p164
I6
sS'length'
p165
I2
sS'games'
p166
I1
sS'canadians'
p167
I1
sS'islands'
p168
I2
sS'size'
p169
I3
sS'members'
p170
I1
sS'scales'
p171
I1
sS'presidents'
p172
I1
sS'number'
p173
I13
sS'community'
p174
I1
sS'feet'
p175
I5
sS'newtons'
p176
I1
sS'americans'
p177
I3
sS'names'
p178
I1
sS'frames'
p179
I1
sS'earthworms'
p180
I1
sS'bends'
p181
I1
sS'flavors'
p182
I1
sS'statistics'
p183
I3
sS'temperature'
p184
I3
sS'zip'
p185
I1
sS'elephants'
p186
I1
sS'shillings'
p187
I1
sS'zeros'
p188
I1
sS'stars'
p189
I2
sS'films'
p190
I2
sS'syllables'
p191
I1
sS'sonnets'
p192
I1
sS'dogs'
p193
I1
sS'today'
p194
I1
sS'horses'
p195
I2
sS'mountains'
p196
I1
sS'head'
p197
I1
sS'stradivarius'
p198
I1
sS'continents'
p199
I1
sS'inches'
p200
I2
sS'brand'
p201
I1
sS'pitches'
p202
I1
sS'movies'
p203
I1
sS'boys'
p204
I1
sS'angles'
p205
I1
sS'7847'
p206
I1
sS'population'
p207
I19
sS'yards'
p208
I1
sS'states'
p209
I4
sS'waste'
p210
I1
sS'milligrams'
p211
I1
sS'longitude'
p212
I3
sS'record'
p213
I1
sS'iron'
p214
I1
sS'cards'
p215
I2
sS'college'
p216
I1
sS'minutes'
p217
I1
sS'dots'
p218
I2
sS'iq'
p219
I2
sS'pounds'
p220
I1
sS'eyes'
p221
I1
sS'high'
p222
I1
sS'horsepower'
p223
I2
sS'muscles'
p224
I2
sS'numbers'
p225
I1
sS'fiddlers'
p226
I1
sS'bones'
p227
I2
sS'cables'
p228
I1
sS'species'
p229
I1
sS'innings'
p230
I2
sS'par'
p231
I2
sS'revolutions'
p232
I1
sS'russians'
p233
I1
sS'lengths'
p234
I1
sS'snow'
p235
I1
sS'reactivity'
p236
I4
sS'actors'
p237
I1
sS'pins'
p238
I1
sS'colonies'
p239
I2
sS'events'
p240
I1
sS'vegetation'
p241
I1
sS'bells'
p242
I1
sS'elements'
p243
I1
sS'lawyers'
p244
I1
sS'brothers'
p245
I1
sS'students'
p246
I2
sS'juices'
p247
I1
sS'gutenberg'
p248
I1
sS'characters'
p249
I2
sS'oceans'
p250
I1
sS'sides'
p251
I3
sS'beanie'
p252
I1
sS'miles'
p253
I6
sS'phone'
p254
I1
sS'url'
p255
I2
sS'salt'
p256
I1
sS'holes'
p257
I1
sS'cherubs'
p258
I1
sS'points'
p259
I4
sS'time'
p260
I1
sS'hearts'
p261
I1
sS'wives'
p262
I1
sS'athletes'
p263
I1
sS'quantity'
p264
I1
stp265
Rp266
(dp267
g25
I505
sg58
Nsg59
Nsg60
Nsbsg61
I1487
sg62
F1248.5
sbs(g13
g18
tp268
g0
(g20
g2
Ntp269
Rp270
(dp271
g24
F0.5
sg25
I75
sg26
g0
(g27
g28
(dp272
S'on'
p273
I1
sS'what'
p274
I14
sS'at'
p275
I1
sS'how'
p276
I57
sS'shea'
p277
I1
sS'the'
p278
I1
stp279
Rp280
(dp281
g25
I75
sg58
Nsg59
Nsg60
Nsbsg61
I48
sg62
F99.0
sbs(g15
g63
tp282
g0
(g20
g2
Ntp283
Rp284
(dp285
g24
F0.5
sg25
I27
sg26
g0
(g27
g28
(dp286
g69
I10
sS'rating'
p287
I1
sS'account'
p288
I1
sS'probability'
p289
I2
sS'chances'
p290
I2
sS'odds'
p291
I3
sS'percent'
p292
I1
sS'rate'
p293
I3
sS'chance'
p294
I1
sS'fraction'
p295
I2
sS'percentage'
p296
I1
stp297
Rp298
(dp299
g25
I27
sg58
Nsg59
Nsg60
Nsbsg61
I1487
sg62
F770.5
sbs(g14
g63
tp300
g0
(g20
g2
Ntp301
Rp302
(dp303
g24
F0.5
sg25
I71
sg26
g0
(g27
g28
(dp304
g69
I30
sS'fare'
p305
I2
sS'money'
p306
I7
sS'price'
p307
I4
sS'provider'
p308
I2
sS'tax'
p309
I1
sS'caps'
p310
I1
sS'rate'
p311
I2
sS'cost'
p312
I4
sS'fine'
p313
I1
sS'salary'
p314
I6
sS'wage'
p315
I4
sS'debts'
p316
I1
sS'increase'
p317
I1
sS'amount'
p318
I1
sS'income'
p319
I3
sS'worth'
p320
I1
stp321
Rp322
(dp323
g25
I71
sg58
Nsg59
Nsg60
Nsbsg61
I1487
sg62
F814.5
sbs(g10
g63
tp324
g0
(g20
g2
Ntp325
Rp326
(dp327
g24
F0.5
sg25
I835
sg26
g0
(g27
g28
(dp328
g69
I121
sS'gates'
p329
I2
sS'thomas'
p330
I1
sS'mccheese'
p331
I1
sS'bocci'
p332
I1
sS'nations'
p333
I1
sS'clinic'
p334
I1
sS'tours'
p335
I1
sS'makeup'
p336
I1
sS'battle'
p337
I1
sS'schoolhouse'
p338
I1
sS'avenue'
p339
I1
sS'continent'
p340
I5
sS'web'
p341
I1
sS'birthplace'
p342
I3
sS'deserts'
p343
I1
sS'gulf'
p344
I1
sS'point'
p345
I1
sS'lake'
p346
I5
sS'woodstock'
p347
I1
sS'location'
p348
I4
sS'prison'
p349
I1
sS'team'
p350
I1
sS'goalie'
p351
I1
sS'resources'
p352
I1
sS'steel'
p353
I1
sS'goes'
p354
I1
sS'myth'
p355
I1
sS'dam'
p356
I1
sS'oceans'
p357
I2
sS'nation'
p358
I3
sS'stadium'
p359
I2
sS'vegas'
p360
I1
sS'tuberculosis'
p361
I1
sS'world'
p362
I1
sS'lincoln'
p363
I1
sS'airports'
p364
I1
sS'name'
p365
I17
sS'countries'
p366
I22
sS'university'
p367
I2
sS'shape'
p368
I1
sS'bay'
p369
I2
sS'race'
p370
I1
sS'steps'
p371
I1
sS'explorer'
p372
I1
sS'rock'
p373
I1
sS'volcano'
p374
I1
sS'river'
p375
I17
sS'page'
p376
I3
sS'battlefield'
p377
I1
sS'square'
p378
I1
sS'telescope'
p379
I1
sS'reference'
p380
I1
sS'apartments'
p381
I1
sS'seas'
p382
I1
sS'house'
p383
I1
sS'library'
p384
I1
sS'rivers'
p385
I2
sS'orinoco'
p386
I1
sS'zero'
p387
I1
sS'street'
p388
I3
sS'college'
p389
I3
sS'sea'
p390
I4
sS'home'
p391
I1
sS'danube'
p392
I1
sS'constellation'
p393
I3
sS'aldrin'
p394
I1
sS'zebras'
p395
I1
sS'planet'
p396
I4
sS'qatar'
p397
I1
sS'mutombo'
p398
I1
sS'sites'
p399
I3
sS'stops'
p400
I1
sS'seaport'
p401
I3
sS'libraries'
p402
I1
sS'state'
p403
I51
sS'daniel'
p404
I1
sS'olympics'
p405
I2
sS'cobb'
p406
I1
sS'diamonds'
p407
I1
sS'nicholas'
p408
I1
sS'glasgow'
p409
I1
sS'body'
p410
I1
sS'columbus'
p411
I1
sS'stockyards'
p412
I1
sS'pythagoras'
p413
I1
sS'dwarf'
p414
I1
sS'cars'
p415
I1
sS'u.s.'
p416
I2
sS'seine'
p417
I1
sS'ranges'
p418
I2
sS'groups'
p419
I1
sS'address'
p420
I9
sS'nationality'
p421
I7
sS'canals'
p422
I1
sS'cities'
p423
I10
sS'luther'
p424
I1
sS'stations'
p425
I1
sS'institute'
p426
I1
sS'country'
p427
I104
sS'region'
p428
I1
sS'adventures'
p429
I1
sS'eels'
p430
I1
sS'ports'
p431
I1
sS'melbourne'
p432
I1
sS'thing'
p433
I1
sS'airport'
p434
I5
sS'waterfall'
p435
I1
sS'place'
p436
I1
sS'islands'
p437
I1
sS'castle'
p438
I2
sS'hospital'
p439
I1
sS'block'
p440
I1
sS'nixon'
p441
I1
sS'burma'
p442
I1
sS'romania'
p443
I1
sS'indians'
p444
I1
sS'clinton'
p445
I1
sS'tourists'
p446
I2
sS'bell'
p447
I1
sS'wall'
p448
I1
sS'attractions'
p449
I2
sS'guam'
p450
I1
sS'washington'
p451
I2
sS'county'
p452
I3
sS'canyon'
p453
I1
sS'blackhawks'
p454
I1
sS'names'
p455
I2
sS'amsterdam'
p456
I1
sS'poe'
p457
I1
sS'george'
p458
I1
sS'coastlines'
p459
I1
sS'trinidad'
p460
I1
sS'canal'
p461
I1
sS'city'
p462
I75
sS'belize'
p463
I1
sS'habitat'
p464
I1
sS'area'
p465
I2
sS'remains'
p466
I1
sS'arch'
p467
I1
sS'museum'
p468
I5
sS'people'
p469
I4
sS'desert'
p470
I5
sS'snowman'
p471
I1
sS'cotrubas'
p472
I1
sS'valley'
p473
I2
sS'meeting'
p474
I1
sS'capital'
p475
I19
sS'store'
p476
I1
sS'website'
p477
I6
sS'mountains'
p478
I1
sS'direction'
p479
I2
sS'strait'
p480
I1
sS'way'
p481
I1
sS'inuits'
p482
I1
sS'passenger'
p483
I1
sS'hotel'
p484
I2
sS'montenegro'
p485
I1
sS'singer'
p486
I1
sS'landmark'
p487
I2
sS'chocolate'
p488
I1
sS'possession'
p489
I1
sS'trail'
p490
I1
sS'flag'
p491
I1
sS'inoco'
p492
I1
sS'coyote'
p493
I1
sS'hole'
p494
I1
sS'sound'
p495
I1
sS'mahal'
p496
I1
sS'room'
p497
I1
sS'hour'
p498
I1
sS'louisiana'
p499
I1
sS'hyenas'
p500
I1
sS'restaurant'
p501
I2
sS'natick'
p502
I1
sS'worth'
p503
I1
sS'project'
p504
I1
sS'mall'
p505
I1
sS'individual'
p506
I1
sS'island'
p507
I14
sS'waterways'
p508
I1
sS'mozambique'
p509
I1
sS'loop'
p510
I1
sS'bridge'
p511
I4
sS'edberg'
p512
I1
sS'gulliver'
p513
I1
sS'palace'
p514
I1
sS'rios'
p515
I1
sS'tesla'
p516
I1
sS'abstract'
p517
I1
sS'breweries'
p518
I1
sS'rubble'
p519
I1
sS'site'
p520
I4
sS'alley'
p521
I1
sS'general'
p522
I1
sS'states'
p523
I6
sS'dew'
p524
I1
sS'sport'
p525
I1
sS'bend'
p526
I1
sS'showers'
p527
I1
sS'cathedral'
p528
I2
sS'distributions'
p529
I1
sS'chop'
p530
I1
sS'native'
p531
I1
sS'angelica'
p532
I1
sS'information'
p533
I1
sS'monarchy'
p534
I1
sS'court'
p535
I1
sS'ukulele'
p536
I1
sS'helium'
p537
I1
sS'hugo'
p538
I1
sS'bowl'
p539
I2
sS'davies'
p540
I1
sS'hampshire'
p541
I1
sS'zoo'
p542
I1
sS'complex'
p543
I1
sS'republic'
p544
I2
sS'forest'
p545
I1
sS'forces'
p546
I1
sS'gate'
p547
I1
sS'residence'
p548
I1
sS'isle'
p549
I1
sS'gamble'
p550
I2
sS'province'
p551
I2
sS'buildings'
p552
I1
sS'star'
p553
I2
sS'brothers'
p554
I1
sS'mountain'
p555
I10
sS'park'
p556
I3
sS'town'
p557
I4
sS'lucia'
p558
I1
sS'callosum'
p559
I2
sS'pigs'
p560
I1
sS'peak'
p561
I4
sS'stocks'
p562
I1
sS'nickname'
p563
I3
sS'gallery'
p564
I1
sS'honecker'
p565
I1
sS'building'
p566
I8
sS'badu'
p567
I1
sS'surfing'
p568
I1
sS'center'
p569
I2
sS'i'
p570
I1
sS'camp'
p571
I1
sS'drinks'
p572
I1
sS'headquarters'
p573
I4
sS'websites'
p574
I1
sS'ocean'
p575
I6
sS'lobsters'
p576
I1
sS'chronicles'
p577
I1
sS'walker'
p578
I1
sS'bodies'
p579
I1
sS'marvel'
p580
I1
stp581
Rp582
(dp583
g25
I835
sg58
Nsg59
Nsg60
Nsbsg61
I1487
sg62
F1578.5
sbs(g8
g63
tp584
g0
(g20
g2
Ntp585
Rp586
(dp587
g24
F0.5
sg25
I1250
sg26
g0
(g27
g28
(dp588
g69
I158
sS'lack'
p589
I1
sS'four'
p590
I1
sS'crocodile'
p591
I1
sS'gang'
p592
I1
sS'skin'
p593
I1
sS'dish'
p594
I1
sS'bomb'
p595
I1
sS'children'
p596
I1
sS'simon'
p597
I1
sS'baseball'
p598
I1
sS'tv'
p599
I14
sS'technique'
p600
I2
sS'languages'
p601
I3
sS'fingernails'
p602
I1
sS'tail'
p603
I1
sS'program'
p604
I3
sS'terror'
p605
I1
sS'ingredient'
p606
I1
sS'plants'
p607
I2
sS'woman'
p608
I1
sS'song'
p609
I6
sS'translations'
p610
I1
sS'jeroboams'
p611
I1
sS'jack'
p612
I1
sS'word'
p613
I17
sS'magic'
p614
I1
sS'prize'
p615
I1
sS'level'
p616
I1
sS'crops'
p617
I1
sS'gender'
p618
I2
sS'notes'
p619
I1
sS'companies'
p620
I1
sS'belushi'
p621
I1
sS'car'
p622
I3
sS'mammal'
p623
I3
sS'stingers'
p624
I1
sS'olympic'
p625
I1
sS'carter'
p626
I1
sS'japanese'
p627
I1
sS'crop'
p628
I3
sS'sign'
p629
I3
sS'chef'
p630
I1
sS'battle'
p631
I2
sS'titles'
p632
I1
sS'video'
p633
I2
sS'hymn'
p634
I2
sS'constitution'
p635
I1
sS'clock'
p636
I1
sS'tarantula'
p637
I1
sS'net'
p638
I1
sS'tournaments'
p639
I1
sS'bird'
p640
I3
sS'body'
p641
I1
sS'leg'
p642
I1
sS'men'
p643
I1
sS'french'
p644
I1
sS'dipsomaniac'
p645
I1
sS'operating'
p646
I2
sS'yards'
p647
I1
sS'goldfish'
p648
I1
sS'tragedy'
p649
I2
sS'hass'
p650
I1
sS'luther'
p651
I1
sS'substance'
p652
I4
sS'products'
p653
I3
sS'franklin'
p654
I1
sS'birthstone'
p655
I1
sS'otters'
p656
I1
sS'classification'
p657
I1
sS'spermologer'
p658
I1
sS'respirator'
p659
I1
sS'italians'
p660
I1
sS'names'
p661
I3
sS'tools'
p662
I1
sS'chefs'
p663
I1
sS'ladybugs'
p664
I1
sS'indians'
p665
I1
sS'symphony'
p666
I1
sS'music'
p667
I1
sS'films'
p668
I2
sS'type'
p669
I1
sS'household'
p670
I2
sS'ballad'
p671
I1
sS'sort'
p672
I1
sS'playboy'
p673
I1
sS'phobophobe'
p674
I1
sS'shipwreck'
p675
I1
sS'club'
p676
I1
sS'company'
p677
I1
sS'award'
p678
I1
sS'glass'
p679
I1
sS'flag'
p680
I1
sS'adult'
p681
I1
sS'rabbit'
p682
I2
sS'shostakovich'
p683
I1
sS'mascot'
p684
I1
sS'balls'
p685
I1
sS'animals'
p686
I8
sS'primate'
p687
I1
sS'science'
p688
I1
sS'athlete'
p689
I1
sS'work'
p690
I1
sS'foods'
p691
I3
sS'sweeter'
p692
I1
sS'entertainer'
p693
I1
sS'seagull'
p694
I1
sS'example'
p695
I1
sS'nino'
p696
I1
sS'chip'
p697
I1
sS'currency'
p698
I1
sS'stroke'
p699
I1
sS'best-seller'
p700
I1
sS'airplane'
p701
I2
sS'species'
p702
I3
sS'damage'
p703
I1
sS'chemical'
p704
I1
sS'animal'
p705
I17
sS'creature'
p706
I4
sS'gaming'
p707
I1
sS'plant'
p708
I4
sS'cocktail'
p709
I2
sS'singular'
p710
I1
sS'may'
p711
I2
sS'clone'
p712
I1
sS'rites'
p713
I1
sS'conjugations'
p714
I1
sS'philatelist'
p715
I1
sS'softball'
p716
I1
sS'types'
p717
I3
sS'man'
p718
I2
sS'noun'
p719
I1
sS'liquid'
p720
I1
sS'liner'
p721
I1
sS'element'
p722
I2
sS'tale'
p723
I1
sS'bakery'
p724
I1
sS'alloy'
p725
I1
sS'wine'
p726
I1
sS'producer'
p727
I1
sS'move'
p728
I1
sS'mission'
p729
I1
sS'meter'
p730
I2
sS'trade'
p731
I1
sS'sperm'
p732
I2
sS'course'
p733
I1
sS'paper'
p734
I1
sS'oven'
p735
I1
sS'signs'
p736
I1
sS'magoo'
p737
I1
sS'birds'
p738
I2
sS'golfing'
p739
I1
sS'forms'
p740
I1
sS'holiday'
p741
I1
sS'diseases'
p742
I1
sS'food'
p743
I8
sS'auto'
p744
I1
sS'killer'
p745
I1
sS'amendements'
p746
I1
sS'therapy'
p747
I1
sS'snake'
p748
I1
sS'compound'
p749
I1
sS'satellites'
p750
I1
sS'clouds'
p751
I1
sS'day'
p752
I1
sS'articles'
p753
I1
sS'term'
p754
I18
sS'name'
p755
I75
sS'opera'
p756
I2
sS'january'
p757
I1
sS'policeman'
p758
I1
sS'drake'
p759
I1
sS'events'
p760
I3
sS'habits'
p761
I1
sS'predators'
p762
I1
sS'side'
p763
I1
sS'bone'
p764
I1
sS'wheel'
p765
I1
sS'ailment'
p766
I1
sS'generation'
p767
I1
sS'series'
p768
I1
sS'fish'
p769
I1
sS'spider'
p770
I1
sS'books'
p771
I1
sS'year'
p772
I1
sS'aids'
p773
I1
sS'ribavirin'
p774
I1
sS'marley'
p775
I1
sS'event'
p776
I2
sS'album'
p777
I1
sS'flower'
p778
I1
sS'god'
p779
I1
sS'vessels'
p780
I2
sS'strokes'
p781
I1
sS'race'
p782
I3
sS'medicine'
p783
I1
sS'formula'
p784
I3
sS'plural'
p785
I1
sS'achievements'
p786
I1
sS'maneuver'
p787
I1
sS'monster'
p788
I1
sS'delicacy'
p789
I1
sS'descendents'
p790
I1
sS'story'
p791
I1
sS'approaches'
p792
I1
sS'basketball'
p793
I1
sS'cookie'
p794
I1
sS'hand'
p795
I1
sS'card'
p796
I7
sS'soundtrack'
p797
I1
sS'language'
p798
I10
sS'garment'
p799
I1
sS'counterpart'
p800
I2
sS'thing'
p801
I3
sS'soda'
p802
I1
sS'stewart'
p803
I1
sS'vowel'
p804
I2
sS'feet'
p805
I1
sS'owner'
p806
I1
sS'overalls'
p807
I1
sS'millions'
p808
I1
sS'paine'
p809
I1
sS'razor'
p810
I1
sS'horse'
p811
I2
sS'toy'
p812
I1
sS'automobile'
p813
I1
sS'system'
p814
I2
sS'syrup'
p815
I1
sS'genesis'
p816
I1
sS'stars'
p817
I1
sS'chemicals'
p818
I3
sS'part'
p819
I4
sS'cereal'
p820
I4
sS'translation'
p821
I1
sS'flowers'
p822
I1
sS'symptom'
p823
I1
sS'milton'
p824
I1
sS'kind'
p825
I3
sS'domestica'
p826
I1
sS'johnson'
p827
I1
sS'shampoo'
p828
I1
sS'dogs'
p829
I1
sS'invention'
p830
I1
sS'cards'
p831
I2
sS'outcome'
p832
I1
sS'sculpture'
p833
I2
sS'bridge'
p834
I1
sS'fowl'
p835
I1
sS'deodorant'
p836
I1
sS'ages'
p837
I1
sS'mine'
p838
I1
sS'pedometer'
p839
I1
sS'tastes'
p840
I1
sS'shrubs'
p841
I1
sS'spectacle'
p842
I1
sS'allen'
p843
I1
sS'handicraft'
p844
I1
sS'harper'
p845
I1
sS'chiropodist'
p846
I1
sS'soap'
p847
I2
sS'play'
p848
I4
sS'thrilled'
p849
I1
sS'object'
p850
I1
sS'cigarette'
p851
I2
sS'regular'
p852
I1
sS'letter'
p853
I5
sS'exercises'
p854
I1
sS'coin'
p855
I1
sS'class'
p856
I2
sS'synonym'
p857
I1
sS'cover'
p858
I1
sS'dog'
p859
I2
sS'scotch'
p860
I1
sS'dot'
p861
I1
sS'charley'
p862
I1
sS'golf'
p863
I1
sS'phenomenon'
p864
I2
sS'show'
p865
I1
sS'queen'
p866
I2
sS'recipe'
p867
I1
sS'colors'
p868
I7
sS'fear'
p869
I62
sS'albums'
p870
I1
sS'livestock'
p871
I1
sS'resource'
p872
I1
sS'ruin'
p873
I1
sS'winner'
p874
I1
sS'penalty'
p875
I1
sS'molecules'
p876
I1
sS'fuel'
p877
I2
sS'circle'
p878
I1
sS'hit'
p879
I1
sS'commodity'
p880
I1
sS'bear'
p881
I1
sS'words'
p882
I4
sS'tips'
p883
I1
sS'bar'
p884
I1
sS'organ'
p885
I1
sS'encounters'
p886
I1
sS'saliva'
p887
I1
sS'method'
p888
I2
sS'penguins'
p889
I1
sS'roger'
p890
I1
sS'abolitionists'
p891
I1
sS'disaster'
p892
I1
sS'tree'
p893
I1
sS'farrier'
p894
I1
sS'ancients'
p895
I1
sS'humans'
p896
I1
sS'sex'
p897
I2
sS'cologne'
p898
I1
sS'computer'
p899
I2
sS'seal'
p900
I1
sS'explosive'
p901
I1
sS'sport'
p902
I17
sS'ways'
p903
I6
sS'movie'
p904
I17
sS'review'
p905
I1
sS'stories'
p906
I1
sS'gemstone'
p907
I1
sS'latin'
p908
I1
sS'tristan'
p909
I1
sS'ability'
p910
I1
sS't.v.'
p911
I1
sS'first-aid'
p912
I1
sS'piece'
p913
I2
sS'drug'
p914
I4
sS'connection'
p915
I1
sS'games'
p916
I2
sS'berry'
p917
I1
sS'faces'
p918
I1
sS'witch'
p919
I1
sS'heliologist'
p920
I1
sS'statues'
p921
I1
sS'cancer'
p922
I2
sS'color'
p923
I28
sS'period'
p924
I1
sS'cult'
p925
I1
sS'pole'
p926
I1
sS'vessel'
p927
I1
sS'belt'
p928
I1
sS'conference'
p929
I1
sS'hawkins'
p930
I1
sS'instrument'
p931
I5
sS'trilogy'
p932
I1
sS'trademark'
p933
I2
sS'mark'
p934
I1
sS'submarine'
p935
I1
sS'beer'
p936
I4
sS'treat'
p937
I1
sS'board'
p938
I2
sS'flight'
p939
I1
sS'ridder'
p940
I1
sS'locations'
p941
I1
sS'tiger'
p942
I1
sS'bible'
p943
I1
sS'expedition'
p944
I1
sS'ravens'
p945
I1
sS'jell-o'
p946
I1
sS'sound'
p947
I1
sS'novel'
p948
I22
sS'value'
p949
I1
sS'droppings'
p950
I1
sS'newspaper'
p951
I4
sS'procedure'
p952
I1
sS'layer'
p953
I1
sS'calculator'
p954
I1
sS'player'
p955
I1
sS'alphabet'
p956
I1
sS'bowl'
p957
I1
sS'member'
p958
I1
sS'esquire'
p959
I1
sS'vegetable'
p960
I2
sS'document'
p961
I1
sS'composition'
p962
I1
sS'week'
p963
I1
sS'ball'
p964
I2
sS'drink'
p965
I17
sS'huston'
p966
I1
sS'holidays'
p967
I1
sS'fruit'
p968
I1
sS'statue'
p969
I1
sS'whale'
p970
I2
sS'nickname'
p971
I1
sS'tune'
p972
I1
sS'kid'
p973
I1
sS'smokey'
p974
I1
sS'peacocks'
p975
I1
sS'weapon'
p976
I4
sS'variety'
p977
I1
sS'game'
p978
I7
sS'ocean'
p979
I1
sS'materials'
p980
I1
sS'components'
p981
I1
sS'model'
p982
I1
sS'musical'
p983
I2
sS'deltiologist'
p984
I1
sS'plagues'
p985
I1
sS'traditions'
p986
I1
sS'money'
p987
I3
sS'racehorse'
p988
I1
sS'basophobic'
p989
I1
sS'product'
p990
I8
sS'shape'
p991
I2
sS'flavor'
p992
I1
sS'ads'
p993
I1
sS'alternate'
p994
I1
sS'source'
p995
I1
sS'treatment'
p996
I1
sS'crack'
p997
I1
sS'visine'
p998
I1
sS'earthquakes'
p999
I1
sS'metalious'
p1000
I1
sS'tenses'
p1001
I1
sS'format'
p1002
I2
sS'sailors'
p1003
I1
sS'bands'
p1004
I1
sS'bid'
p1005
I1
sS'suffering'
p1006
I1
sS'gama'
p1007
I1
sS'world'
p1008
I1
sS'knox'
p1009
I1
sS'boob'
p1010
I1
sS'meat'
p1011
I1
sS'kennedy'
p1012
I1
sS'eidologist'
p1013
I1
sS'clay'
p1014
I1
sS'wonders'
p1015
I2
sS'pyramid-builders'
p1016
I1
sS'jews'
p1017
I1
sS'people'
p1018
I1
sS'hair'
p1019
I3
sS'export'
p1020
I1
sS'brontosauruses'
p1021
I1
sS'hurricane'
p1022
I1
sS'ice'
p1023
I1
sS'religion'
p1024
I2
sS'shakespeare'
p1025
I1
sS'epic'
p1026
I1
sS'measures'
p1027
I1
sS'rum'
p1028
I1
sS'equivalent'
p1029
I1
sS'slaughter'
p1030
I1
sS'vaccine'
p1031
I1
sS'trophy'
p1032
I2
sS'maclaine'
p1033
I1
sS'resurrectionist'
p1034
I1
sS'concerts'
p1035
I1
sS'magazine'
p1036
I7
sS'camels'
p1037
I1
sS'cartier'
p1038
I1
sS'emperor'
p1039
I1
sS'software'
p1040
I1
sS'letters'
p1041
I1
sS'washington'
p1042
I1
sS'device'
p1043
I2
sS'brush'
p1044
I1
sS'strip'
p1045
I3
sS'methods'
p1046
I1
sS'vegetables'
p1047
I1
sS'tennis'
p1048
I1
sS'cats'
p1049
I2
sS'bros.'
p1050
I1
sS'way'
p1051
I9
sS'suit'
p1052
I1
sS'war'
p1053
I12
sS'warlock'
p1054
I1
sS'medium'
p1055
I3
sS'form'
p1056
I2
sS'brand'
p1057
I1
sS'sequel'
p1058
I3
sS'oil'
p1059
I1
sS'principles'
p1060
I1
sS'observances'
p1061
I1
sS'line'
p1062
I1
sS'ear'
p1063
I1
sS'spice'
p1064
I1
sS'manatees'
p1065
I1
sS'limit'
p1066
I1
sS'stages'
p1067
I1
sS'condiment'
p1068
I2
sS'palate'
p1069
I1
sS'classic'
p1070
I1
sS'taste'
p1071
I1
sS'strips'
p1072
I1
sS'disease'
p1073
I11
sS'gland'
p1074
I1
sS'majal'
p1075
I1
sS'ship'
p1076
I3
sS'film'
p1077
I23
sS'ingredients'
p1078
I1
sS'trials'
p1079
I2
sS'actor'
p1080
I1
sS'snakes'
p1081
I1
sS'field'
p1082
I1
sS'book'
p1083
I21
sS'jong'
p1084
I1
sS'mayonnaise'
p1085
I1
sS'elements'
p1086
I4
sS'kinds'
p1087
I1
sS'brothers'
p1088
I1
sS'congress'
p1089
I1
sS'symbol'
p1090
I3
sS'lens'
p1091
I1
sS'structure'
p1092
I1
sS'age'
p1093
I1
sS'vehicles'
p1094
I1
sS'flatfish'
p1095
I1
sS'feud'
p1096
I1
sS'fastener'
p1097
I1
sS'craft'
p1098
I1
sS'menace'
p1099
I1
sS'songs'
p1100
I2
stp1101
Rp1102
(dp1103
g25
I1250
sg58
Nsg59
Nsg60
Nsbsg61
I1487
sg62
F1993.5
sbs(g13
g63
tp1104
g0
(g20
g2
Ntp1105
Rp1106
(dp1107
g24
F0.5
sg25
I75
sg26
g0
(g27
g28
(dp1108
g69
I58
sS'expectancy'
p1109
I3
sS'span'
p1110
I1
sS'office'
p1111
I1
sS'time'
p1112
I4
sS'age'
p1113
I7
sS'period'
p1114
I1
stp1115
Rp1116
(dp1117
g25
I75
sg58
Nsg59
Nsg60
Nsbsg61
I1487
sg62
F818.5
sbs(g9
g18
tp1118
g0
(g20
g2
Ntp1119
Rp1120
(dp1121
g24
F0.5
sg25
I1223
sg26
g0
(g27
g28
(dp1122
S'saddam'
p1123
I1
sS'who'
p1124
I557
sS'woodrow'
p1125
I1
sS'in'
p1126
I4
sS'president'
p1127
I1
sS'with'
p1128
I1
sS'whose'
p1129
I14
sS'what'
p1130
I533
sS'name'
p1131
I49
sS'when'
p1132
I4
sS'rotary'
p1133
I3
sS'whom'
p1134
I4
sS'silly'
p1135
I1
sS'which'
p1136
I46
sS'cnn'
p1137
I1
sS'the'
p1138
I3
stp1139
Rp1140
(dp1141
g25
I1223
sg58
Nsg59
Nsg60
Nsbsg61
I48
sg62
F1247.0
sbs(g9
g63
tp1142
g0
(g20
g2
Ntp1143
Rp1144
(dp1145
g24
F0.5
sg25
I1223
sg26
g0
(g27
g28
(dp1146
g69
I132
sS'colleges'
p1147
I1
sS'coach'
p1148
I3
sS'founder'
p1149
I1
sS'ali'
p1150
I1
sS'themes'
p1151
I1
sS'manager'
p1152
I2
sS'battle'
p1153
I1
sS'chair'
p1154
I1
sS'captain'
p1155
I1
sS'children'
p1156
I1
sS'chain'
p1157
I2
sS'electricity'
p1158
I1
sS'jolson'
p1159
I1
sS'father'
p1160
I7
sS'crooner'
p1161
I1
sS'pride'
p1162
I1
sS'stonehenge'
p1163
I1
sS'woman'
p1164
I10
sS'song'
p1165
I2
sS'spumante'
p1166
I1
sS'railways'
p1167
I1
sS'sons'
p1168
I1
sS'diary'
p1169
I1
sS'surgeon'
p1170
I1
sS'tutu'
p1171
I2
sS'chapel'
p1172
I1
sS'school'
p1173
I5
sS'prize'
p1174
I1
sS'positions'
p1175
I1
sS'celebrity'
p1176
I1
sS'macdowell'
p1177
I1
sS'companies'
p1178
I2
sS'brother'
p1179
I2
sS'grandfather'
p1180
I1
sS'team'
p1181
I10
sS'radio'
p1182
I3
sS'guy'
p1183
I1
sS'astronaut'
p1184
I3
sS'athlete'
p1185
I1
sS'kemper'
p1186
I1
sS'malick'
p1187
I1
sS'force'
p1188
I2
sS'leaders'
p1189
I1
sS'maggio'
p1190
I1
sS'wrestling'
p1191
I1
sS'video'
p1192
I2
sS'lawyer'
p1193
I8
sS'nba'
p1194
I1
sS'monster'
p1195
I1
sS'golfer'
p1196
I3
sS'business'
p1197
I4
sS'journalist'
p1198
I1
sS'new'
p1199
I1
sS'badge'
p1200
I1
sS'admiral'
p1201
I1
sS'hero'
p1202
I1
sS'funeral'
p1203
I1
sS'theresa'
p1204
I1
sS'ranger'
p1205
I2
sS'dubliners'
p1206
I1
sS'baseball'
p1207
I10
sS'pub'
p1208
I1
sS'groups'
p1209
I1
sS'isps'
p1210
I1
sS'benson'
p1211
I1
sS'bible'
p1212
I1
sS'daughter'
p1213
I2
sS'survivor'
p1214
I1
sS'jinnah'
p1215
I1
sS'tv'
p1216
I8
sS'mentor'
p1217
I2
sS'residents'
p1218
I1
sS'patents'
p1219
I1
sS'holmes'
p1220
I1
sS'members'
p1221
I1
sS'presidents'
p1222
I2
sS'county'
p1223
I1
sS'names'
p1224
I11
sS'composer'
p1225
I3
sS'singing'
p1226
I3
sS'bra'
p1227
I1
sS'lime'
p1228
I1
sS'dna'
p1229
I1
sS'army'
p1230
I1
sS'wonderbra'
p1231
I1
sS'music'
p1232
I1
sS'butler'
p1233
I1
sS'angels'
p1234
I1
sS'faith'
p1235
I1
sS'tootsie'
p1236
I1
sS'company'
p1237
I24
sS'award'
p1238
I2
sS'chocolate'
p1239
I1
sS'stethoscope'
p1240
I1
sS'baby'
p1241
I1
sS'antichrist'
p1242
I1
sS'iii'
p1243
I1
sS'women'
p1244
I1
sS'word'
p1245
I1
sS'room'
p1246
I1
sS'rights'
p1247
I1
sS'barroom'
p1248
I1
sS'confucius'
p1249
I1
sS'worm'
p1250
I1
sS'morgan'
p1251
I1
sS'goodall'
p1252
I1
sS'example'
p1253
I1
sS'nino'
p1254
I1
sS'spy'
p1255
I2
sS'boyfriend'
p1256
I1
sS'performer'
p1257
I1
sS'figure'
p1258
I1
sS'hyatt'
p1259
I1
sS'process'
p1260
I1
sS'frickett'
p1261
I1
sS'villain'
p1262
I2
sS'numbers'
p1263
I1
sS'airplane'
p1264
I2
sS'voice'
p1265
I1
sS'freleng'
p1266
I1
sS'autobiography'
p1267
I3
sS'court'
p1268
I1
sS'machine'
p1269
I1
sS'writers'
p1270
I1
sS'cardinal'
p1271
I1
sS'skater'
p1272
I1
sS'cyberspace'
p1273
I1
sS'designer'
p1274
I2
sS'cupboard'
p1275
I1
sS'explorer'
p1276
I2
sS'information'
p1277
I1
sS'collection'
p1278
I1
sS'shores'
p1279
I1
sS'terrorist'
p1280
I1
sS'president'
p1281
I50
sS'lap'
p1282
I1
sS'man'
p1283
I6
sS'muppets'
p1284
I2
sS'doctor'
p1285
I3
sS'volleyball'
p1286
I1
sS'nebbish'
p1287
I1
sS'lindbergh'
p1288
I1
sS'order'
p1289
I1
sS'photoshop'
p1290
I1
sS'no.'
p1291
I1
sS'mutiny'
p1292
I1
sS'producer'
p1293
I3
sS'dumpty'
p1294
I2
sS'costume'
p1295
I1
sS'oswald'
p1296
I2
sS'mayor'
p1297
I4
sS'bunch'
p1298
I1
sS'self-portrait'
p1299
I1
sS'group'
p1300
I9
sS'shortstop'
p1301
I1
sS'ticker'
p1302
I1
sS'pines'
p1303
I1
sS'winners'
p1304
I1
sS'dwarfs'
p1305
I1
sS'gymnast'
p1306
I1
sS'founders'
p1307
I1
sS'speech'
p1308
I1
sS'norway'
p1309
I1
sS'fool'
p1310
I1
sS'hunter'
p1311
I2
sS'band'
p1312
I1
sS'party'
p1313
I3
sS'schools'
p1314
I1
sS'cage'
p1315
I1
sS'day'
p1316
I1
sS'd.a.'
p1317
I1
sS'mystery'
p1318
I1
sS'attorneys'
p1319
I1
sS'name'
p1320
I79
sS'mathematician'
p1321
I1
sS'university'
p1322
I5
sS'editor'
p1323
I3
sS'lawnmower'
p1324
I1
sS'paganini'
p1325
I1
sS'normans'
p1326
I1
sS'series'
p1327
I1
sS'kane'
p1328
I1
sS'hawaii'
p1329
I1
sS'society'
p1330
I1
sS'logo'
p1331
I1
sS'girl'
p1332
I1
sS'salesman'
p1333
I1
sS'message'
p1334
I1
sS'witness'
p1335
I1
sS'bacall'
p1336
I1
sS'network'
p1337
I1
sS'god'
p1338
I2
sS'horoscope'
p1339
I1
sS'opener'
p1340
I1
sS'fountain'
p1341
I1
sS'foundation'
p1342
I1
sS'theory'
p1343
I1
sS'barrier'
p1344
I1
sS'credit'
p1345
I1
sS'dracula'
p1346
I1
sS'hulk'
p1347
I1
sS'bulls'
p1348
I1
sS'darius'
p1349
I1
sS'putty'
p1350
I1
sS'plea'
p1351
I1
sS'explorers'
p1352
I1
sS'card'
p1353
I1
sS'revolutionary'
p1354
I1
sS'director'
p1355
I5
sS'hamed'
p1356
I1
sS'prophet'
p1357
I5
sS'florida'
p1358
I1
sS'david'
p1359
I1
sS'american'
p1360
I2
sS'gordon'
p1361
I1
sS'playwright'
p1362
I1
sS'superbowl'
p1363
I1
sS'fischer'
p1364
I1
sS'damocles'
p1365
I1
sS'primary'
p1366
I1
sS'feet'
p1367
I1
sS'sailor'
p1368
I1
sS'ybarra'
p1369
I1
sS'owner'
p1370
I1
sS'comic'
p1371
I1
sS'engineer'
p1372
I2
sS'corporal'
p1373
I1
sS'story'
p1374
I2
sS'toy'
p1375
I1
sS'lacan'
p1376
I1
sS'eriksen'
p1377
I1
sS'service'
p1378
I1
sS'automobile'
p1379
I1
sS'vocalist'
p1380
I1
sS'carson'
p1381
I1
sS'master'
p1382
I1
sS'sergeant'
p1383
I1
sS'store'
p1384
I3
sS'beard'
p1385
I1
sS'eyes'
p1386
I1
sS'labianca'
p1387
I1
sS'airwaves'
p1388
I1
sS'circumnavigator'
p1389
I1
sS'part'
p1390
I3
sS'jordan'
p1391
I1
sS'mules'
p1392
I1
sS'inventor'
p1393
I2
sS'charcter'
p1394
I1
sS'king'
p1395
I12
sS'television'
p1396
I1
sS'ben'
p1397
I1
sS'listeners'
p1398
I1
sS'architect'
p1399
I2
sS'friend'
p1400
I1
sS'prankster'
p1401
I1
sS'bridge'
p1402
I1
sS'surname'
p1403
I1
sS'clip'
p1404
I1
sS'astaire'
p1405
I1
sS'premier'
p1406
I1
sS'voices'
p1407
I1
sS'talking'
p1408
I1
sS'garfield'
p1409
I1
sS'comedian'
p1410
I9
sS'car'
p1411
I1
sS'realm'
p1412
I1
sS'cherokee'
p1413
I1
sS'steamboat'
p1414
I1
sS'parks'
p1415
I1
sS'caesar'
p1416
I2
sS'chairman'
p1417
I2
sS'forces'
p1418
I1
sS'president-to-be'
p1419
I1
sS'panties'
p1420
I1
sS'medals'
p1421
I1
sS'godfather'
p1422
I1
sS'phonograph'
p1423
I1
sS'cigarette'
p1424
I1
sS'swampy'
p1425
I1
sS'letter'
p1426
I1
sS'organization'
p1427
I7
sS'nothing'
p1428
I1
sS'ishmael'
p1429
I1
sS'dummy'
p1430
I1
sS'singer'
p1431
I5
sS'rogers'
p1432
I1
sS'duckling'
p1433
I1
sS'cover'
p1434
I1
sS'dog'
p1435
I1
sS'enterprise'
p1436
I1
sS'detective'
p1437
I1
sS'pope'
p1438
I2
sS'queen'
p1439
I3
sS'hamlet'
p1440
I1
sS'businesses'
p1441
I1
sS'finn'
p1442
I1
sS'nephew'
p1443
I1
sS'debate'
p1444
I1
sS'occupation'
p1445
I5
sS'witch'
p1446
I1
sS'title'
p1447
I4
sS'writer'
p1448
I5
sS'buxom'
p1449
I1
sS'viagra'
p1450
I1
sS'hockey'
p1451
I2
sS'money'
p1452
I1
sS'piano'
p1453
I1
sS'bernstein'
p1454
I1
sS'hit'
p1455
I1
sS'renaud'
p1456
I1
sS'tammy'
p1457
I1
sS'gogh'
p1458
I1
sS'abby'
p1459
I1
sS'collector'
p1460
I1
sS'bestselling'
p1461
I1
sS'airman'
p1462
I1
sS'artist'
p1463
I2
sS'fields'
p1464
I1
sS'husband'
p1465
I1
sS'secretary'
p1466
I2
sS'cohan'
p1467
I1
sS'creator'
p1468
I2
sS'nun'
p1469
I1
sS'culture'
p1470
I1
sS'lion'
p1471
I1
sS'college'
p1472
I10
sS'laureate'
p1473
I1
sS'genius'
p1474
I1
sS'fans'
p1475
I1
sS'bureau'
p1476
I1
sS'finger'
p1477
I1
sS'advertizing'
p1478
I1
sS'astroturf'
p1479
I1
sS'agencies'
p1480
I1
sS'boss'
p1481
I1
sS'guitar'
p1482
I1
sS'job'
p1483
I3
sS'conservationist'
p1484
I1
sS'police'
p1485
I2
sS'motto'
p1486
I1
sS'jfk'
p1487
I1
sS'horsemen'
p1488
I1
sS'superstar'
p1489
I1
sS'career'
p1490
I1
sS'challengers'
p1491
I1
sS'feminist'
p1492
I1
sS'monk'
p1493
I1
sS'thor'
p1494
I1
sS'players'
p1495
I1
sS'games'
p1496
I1
sS'napolean'
p1497
I1
sS'andrews'
p1498
I1
sS'opposition'
p1499
I1
sS'maclaine'
p1500
I1
sS'battery'
p1501
I1
sS'lyricist'
p1502
I1
sS'colony'
p1503
I1
sS'seizure'
p1504
I1
sS'mccain'
p1505
I1
sS'church'
p1506
I1
sS'table'
p1507
I1
sS'boat'
p1508
I1
sS'turkey'
p1509
I1
sS'poem'
p1510
I1
sS'nominee'
p1511
I1
sS'swimmer'
p1512
I1
sS'trademark'
p1513
I1
sS'newscast'
p1514
I1
sS'dictator'
p1515
I3
sS'hawking'
p1516
I1
sS'make-up'
p1517
I1
sS'poet'
p1518
I6
sS'nicolet'
p1519
I1
sS'naples'
p1520
I1
sS'engine'
p1521
I1
sS'life'
p1522
I2
sS'deodorant'
p1523
I1
sS'champion'
p1524
I1
sS'cobain'
p1525
I1
sS'league'
p1526
I3
sS'unsafe'
p1527
I1
sS'personas'
p1528
I1
sS'races'
p1529
I1
sS'minister'
p1530
I7
sS'child'
p1531
I2
sS'fellow'
p1532
I1
sS'painter'
p1533
I4
sS'quotation'
p1534
I1
sS'physician'
p1535
I1
sS'hughes'
p1536
I1
sS'look'
p1537
I1
sS'bill'
p1538
I1
sS'governor'
p1539
I3
sS'stalin'
p1540
I1
sS'thrillers'
p1541
I1
sS'santos-dumont'
p1542
I1
sS'potlatch'
p1543
I1
sS'pyramid'
p1544
I2
sS'resident'
p1545
I1
sS'commander'
p1546
I1
sS'player'
p1547
I1
sS'cone'
p1548
I1
sS'partner'
p1549
I1
sS'rams'
p1550
I1
sS'williams'
p1551
I2
sS'soldier'
p1552
I1
sS'wordsworth'
p1553
I1
sS'administration'
p1554
I1
sS'liston'
p1555
I1
sS'member'
p1556
I4
sS'picts'
p1557
I1
sS'strange'
p1558
I1
sS'speaker'
p1559
I1
sS'monarch'
p1560
I2
sS'powell'
p1561
I1
sS'daughters'
p1562
I1
sS'inventors'
p1563
I1
sS'commune'
p1564
I1
sS'oil'
p1565
I1
sS'appearances'
p1566
I1
sS'youngsters'
p1567
I1
sS'husbands'
p1568
I1
sS'characters'
p1569
I1
sS'senator'
p1570
I2
sS'nickname'
p1571
I8
sS'cartoon'
p1572
I2
sS'identity'
p1573
I3
sS'kid'
p1574
I2
sS'rommel'
p1575
I1
sS'task'
p1576
I1
sS'surfboard'
p1577
I1
sS'vice-president'
p1578
I3
sS'antonio'
p1579
I1
sS'person'
p1580
I9
sS'mother'
p1581
I4
sS'genie'
p1582
I1
sS'model'
p1583
I1
sS'ambassador'
p1584
I1
sS'agency'
p1585
I1
sS'monet'
p1586
I1
sS'khrushchev'
p1587
I1
sS'actress'
p1588
I13
sS'dose'
p1589
I1
sS'palpatine'
p1590
I1
sS'batteries'
p1591
I1
sS'harrison'
p1592
I1
sS'world'
p1593
I1
sS'death'
p1594
I1
sS'pendulum'
p1595
I1
sS'cup'
p1596
I1
sS'rose'
p1597
I1
sS'character'
p1598
I13
sS'pickering'
p1599
I2
sS'teenager'
p1600
I1
sS'citizen'
p1601
I3
sS'basketball'
p1602
I3
sS'scoundrel'
p1603
I1
sS'gestapo'
p1604
I1
sS'government'
p1605
I1
sS'couple'
p1606
I1
sS'advocate'
p1607
I1
sS'game'
p1608
I2
sS'boxer'
p1609
I2
sS'thucydides'
p1610
I1
sS'press'
p1611
I1
sS'picasso'
p1612
I1
sS'lady'
p1613
I1
sS'cinzano'
p1614
I1
sS'martyrs'
p1615
I1
sS'kennedy'
p1616
I1
sS'pillar'
p1617
I1
sS'commanders'
p1618
I1
sS'clown'
p1619
I1
sS'offices'
p1620
I1
sS'officer'
p1621
I1
sS'night'
p1622
I3
sS'judson'
p1623
I1
sS'x-man'
p1624
I1
sS'fatman'
p1625
I1
sS'www'
p1626
I1
sS'people'
p1627
I5
sS'oscars'
p1628
I2
sS'scrabble'
p1629
I1
sS'archenemy'
p1630
I1
sS'biographer'
p1631
I1
sS'novelist'
p1632
I2
sS'enemies'
p1633
I1
sS'competitor'
p1634
I1
sS'arch-enemy'
p1635
I1
sS'tools'
p1636
I1
sS'civilization'
p1637
I1
sS'cnn'
p1638
I1
sS'leader'
p1639
I14
sS'gandhi'
p1640
I1
sS'power'
p1641
I2
sS'bowling'
p1642
I1
sS'weir'
p1643
I1
sS'host'
p1644
I1
sS'lyrics'
p1645
I1
sS'super'
p1646
I1
sS'vaccine'
p1647
I1
sS'manufacturer'
p1648
I2
sS'pike'
p1649
I1
sS'sister'
p1650
I2
sS'son-in-law'
p1651
I2
sS'cowboy'
p1652
I2
sS'super-teams'
p1653
I1
sS'coronado'
p1654
I1
sS'airline'
p1655
I1
sS'congressman'
p1656
I1
sS'emperor'
p1657
I1
sS'nixon'
p1658
I1
sS'marlowe'
p1659
I1
sS'tribe'
p1660
I2
sS'image'
p1661
I1
sS'profession'
p1662
I4
sS'comedienne'
p1663
I2
sS'auh2o'
p1664
I1
sS'son'
p1665
I3
sS'rosanna-dana'
p1666
I1
sS'weather'
p1667
I1
sS'yankee'
p1668
I1
sS'jockey'
p1669
I2
sS'sculptress'
p1670
I1
sS'tennis'
p1671
I1
sS'question'
p1672
I1
sS'grange'
p1673
I1
sS'synthesizer'
p1674
I1
sS'author'
p1675
I8
sS'way'
p1676
I2
sS'jaws'
p1677
I1
sS'war'
p1678
I2
sS'jones'
p1679
I1
sS'head'
p1680
I2
sS'quetzalcoatl'
p1681
I1
sS'manufacturers'
p1682
I1
sS'prewett'
p1683
I1
sS'pitcher'
p1684
I1
sS'stereo'
p1685
I1
sS'line'
p1686
I1
sS'count'
p1687
I1
sS'rockefeller'
p1688
I1
sS'us'
p1689
I1
sS'record'
p1690
I4
sS'vatican'
p1691
I2
sS'stardust'
p1692
I1
sS'election'
p1693
I1
sS'moore'
p1694
I1
sS'cop'
p1695
I1
sS'toothbrush'
p1696
I1
sS'general'
p1697
I8
sS'laboratory'
p1698
I1
sS'nnp'
p1699
I1
sS'corporation'
p1700
I2
sS'guitarist'
p1701
I1
sS'actor'
p1702
I13
sS'bremer'
p1703
I1
sS'book'
p1704
I1
sS'role'
p1705
I6
sS'department'
p1706
I2
sS'pseudonym'
p1707
I2
sS'star'
p1708
I4
sS'brothers'
p1709
I2
sS'reign'
p1710
I1
sS'brandt'
p1711
I1
sS'ghost'
p1712
I1
sS'studio'
p1713
I1
sS'wife'
p1714
I2
sS'ottawa'
p1715
I1
sS'almanac'
p1716
I1
stp1717
Rp1718
(dp1719
g25
I1223
sg58
Nsg59
Nsg60
Nsbsg61
I1487
sg62
F1966.5
sbs(g15
g18
tp1720
g0
(g20
g2
Ntp1721
Rp1722
(dp1723
g24
F0.5
sg25
I27
sg26
g0
(g27
g28
(dp1724
S'of'
p1725
I1
sS'what'
p1726
I25
sS'independent'
p1727
I1
stp1728
Rp1729
(dp1730
g25
I27
sg58
Nsg59
Nsg60
Nsbsg61
I48
sg62
F51.0
sbs(g10
g18
tp1731
g0
(g20
g2
Ntp1732
Rp1733
(dp1734
g24
F0.5
sg25
I835
sg26
g0
(g27
g28
(dp1735
S'on'
p1736
I5
sS'what'
p1737
I523
sS'jackson'
p1738
I2
sS'name'
p1739
I7
sS'kosovo'
p1740
I1
sS'when'
p1741
I1
sS'mississippi'
p1742
I1
sS'which'
p1743
I16
sS'in'
p1744
I18
sS'mccarren'
p1745
I1
sS'the'
p1746
I4
sS'where'
p1747
I255
sS'tell'
p1748
I1
stp1749
Rp1750
(dp1751
g25
I835
sg58
Nsg59
Nsg60
Nsbsg61
I48
sg62
F859.0
sbs(g12
g63
tp1752
g0
(g20
g2
Ntp1753
Rp1754
(dp1755
g24
F0.5
sg25
I218
sg26
g0
(g27
g28
(dp1756
g69
I14
sS'ambassador'
p1757
I1
sS'helens'
p1758
I1
sS'clark'
p1759
I1
sS'show'
p1760
I1
sS'wall'
p1761
I1
sS'revolutionaries'
p1762
I1
sS'charles'
p1763
I1
sS'period'
p1764
I2
sS'month'
p1765
I3
sS'muhammad'
p1766
I1
sS'ussr'
p1767
I1
sS'americans'
p1768
I1
sS'hugo'
p1769
I1
sS'battle'
p1770
I2
sS'mill'
p1771
I1
sS'hitler'
p1772
I1
sS'transplant'
p1773
I1
sS'use'
p1774
I1
sS'group'
p1775
I1
sS'troops'
p1776
I1
sS'festival'
p1777
I1
sS'ruby'
p1778
I1
sS'attack'
p1779
I1
sS'labor'
p1780
I1
sS'window'
p1781
I1
sS'music'
p1782
I1
sS'teenager'
p1783
I1
sS'mutiny'
p1784
I1
sS'bill'
p1785
I1
sS'war'
p1786
I1
sS'engine'
p1787
I1
sS'israel'
p1788
I1
sS'woman'
p1789
I1
sS'fire'
p1790
I2
sS'dam'
p1791
I1
sS'company'
p1792
I1
sS'thatcher'
p1793
I1
sS'test'
p1794
I1
sS'slinky'
p1795
I1
sS'bible'
p1796
I1
sS'wedding'
p1797
I1
sS'railroad'
p1798
I1
sS'erected'
p1799
I1
sS'banner'
p1800
I1
sS'day'
p1801
I8
sS'bar-code'
p1802
I1
sS'nfl'
p1803
I1
sS'encyclopedia'
p1804
I1
sS'birthdate'
p1805
I1
sS'helen'
p1806
I2
sS'architecture'
p1807
I2
sS'man'
p1808
I1
sS'yemen'
p1809
I1
sS'amendment'
p1810
I1
sS'menstruation'
p1811
I1
sS'beethoven'
p1812
I2
sS'art'
p1813
I1
sS'osbourne'
p1814
I1
sS'century'
p1815
I3
sS'rousseau'
p1816
I1
sS'house'
p1817
I1
sS'fish'
p1818
I1
sS'humans'
p1819
I1
sS'spielberg'
p1820
I1
sS'mormons'
p1821
I1
sS'roosevelt'
p1822
I1
sS'year'
p1823
I45
sS'aeul'
p1824
I1
sS'depression'
p1825
I1
sS'toilet'
p1826
I1
sS'nostradamus'
p1827
I2
sS'christ'
p1828
I1
sS'amtrak'
p1829
I1
sS'barbie'
p1830
I1
sS'sun'
p1831
I1
sS'fraze'
p1832
I1
sS'concert'
p1833
I1
sS'www.questions.com'
p1834
I1
sS'flood'
p1835
I1
sS'millennium'
p1836
I1
sS'huxley'
p1837
I1
sS'season'
p1838
I4
sS'cnn'
p1839
I2
sS'gate'
p1840
I2
sS'ruth'
p1841
I1
sS'pastorius'
p1842
I1
sS'typewriter'
p1843
I1
sS'parthenon'
p1844
I1
sS'korea'
p1845
I1
sS'congress'
p1846
I1
sS'noriega'
p1847
I1
sS'journal'
p1848
I1
sS'eruption'
p1849
I1
sS'victoria'
p1850
I1
sS'control'
p1851
I1
sS'birthday'
p1852
I4
sS'awards'
p1853
I1
sS'date'
p1854
I13
sS'vesuvius'
p1855
I1
sS'weekend'
p1856
I1
sS'lindbergh'
p1857
I1
sS'camcorders'
p1858
I1
sS'broadcast'
p1859
I1
sS'dates'
p1860
I1
sS'accident'
p1861
I1
sS'pangaea'
p1862
I1
sS'i'
p1863
I1
sS'months'
p1864
I1
sS'florida'
p1865
I1
sS'rockefeller'
p1866
I1
sS'dow'
p1867
I1
sS'games'
p1868
I1
sS'advertising'
p1869
I1
sS'time'
p1870
I2
sS'shorn'
p1871
I1
sS'railway'
p1872
I1
sS'swimming'
p1873
I1
sS'microsoft'
p1874
I1
sS'nixon'
p1875
I3
stp1876
Rp1877
(dp1878
g25
I218
sg58
Nsg59
Nsg60
Nsbsg61
I1487
sg62
F961.5
sbs(g14
g18
tp1879
g0
(g20
g2
Ntp1880
Rp1881
(dp1882
g24
F0.5
sg25
I71
sg26
g0
(g27
g28
(dp1883
S'how'
p1884
I32
sS'what'
p1885
I37
sS'dialing'
p1886
I1
sS'by'
p1887
I1
stp1888
Rp1889
(dp1890
g25
I71
sg58
Nsg59
Nsg60
Nsbsg61
I48
sg62
F95.0
sbs(g11
g18
tp1891
g0
(g20
g2
Ntp1892
Rp1893
(dp1894
g24
F0.5
sg25
I505
sg26
g0
(g27
g28
(dp1895
S'a'
p1896
I1
sS'on'
p1897
I1
sS'what'
p1898
I105
sS'about'
p1899
I2
sS'approximately'
p1900
I2
sS'how'
p1901
I390
sS'in'
p1902
I1
sS'the'
p1903
I1
sS'where'
p1904
I2
stp1905
Rp1906
(dp1907
g25
I505
sg58
Nsg59
Nsg60
Nsbsg61
I48
sg62
F529.0
sbs(g12
g18
tp1908
g0
(g20
g2
Ntp1909
Rp1910
(dp1911
g24
F0.5
sg25
I218
sg26
g0
(g27
g28
(dp1912
S'on'
p1913
I4
sS'what'
p1914
I63
sS'boxing'
p1915
I1
sS'when'
p1916
I124
sS'in'
p1917
I20
sS'cnn'
p1918
I2
sS'the'
p1919
I3
sS'hitler'
p1920
I1
stp1921
Rp1922
(dp1923
g25
I218
sg58
Nsg59
Nsg60
Nsbsg61
I48
sg62
F242.0
sbssS'_label_probdist'
p1924
g0
(g20
g2
Ntp1925
Rp1926
(dp1927
g24
F0.5
sg25
I4204
sg26
g0
(g27
g28
(dp1928
g14
I71
sg15
I27
sg11
I505
sg9
I1223
sg8
I1250
sg10
I835
sg13
I75
sg12
I218
stp1929
Rp1930
(dp1931
g25
I4204
sg58
Nsg59
(lp1932
(g8
I1250
tp1933
a(g9
I1223
tp1934
a(g10
I835
tp1935
a(g11
I505
tp1936
a(g12
I218
tp1937
a(g13
I75
tp1938
a(g14
I71
tp1939
a(g15
I27
tp1940
asg60
Nsbsg61
I8
sg62
F4208.0
sbsb.