ccopy_reg
_reconstructor
p0
(cnltk.classify.naivebayes
NaiveBayesClassifier
p1
c__builtin__
object
p2
Ntp3
Rp4
(dp5
S'_labels'
p6
(lp7
S'OTHER'
p8
aS'PERSON'
p9
aS'LOCATION'
p10
aS'NUMBER'
p11
aS'DATE'
p12
aS'ORGANIZATION'
p13
aS'TIME'
p14
aS'MONEY'
p15
aS'PERCENT'
p16
asS'_feature_probdist'
p17
(dp18
(g8
S'first'
p19
tp20
g0
(cnltk.probability
ELEProbDist
p21
g2
Ntp22
Rp23
(dp24
S'_gamma'
p25
F0.5
sS'_N'
p26
I1250
sS'_freqdist'
p27
g0
(cnltk.probability
FreqDist
p28
c__builtin__
dict
p29
(dp30
S'musician'
p31
I1
sS'names'
p32
I1
sS'winnie'
p33
I1
sS'who'
p34
I2
sS'mississippi'
p35
I1
sS'at'
p36
I1
sS'in'
p37
I19
sS'madonna'
p38
I2
sS'ray'
p39
I2
sS'a'
p40
I1
sS'on'
p41
I2
sS'what'
p42
I1112
sS'italy'
p43
I1
sS'name'
p44
I34
sS'for'
p45
I1
sS'how'
p46
I7
sS'when'
p47
I1
sS'jude'
p48
I2
sS'to'
p49
I2
sS'garry'
p50
I1
sS'which'
p51
I43
sS'stuart'
p52
I2
sS'the'
p53
I6
sS'where'
p54
I2
sS'aspartame'
p55
I3
stp56
Rp57
(dp58
g26
I1250
sS'_max_cache'
p59
NsS'_item_cache'
p60
NsS'_Nr_cache'
p61
NsbsS'_bins'
p62
I48
sS'_divisor'
p63
F1274.0
sbs(g11
S'head'
p64
tp65
g0
(g21
g2
Ntp66
Rp67
(dp68
g25
F0.5
sg26
I505
sg27
g0
(g28
g29
(dp69
S''
p70
I142
sS'colleges'
p71
I1
sS'code'
p72
I1
sS'office'
p73
I1
sS'queen'
p74
I1
sS'astronauts'
p75
I2
sS'years'
p76
I9
sS'sperm'
p77
I1
sS'colors'
p78
I4
sS'spaces'
p79
I2
sS'businesses'
p80
I1
sS'questions'
p81
I2
sS'cds'
p82
I1
sS'soldiers'
p83
I6
sS'speed'
p84
I3
sS'children'
p85
I1
sS'superbowls'
p86
I1
sS'layers'
p87
I1
sS'web'
p88
I1
sS'votes'
p89
I1
sS'vietnamese'
p90
I1
sS'electricity'
p91
I1
sS'megawatts'
p92
I1
sS'day'
p93
I3
sS'languages'
p94
I3
sS'degrees'
p95
I2
sS'teaspoon'
p96
I1
sS'thousands'
p97
I1
sS'wingspan'
p98
I1
sS'tiles'
p99
I1
sS'beatles'
p100
I1
sS'referees'
p101
I1
sS'runs'
p102
I2
sS'acreage'
p103
I1
sS'fingers'
p104
I1
sS'penny-farthings'
p105
I1
sS'words'
p106
I1
sS'hands'
p107
I1
sS'schools'
p108
I1
sS'quarters'
p109
I1
sS'wings'
p110
I1
sS'verses'
p111
I1
sS'school'
p112
I1
sS'sizes'
p113
I1
sS'chairs'
p114
I1
sS'james'
p115
I1
sS'countries'
p116
I4
sS'grammys'
p117
I1
sS'casinos'
p118
I1
sS'shots'
p119
I1
sS'corners'
p120
I1
sS'pizza'
p121
I1
sS'disks'
p122
I1
sS'jews'
p123
I1
sS'weight'
p124
I5
sS'people'
p125
I30
sS'elevators'
p126
I1
sS'energy'
p127
I1
sS'seats'
p128
I1
sS'villi'
p129
I1
sS'rate'
p130
I3
sS'frequency'
p131
I2
sS'meters'
p132
I2
sS'year'
p133
I1
sS'grooves'
p134
I2
sS'acid'
p135
I2
sS'dimensions'
p136
I1
sS'calcium'
p137
I1
sS'rings'
p138
I1
sS'mines'
p139
I1
sS'score'
p140
I3
sS'toll'
p141
I4
sS'squares'
p142
I1
sS'equivalent'
p143
I3
sS'u.s.'
p144
I3
sS'lakes'
p145
I1
sS'answers'
p146
I1
sS'hours'
p147
I1
sS'caffeine'
p148
I2
sS'englishmen'
p149
I1
sS'baseball'
p150
I1
sS'hostages'
p151
I1
sS'teaspoons'
p152
I1
sS'pitchers'
p153
I1
sS'cities'
p154
I1
sS'counties'
p155
I1
sS'digits'
p156
I3
sS'watts'
p157
I1
sS'generals'
p158
I1
sS'engines'
p159
I1
sS'stations'
p160
I1
sS'leos'
p161
I1
sS'months'
p162
I2
sS'calories'
p163
I4
sS'days'
p164
I1
sS'times'
p165
I6
sS'length'
p166
I2
sS'games'
p167
I1
sS'canadians'
p168
I1
sS'islands'
p169
I2
sS'size'
p170
I3
sS'members'
p171
I1
sS'scales'
p172
I1
sS'presidents'
p173
I1
sS'number'
p174
I13
sS'community'
p175
I1
sS'feet'
p176
I5
sS'newtons'
p177
I1
sS'americans'
p178
I3
sS'names'
p179
I1
sS'frames'
p180
I1
sS'earthworms'
p181
I1
sS'bends'
p182
I1
sS'flavors'
p183
I1
sS'statistics'
p184
I3
sS'temperature'
p185
I3
sS'zip'
p186
I1
sS'elephants'
p187
I1
sS'shillings'
p188
I1
sS'zeros'
p189
I1
sS'stars'
p190
I2
sS'films'
p191
I2
sS'syllables'
p192
I1
sS'sonnets'
p193
I1
sS'dogs'
p194
I1
sS'today'
p195
I1
sS'horses'
p196
I2
sS'mountains'
p197
I1
sS'head'
p198
I1
sS'stradivarius'
p199
I1
sS'continents'
p200
I1
sS'inches'
p201
I2
sS'brand'
p202
I1
sS'pitches'
p203
I1
sS'movies'
p204
I1
sS'boys'
p205
I1
sS'angles'
p206
I1
sS'7847'
p207
I1
sS'population'
p208
I19
sS'yards'
p209
I1
sS'states'
p210
I4
sS'waste'
p211
I1
sS'milligrams'
p212
I1
sS'longitude'
p213
I3
sS'record'
p214
I1
sS'iron'
p215
I1
sS'cards'
p216
I2
sS'college'
p217
I1
sS'minutes'
p218
I1
sS'dots'
p219
I2
sS'iq'
p220
I2
sS'pounds'
p221
I1
sS'eyes'
p222
I1
sS'high'
p223
I1
sS'horsepower'
p224
I2
sS'muscles'
p225
I2
sS'numbers'
p226
I1
sS'fiddlers'
p227
I1
sS'bones'
p228
I2
sS'cables'
p229
I1
sS'species'
p230
I1
sS'innings'
p231
I2
sS'par'
p232
I2
sS'revolutions'
p233
I1
sS'russians'
p234
I1
sS'lengths'
p235
I1
sS'snow'
p236
I1
sS'reactivity'
p237
I4
sS'actors'
p238
I1
sS'pins'
p239
I1
sS'colonies'
p240
I2
sS'events'
p241
I1
sS'vegetation'
p242
I1
sS'bells'
p243
I1
sS'elements'
p244
I1
sS'lawyers'
p245
I1
sS'brothers'
p246
I1
sS'students'
p247
I2
sS'juices'
p248
I1
sS'gutenberg'
p249
I1
sS'characters'
p250
I2
sS'oceans'
p251
I1
sS'sides'
p252
I3
sS'beanie'
p253
I1
sS'miles'
p254
I6
sS'phone'
p255
I1
sS'url'
p256
I2
sS'salt'
p257
I1
sS'holes'
p258
I1
sS'cherubs'
p259
I1
sS'points'
p260
I4
sS'time'
p261
I1
sS'hearts'
p262
I1
sS'wives'
p263
I1
sS'athletes'
p264
I1
sS'quantity'
p265
I1
stp266
Rp267
(dp268
g26
I505
sg59
Nsg60
Nsg61
Nsbsg62
I1487
sg63
F1248.5
sbs(g14
g19
tp269
g0
(g21
g2
Ntp270
Rp271
(dp272
g25
F0.5
sg26
I75
sg27
g0
(g28
g29
(dp273
S'on'
p274
I1
sS'what'
p275
I14
sS'at'
p276
I1
sS'how'
p277
I57
sS'shea'
p278
I1
sS'the'
p279
I1
stp280
Rp281
(dp282
g26
I75
sg59
Nsg60
Nsg61
Nsbsg62
I48
sg63
F99.0
sbs(g16
g64
tp283
g0
(g21
g2
Ntp284
Rp285
(dp286
g25
F0.5
sg26
I27
sg27
g0
(g28
g29
(dp287
g70
I10
sS'rating'
p288
I1
sS'account'
p289
I1
sS'probability'
p290
I2
sS'chances'
p291
I2
sS'odds'
p292
I3
sS'percent'
p293
I1
sS'rate'
p294
I3
sS'chance'
p295
I1
sS'fraction'
p296
I2
sS'percentage'
p297
I1
stp298
Rp299
(dp300
g26
I27
sg59
Nsg60
Nsg61
Nsbsg62
I1487
sg63
F770.5
sbs(g15
g64
tp301
g0
(g21
g2
Ntp302
Rp303
(dp304
g25
F0.5
sg26
I71
sg27
g0
(g28
g29
(dp305
g70
I30
sS'fare'
p306
I2
sS'money'
p307
I7
sS'price'
p308
I4
sS'provider'
p309
I2
sS'tax'
p310
I1
sS'caps'
p311
I1
sS'rate'
p312
I2
sS'cost'
p313
I4
sS'fine'
p314
I1
sS'salary'
p315
I6
sS'wage'
p316
I4
sS'debts'
p317
I1
sS'increase'
p318
I1
sS'amount'
p319
I1
sS'income'
p320
I3
sS'worth'
p321
I1
stp322
Rp323
(dp324
g26
I71
sg59
Nsg60
Nsg61
Nsbsg62
I1487
sg63
F814.5
sbs(g13
g19
tp325
g0
(g21
g2
Ntp326
Rp327
(dp328
g25
F0.5
sg26
I189
sg27
g0
(g28
g29
(dp329
S'what'
p330
I137
sS'name'
p331
I14
sS'who'
p332
I15
sS'when'
p333
I1
sS'rotary'
p334
I2
sS'woodrow'
p335
I1
sS'whom'
p336
I1
sS'which'
p337
I16
sS'in'
p338
I1
sS'the'
p339
I1
stp340
Rp341
(dp342
g26
I189
sg59
Nsg60
Nsg61
Nsbsg62
I48
sg63
F213.0
sbs(g10
g64
tp343
g0
(g21
g2
Ntp344
Rp345
(dp346
g25
F0.5
sg26
I835
sg27
g0
(g28
g29
(dp347
g70
I121
sS'gates'
p348
I2
sS'thomas'
p349
I1
sS'mccheese'
p350
I1
sS'bocci'
p351
I1
sS'nations'
p352
I1
sS'clinic'
p353
I1
sS'tours'
p354
I1
sS'makeup'
p355
I1
sS'battle'
p356
I1
sS'schoolhouse'
p357
I1
sS'avenue'
p358
I1
sS'continent'
p359
I5
sS'web'
p360
I1
sS'birthplace'
p361
I3
sS'deserts'
p362
I1
sS'gulf'
p363
I1
sS'point'
p364
I1
sS'lake'
p365
I5
sS'woodstock'
p366
I1
sS'location'
p367
I4
sS'prison'
p368
I1
sS'team'
p369
I1
sS'goalie'
p370
I1
sS'resources'
p371
I1
sS'steel'
p372
I1
sS'goes'
p373
I1
sS'myth'
p374
I1
sS'dam'
p375
I1
sS'oceans'
p376
I2
sS'nation'
p377
I3
sS'stadium'
p378
I2
sS'vegas'
p379
I1
sS'tuberculosis'
p380
I1
sS'world'
p381
I1
sS'lincoln'
p382
I1
sS'airports'
p383
I1
sS'name'
p384
I17
sS'countries'
p385
I22
sS'university'
p386
I2
sS'shape'
p387
I1
sS'bay'
p388
I2
sS'race'
p389
I1
sS'steps'
p390
I1
sS'explorer'
p391
I1
sS'rock'
p392
I1
sS'volcano'
p393
I1
sS'river'
p394
I17
sS'page'
p395
I3
sS'battlefield'
p396
I1
sS'square'
p397
I1
sS'telescope'
p398
I1
sS'reference'
p399
I1
sS'apartments'
p400
I1
sS'seas'
p401
I1
sS'house'
p402
I1
sS'library'
p403
I1
sS'rivers'
p404
I2
sS'orinoco'
p405
I1
sS'zero'
p406
I1
sS'street'
p407
I3
sS'college'
p408
I3
sS'sea'
p409
I4
sS'home'
p410
I1
sS'danube'
p411
I1
sS'constellation'
p412
I3
sS'aldrin'
p413
I1
sS'zebras'
p414
I1
sS'planet'
p415
I4
sS'qatar'
p416
I1
sS'mutombo'
p417
I1
sS'sites'
p418
I3
sS'stops'
p419
I1
sS'seaport'
p420
I3
sS'libraries'
p421
I1
sS'state'
p422
I51
sS'daniel'
p423
I1
sS'olympics'
p424
I2
sS'cobb'
p425
I1
sS'diamonds'
p426
I1
sS'nicholas'
p427
I1
sS'glasgow'
p428
I1
sS'body'
p429
I1
sS'columbus'
p430
I1
sS'stockyards'
p431
I1
sS'pythagoras'
p432
I1
sS'dwarf'
p433
I1
sS'cars'
p434
I1
sS'u.s.'
p435
I2
sS'seine'
p436
I1
sS'ranges'
p437
I2
sS'groups'
p438
I1
sS'address'
p439
I9
sS'nationality'
p440
I7
sS'canals'
p441
I1
sS'cities'
p442
I10
sS'luther'
p443
I1
sS'stations'
p444
I1
sS'institute'
p445
I1
sS'country'
p446
I104
sS'region'
p447
I1
sS'adventures'
p448
I1
sS'eels'
p449
I1
sS'ports'
p450
I1
sS'melbourne'
p451
I1
sS'thing'
p452
I1
sS'airport'
p453
I5
sS'waterfall'
p454
I1
sS'place'
p455
I1
sS'islands'
p456
I1
sS'castle'
p457
I2
sS'hospital'
p458
I1
sS'block'
p459
I1
sS'nixon'
p460
I1
sS'burma'
p461
I1
sS'romania'
p462
I1
sS'indians'
p463
I1
sS'clinton'
p464
I1
sS'tourists'
p465
I2
sS'bell'
p466
I1
sS'wall'
p467
I1
sS'attractions'
p468
I2
sS'guam'
p469
I1
sS'washington'
p470
I2
sS'county'
p471
I3
sS'canyon'
p472
I1
sS'blackhawks'
p473
I1
sS'names'
p474
I2
sS'amsterdam'
p475
I1
sS'poe'
p476
I1
sS'george'
p477
I1
sS'coastlines'
p478
I1
sS'trinidad'
p479
I1
sS'canal'
p480
I1
sS'city'
p481
I75
sS'belize'
p482
I1
sS'habitat'
p483
I1
sS'area'
p484
I2
sS'remains'
p485
I1
sS'arch'
p486
I1
sS'museum'
p487
I5
sS'people'
p488
I4
sS'desert'
p489
I5
sS'snowman'
p490
I1
sS'cotrubas'
p491
I1
sS'valley'
p492
I2
sS'meeting'
p493
I1
sS'capital'
p494
I19
sS'store'
p495
I1
sS'website'
p496
I6
sS'mountains'
p497
I1
sS'direction'
p498
I2
sS'strait'
p499
I1
sS'way'
p500
I1
sS'inuits'
p501
I1
sS'passenger'
p502
I1
sS'hotel'
p503
I2
sS'montenegro'
p504
I1
sS'singer'
p505
I1
sS'landmark'
p506
I2
sS'chocolate'
p507
I1
sS'possession'
p508
I1
sS'trail'
p509
I1
sS'flag'
p510
I1
sS'inoco'
p511
I1
sS'coyote'
p512
I1
sS'hole'
p513
I1
sS'sound'
p514
I1
sS'mahal'
p515
I1
sS'room'
p516
I1
sS'hour'
p517
I1
sS'louisiana'
p518
I1
sS'hyenas'
p519
I1
sS'restaurant'
p520
I2
sS'natick'
p521
I1
sS'worth'
p522
I1
sS'project'
p523
I1
sS'mall'
p524
I1
sS'individual'
p525
I1
sS'island'
p526
I14
sS'waterways'
p527
I1
sS'mozambique'
p528
I1
sS'loop'
p529
I1
sS'bridge'
p530
I4
sS'edberg'
p531
I1
sS'gulliver'
p532
I1
sS'palace'
p533
I1
sS'rios'
p534
I1
sS'tesla'
p535
I1
sS'abstract'
p536
I1
sS'breweries'
p537
I1
sS'rubble'
p538
I1
sS'site'
p539
I4
sS'alley'
p540
I1
sS'general'
p541
I1
sS'states'
p542
I6
sS'dew'
p543
I1
sS'sport'
p544
I1
sS'bend'
p545
I1
sS'showers'
p546
I1
sS'cathedral'
p547
I2
sS'distributions'
p548
I1
sS'chop'
p549
I1
sS'native'
p550
I1
sS'angelica'
p551
I1
sS'information'
p552
I1
sS'monarchy'
p553
I1
sS'court'
p554
I1
sS'ukulele'
p555
I1
sS'helium'
p556
I1
sS'hugo'
p557
I1
sS'bowl'
p558
I2
sS'davies'
p559
I1
sS'hampshire'
p560
I1
sS'zoo'
p561
I1
sS'complex'
p562
I1
sS'republic'
p563
I2
sS'forest'
p564
I1
sS'forces'
p565
I1
sS'gate'
p566
I1
sS'residence'
p567
I1
sS'isle'
p568
I1
sS'gamble'
p569
I2
sS'province'
p570
I2
sS'buildings'
p571
I1
sS'star'
p572
I2
sS'brothers'
p573
I1
sS'mountain'
p574
I10
sS'park'
p575
I3
sS'town'
p576
I4
sS'lucia'
p577
I1
sS'callosum'
p578
I2
sS'pigs'
p579
I1
sS'peak'
p580
I4
sS'stocks'
p581
I1
sS'nickname'
p582
I3
sS'gallery'
p583
I1
sS'honecker'
p584
I1
sS'building'
p585
I8
sS'badu'
p586
I1
sS'surfing'
p587
I1
sS'center'
p588
I2
sS'i'
p589
I1
sS'camp'
p590
I1
sS'drinks'
p591
I1
sS'headquarters'
p592
I4
sS'websites'
p593
I1
sS'ocean'
p594
I6
sS'lobsters'
p595
I1
sS'chronicles'
p596
I1
sS'walker'
p597
I1
sS'bodies'
p598
I1
sS'marvel'
p599
I1
stp600
Rp601
(dp602
g26
I835
sg59
Nsg60
Nsg61
Nsbsg62
I1487
sg63
F1578.5
sbs(g8
g64
tp603
g0
(g21
g2
Ntp604
Rp605
(dp606
g25
F0.5
sg26
I1250
sg27
g0
(g28
g29
(dp607
g70
I158
sS'lack'
p608
I1
sS'four'
p609
I1
sS'crocodile'
p610
I1
sS'gang'
p611
I1
sS'skin'
p612
I1
sS'dish'
p613
I1
sS'bomb'
p614
I1
sS'children'
p615
I1
sS'simon'
p616
I1
sS'baseball'
p617
I1
sS'tv'
p618
I14
sS'technique'
p619
I2
sS'languages'
p620
I3
sS'fingernails'
p621
I1
sS'tail'
p622
I1
sS'program'
p623
I3
sS'terror'
p624
I1
sS'ingredient'
p625
I1
sS'plants'
p626
I2
sS'woman'
p627
I1
sS'song'
p628
I6
sS'translations'
p629
I1
sS'jeroboams'
p630
I1
sS'jack'
p631
I1
sS'word'
p632
I17
sS'magic'
p633
I1
sS'prize'
p634
I1
sS'level'
p635
I1
sS'crops'
p636
I1
sS'gender'
p637
I2
sS'notes'
p638
I1
sS'companies'
p639
I1
sS'belushi'
p640
I1
sS'car'
p641
I3
sS'mammal'
p642
I3
sS'stingers'
p643
I1
sS'olympic'
p644
I1
sS'carter'
p645
I1
sS'japanese'
p646
I1
sS'crop'
p647
I3
sS'sign'
p648
I3
sS'chef'
p649
I1
sS'battle'
p650
I2
sS'titles'
p651
I1
sS'video'
p652
I2
sS'hymn'
p653
I2
sS'constitution'
p654
I1
sS'clock'
p655
I1
sS'tarantula'
p656
I1
sS'net'
p657
I1
sS'tournaments'
p658
I1
sS'bird'
p659
I3
sS'body'
p660
I1
sS'leg'
p661
I1
sS'men'
p662
I1
sS'french'
p663
I1
sS'dipsomaniac'
p664
I1
sS'operating'
p665
I2
sS'yards'
p666
I1
sS'goldfish'
p667
I1
sS'tragedy'
p668
I2
sS'hass'
p669
I1
sS'luther'
p670
I1
sS'substance'
p671
I4
sS'products'
p672
I3
sS'franklin'
p673
I1
sS'birthstone'
p674
I1
sS'otters'
p675
I1
sS'classification'
p676
I1
sS'spermologer'
p677
I1
sS'respirator'
p678
I1
sS'italians'
p679
I1
sS'names'
p680
I3
sS'tools'
p681
I1
sS'chefs'
p682
I1
sS'ladybugs'
p683
I1
sS'indians'
p684
I1
sS'symphony'
p685
I1
sS'music'
p686
I1
sS'films'
p687
I2
sS'type'
p688
I1
sS'household'
p689
I2
sS'ballad'
p690
I1
sS'sort'
p691
I1
sS'playboy'
p692
I1
sS'phobophobe'
p693
I1
sS'shipwreck'
p694
I1
sS'club'
p695
I1
sS'company'
p696
I1
sS'award'
p697
I1
sS'glass'
p698
I1
sS'flag'
p699
I1
sS'adult'
p700
I1
sS'rabbit'
p701
I2
sS'shostakovich'
p702
I1
sS'mascot'
p703
I1
sS'balls'
p704
I1
sS'animals'
p705
I8
sS'primate'
p706
I1
sS'science'
p707
I1
sS'athlete'
p708
I1
sS'work'
p709
I1
sS'foods'
p710
I3
sS'sweeter'
p711
I1
sS'entertainer'
p712
I1
sS'seagull'
p713
I1
sS'example'
p714
I1
sS'nino'
p715
I1
sS'chip'
p716
I1
sS'currency'
p717
I1
sS'stroke'
p718
I1
sS'best-seller'
p719
I1
sS'airplane'
p720
I2
sS'species'
p721
I3
sS'damage'
p722
I1
sS'chemical'
p723
I1
sS'animal'
p724
I17
sS'creature'
p725
I4
sS'gaming'
p726
I1
sS'plant'
p727
I4
sS'cocktail'
p728
I2
sS'singular'
p729
I1
sS'may'
p730
I2
sS'clone'
p731
I1
sS'rites'
p732
I1
sS'conjugations'
p733
I1
sS'philatelist'
p734
I1
sS'softball'
p735
I1
sS'types'
p736
I3
sS'man'
p737
I2
sS'noun'
p738
I1
sS'liquid'
p739
I1
sS'liner'
p740
I1
sS'element'
p741
I2
sS'tale'
p742
I1
sS'bakery'
p743
I1
sS'alloy'
p744
I1
sS'wine'
p745
I1
sS'producer'
p746
I1
sS'move'
p747
I1
sS'mission'
p748
I1
sS'meter'
p749
I2
sS'trade'
p750
I1
sS'sperm'
p751
I2
sS'course'
p752
I1
sS'paper'
p753
I1
sS'oven'
p754
I1
sS'signs'
p755
I1
sS'magoo'
p756
I1
sS'birds'
p757
I2
sS'golfing'
p758
I1
sS'forms'
p759
I1
sS'holiday'
p760
I1
sS'diseases'
p761
I1
sS'food'
p762
I8
sS'auto'
p763
I1
sS'killer'
p764
I1
sS'amendements'
p765
I1
sS'therapy'
p766
I1
sS'snake'
p767
I1
sS'compound'
p768
I1
sS'satellites'
p769
I1
sS'clouds'
p770
I1
sS'day'
p771
I1
sS'articles'
p772
I1
sS'term'
p773
I18
sS'name'
p774
I75
sS'opera'
p775
I2
sS'january'
p776
I1
sS'policeman'
p777
I1
sS'drake'
p778
I1
sS'events'
p779
I3
sS'habits'
p780
I1
sS'predators'
p781
I1
sS'side'
p782
I1
sS'bone'
p783
I1
sS'wheel'
p784
I1
sS'ailment'
p785
I1
sS'generation'
p786
I1
sS'series'
p787
I1
sS'fish'
p788
I1
sS'spider'
p789
I1
sS'books'
p790
I1
sS'year'
p791
I1
sS'aids'
p792
I1
sS'ribavirin'
p793
I1
sS'marley'
p794
I1
sS'event'
p795
I2
sS'album'
p796
I1
sS'flower'
p797
I1
sS'god'
p798
I1
sS'vessels'
p799
I2
sS'strokes'
p800
I1
sS'race'
p801
I3
sS'medicine'
p802
I1
sS'formula'
p803
I3
sS'plural'
p804
I1
sS'achievements'
p805
I1
sS'maneuver'
p806
I1
sS'monster'
p807
I1
sS'delicacy'
p808
I1
sS'descendents'
p809
I1
sS'story'
p810
I1
sS'approaches'
p811
I1
sS'basketball'
p812
I1
sS'cookie'
p813
I1
sS'hand'
p814
I1
sS'card'
p815
I7
sS'soundtrack'
p816
I1
sS'language'
p817
I10
sS'garment'
p818
I1
sS'counterpart'
p819
I2
sS'thing'
p820
I3
sS'soda'
p821
I1
sS'stewart'
p822
I1
sS'vowel'
p823
I2
sS'feet'
p824
I1
sS'owner'
p825
I1
sS'overalls'
p826
I1
sS'millions'
p827
I1
sS'paine'
p828
I1
sS'razor'
p829
I1
sS'horse'
p830
I2
sS'toy'
p831
I1
sS'automobile'
p832
I1
sS'system'
p833
I2
sS'syrup'
p834
I1
sS'genesis'
p835
I1
sS'stars'
p836
I1
sS'chemicals'
p837
I3
sS'part'
p838
I4
sS'cereal'
p839
I4
sS'translation'
p840
I1
sS'flowers'
p841
I1
sS'symptom'
p842
I1
sS'milton'
p843
I1
sS'kind'
p844
I3
sS'domestica'
p845
I1
sS'johnson'
p846
I1
sS'shampoo'
p847
I1
sS'dogs'
p848
I1
sS'invention'
p849
I1
sS'cards'
p850
I2
sS'outcome'
p851
I1
sS'sculpture'
p852
I2
sS'bridge'
p853
I1
sS'fowl'
p854
I1
sS'deodorant'
p855
I1
sS'ages'
p856
I1
sS'mine'
p857
I1
sS'pedometer'
p858
I1
sS'tastes'
p859
I1
sS'shrubs'
p860
I1
sS'spectacle'
p861
I1
sS'allen'
p862
I1
sS'handicraft'
p863
I1
sS'harper'
p864
I1
sS'chiropodist'
p865
I1
sS'soap'
p866
I2
sS'play'
p867
I4
sS'thrilled'
p868
I1
sS'object'
p869
I1
sS'cigarette'
p870
I2
sS'regular'
p871
I1
sS'letter'
p872
I5
sS'exercises'
p873
I1
sS'coin'
p874
I1
sS'class'
p875
I2
sS'synonym'
p876
I1
sS'cover'
p877
I1
sS'dog'
p878
I2
sS'scotch'
p879
I1
sS'dot'
p880
I1
sS'charley'
p881
I1
sS'golf'
p882
I1
sS'phenomenon'
p883
I2
sS'show'
p884
I1
sS'queen'
p885
I2
sS'recipe'
p886
I1
sS'colors'
p887
I7
sS'fear'
p888
I62
sS'albums'
p889
I1
sS'livestock'
p890
I1
sS'resource'
p891
I1
sS'ruin'
p892
I1
sS'winner'
p893
I1
sS'penalty'
p894
I1
sS'molecules'
p895
I1
sS'fuel'
p896
I2
sS'circle'
p897
I1
sS'hit'
p898
I1
sS'commodity'
p899
I1
sS'bear'
p900
I1
sS'words'
p901
I4
sS'tips'
p902
I1
sS'bar'
p903
I1
sS'organ'
p904
I1
sS'encounters'
p905
I1
sS'saliva'
p906
I1
sS'method'
p907
I2
sS'penguins'
p908
I1
sS'roger'
p909
I1
sS'abolitionists'
p910
I1
sS'disaster'
p911
I1
sS'tree'
p912
I1
sS'farrier'
p913
I1
sS'ancients'
p914
I1
sS'humans'
p915
I1
sS'sex'
p916
I2
sS'cologne'
p917
I1
sS'computer'
p918
I2
sS'seal'
p919
I1
sS'explosive'
p920
I1
sS'sport'
p921
I17
sS'ways'
p922
I6
sS'movie'
p923
I17
sS'review'
p924
I1
sS'stories'
p925
I1
sS'gemstone'
p926
I1
sS'latin'
p927
I1
sS'tristan'
p928
I1
sS'ability'
p929
I1
sS't.v.'
p930
I1
sS'first-aid'
p931
I1
sS'piece'
p932
I2
sS'drug'
p933
I4
sS'connection'
p934
I1
sS'games'
p935
I2
sS'berry'
p936
I1
sS'faces'
p937
I1
sS'witch'
p938
I1
sS'heliologist'
p939
I1
sS'statues'
p940
I1
sS'cancer'
p941
I2
sS'color'
p942
I28
sS'period'
p943
I1
sS'cult'
p944
I1
sS'pole'
p945
I1
sS'vessel'
p946
I1
sS'belt'
p947
I1
sS'conference'
p948
I1
sS'hawkins'
p949
I1
sS'instrument'
p950
I5
sS'trilogy'
p951
I1
sS'trademark'
p952
I2
sS'mark'
p953
I1
sS'submarine'
p954
I1
sS'beer'
p955
I4
sS'treat'
p956
I1
sS'board'
p957
I2
sS'flight'
p958
I1
sS'ridder'
p959
I1
sS'locations'
p960
I1
sS'tiger'
p961
I1
sS'bible'
p962
I1
sS'expedition'
p963
I1
sS'ravens'
p964
I1
sS'jell-o'
p965
I1
sS'sound'
p966
I1
sS'novel'
p967
I22
sS'value'
p968
I1
sS'droppings'
p969
I1
sS'newspaper'
p970
I4
sS'procedure'
p971
I1
sS'layer'
p972
I1
sS'calculator'
p973
I1
sS'player'
p974
I1
sS'alphabet'
p975
I1
sS'bowl'
p976
I1
sS'member'
p977
I1
sS'esquire'
p978
I1
sS'vegetable'
p979
I2
sS'document'
p980
I1
sS'composition'
p981
I1
sS'week'
p982
I1
sS'ball'
p983
I2
sS'drink'
p984
I17
sS'huston'
p985
I1
sS'holidays'
p986
I1
sS'fruit'
p987
I1
sS'statue'
p988
I1
sS'whale'
p989
I2
sS'nickname'
p990
I1
sS'tune'
p991
I1
sS'kid'
p992
I1
sS'smokey'
p993
I1
sS'peacocks'
p994
I1
sS'weapon'
p995
I4
sS'variety'
p996
I1
sS'game'
p997
I7
sS'ocean'
p998
I1
sS'materials'
p999
I1
sS'components'
p1000
I1
sS'model'
p1001
I1
sS'musical'
p1002
I2
sS'deltiologist'
p1003
I1
sS'plagues'
p1004
I1
sS'traditions'
p1005
I1
sS'money'
p1006
I3
sS'racehorse'
p1007
I1
sS'basophobic'
p1008
I1
sS'product'
p1009
I8
sS'shape'
p1010
I2
sS'flavor'
p1011
I1
sS'ads'
p1012
I1
sS'alternate'
p1013
I1
sS'source'
p1014
I1
sS'treatment'
p1015
I1
sS'crack'
p1016
I1
sS'visine'
p1017
I1
sS'earthquakes'
p1018
I1
sS'metalious'
p1019
I1
sS'tenses'
p1020
I1
sS'format'
p1021
I2
sS'sailors'
p1022
I1
sS'bands'
p1023
I1
sS'bid'
p1024
I1
sS'suffering'
p1025
I1
sS'gama'
p1026
I1
sS'world'
p1027
I1
sS'knox'
p1028
I1
sS'boob'
p1029
I1
sS'meat'
p1030
I1
sS'kennedy'
p1031
I1
sS'eidologist'
p1032
I1
sS'clay'
p1033
I1
sS'wonders'
p1034
I2
sS'pyramid-builders'
p1035
I1
sS'jews'
p1036
I1
sS'people'
p1037
I1
sS'hair'
p1038
I3
sS'export'
p1039
I1
sS'brontosauruses'
p1040
I1
sS'hurricane'
p1041
I1
sS'ice'
p1042
I1
sS'religion'
p1043
I2
sS'shakespeare'
p1044
I1
sS'epic'
p1045
I1
sS'measures'
p1046
I1
sS'rum'
p1047
I1
sS'equivalent'
p1048
I1
sS'slaughter'
p1049
I1
sS'vaccine'
p1050
I1
sS'trophy'
p1051
I2
sS'maclaine'
p1052
I1
sS'resurrectionist'
p1053
I1
sS'concerts'
p1054
I1
sS'magazine'
p1055
I7
sS'camels'
p1056
I1
sS'cartier'
p1057
I1
sS'emperor'
p1058
I1
sS'software'
p1059
I1
sS'letters'
p1060
I1
sS'washington'
p1061
I1
sS'device'
p1062
I2
sS'brush'
p1063
I1
sS'strip'
p1064
I3
sS'methods'
p1065
I1
sS'vegetables'
p1066
I1
sS'tennis'
p1067
I1
sS'cats'
p1068
I2
sS'bros.'
p1069
I1
sS'way'
p1070
I9
sS'suit'
p1071
I1
sS'war'
p1072
I12
sS'warlock'
p1073
I1
sS'medium'
p1074
I3
sS'form'
p1075
I2
sS'brand'
p1076
I1
sS'sequel'
p1077
I3
sS'oil'
p1078
I1
sS'principles'
p1079
I1
sS'observances'
p1080
I1
sS'line'
p1081
I1
sS'ear'
p1082
I1
sS'spice'
p1083
I1
sS'manatees'
p1084
I1
sS'limit'
p1085
I1
sS'stages'
p1086
I1
sS'condiment'
p1087
I2
sS'palate'
p1088
I1
sS'classic'
p1089
I1
sS'taste'
p1090
I1
sS'strips'
p1091
I1
sS'disease'
p1092
I11
sS'gland'
p1093
I1
sS'majal'
p1094
I1
sS'ship'
p1095
I3
sS'film'
p1096
I23
sS'ingredients'
p1097
I1
sS'trials'
p1098
I2
sS'actor'
p1099
I1
sS'snakes'
p1100
I1
sS'field'
p1101
I1
sS'book'
p1102
I21
sS'jong'
p1103
I1
sS'mayonnaise'
p1104
I1
sS'elements'
p1105
I4
sS'kinds'
p1106
I1
sS'brothers'
p1107
I1
sS'congress'
p1108
I1
sS'symbol'
p1109
I3
sS'lens'
p1110
I1
sS'structure'
p1111
I1
sS'age'
p1112
I1
sS'vehicles'
p1113
I1
sS'flatfish'
p1114
I1
sS'feud'
p1115
I1
sS'fastener'
p1116
I1
sS'craft'
p1117
I1
sS'menace'
p1118
I1
sS'songs'
p1119
I2
stp1120
Rp1121
(dp1122
g26
I1250
sg59
Nsg60
Nsg61
Nsbsg62
I1487
sg63
F1993.5
sbs(g14
g64
tp1123
g0
(g21
g2
Ntp1124
Rp1125
(dp1126
g25
F0.5
sg26
I75
sg27
g0
(g28
g29
(dp1127
g70
I58
sS'expectancy'
p1128
I3
sS'span'
p1129
I1
sS'office'
p1130
I1
sS'time'
p1131
I4
sS'age'
p1132
I7
sS'period'
p1133
I1
stp1134
Rp1135
(dp1136
g26
I75
sg59
Nsg60
Nsg61
Nsbsg62
I1487
sg63
F818.5
sbs(g9
g19
tp1137
g0
(g21
g2
Ntp1138
Rp1139
(dp1140
g25
F0.5
sg26
I1034
sg27
g0
(g28
g29
(dp1141
S'whose'
p1142
I14
sS'what'
p1143
I396
sS'name'
p1144
I35
sS'saddam'
p1145
I1
sS'who'
p1146
I542
sS'when'
p1147
I3
sS'rotary'
p1148
I1
sS'whom'
p1149
I3
sS'silly'
p1150
I1
sS'which'
p1151
I30
sS'in'
p1152
I3
sS'cnn'
p1153
I1
sS'president'
p1154
I1
sS'the'
p1155
I2
sS'with'
p1156
I1
stp1157
Rp1158
(dp1159
g26
I1034
sg59
Nsg60
Nsg61
Nsbsg62
I48
sg63
F1058.0
sbs(g9
g64
tp1160
g0
(g21
g2
Ntp1161
Rp1162
(dp1163
g25
F0.5
sg26
I1034
sg27
g0
(g28
g29
(dp1164
g70
I111
sS'detective'
p1165
I1
sS'coach'
p1166
I3
sS'founder'
p1167
I1
sS'ali'
p1168
I1
sS'feminist'
p1169
I1
sS'queen'
p1170
I3
sS'people'
p1171
I3
sS'hamlet'
p1172
I1
sS'themes'
p1173
I1
sS'manager'
p1174
I2
sS'radio'
p1175
I1
sS'finn'
p1176
I1
sS'battle'
p1177
I1
sS'nephew'
p1178
I1
sS'chair'
p1179
I1
sS'captain'
p1180
I1
sS'children'
p1181
I1
sS'occupation'
p1182
I5
sS'baseball'
p1183
I8
sS'chain'
p1184
I1
sS'title'
p1185
I4
sS'electricity'
p1186
I1
sS'jolson'
p1187
I1
sS'father'
p1188
I7
sS'viagra'
p1189
I1
sS'hockey'
p1190
I1
sS'crooner'
p1191
I1
sS'pride'
p1192
I1
sS'pickering'
p1193
I2
sS'bestselling'
p1194
I1
sS'lady'
p1195
I1
sS'count'
p1196
I1
sS'stonehenge'
p1197
I1
sS'woman'
p1198
I10
sS'hit'
p1199
I1
sS'song'
p1200
I2
sS'renaud'
p1201
I1
sS'sons'
p1202
I1
sS'diary'
p1203
I1
sS'tammy'
p1204
I1
sS'gogh'
p1205
I1
sS'surgeon'
p1206
I1
sS'tutu'
p1207
I2
sS'abby'
p1208
I1
sS'chapel'
p1209
I1
sS'prize'
p1210
I1
sS'airman'
p1211
I1
sS'artist'
p1212
I2
sS'positions'
p1213
I1
sS'celebrity'
p1214
I1
sS'macdowell'
p1215
I1
sS'brother'
p1216
I2
sS'grandfather'
p1217
I1
sS'team'
p1218
I3
sS'guy'
p1219
I1
sS'astronaut'
p1220
I3
sS'athlete'
p1221
I1
sS'husband'
p1222
I1
sS'secretary'
p1223
I2
sS'kemper'
p1224
I1
sS'advocate'
p1225
I1
sS'malick'
p1226
I1
sS'force'
p1227
I1
sS'leaders'
p1228
I1
sS'cohan'
p1229
I1
sS'creator'
p1230
I2
sS'maggio'
p1231
I1
sS'horsemen'
p1232
I1
sS'wrestling'
p1233
I1
sS'nun'
p1234
I1
sS'lion'
p1235
I1
sS'video'
p1236
I2
sS'lawyer'
p1237
I8
sS'nba'
p1238
I1
sS'monster'
p1239
I1
sS'golfer'
p1240
I3
sS'power'
p1241
I2
sS'laureate'
p1242
I1
sS'debate'
p1243
I1
sS'election'
p1244
I1
sS'genius'
p1245
I1
sS'fans'
p1246
I1
sS'finger'
p1247
I1
sS'new'
p1248
I1
sS'badge'
p1249
I1
sS'admiral'
p1250
I1
sS'advertizing'
p1251
I1
sS'hero'
p1252
I1
sS'astroturf'
p1253
I1
sS'faith'
p1254
I1
sS'funeral'
p1255
I1
sS'theresa'
p1256
I1
sS'boss'
p1257
I1
sS'guitar'
p1258
I1
sS'ranger'
p1259
I2
sS'job'
p1260
I3
sS'dubliners'
p1261
I1
sS'witch'
p1262
I1
sS'pub'
p1263
I1
sS'opposition'
p1264
I1
sS'jockey'
p1265
I2
sS'benson'
p1266
I1
sS'jfk'
p1267
I1
sS'toothbrush'
p1268
I1
sS'goodall'
p1269
I1
sS'daughter'
p1270
I2
sS'survivor'
p1271
I1
sS'career'
p1272
I1
sS'jinnah'
p1273
I1
sS'cup'
p1274
I1
sS'monk'
p1275
I1
sS'rams'
p1276
I1
sS'gymnast'
p1277
I1
sS'games'
p1278
I1
sS'mentor'
p1279
I2
sS'rose'
p1280
I1
sS'napolean'
p1281
I1
sS'patents'
p1282
I1
sS'andrews'
p1283
I1
sS'holmes'
p1284
I1
sS'writer'
p1285
I5
sS'members'
p1286
I1
sS'maclaine'
p1287
I1
sS'potlatch'
p1288
I1
sS'battery'
p1289
I1
sS'presidents'
p1290
I2
sS'lyricist'
p1291
I1
sS'colony'
p1292
I1
sS'mccain'
p1293
I1
sS'pyramid'
p1294
I1
sS'husbands'
p1295
I1
sS'names'
p1296
I11
sS'composer'
p1297
I3
sS'church'
p1298
I1
sS'table'
p1299
I1
sS'singing'
p1300
I3
sS'bra'
p1301
I1
sS'lime'
p1302
I1
sS'turkey'
p1303
I1
sS'poem'
p1304
I1
sS'dna'
p1305
I1
sS'nominee'
p1306
I1
sS'swimmer'
p1307
I1
sS'thor'
p1308
I1
sS'newscast'
p1309
I1
sS'resident'
p1310
I1
sS'wonderbra'
p1311
I1
sS'music'
p1312
I1
sS'mutiny'
p1313
I1
sS'tv'
p1314
I8
sS'butler'
p1315
I1
sS'nicolet'
p1316
I1
sS'angels'
p1317
I1
sS'naples'
p1318
I1
sS'teenager'
p1319
I1
sS'engine'
p1320
I1
sS'life'
p1321
I2
sS'deodorant'
p1322
I1
sS'fellow'
p1323
I1
sS'champion'
p1324
I1
sS'cobain'
p1325
I1
sS'cop'
p1326
I1
sS'tootsie'
p1327
I1
sS'company'
p1328
I1
sS'citizen'
p1329
I3
sS'award'
p1330
I2
sS'buxom'
p1331
I1
sS'bible'
p1332
I1
sS'stethoscope'
p1333
I1
sS'minister'
p1334
I7
sS'child'
p1335
I2
sS'baby'
p1336
I1
sS'antichrist'
p1337
I1
sS'general'
p1338
I8
sS'iii'
p1339
I1
sS'painter'
p1340
I4
sS'women'
p1341
I1
sS'physician'
p1342
I1
sS'hughes'
p1343
I1
sS'bernstein'
p1344
I1
sS'word'
p1345
I1
sS'room'
p1346
I1
sS'rights'
p1347
I1
sS'barroom'
p1348
I1
sS'confucius'
p1349
I1
sS'bill'
p1350
I1
sS'worm'
p1351
I1
sS'governor'
p1352
I3
sS'stalin'
p1353
I1
sS'morgan'
p1354
I1
sS'thrillers'
p1355
I1
sS'santos-dumont'
p1356
I1
sS'nino'
p1357
I1
sS'cone'
p1358
I1
sS'spy'
p1359
I2
sS'inventor'
p1360
I2
sS'performer'
p1361
I1
sS'figure'
p1362
I1
sS'hyatt'
p1363
I1
sS'process'
p1364
I1
sS'speech'
p1365
I1
sS'frickett'
p1366
I1
sS'commander'
p1367
I1
sS'player'
p1368
I1
sS'villain'
p1369
I2
sS'numbers'
p1370
I1
sS'partner'
p1371
I1
sS'voice'
p1372
I1
sS'freleng'
p1373
I1
sS'autobiography'
p1374
I3
sS'terrorist'
p1375
I1
sS'doctor'
p1376
I3
sS'wordsworth'
p1377
I1
sS'liston'
p1378
I1
sS'machine'
p1379
I1
sS'picts'
p1380
I1
sS'writers'
p1381
I1
sS'cardinal'
p1382
I1
sS'skater'
p1383
I1
sS'monarch'
p1384
I2
sS'nnp'
p1385
I1
sS'powell'
p1386
I1
sS'daughters'
p1387
I1
sS'inventors'
p1388
I1
sS'cyberspace'
p1389
I1
sS'designer'
p1390
I2
sS'cupboard'
p1391
I1
sS'explorer'
p1392
I2
sS'information'
p1393
I1
sS'appearances'
p1394
I1
sS'soldier'
p1395
I1
sS'youngsters'
p1396
I1
sS'collection'
p1397
I1
sS'shores'
p1398
I1
sS'director'
p1399
I5
sS'characters'
p1400
I1
sS'senator'
p1401
I2
sS'president'
p1402
I49
sS'lap'
p1403
I1
sS'cartoon'
p1404
I2
sS'identity'
p1405
I3
sS'man'
p1406
I6
sS'rommel'
p1407
I1
sS'muppets'
p1408
I2
sS'surfboard'
p1409
I1
sS'vice-president'
p1410
I3
sS'author'
p1411
I8
sS'volleyball'
p1412
I1
sS'antonio'
p1413
I1
sS'person'
p1414
I9
sS'nebbish'
p1415
I1
sS'mother'
p1416
I4
sS'genie'
p1417
I1
sS'lindbergh'
p1418
I1
sS'order'
p1419
I1
sS'ambassador'
p1420
I1
sS'no.'
p1421
I1
sS'guitarist'
p1422
I1
sS'monet'
p1423
I1
sS'khrushchev'
p1424
I1
sS'actress'
p1425
I13
sS'dose'
p1426
I1
sS'palpatine'
p1427
I1
sS'batteries'
p1428
I1
sS'tennis'
p1429
I1
sS'costume'
p1430
I1
sS'harrison'
p1431
I1
sS'world'
p1432
I1
sS'oswald'
p1433
I2
sS'mayor'
p1434
I4
sS'bunch'
p1435
I1
sS'member'
p1436
I4
sS'self-portrait'
p1437
I1
sS'superstar'
p1438
I1
sS'shortstop'
p1439
I1
sS'ticker'
p1440
I1
sS'character'
p1441
I13
sS'pines'
p1442
I1
sS'winners'
p1443
I1
sS'dwarfs'
p1444
I1
sS'personas'
p1445
I1
sS'founders'
p1446
I1
sS'speaker'
p1447
I1
sS'cinzano'
p1448
I1
sS'norway'
p1449
I1
sS'gestapo'
p1450
I1
sS'fool'
p1451
I1
sS'couple'
p1452
I1
sS'credit'
p1453
I1
sS'hunter'
p1454
I2
sS'comedienne'
p1455
I2
sS'game'
p1456
I2
sS'boxer'
p1457
I2
sS'thucydides'
p1458
I1
sS'press'
p1459
I1
sS'picasso'
p1460
I1
sS'brothers'
p1461
I2
sS'cage'
p1462
I1
sS'day'
p1463
I1
sS'd.a.'
p1464
I1
sS'mystery'
p1465
I1
sS'martyrs'
p1466
I1
sS'attorneys'
p1467
I1
sS'name'
p1468
I69
sS'kennedy'
p1469
I1
sS'mathematician'
p1470
I1
sS'pillar'
p1471
I1
sS'commanders'
p1472
I1
sS'clown'
p1473
I1
sS'officer'
p1474
I1
sS'lawnmower'
p1475
I1
sS'paganini'
p1476
I1
sS'pseudonym'
p1477
I2
sS'normans'
p1478
I1
sS'x-man'
p1479
I1
sS'fatman'
p1480
I1
sS'www'
p1481
I1
sS'commune'
p1482
I1
sS'series'
p1483
I1
sS'kane'
p1484
I1
sS'hawaii'
p1485
I1
sS'oscars'
p1486
I2
sS'scrabble'
p1487
I1
sS'archenemy'
p1488
I1
sS'biographer'
p1489
I1
sS'laboratory'
p1490
I1
sS'girl'
p1491
I1
sS'salesman'
p1492
I1
sS'message'
p1493
I1
sS'witness'
p1494
I1
sS'bacall'
p1495
I1
sS'arch-enemy'
p1496
I1
sS'actor'
p1497
I13
sS'god'
p1498
I2
sS'quotation'
p1499
I1
sS'horoscope'
p1500
I1
sS'opener'
p1501
I1
sS'fountain'
p1502
I1
sS'boat'
p1503
I1
sS'cnn'
p1504
I1
sS'yankee'
p1505
I1
sS'leader'
p1506
I14
sS'gandhi'
p1507
I1
sS'foundation'
p1508
I1
sS'theory'
p1509
I1
sS'barrier'
p1510
I1
sS'dracula'
p1511
I1
sS'bowling'
p1512
I1
sS'weir'
p1513
I1
sS'hulk'
p1514
I1
sS'darius'
p1515
I1
sS'host'
p1516
I1
sS'putty'
p1517
I1
sS'plea'
p1518
I1
sS'judson'
p1519
I1
sS'lyrics'
p1520
I1
sS'explorers'
p1521
I1
sS'vaccine'
p1522
I1
sS'revolutionary'
p1523
I1
sS'pike'
p1524
I1
sS'sister'
p1525
I2
sS'journalist'
p1526
I1
sS'hamed'
p1527
I1
sS'son-in-law'
p1528
I2
sS'cowboy'
p1529
I2
sS'prophet'
p1530
I5
sS'florida'
p1531
I1
sS'david'
p1532
I1
sS'strange'
p1533
I1
sS'american'
p1534
I2
sS'coronado'
p1535
I1
sS'editor'
p1536
I3
sS'gordon'
p1537
I1
sS'congressman'
p1538
I1
sS'emperor'
p1539
I1
sS'book'
p1540
I1
sS'nixon'
p1541
I1
sS'marlowe'
p1542
I1
sS'playwright'
p1543
I1
sS'superbowl'
p1544
I1
sS'fischer'
p1545
I1
sS'damocles'
p1546
I1
sS'image'
p1547
I1
sS'profession'
p1548
I4
sS'primary'
p1549
I1
sS'auh2o'
p1550
I1
sS'son'
p1551
I3
sS'feet'
p1552
I1
sS'rosanna-dana'
p1553
I1
sS'sailor'
p1554
I1
sS'weather'
p1555
I1
sS'ybarra'
p1556
I1
sS'owner'
p1557
I1
sS'comic'
p1558
I1
sS'engineer'
p1559
I2
sS'corporal'
p1560
I1
sS'grange'
p1561
I1
sS'story'
p1562
I2
sS'basketball'
p1563
I3
sS'lacan'
p1564
I1
sS'eriksen'
p1565
I1
sS'fields'
p1566
I1
sS'nickname'
p1567
I7
sS'sculptress'
p1568
I1
sS'night'
p1569
I3
sS'question'
p1570
I1
sS'vocalist'
p1571
I1
sS'carson'
p1572
I1
sS'synthesizer'
p1573
I1
sS'master'
p1574
I1
sS'sergeant'
p1575
I1
sS'way'
p1576
I2
sS'jaws'
p1577
I1
sS'dictator'
p1578
I3
sS'kid'
p1579
I2
sS'war'
p1580
I2
sS'friend'
p1581
I1
sS'beard'
p1582
I1
sS'jones'
p1583
I1
sS'eyes'
p1584
I1
sS'labianca'
p1585
I1
sS'hawking'
p1586
I1
sS'airwaves'
p1587
I1
sS'prewett'
p1588
I1
sS'circumnavigator'
p1589
I1
sS'make-up'
p1590
I1
sS'pitcher'
p1591
I1
sS'task'
p1592
I1
sS'poet'
p1593
I6
sS'part'
p1594
I3
sS'jordan'
p1595
I1
sS'tools'
p1596
I1
sS'mules'
p1597
I1
sS'boyfriend'
p1598
I1
sS'charcter'
p1599
I1
sS'king'
p1600
I12
sS'television'
p1601
I1
sS'ben'
p1602
I1
sS'dog'
p1603
I1
sS'players'
p1604
I1
sS'us'
p1605
I1
sS'record'
p1606
I2
sS'listeners'
p1607
I1
sS'architect'
p1608
I2
sS'williams'
p1609
I2
sS'vatican'
p1610
I2
sS'stardust'
p1611
I1
sS'prankster'
p1612
I1
sS'bridge'
p1613
I1
sS'surname'
p1614
I1
sS'moore'
p1615
I1
sS'clip'
p1616
I1
sS'look'
p1617
I1
sS'astaire'
p1618
I1
sS'premier'
p1619
I1
sS'unsafe'
p1620
I1
sS'head'
p1621
I2
sS'voices'
p1622
I1
sS'talking'
p1623
I1
sS'garfield'
p1624
I1
sS'comedian'
p1625
I9
sS'novelist'
p1626
I2
sS'quetzalcoatl'
p1627
I1
sS'realm'
p1628
I1
sS'cherokee'
p1629
I1
sS'collector'
p1630
I1
sS'steamboat'
p1631
I1
sS'parks'
p1632
I1
sS'bremer'
p1633
I1
sS'caesar'
p1634
I2
sS'role'
p1635
I6
sS'chairman'
p1636
I2
sS'forces'
p1637
I1
sS'president-to-be'
p1638
I1
sS'department'
p1639
I1
sS'panties'
p1640
I1
sS'medals'
p1641
I1
sS'dumpty'
p1642
I2
sS'conservationist'
p1643
I1
sS'star'
p1644
I4
sS'godfather'
p1645
I1
sS'death'
p1646
I1
sS'phonograph'
p1647
I1
sS'pendulum'
p1648
I1
sS'swampy'
p1649
I1
sS'reign'
p1650
I1
sS'letter'
p1651
I1
sS'nothing'
p1652
I1
sS'pope'
p1653
I2
sS'model'
p1654
I1
sS'ishmael'
p1655
I1
sS'brandt'
p1656
I1
sS'ghost'
p1657
I1
sS'dummy'
p1658
I1
sS'singer'
p1659
I5
sS'studio'
p1660
I1
sS'rogers'
p1661
I1
sS'wife'
p1662
I2
sS'duckling'
p1663
I1
sS'cover'
p1664
I1
sS'rockefeller'
p1665
I1
sS'ottawa'
p1666
I1
sS'almanac'
p1667
I1
sS'enterprise'
p1668
I1
sS'scoundrel'
p1669
I1
stp1670
Rp1671
(dp1672
g26
I1034
sg59
Nsg60
Nsg61
Nsbsg62
I1487
sg63
F1777.5
sbs(g16
g19
tp1673
g0
(g21
g2
Ntp1674
Rp1675
(dp1676
g25
F0.5
sg26
I27
sg27
g0
(g28
g29
(dp1677
S'of'
p1678
I1
sS'what'
p1679
I25
sS'independent'
p1680
I1
stp1681
Rp1682
(dp1683
g26
I27
sg59
Nsg60
Nsg61
Nsbsg62
I48
sg63
F51.0
sbs(g10
g19
tp1684
g0
(g21
g2
Ntp1685
Rp1686
(dp1687
g25
F0.5
sg26
I835
sg27
g0
(g28
g29
(dp1688
S'on'
p1689
I5
sS'what'
p1690
I523
sS'jackson'
p1691
I2
sS'name'
p1692
I7
sS'kosovo'
p1693
I1
sS'when'
p1694
I1
sS'mississippi'
p1695
I1
sS'which'
p1696
I16
sS'in'
p1697
I18
sS'mccarren'
p1698
I1
sS'the'
p1699
I4
sS'where'
p1700
I255
sS'tell'
p1701
I1
stp1702
Rp1703
(dp1704
g26
I835
sg59
Nsg60
Nsg61
Nsbsg62
I48
sg63
F859.0
sbs(g12
g64
tp1705
g0
(g21
g2
Ntp1706
Rp1707
(dp1708
g25
F0.5
sg26
I218
sg27
g0
(g28
g29
(dp1709
g70
I14
sS'ambassador'
p1710
I1
sS'helens'
p1711
I1
sS'clark'
p1712
I1
sS'show'
p1713
I1
sS'wall'
p1714
I1
sS'revolutionaries'
p1715
I1
sS'charles'
p1716
I1
sS'period'
p1717
I2
sS'month'
p1718
I3
sS'muhammad'
p1719
I1
sS'ussr'
p1720
I1
sS'americans'
p1721
I1
sS'hugo'
p1722
I1
sS'battle'
p1723
I2
sS'mill'
p1724
I1
sS'hitler'
p1725
I1
sS'transplant'
p1726
I1
sS'use'
p1727
I1
sS'group'
p1728
I1
sS'troops'
p1729
I1
sS'festival'
p1730
I1
sS'ruby'
p1731
I1
sS'attack'
p1732
I1
sS'labor'
p1733
I1
sS'window'
p1734
I1
sS'music'
p1735
I1
sS'teenager'
p1736
I1
sS'mutiny'
p1737
I1
sS'bill'
p1738
I1
sS'war'
p1739
I1
sS'engine'
p1740
I1
sS'israel'
p1741
I1
sS'woman'
p1742
I1
sS'fire'
p1743
I2
sS'dam'
p1744
I1
sS'company'
p1745
I1
sS'thatcher'
p1746
I1
sS'test'
p1747
I1
sS'slinky'
p1748
I1
sS'bible'
p1749
I1
sS'wedding'
p1750
I1
sS'railroad'
p1751
I1
sS'erected'
p1752
I1
sS'banner'
p1753
I1
sS'day'
p1754
I8
sS'bar-code'
p1755
I1
sS'nfl'
p1756
I1
sS'encyclopedia'
p1757
I1
sS'birthdate'
p1758
I1
sS'helen'
p1759
I2
sS'architecture'
p1760
I2
sS'man'
p1761
I1
sS'yemen'
p1762
I1
sS'amendment'
p1763
I1
sS'menstruation'
p1764
I1
sS'beethoven'
p1765
I2
sS'art'
p1766
I1
sS'osbourne'
p1767
I1
sS'century'
p1768
I3
sS'rousseau'
p1769
I1
sS'house'
p1770
I1
sS'fish'
p1771
I1
sS'humans'
p1772
I1
sS'spielberg'
p1773
I1
sS'mormons'
p1774
I1
sS'roosevelt'
p1775
I1
sS'year'
p1776
I45
sS'aeul'
p1777
I1
sS'depression'
p1778
I1
sS'toilet'
p1779
I1
sS'nostradamus'
p1780
I2
sS'christ'
p1781
I1
sS'amtrak'
p1782
I1
sS'barbie'
p1783
I1
sS'sun'
p1784
I1
sS'fraze'
p1785
I1
sS'concert'
p1786
I1
sS'www.questions.com'
p1787
I1
sS'flood'
p1788
I1
sS'millennium'
p1789
I1
sS'huxley'
p1790
I1
sS'season'
p1791
I4
sS'cnn'
p1792
I2
sS'gate'
p1793
I2
sS'ruth'
p1794
I1
sS'pastorius'
p1795
I1
sS'typewriter'
p1796
I1
sS'parthenon'
p1797
I1
sS'korea'
p1798
I1
sS'congress'
p1799
I1
sS'noriega'
p1800
I1
sS'journal'
p1801
I1
sS'eruption'
p1802
I1
sS'victoria'
p1803
I1
sS'control'
p1804
I1
sS'birthday'
p1805
I4
sS'awards'
p1806
I1
sS'date'
p1807
I13
sS'vesuvius'
p1808
I1
sS'weekend'
p1809
I1
sS'lindbergh'
p1810
I1
sS'camcorders'
p1811
I1
sS'broadcast'
p1812
I1
sS'dates'
p1813
I1
sS'accident'
p1814
I1
sS'pangaea'
p1815
I1
sS'i'
p1816
I1
sS'months'
p1817
I1
sS'florida'
p1818
I1
sS'rockefeller'
p1819
I1
sS'dow'
p1820
I1
sS'games'
p1821
I1
sS'advertising'
p1822
I1
sS'time'
p1823
I2
sS'shorn'
p1824
I1
sS'railway'
p1825
I1
sS'swimming'
p1826
I1
sS'microsoft'
p1827
I1
sS'nixon'
p1828
I3
stp1829
Rp1830
(dp1831
g26
I218
sg59
Nsg60
Nsg61
Nsbsg62
I1487
sg63
F961.5
sbs(g15
g19
tp1832
g0
(g21
g2
Ntp1833
Rp1834
(dp1835
g25
F0.5
sg26
I71
sg27
g0
(g28
g29
(dp1836
S'how'
p1837
I32
sS'what'
p1838
I37
sS'dialing'
p1839
I1
sS'by'
p1840
I1
stp1841
Rp1842
(dp1843
g26
I71
sg59
Nsg60
Nsg61
Nsbsg62
I48
sg63
F95.0
sbs(g13
g64
tp1844
g0
(g21
g2
Ntp1845
Rp1846
(dp1847
g25
F0.5
sg26
I189
sg27
g0
(g28
g29
(dp1848
g70
I21
sS'tribe'
p1849
I2
sS'colleges'
p1850
I1
sS'agency'
p1851
I1
sS'chain'
p1852
I1
sS'photoshop'
p1853
I1
sS'money'
p1854
I1
sS'seizure'
p1855
I1
sS'county'
p1856
I1
sS'businesses'
p1857
I1
sS'president'
p1858
I1
sS'super-teams'
p1859
I1
sS'toy'
p1860
I1
sS'group'
p1861
I9
sS'producer'
p1862
I3
sS'service'
p1863
I1
sS'army'
p1864
I1
sS'automobile'
p1865
I1
sS'trademark'
p1866
I1
sS'hockey'
p1867
I1
sS'piano'
p1868
I1
sS'store'
p1869
I3
sS'government'
p1870
I1
sS'company'
p1871
I23
sS'spumante'
p1872
I1
sS'railways'
p1873
I1
sS'chocolate'
p1874
I1
sS'band'
p1875
I1
sS'races'
p1876
I1
sS'schools'
p1877
I1
sS'line'
p1878
I1
sS'school'
p1879
I5
sS'name'
p1880
I10
sS'society'
p1881
I1
sS'car'
p1882
I1
sS'university'
p1883
I5
sS'companies'
p1884
I2
sS'record'
p1885
I2
sS'offices'
p1886
I1
sS'team'
p1887
I7
sS'radio'
p1888
I2
sS'nickname'
p1889
I1
sS'example'
p1890
I1
sS'pyramid'
p1891
I1
sS'force'
p1892
I1
sS'people'
p1893
I2
sS'culture'
p1894
I1
sS'college'
p1895
I10
sS'logo'
p1896
I1
sS'airplane'
p1897
I2
sS'enemies'
p1898
I1
sS'competitor'
p1899
I1
sS'network'
p1900
I1
sS'corporation'
p1901
I2
sS'manufacturers'
p1902
I1
sS'administration'
p1903
I1
sS'civilization'
p1904
I1
sS'bureau'
p1905
I1
sS'department'
p1906
I1
sS'party'
p1907
I3
sS'oil'
p1908
I1
sS'business'
p1909
I4
sS'court'
p1910
I1
sS'agencies'
p1911
I1
sS'isps'
p1912
I1
sS'cigarette'
p1913
I1
sS'baseball'
p1914
I2
sS'groups'
p1915
I1
sS'police'
p1916
I2
sS'motto'
p1917
I1
sS'bulls'
p1918
I1
sS'super'
p1919
I1
sS'card'
p1920
I1
sS'manufacturer'
p1921
I2
sS'league'
p1922
I3
sS'stereo'
p1923
I1
sS'challengers'
p1924
I1
sS'airline'
p1925
I1
sS'organization'
p1926
I7
sS'residents'
p1927
I1
stp1928
Rp1929
(dp1930
g26
I189
sg59
Nsg60
Nsg61
Nsbsg62
I1487
sg63
F932.5
sbs(g11
g19
tp1931
g0
(g21
g2
Ntp1932
Rp1933
(dp1934
g25
F0.5
sg26
I505
sg27
g0
(g28
g29
(dp1935
S'a'
p1936
I1
sS'on'
p1937
I1
sS'what'
p1938
I105
sS'about'
p1939
I2
sS'approximately'
p1940
I2
sS'how'
p1941
I390
sS'in'
p1942
I1
sS'the'
p1943
I1
sS'where'
p1944
I2
stp1945
Rp1946
(dp1947
g26
I505
sg59
Nsg60
Nsg61
Nsbsg62
I48
sg63
F529.0
sbs(g12
g19
tp1948
g0
(g21
g2
Ntp1949
Rp1950
(dp1951
g25
F0.5
sg26
I218
sg27
g0
(g28
g29
(dp1952
S'on'
p1953
I4
sS'what'
p1954
I63
sS'boxing'
p1955
I1
sS'when'
p1956
I124
sS'in'
p1957
I20
sS'cnn'
p1958
I2
sS'the'
p1959
I3
sS'hitler'
p1960
I1
stp1961
Rp1962
(dp1963
g26
I218
sg59
Nsg60
Nsg61
Nsbsg62
I48
sg63
F242.0
sbssS'_label_probdist'
p1964
g0
(g21
g2
Ntp1965
Rp1966
(dp1967
g25
F0.5
sg26
I4204
sg27
g0
(g28
g29
(dp1968
g15
I71
sg16
I27
sg11
I505
sg9
I1034
sg8
I1250
sg10
I835
sg14
I75
sg12
I218
sg13
I189
stp1969
Rp1970
(dp1971
g26
I4204
sg59
Nsg60
(lp1972
(g8
I1250
tp1973
a(g9
I1034
tp1974
a(g10
I835
tp1975
a(g11
I505
tp1976
a(g12
I218
tp1977
a(g13
I189
tp1978
a(g14
I75
tp1979
a(g15
I71
tp1980
a(g16
I27
tp1981
asg61
Nsbsg62
I9
sg63
F4208.5
sbsb.