ccopy_reg
_reconstructor
p0
(cnltk.classify.decisiontree
DecisionTreeClassifier
p1
c__builtin__
object
p2
Ntp3
Rp4
(dp5
S'_fname'
p6
S'head'
p7
sS'_label'
p8
S'OTHER'
p9
sS'_decisions'
p10
(dp11
S''
p12
g0
(g1
g2
Ntp13
Rp14
(dp15
g6
S'first'
p16
sg8
S'OTHER'
p17
sg10
(dp18
S'in'
p19
g0
(g1
g2
Ntp20
Rp21
(dp22
g6
Nsg8
S'LOCATION'
p23
sg10
NsS'_default'
p24
NsbsS'madonna'
p25
g0
(g1
g2
Ntp26
Rp27
(dp28
g6
Nsg8
S'OTHER'
p29
sg10
Nsg24
NsbsS'ray'
p30
g0
(g1
g2
Ntp31
Rp32
(dp33
g6
Nsg8
S'OTHER'
p34
sg10
Nsg24
NsbsS'whose'
p35
g0
(g1
g2
Ntp36
Rp37
(dp38
g6
Nsg8
S'PERSON'
p39
sg10
Nsg24
NsbsS'what'
p40
g0
(g1
g2
Ntp41
Rp42
(dp43
g6
Nsg8
S'OTHER'
p44
sg10
Nsg24
NsbsS'jackson'
p45
g0
(g1
g2
Ntp46
Rp47
(dp48
g6
Nsg8
S'LOCATION'
p49
sg10
Nsg24
NsbsS'how'
p50
g0
(g1
g2
Ntp51
Rp52
(dp53
g6
Nsg8
S'NUMBER'
p54
sg10
Nsg24
NsbsS'boxing'
p55
g0
(g1
g2
Ntp56
Rp57
(dp58
g6
Nsg8
S'DATE'
p59
sg10
Nsg24
NsbsS'when'
p60
g0
(g1
g2
Ntp61
Rp62
(dp63
g6
Nsg8
S'DATE'
p64
sg10
Nsg24
NsbsS'approximately'
p65
g0
(g1
g2
Ntp66
Rp67
(dp68
g6
Nsg8
S'NUMBER'
p69
sg10
Nsg24
NsbsS'dialing'
p70
g0
(g1
g2
Ntp71
Rp72
(dp73
g6
Nsg8
S'MONEY'
p74
sg10
Nsg24
NsbsS'to'
p75
g0
(g1
g2
Ntp76
Rp77
(dp78
g6
Nsg8
S'OTHER'
p79
sg10
Nsg24
NsbsS'garry'
p80
g0
(g1
g2
Ntp81
Rp82
(dp83
g6
Nsg8
S'OTHER'
p84
sg10
Nsg24
NsbsS'which'
p85
g0
(g1
g2
Ntp86
Rp87
(dp88
g6
Nsg8
S'PERSON'
p89
sg10
Nsg24
NsbsS'cnn'
p90
g0
(g1
g2
Ntp91
Rp92
(dp93
g6
Nsg8
S'PERSON'
p94
sg10
Nsg24
NsbsS'tell'
p95
g0
(g1
g2
Ntp96
Rp97
(dp98
g6
Nsg8
S'LOCATION'
p99
sg10
Nsg24
NsbsS'aspartame'
p100
g0
(g1
g2
Ntp101
Rp102
(dp103
g6
Nsg8
S'OTHER'
p104
sg10
Nsg24
NsbsS'musician'
p105
g0
(g1
g2
Ntp106
Rp107
(dp108
g6
Nsg8
S'OTHER'
p109
sg10
Nsg24
NsbsS'saddam'
p110
g0
(g1
g2
Ntp111
Rp112
(dp113
g6
Nsg8
S'PERSON'
p114
sg10
Nsg24
NsbsS'who'
p115
g0
(g1
g2
Ntp116
Rp117
(dp118
g6
Nsg8
S'PERSON'
p119
sg10
Nsg24
NsbsS'mississippi'
p120
g0
(g1
g2
Ntp121
Rp122
(dp123
g6
Nsg8
S'OTHER'
p124
sg10
Nsg24
NsbsS'president'
p125
g0
(g1
g2
Ntp126
Rp127
(dp128
g6
Nsg8
S'PERSON'
p129
sg10
Nsg24
NsbsS'with'
p130
g0
(g1
g2
Ntp131
Rp132
(dp133
g6
Nsg8
S'PERSON'
p134
sg10
Nsg24
NsbsS'by'
p135
g0
(g1
g2
Ntp136
Rp137
(dp138
g6
Nsg8
S'MONEY'
p139
sg10
Nsg24
NsbsS'a'
p140
g0
(g1
g2
Ntp141
Rp142
(dp143
g6
Nsg8
S'NUMBER'
p144
sg10
Nsg24
NsbsS'name'
p145
g0
(g1
g2
Ntp146
Rp147
(dp148
g6
Nsg8
S'PERSON'
p149
sg10
Nsg24
NsbsS'of'
p150
g0
(g1
g2
Ntp151
Rp152
(dp153
g6
Nsg8
S'PERCENT'
p154
sg10
Nsg24
NsbsS'rotary'
p155
g0
(g1
g2
Ntp156
Rp157
(dp158
g6
Nsg8
S'ORGANIZATION'
p159
sg10
Nsg24
NsbsS'jude'
p160
g0
(g1
g2
Ntp161
Rp162
(dp163
g6
Nsg8
S'OTHER'
p164
sg10
Nsg24
NsbsS'silly'
p165
g0
(g1
g2
Ntp166
Rp167
(dp168
g6
Nsg8
S'PERSON'
p169
sg10
Nsg24
NsbsS'stuart'
p170
g0
(g1
g2
Ntp171
Rp172
(dp173
g6
Nsg8
S'OTHER'
p174
sg10
Nsg24
NsbsS'mccarren'
p175
g0
(g1
g2
Ntp176
Rp177
(dp178
g6
Nsg8
S'LOCATION'
p179
sg10
Nsg24
NsbsS'the'
p180
g0
(g1
g2
Ntp181
Rp182
(dp183
g6
Nsg8
S'OTHER'
p184
sg10
Nsg24
NsbsS'where'
p185
g0
(g1
g2
Ntp186
Rp187
(dp188
g6
Nsg8
S'LOCATION'
p189
sg10
Nsg24
Nsbssg24
NsbsS'four'
p190
g0
(g1
g2
Ntp191
Rp192
(dp193
g6
Nsg8
S'OTHER'
p194
sg10
Nsg24
NsbsS'captain'
p195
g0
(g1
g2
Ntp196
Rp197
(dp198
g6
Nsg8
S'PERSON'
p199
sg10
Nsg24
NsbsS'votes'
p200
g0
(g1
g2
Ntp201
Rp202
(dp203
g6
Nsg8
S'NUMBER'
p204
sg10
Nsg24
NsbsS'electricity'
p205
g0
(g1
g2
Ntp206
Rp207
(dp208
g6
g16
sg8
S'NUMBER'
p209
sg10
(dp210
S'how'
p211
g0
(g1
g2
Ntp212
Rp213
(dp214
g6
Nsg8
g209
sg10
Nsg24
NsbsS'who'
p215
g0
(g1
g2
Ntp216
Rp217
(dp218
g6
Nsg8
S'PERSON'
p219
sg10
Nsg24
Nsbssg24
NsbsS'fingernails'
p220
g0
(g1
g2
Ntp221
Rp222
(dp223
g6
Nsg8
S'OTHER'
p224
sg10
Nsg24
NsbsS'teaspoon'
p225
g0
(g1
g2
Ntp226
Rp227
(dp228
g6
Nsg8
S'NUMBER'
p229
sg10
Nsg24
NsbsS'crooner'
p230
g0
(g1
g2
Ntp231
Rp232
(dp233
g6
Nsg8
S'PERSON'
p234
sg10
Nsg24
NsbsS'pride'
p235
g0
(g1
g2
Ntp236
Rp237
(dp238
g6
Nsg8
S'PERSON'
p239
sg10
Nsg24
NsbsS'worth'
p240
g0
(g1
g2
Ntp241
Rp242
(dp243
g6
Nsg8
S'MONEY'
p244
sg10
Nsg24
NsbsS'oceans'
p245
g0
(g1
g2
Ntp246
Rp247
(dp248
g6
g16
sg8
S'LOCATION'
p249
sg10
(dp250
S'how'
p251
g0
(g1
g2
Ntp252
Rp253
(dp254
g6
Nsg8
S'NUMBER'
p255
sg10
Nsg24
NsbsS'what'
p256
g0
(g1
g2
Ntp257
Rp258
(dp259
g6
Nsg8
S'LOCATION'
p260
sg10
Nsg24
Nsbssg24
NsbsS'railways'
p261
g0
(g1
g2
Ntp262
Rp263
(dp264
g6
Nsg8
S'ORGANIZATION'
p265
sg10
Nsg24
NsbsS'jeroboams'
p266
g0
(g1
g2
Ntp267
Rp268
(dp269
g6
Nsg8
S'OTHER'
p270
sg10
Nsg24
NsbsS'jack'
p271
g0
(g1
g2
Ntp272
Rp273
(dp274
g6
Nsg8
S'OTHER'
p275
sg10
Nsg24
NsbsS'chapel'
p276
g0
(g1
g2
Ntp277
Rp278
(dp279
g6
Nsg8
S'PERSON'
p280
sg10
Nsg24
NsbsS'school'
p281
g0
(g1
g2
Ntp282
Rp283
(dp284
g6
g16
sg8
S'ORGANIZATION'
p285
sg10
(dp286
S'how'
p287
g0
(g1
g2
Ntp288
Rp289
(dp290
g6
Nsg8
S'NUMBER'
p291
sg10
Nsg24
NsbsS'what'
p292
g0
(g1
g2
Ntp293
Rp294
(dp295
g6
Nsg8
S'ORGANIZATION'
p296
sg10
Nsg24
Nsbssg24
NsbsS'prize'
p297
g0
(g1
g2
Ntp298
Rp299
(dp300
g6
g16
sg8
S'OTHER'
p301
sg10
(dp302
S'what'
p303
g0
(g1
g2
Ntp304
Rp305
(dp306
g6
Nsg8
g301
sg10
Nsg24
NsbsS'who'
p307
g0
(g1
g2
Ntp308
Rp309
(dp310
g6
Nsg8
S'PERSON'
p311
sg10
Nsg24
Nsbssg24
NsbsS'crops'
p312
g0
(g1
g2
Ntp313
Rp314
(dp315
g6
Nsg8
S'OTHER'
p316
sg10
Nsg24
NsbsS'companies'
p317
g0
(g1
g2
Ntp318
Rp319
(dp320
g6
Nsg8
S'ORGANIZATION'
p321
sg10
Nsg24
NsbsS'casinos'
p322
g0
(g1
g2
Ntp323
Rp324
(dp325
g6
Nsg8
S'NUMBER'
p326
sg10
Nsg24
NsbsS'force'
p327
g0
(g1
g2
Ntp328
Rp329
(dp330
g6
Nsg8
S'PERSON'
p331
sg10
Nsg24
NsbsS'leaders'
p332
g0
(g1
g2
Ntp333
Rp334
(dp335
g6
Nsg8
S'PERSON'
p336
sg10
Nsg24
NsbsS'japanese'
p337
g0
(g1
g2
Ntp338
Rp339
(dp340
g6
Nsg8
S'OTHER'
p341
sg10
Nsg24
NsbsS'chef'
p342
g0
(g1
g2
Ntp343
Rp344
(dp345
g6
Nsg8
S'OTHER'
p346
sg10
Nsg24
NsbsS'street'
p347
g0
(g1
g2
Ntp348
Rp349
(dp350
g6
Nsg8
S'LOCATION'
p351
sg10
Nsg24
NsbsS'monster'
p352
g0
(g1
g2
Ntp353
Rp354
(dp355
g6
g16
sg8
S'PERSON'
p356
sg10
(dp357
S'what'
p358
g0
(g1
g2
Ntp359
Rp360
(dp361
g6
Nsg8
S'OTHER'
p362
sg10
Nsg24
NsbsS'who'
p363
g0
(g1
g2
Ntp364
Rp365
(dp366
g6
Nsg8
g356
sg10
Nsg24
Nsbssg24
NsbsS'christ'
p367
g0
(g1
g2
Ntp368
Rp369
(dp370
g6
Nsg8
S'DATE'
p371
sg10
Nsg24
NsbsS'fingers'
p372
g0
(g1
g2
Ntp373
Rp374
(dp375
g6
Nsg8
S'NUMBER'
p376
sg10
Nsg24
NsbsS'toll'
p377
g0
(g1
g2
Ntp378
Rp379
(dp380
g6
Nsg8
S'NUMBER'
p381
sg10
Nsg24
NsbsS'new'
p382
g0
(g1
g2
Ntp383
Rp384
(dp385
g6
Nsg8
S'PERSON'
p386
sg10
Nsg24
NsbsS'net'
p387
g0
(g1
g2
Ntp388
Rp389
(dp390
g6
Nsg8
S'OTHER'
p391
sg10
Nsg24
NsbsS'admiral'
p392
g0
(g1
g2
Ntp393
Rp394
(dp395
g6
Nsg8
S'PERSON'
p396
sg10
Nsg24
NsbsS'hero'
p397
g0
(g1
g2
Ntp398
Rp399
(dp400
g6
Nsg8
S'PERSON'
p401
sg10
Nsg24
NsbsS'men'
p402
g0
(g1
g2
Ntp403
Rp404
(dp405
g6
Nsg8
S'OTHER'
p406
sg10
Nsg24
NsbsS'dipsomaniac'
p407
g0
(g1
g2
Ntp408
Rp409
(dp410
g6
Nsg8
S'OTHER'
p411
sg10
Nsg24
NsbsS'studio'
p412
g0
(g1
g2
Ntp413
Rp414
(dp415
g6
Nsg8
S'PERSON'
p416
sg10
Nsg24
NsbsS'cult'
p417
g0
(g1
g2
Ntp418
Rp419
(dp420
g6
Nsg8
S'OTHER'
p421
sg10
Nsg24
NsbsS'digits'
p422
g0
(g1
g2
Ntp423
Rp424
(dp425
g6
Nsg8
S'NUMBER'
p426
sg10
Nsg24
NsbsS'luther'
p427
g0
(g1
g2
Ntp428
Rp429
(dp430
g6
g16
sg8
S'OTHER'
p431
sg10
(dp432
S'what'
p433
g0
(g1
g2
Ntp434
Rp435
(dp436
g6
Nsg8
g431
sg10
Nsg24
NsbsS'where'
p437
g0
(g1
g2
Ntp438
Rp439
(dp440
g6
Nsg8
S'LOCATION'
p441
sg10
Nsg24
Nsbssg24
NsbsS'substance'
p442
g0
(g1
g2
Ntp443
Rp444
(dp445
g6
Nsg8
S'OTHER'
p446
sg10
Nsg24
NsbsS'daughter'
p447
g0
(g1
g2
Ntp448
Rp449
(dp450
g6
Nsg8
S'PERSON'
p451
sg10
Nsg24
NsbsS'credit'
p452
g0
(g1
g2
Ntp453
Rp454
(dp455
g6
Nsg8
S'PERSON'
p456
sg10
Nsg24
NsbsS'mentor'
p457
g0
(g1
g2
Ntp458
Rp459
(dp460
g6
Nsg8
S'PERSON'
p461
sg10
Nsg24
NsbsS'otters'
p462
g0
(g1
g2
Ntp463
Rp464
(dp465
g6
Nsg8
S'OTHER'
p466
sg10
Nsg24
NsbsS'classification'
p467
g0
(g1
g2
Ntp468
Rp469
(dp470
g6
Nsg8
S'OTHER'
p471
sg10
Nsg24
NsbsS'erected'
p472
g0
(g1
g2
Ntp473
Rp474
(dp475
g6
Nsg8
S'DATE'
p476
sg10
Nsg24
NsbsS'county'
p477
g0
(g1
g2
Ntp478
Rp479
(dp480
g6
g16
sg8
S'LOCATION'
p481
sg10
(dp482
S'what'
p483
g0
(g1
g2
Ntp484
Rp485
(dp486
g6
Nsg8
S'LOCATION'
p487
sg10
Nsg24
NsbsS'which'
p488
g0
(g1
g2
Ntp489
Rp490
(dp491
g6
Nsg8
S'ORGANIZATION'
p492
sg10
Nsg24
NsbsS'in'
p493
g0
(g1
g2
Ntp494
Rp495
(dp496
g6
Nsg8
S'LOCATION'
p497
sg10
Nsg24
Nsbssg24
NsbsS'bra'
p498
g0
(g1
g2
Ntp499
Rp500
(dp501
g6
Nsg8
S'PERSON'
p502
sg10
Nsg24
NsbsS'dna'
p503
g0
(g1
g2
Ntp504
Rp505
(dp506
g6
Nsg8
S'PERSON'
p507
sg10
Nsg24
NsbsS'army'
p508
g0
(g1
g2
Ntp509
Rp510
(dp511
g6
Nsg8
S'ORGANIZATION'
p512
sg10
Nsg24
NsbsS'hospital'
p513
g0
(g1
g2
Ntp514
Rp515
(dp516
g6
Nsg8
S'LOCATION'
p517
sg10
Nsg24
NsbsS'indians'
p518
g0
(g1
g2
Ntp519
Rp520
(dp521
g6
g16
sg8
S'OTHER'
p522
sg10
(dp523
S'what'
p524
g0
(g1
g2
Ntp525
Rp526
(dp527
g6
Nsg8
g522
sg10
Nsg24
NsbsS'where'
p528
g0
(g1
g2
Ntp529
Rp530
(dp531
g6
Nsg8
S'LOCATION'
p532
sg10
Nsg24
Nsbssg24
NsbsS'symphony'
p533
g0
(g1
g2
Ntp534
Rp535
(dp536
g6
Nsg8
S'OTHER'
p537
sg10
Nsg24
NsbsS'music'
p538
g0
(g1
g2
Ntp539
Rp540
(dp541
g6
g16
sg8
S'DATE'
p542
sg10
(dp543
S'what'
p544
g0
(g1
g2
Ntp545
Rp546
(dp547
g6
Nsg8
S'PERSON'
p548
sg10
Nsg24
NsbsS'when'
p549
g0
(g1
g2
Ntp550
Rp551
(dp552
g6
Nsg8
g542
sg10
Nsg24
Nsbssg24
NsbsS'type'
p553
g0
(g1
g2
Ntp554
Rp555
(dp556
g6
Nsg8
S'OTHER'
p557
sg10
Nsg24
NsbsS'playboy'
p558
g0
(g1
g2
Ntp559
Rp560
(dp561
g6
Nsg8
S'OTHER'
p562
sg10
Nsg24
NsbsS'phobophobe'
p563
g0
(g1
g2
Ntp564
Rp565
(dp566
g6
Nsg8
S'OTHER'
p567
sg10
Nsg24
NsbsS'award'
p568
g0
(g1
g2
Ntp569
Rp570
(dp571
g6
g16
sg8
S'OTHER'
p572
sg10
(dp573
S'what'
p574
g0
(g1
g2
Ntp575
Rp576
(dp577
g6
Nsg8
g572
sg10
Nsg24
NsbsS'who'
p578
g0
(g1
g2
Ntp579
Rp580
(dp581
g6
Nsg8
S'PERSON'
p582
sg10
Nsg24
Nsbssg24
NsbsS'phone'
p583
g0
(g1
g2
Ntp584
Rp585
(dp586
g6
Nsg8
S'NUMBER'
p587
sg10
Nsg24
NsbsS'adult'
p588
g0
(g1
g2
Ntp589
Rp590
(dp591
g6
Nsg8
S'OTHER'
p592
sg10
Nsg24
NsbsS'hole'
p593
g0
(g1
g2
Ntp594
Rp595
(dp596
g6
Nsg8
S'LOCATION'
p597
sg10
Nsg24
NsbsS'word'
p598
g0
(g1
g2
Ntp599
Rp600
(dp601
g6
g16
sg8
S'OTHER'
p602
sg10
(dp603
S'what'
p604
g0
(g1
g2
Ntp605
Rp606
(dp607
g6
Nsg8
S'OTHER'
p608
sg10
Nsg24
NsbsS'who'
p609
g0
(g1
g2
Ntp610
Rp611
(dp612
g6
Nsg8
S'PERSON'
p613
sg10
Nsg24
Nsbssg24
NsbsS'room'
p614
g0
(g1
g2
Ntp615
Rp616
(dp617
g6
g16
sg8
S'PERSON'
p618
sg10
(dp619
S'whom'
p620
g0
(g1
g2
Ntp621
Rp622
(dp623
g6
Nsg8
g618
sg10
Nsg24
NsbsS'what'
p624
g0
(g1
g2
Ntp625
Rp626
(dp627
g6
Nsg8
S'LOCATION'
p628
sg10
Nsg24
Nsbssg24
NsbsS'rights'
p629
g0
(g1
g2
Ntp630
Rp631
(dp632
g6
Nsg8
S'PERSON'
p633
sg10
Nsg24
NsbsS'work'
p634
g0
(g1
g2
Ntp635
Rp636
(dp637
g6
Nsg8
S'OTHER'
p638
sg10
Nsg24
NsbsS'worm'
p639
g0
(g1
g2
Ntp640
Rp641
(dp642
g6
Nsg8
S'PERSON'
p643
sg10
Nsg24
NsbsS'movies'
p644
g0
(g1
g2
Ntp645
Rp646
(dp647
g6
Nsg8
S'NUMBER'
p648
sg10
Nsg24
NsbsS'sweeter'
p649
g0
(g1
g2
Ntp650
Rp651
(dp652
g6
Nsg8
S'OTHER'
p653
sg10
Nsg24
NsbsS'entertainer'
p654
g0
(g1
g2
Ntp655
Rp656
(dp657
g6
Nsg8
S'OTHER'
p658
sg10
Nsg24
NsbsS'example'
p659
g0
(g1
g2
Ntp660
Rp661
(dp662
g6
Nsg8
S'OTHER'
p663
sg10
Nsg24
NsbsS'boyfriend'
p664
g0
(g1
g2
Ntp665
Rp666
(dp667
g6
Nsg8
S'PERSON'
p668
sg10
Nsg24
NsbsS'hyatt'
p669
g0
(g1
g2
Ntp670
Rp671
(dp672
g6
Nsg8
S'PERSON'
p673
sg10
Nsg24
NsbsS'household'
p674
g0
(g1
g2
Ntp675
Rp676
(dp677
g6
Nsg8
S'OTHER'
p678
sg10
Nsg24
NsbsS'frickett'
p679
g0
(g1
g2
Ntp680
Rp681
(dp682
g6
Nsg8
S'PERSON'
p683
sg10
Nsg24
NsbsS'currency'
p684
g0
(g1
g2
Ntp685
Rp686
(dp687
g6
Nsg8
g9
sg10
Nsg24
NsbsS'foods'
p688
g0
(g1
g2
Ntp689
Rp690
(dp691
g6
Nsg8
S'OTHER'
p692
sg10
Nsg24
NsbsS'times'
p693
g0
(g1
g2
Ntp694
Rp695
(dp696
g6
Nsg8
S'NUMBER'
p697
sg10
Nsg24
NsbsS'damage'
p698
g0
(g1
g2
Ntp699
Rp700
(dp701
g6
Nsg8
S'OTHER'
p702
sg10
Nsg24
NsbsS'machine'
p703
g0
(g1
g2
Ntp704
Rp705
(dp706
g6
Nsg8
S'PERSON'
p707
sg10
Nsg24
NsbsS'writers'
p708
g0
(g1
g2
Ntp709
Rp710
(dp711
g6
Nsg8
S'PERSON'
p712
sg10
Nsg24
NsbsS'gate'
p713
g0
(g1
g2
Ntp714
Rp715
(dp716
g6
g16
sg8
S'DATE'
p717
sg10
(dp718
S'what'
p719
g0
(g1
g2
Ntp720
Rp721
(dp722
g6
Nsg8
S'LOCATION'
p723
sg10
Nsg24
NsbsS'when'
p724
g0
(g1
g2
Ntp725
Rp726
(dp727
g6
Nsg8
S'DATE'
p728
sg10
Nsg24
Nsbssg24
NsbsS'gamble'
p729
g0
(g1
g2
Ntp730
Rp731
(dp732
g6
Nsg8
S'LOCATION'
p733
sg10
Nsg24
NsbsS'pizza'
p734
g0
(g1
g2
Ntp735
Rp736
(dp737
g6
Nsg8
S'NUMBER'
p738
sg10
Nsg24
NsbsS'gaming'
p739
g0
(g1
g2
Ntp740
Rp741
(dp742
g6
Nsg8
S'OTHER'
p743
sg10
Nsg24
NsbsS'cherubs'
p744
g0
(g1
g2
Ntp745
Rp746
(dp747
g6
Nsg8
S'NUMBER'
p748
sg10
Nsg24
NsbsS'horoscope'
p749
g0
(g1
g2
Ntp750
Rp751
(dp752
g6
Nsg8
S'PERSON'
p753
sg10
Nsg24
NsbsS'delicacy'
p754
g0
(g1
g2
Ntp755
Rp756
(dp757
g6
Nsg8
S'OTHER'
p758
sg10
Nsg24
NsbsS'shores'
p759
g0
(g1
g2
Ntp760
Rp761
(dp762
g6
Nsg8
S'PERSON'
p763
sg10
Nsg24
NsbsS'philatelist'
p764
g0
(g1
g2
Ntp765
Rp766
(dp767
g6
Nsg8
S'OTHER'
p768
sg10
Nsg24
NsbsS'president'
p769
g0
(g1
g2
Ntp770
Rp771
(dp772
g6
g16
sg8
S'PERSON'
p773
sg10
(dp774
S'what'
p775
g0
(g1
g2
Ntp776
Rp777
(dp778
g6
Nsg8
S'PERSON'
p779
sg10
Nsg24
NsbsS'who'
p780
g0
(g1
g2
Ntp781
Rp782
(dp783
g6
Nsg8
S'PERSON'
p784
sg10
Nsg24
NsbsS'woodrow'
p785
g0
(g1
g2
Ntp786
Rp787
(dp788
g6
Nsg8
S'ORGANIZATION'
p789
sg10
Nsg24
NsbsS'which'
p790
g0
(g1
g2
Ntp791
Rp792
(dp793
g6
Nsg8
S'PERSON'
p794
sg10
Nsg24
Nsbssg24
NsbsS'arch'
p795
g0
(g1
g2
Ntp796
Rp797
(dp798
g6
Nsg8
S'LOCATION'
p799
sg10
Nsg24
NsbsS'types'
p800
g0
(g1
g2
Ntp801
Rp802
(dp803
g6
Nsg8
S'OTHER'
p804
sg10
Nsg24
NsbsS'headquarters'
p805
g0
(g1
g2
Ntp806
Rp807
(dp808
g6
Nsg8
S'LOCATION'
p809
sg10
Nsg24
NsbsS'davies'
p810
g0
(g1
g2
Ntp811
Rp812
(dp813
g6
Nsg8
S'LOCATION'
p814
sg10
Nsg24
NsbsS'lindbergh'
p815
g0
(g1
g2
Ntp816
Rp817
(dp818
g6
g16
sg8
S'DATE'
p819
sg10
(dp820
S'who'
p821
g0
(g1
g2
Ntp822
Rp823
(dp824
g6
Nsg8
S'PERSON'
p825
sg10
Nsg24
NsbsS'when'
p826
g0
(g1
g2
Ntp827
Rp828
(dp829
g6
Nsg8
g819
sg10
Nsg24
Nsbssg24
NsbsS'athletes'
p830
g0
(g1
g2
Ntp831
Rp832
(dp833
g6
Nsg8
S'NUMBER'
p834
sg10
Nsg24
NsbsS'order'
p835
g0
(g1
g2
Ntp836
Rp837
(dp838
g6
Nsg8
S'PERSON'
p839
sg10
Nsg24
NsbsS'wine'
p840
g0
(g1
g2
Ntp841
Rp842
(dp843
g6
Nsg8
S'OTHER'
p844
sg10
Nsg24
NsbsS'helens'
p845
g0
(g1
g2
Ntp846
Rp847
(dp848
g6
Nsg8
S'DATE'
p849
sg10
Nsg24
NsbsS'office'
p850
g0
(g1
g2
Ntp851
Rp852
(dp853
g6
g16
sg8
S'NUMBER'
p854
sg10
(dp855
S'the'
p856
g0
(g1
g2
Ntp857
Rp858
(dp859
g6
Nsg8
g854
sg10
Nsg24
NsbsS'shea'
p860
g0
(g1
g2
Ntp861
Rp862
(dp863
g6
Nsg8
S'TIME'
p864
sg10
Nsg24
Nsbssg24
NsbsS'oven'
p865
g0
(g1
g2
Ntp866
Rp867
(dp868
g6
Nsg8
S'OTHER'
p869
sg10
Nsg24
NsbsS'ancients'
p870
g0
(g1
g2
Ntp871
Rp872
(dp873
g6
Nsg8
S'OTHER'
p874
sg10
Nsg24
NsbsS'oswald'
p875
g0
(g1
g2
Ntp876
Rp877
(dp878
g6
Nsg8
S'PERSON'
p879
sg10
Nsg24
NsbsS'mayor'
p880
g0
(g1
g2
Ntp881
Rp882
(dp883
g6
Nsg8
S'PERSON'
p884
sg10
Nsg24
NsbsS'personas'
p885
g0
(g1
g2
Ntp886
Rp887
(dp888
g6
Nsg8
S'PERSON'
p889
sg10
Nsg24
NsbsS'diseases'
p890
g0
(g1
g2
Ntp891
Rp892
(dp893
g6
Nsg8
S'OTHER'
p894
sg10
Nsg24
NsbsS'band'
p895
g0
(g1
g2
Ntp896
Rp897
(dp898
g6
Nsg8
S'ORGANIZATION'
p899
sg10
Nsg24
NsbsS'therapy'
p900
g0
(g1
g2
Ntp901
Rp902
(dp903
g6
Nsg8
S'OTHER'
p904
sg10
Nsg24
NsbsS'schools'
p905
g0
(g1
g2
Ntp906
Rp907
(dp908
g6
g16
sg8
S'NUMBER'
p909
sg10
(dp910
S'how'
p911
g0
(g1
g2
Ntp912
Rp913
(dp914
g6
Nsg8
g909
sg10
Nsg24
NsbsS'which'
p915
g0
(g1
g2
Ntp916
Rp917
(dp918
g6
Nsg8
S'ORGANIZATION'
p919
sg10
Nsg24
Nsbssg24
NsbsS'meat'
p920
g0
(g1
g2
Ntp921
Rp922
(dp923
g6
Nsg8
S'OTHER'
p924
sg10
Nsg24
NsbsS'volcano'
p925
g0
(g1
g2
Ntp926
Rp927
(dp928
g6
Nsg8
S'LOCATION'
p929
sg10
Nsg24
NsbsS'bells'
p930
g0
(g1
g2
Ntp931
Rp932
(dp933
g6
Nsg8
S'NUMBER'
p934
sg10
Nsg24
NsbsS'side'
p935
g0
(g1
g2
Ntp936
Rp937
(dp938
g6
Nsg8
S'OTHER'
p939
sg10
Nsg24
NsbsS'bone'
p940
g0
(g1
g2
Ntp941
Rp942
(dp943
g6
Nsg8
S'OTHER'
p944
sg10
Nsg24
NsbsS'expectancy'
p945
g0
(g1
g2
Ntp946
Rp947
(dp948
g6
Nsg8
S'TIME'
p949
sg10
Nsg24
NsbsS'telescope'
p950
g0
(g1
g2
Ntp951
Rp952
(dp953
g6
Nsg8
S'LOCATION'
p954
sg10
Nsg24
NsbsS'statue'
p955
g0
(g1
g2
Ntp956
Rp957
(dp958
g6
Nsg8
S'OTHER'
p959
sg10
Nsg24
NsbsS'garment'
p960
g0
(g1
g2
Ntp961
Rp962
(dp963
g6
Nsg8
S'OTHER'
p964
sg10
Nsg24
NsbsS'spider'
p965
g0
(g1
g2
Ntp966
Rp967
(dp968
g6
Nsg8
S'OTHER'
p969
sg10
Nsg24
NsbsS'aids'
p970
g0
(g1
g2
Ntp971
Rp972
(dp973
g6
Nsg8
S'OTHER'
p974
sg10
Nsg24
NsbsS'collector'
p975
g0
(g1
g2
Ntp976
Rp977
(dp978
g6
Nsg8
S'PERSON'
p979
sg10
Nsg24
NsbsS'network'
p980
g0
(g1
g2
Ntp981
Rp982
(dp983
g6
Nsg8
S'ORGANIZATION'
p984
sg10
Nsg24
NsbsS'god'
p985
g0
(g1
g2
Ntp986
Rp987
(dp988
g6
g16
sg8
S'PERSON'
p989
sg10
(dp990
S'what'
p991
g0
(g1
g2
Ntp992
Rp993
(dp994
g6
Nsg8
S'OTHER'
p995
sg10
Nsg24
NsbsS'who'
p996
g0
(g1
g2
Ntp997
Rp998
(dp999
g6
Nsg8
S'PERSON'
p1000
sg10
Nsg24
Nsbssg24
NsbsS'vessels'
p1001
g0
(g1
g2
Ntp1002
Rp1003
(dp1004
g6
Nsg8
S'OTHER'
p1005
sg10
Nsg24
NsbsS'daniel'
p1006
g0
(g1
g2
Ntp1007
Rp1008
(dp1009
g6
Nsg8
S'LOCATION'
p1010
sg10
Nsg24
NsbsS'millennium'
p1011
g0
(g1
g2
Ntp1012
Rp1013
(dp1014
g6
Nsg8
S'DATE'
p1015
sg10
Nsg24
NsbsS'medicine'
p1016
g0
(g1
g2
Ntp1017
Rp1018
(dp1019
g6
Nsg8
S'OTHER'
p1020
sg10
Nsg24
NsbsS'millions'
p1021
g0
(g1
g2
Ntp1022
Rp1023
(dp1024
g6
Nsg8
S'OTHER'
p1025
sg10
Nsg24
NsbsS'foundation'
p1026
g0
(g1
g2
Ntp1027
Rp1028
(dp1029
g6
Nsg8
S'PERSON'
p1030
sg10
Nsg24
NsbsS'barrier'
p1031
g0
(g1
g2
Ntp1032
Rp1033
(dp1034
g6
Nsg8
S'PERSON'
p1035
sg10
Nsg24
NsbsS'noriega'
p1036
g0
(g1
g2
Ntp1037
Rp1038
(dp1039
g6
Nsg8
S'DATE'
p1040
sg10
Nsg24
NsbsS'dracula'
p1041
g0
(g1
g2
Ntp1042
Rp1043
(dp1044
g6
Nsg8
S'PERSON'
p1045
sg10
Nsg24
NsbsS'u.s.'
p1046
g0
(g1
g2
Ntp1047
Rp1048
(dp1049
g6
g16
sg8
S'NUMBER'
p1050
sg10
(dp1051
S'how'
p1052
g0
(g1
g2
Ntp1053
Rp1054
(dp1055
g6
Nsg8
S'NUMBER'
p1056
sg10
Nsg24
NsbsS'what'
p1057
g0
(g1
g2
Ntp1058
Rp1059
(dp1060
g6
Nsg8
S'LOCATION'
p1061
sg10
Nsg24
NsbsS'where'
p1062
g0
(g1
g2
Ntp1063
Rp1064
(dp1065
g6
Nsg8
S'NUMBER'
p1066
sg10
Nsg24
Nsbssg24
NsbsS'youngsters'
p1067
g0
(g1
g2
Ntp1068
Rp1069
(dp1070
g6
Nsg8
S'PERSON'
p1071
sg10
Nsg24
NsbsS'putty'
p1072
g0
(g1
g2
Ntp1073
Rp1074
(dp1075
g6
Nsg8
S'PERSON'
p1076
sg10
Nsg24
NsbsS'days'
p1077
g0
(g1
g2
Ntp1078
Rp1079
(dp1080
g6
Nsg8
S'NUMBER'
p1081
sg10
Nsg24
NsbsS'soda'
p1082
g0
(g1
g2
Ntp1083
Rp1084
(dp1085
g6
Nsg8
S'OTHER'
p1086
sg10
Nsg24
NsbsS'stewart'
p1087
g0
(g1
g2
Ntp1088
Rp1089
(dp1090
g6
Nsg8
S'OTHER'
p1091
sg10
Nsg24
NsbsS'size'
p1092
g0
(g1
g2
Ntp1093
Rp1094
(dp1095
g6
Nsg8
S'NUMBER'
p1096
sg10
Nsg24
NsbsS'playwright'
p1097
g0
(g1
g2
Ntp1098
Rp1099
(dp1100
g6
Nsg8
S'PERSON'
p1101
sg10
Nsg24
NsbsS'attractions'
p1102
g0
(g1
g2
Ntp1103
Rp1104
(dp1105
g6
Nsg8
S'LOCATION'
p1106
sg10
Nsg24
NsbsS'primary'
p1107
g0
(g1
g2
Ntp1108
Rp1109
(dp1110
g6
Nsg8
S'PERSON'
p1111
sg10
Nsg24
NsbsS'comic'
p1112
g0
(g1
g2
Ntp1113
Rp1114
(dp1115
g6
Nsg8
S'PERSON'
p1116
sg10
Nsg24
NsbsS'toy'
p1117
g0
(g1
g2
Ntp1118
Rp1119
(dp1120
g6
Nsg8
S'OTHER'
p1121
sg10
Nsg24
NsbsS'service'
p1122
g0
(g1
g2
Ntp1123
Rp1124
(dp1125
g6
Nsg8
S'ORGANIZATION'
p1126
sg10
Nsg24
NsbsS'zeros'
p1127
g0
(g1
g2
Ntp1128
Rp1129
(dp1130
g6
Nsg8
S'NUMBER'
p1131
sg10
Nsg24
NsbsS'percentage'
p1132
g0
(g1
g2
Ntp1133
Rp1134
(dp1135
g6
Nsg8
S'PERCENT'
p1136
sg10
Nsg24
NsbsS'genesis'
p1137
g0
(g1
g2
Ntp1138
Rp1139
(dp1140
g6
Nsg8
S'OTHER'
p1141
sg10
Nsg24
NsbsS'airwaves'
p1142
g0
(g1
g2
Ntp1143
Rp1144
(dp1145
g6
Nsg8
S'PERSON'
p1146
sg10
Nsg24
NsbsS'rommel'
p1147
g0
(g1
g2
Ntp1148
Rp1149
(dp1150
g6
Nsg8
S'PERSON'
p1151
sg10
Nsg24
NsbsS'inoco'
p1152
g0
(g1
g2
Ntp1153
Rp1154
(dp1155
g6
Nsg8
S'LOCATION'
p1156
sg10
Nsg24
NsbsS'cereal'
p1157
g0
(g1
g2
Ntp1158
Rp1159
(dp1160
g6
Nsg8
S'OTHER'
p1161
sg10
Nsg24
NsbsS'helen'
p1162
g0
(g1
g2
Ntp1163
Rp1164
(dp1165
g6
Nsg8
S'DATE'
p1166
sg10
Nsg24
NsbsS'symptom'
p1167
g0
(g1
g2
Ntp1168
Rp1169
(dp1170
g6
Nsg8
S'OTHER'
p1171
sg10
Nsg24
NsbsS'charcter'
p1172
g0
(g1
g2
Ntp1173
Rp1174
(dp1175
g6
Nsg8
S'PERSON'
p1176
sg10
Nsg24
NsbsS'domestica'
p1177
g0
(g1
g2
Ntp1178
Rp1179
(dp1180
g6
Nsg8
S'OTHER'
p1181
sg10
Nsg24
NsbsS'hyenas'
p1182
g0
(g1
g2
Ntp1183
Rp1184
(dp1185
g6
Nsg8
S'LOCATION'
p1186
sg10
Nsg24
NsbsS'tree'
p1187
g0
(g1
g2
Ntp1188
Rp1189
(dp1190
g6
Nsg8
S'OTHER'
p1191
sg10
Nsg24
NsbsS'rate'
p1192
g0
(g1
g2
Ntp1193
Rp1194
(dp1195
g6
Nsg8
S'PERCENT'
p1196
sg10
Nsg24
NsbsS'nations'
p1197
g0
(g1
g2
Ntp1198
Rp1199
(dp1200
g6
Nsg8
S'LOCATION'
p1201
sg10
Nsg24
NsbsS'project'
p1202
g0
(g1
g2
Ntp1203
Rp1204
(dp1205
g6
Nsg8
S'LOCATION'
p1206
sg10
Nsg24
NsbsS'invention'
p1207
g0
(g1
g2
Ntp1208
Rp1209
(dp1210
g6
Nsg8
S'OTHER'
p1211
sg10
Nsg24
NsbsS'friend'
p1212
g0
(g1
g2
Ntp1213
Rp1214
(dp1215
g6
Nsg8
S'PERSON'
p1216
sg10
Nsg24
NsbsS'iron'
p1217
g0
(g1
g2
Ntp1218
Rp1219
(dp1220
g6
Nsg8
S'NUMBER'
p1221
sg10
Nsg24
NsbsS'prankster'
p1222
g0
(g1
g2
Ntp1223
Rp1224
(dp1225
g6
Nsg8
S'PERSON'
p1226
sg10
Nsg24
NsbsS'bridge'
p1227
g0
(g1
g2
Ntp1228
Rp1229
(dp1230
g6
g16
sg8
S'PERSON'
p1231
sg10
(dp1232
S'what'
p1233
g0
(g1
g2
Ntp1234
Rp1235
(dp1236
g6
Nsg8
S'LOCATION'
p1237
sg10
Nsg24
NsbsS'who'
p1238
g0
(g1
g2
Ntp1239
Rp1240
(dp1241
g6
Nsg8
g1231
sg10
Nsg24
NsbsS'where'
p1242
g0
(g1
g2
Ntp1243
Rp1244
(dp1245
g6
Nsg8
S'LOCATION'
p1246
sg10
Nsg24
Nsbssg24
NsbsS'blackhawks'
p1247
g0
(g1
g2
Ntp1248
Rp1249
(dp1250
g6
Nsg8
S'LOCATION'
p1251
sg10
Nsg24
NsbsS'palace'
p1252
g0
(g1
g2
Ntp1253
Rp1254
(dp1255
g6
Nsg8
S'LOCATION'
p1256
sg10
Nsg24
NsbsS'astaire'
p1257
g0
(g1
g2
Ntp1258
Rp1259
(dp1260
g6
Nsg8
S'PERSON'
p1261
sg10
Nsg24
NsbsS'mine'
p1262
g0
(g1
g2
Ntp1263
Rp1264
(dp1265
g6
Nsg8
S'OTHER'
p1266
sg10
Nsg24
NsbsS'talking'
p1267
g0
(g1
g2
Ntp1268
Rp1269
(dp1270
g6
Nsg8
S'PERSON'
p1271
sg10
Nsg24
NsbsS'shrubs'
p1272
g0
(g1
g2
Ntp1273
Rp1274
(dp1275
g6
Nsg8
S'OTHER'
p1276
sg10
Nsg24
NsbsS'eels'
p1277
g0
(g1
g2
Ntp1278
Rp1279
(dp1280
g6
Nsg8
S'LOCATION'
p1281
sg10
Nsg24
NsbsS'realm'
p1282
g0
(g1
g2
Ntp1283
Rp1284
(dp1285
g6
Nsg8
S'PERSON'
p1286
sg10
Nsg24
NsbsS'harper'
p1287
g0
(g1
g2
Ntp1288
Rp1289
(dp1290
g6
Nsg8
S'OTHER'
p1291
sg10
Nsg24
NsbsS'steamboat'
p1292
g0
(g1
g2
Ntp1293
Rp1294
(dp1295
g6
Nsg8
S'PERSON'
p1296
sg10
Nsg24
NsbsS'snow'
p1297
g0
(g1
g2
Ntp1298
Rp1299
(dp1300
g6
Nsg8
S'NUMBER'
p1301
sg10
Nsg24
NsbsS'reactivity'
p1302
g0
(g1
g2
Ntp1303
Rp1304
(dp1305
g6
Nsg8
S'NUMBER'
p1306
sg10
Nsg24
NsbsS'forces'
p1307
g0
(g1
g2
Ntp1308
Rp1309
(dp1310
g6
g16
sg8
S'LOCATION'
p1311
sg10
(dp1312
S'who'
p1313
g0
(g1
g2
Ntp1314
Rp1315
(dp1316
g6
Nsg8
S'PERSON'
p1317
sg10
Nsg24
NsbsS'where'
p1318
g0
(g1
g2
Ntp1319
Rp1320
(dp1321
g6
Nsg8
g1311
sg10
Nsg24
Nsbssg24
NsbsS'president-to-be'
p1322
g0
(g1
g2
Ntp1323
Rp1324
(dp1325
g6
Nsg8
S'PERSON'
p1326
sg10
Nsg24
NsbsS'panties'
p1327
g0
(g1
g2
Ntp1328
Rp1329
(dp1330
g6
Nsg8
S'PERSON'
p1331
sg10
Nsg24
NsbsS'zebras'
p1332
g0
(g1
g2
Ntp1333
Rp1334
(dp1335
g6
Nsg8
S'LOCATION'
p1336
sg10
Nsg24
NsbsS'thrilled'
p1337
g0
(g1
g2
Ntp1338
Rp1339
(dp1340
g6
Nsg8
S'OTHER'
p1341
sg10
Nsg24
NsbsS'object'
p1342
g0
(g1
g2
Ntp1343
Rp1344
(dp1345
g6
Nsg8
S'OTHER'
p1346
sg10
Nsg24
NsbsS'phonograph'
p1347
g0
(g1
g2
Ntp1348
Rp1349
(dp1350
g6
Nsg8
S'PERSON'
p1351
sg10
Nsg24
NsbsS'victoria'
p1352
g0
(g1
g2
Ntp1353
Rp1354
(dp1355
g6
Nsg8
S'DATE'
p1356
sg10
Nsg24
NsbsS'regular'
p1357
g0
(g1
g2
Ntp1358
Rp1359
(dp1360
g6
Nsg8
S'OTHER'
p1361
sg10
Nsg24
NsbsS'letter'
p1362
g0
(g1
g2
Ntp1363
Rp1364
(dp1365
g6
g16
sg8
S'PERSON'
p1366
sg10
(dp1367
S'what'
p1368
g0
(g1
g2
Ntp1369
Rp1370
(dp1371
g6
Nsg8
S'OTHER'
p1372
sg10
Nsg24
NsbsS'who'
p1373
g0
(g1
g2
Ntp1374
Rp1375
(dp1376
g6
Nsg8
g1366
sg10
Nsg24
Nsbssg24
NsbsS'exercises'
p1377
g0
(g1
g2
Ntp1378
Rp1379
(dp1380
g6
Nsg8
S'OTHER'
p1381
sg10
Nsg24
NsbsS'coin'
p1382
g0
(g1
g2
Ntp1383
Rp1384
(dp1385
g6
Nsg8
S'OTHER'
p1386
sg10
Nsg24
NsbsS'dummy'
p1387
g0
(g1
g2
Ntp1388
Rp1389
(dp1390
g6
Nsg8
S'PERSON'
p1391
sg10
Nsg24
NsbsS'singer'
p1392
g0
(g1
g2
Ntp1393
Rp1394
(dp1395
g6
Nsg8
S'PERSON'
p1396
sg10
Nsg24
NsbsS'rogers'
p1397
g0
(g1
g2
Ntp1398
Rp1399
(dp1400
g6
Nsg8
S'PERSON'
p1401
sg10
Nsg24
NsbsS'camp'
p1402
g0
(g1
g2
Ntp1403
Rp1404
(dp1405
g6
Nsg8
S'LOCATION'
p1406
sg10
Nsg24
NsbsS'dog'
p1407
g0
(g1
g2
Ntp1408
Rp1409
(dp1410
g6
Nsg8
S'OTHER'
p1411
sg10
Nsg24
NsbsS'points'
p1412
g0
(g1
g2
Ntp1413
Rp1414
(dp1415
g6
Nsg8
S'NUMBER'
p1416
sg10
Nsg24
NsbsS'enterprise'
p1417
g0
(g1
g2
Ntp1418
Rp1419
(dp1420
g6
Nsg8
S'PERSON'
p1421
sg10
Nsg24
NsbsS'scotch'
p1422
g0
(g1
g2
Ntp1423
Rp1424
(dp1425
g6
Nsg8
S'OTHER'
p1426
sg10
Nsg24
NsbsS'dow'
p1427
g0
(g1
g2
Ntp1428
Rp1429
(dp1430
g6
Nsg8
S'DATE'
p1431
sg10
Nsg24
NsbsS'dot'
p1432
g0
(g1
g2
Ntp1433
Rp1434
(dp1435
g6
Nsg8
S'OTHER'
p1436
sg10
Nsg24
NsbsS'marvel'
p1437
g0
(g1
g2
Ntp1438
Rp1439
(dp1440
g6
Nsg8
S'LOCATION'
p1441
sg10
Nsg24
NsbsS'bomb'
p1442
g0
(g1
g2
Ntp1443
Rp1444
(dp1445
g6
Nsg8
S'OTHER'
p1446
sg10
Nsg24
NsbsS'pope'
p1447
g0
(g1
g2
Ntp1448
Rp1449
(dp1450
g6
Nsg8
S'PERSON'
p1451
sg10
Nsg24
NsbsS'queen'
p1452
g0
(g1
g2
Ntp1453
Rp1454
(dp1455
g6
g16
sg8
S'OTHER'
p1456
sg10
(dp1457
S'how'
p1458
g0
(g1
g2
Ntp1459
Rp1460
(dp1461
g6
Nsg8
S'NUMBER'
p1462
sg10
Nsg24
NsbsS'what'
p1463
g0
(g1
g2
Ntp1464
Rp1465
(dp1466
g6
Nsg8
S'PERSON'
p1467
sg10
Nsg24
NsbsS'who'
p1468
g0
(g1
g2
Ntp1469
Rp1470
(dp1471
g6
Nsg8
S'PERSON'
p1472
sg10
Nsg24
Nsbssg24
NsbsS'plagues'
p1473
g0
(g1
g2
Ntp1474
Rp1475
(dp1476
g6
Nsg8
S'OTHER'
p1477
sg10
Nsg24
NsbsS'colors'
p1478
g0
(g1
g2
Ntp1479
Rp1480
(dp1481
g6
g16
sg8
S'NUMBER'
p1482
sg10
(dp1483
S'how'
p1484
g0
(g1
g2
Ntp1485
Rp1486
(dp1487
g6
Nsg8
S'NUMBER'
p1488
sg10
Nsg24
NsbsS'what'
p1489
g0
(g1
g2
Ntp1490
Rp1491
(dp1492
g6
Nsg8
S'OTHER'
p1493
sg10
Nsg24
NsbsS'in'
p1494
g0
(g1
g2
Ntp1495
Rp1496
(dp1497
g6
Nsg8
S'OTHER'
p1498
sg10
Nsg24
Nsbssg24
NsbsS'radio'
p1499
g0
(g1
g2
Ntp1500
Rp1501
(dp1502
g6
g16
sg8
S'ORGANIZATION'
p1503
sg10
(dp1504
S'what'
p1505
g0
(g1
g2
Ntp1506
Rp1507
(dp1508
g6
Nsg8
g1503
sg10
Nsg24
NsbsS'who'
p1509
g0
(g1
g2
Ntp1510
Rp1511
(dp1512
g6
Nsg8
S'PERSON'
p1513
sg10
Nsg24
NsbsS'which'
p1514
g0
(g1
g2
Ntp1515
Rp1516
(dp1517
g6
Nsg8
S'ORGANIZATION'
p1518
sg10
Nsg24
Nsbssg24
NsbsS'nephew'
p1519
g0
(g1
g2
Ntp1520
Rp1521
(dp1522
g6
Nsg8
S'PERSON'
p1523
sg10
Nsg24
NsbsS'debts'
p1524
g0
(g1
g2
Ntp1525
Rp1526
(dp1527
g6
Nsg8
S'MONEY'
p1528
sg10
Nsg24
NsbsS'buxom'
p1529
g0
(g1
g2
Ntp1530
Rp1531
(dp1532
g6
Nsg8
S'PERSON'
p1533
sg10
Nsg24
NsbsS'population'
p1534
g0
(g1
g2
Ntp1535
Rp1536
(dp1537
g6
Nsg8
S'NUMBER'
p1538
sg10
Nsg24
NsbsS'goalie'
p1539
g0
(g1
g2
Ntp1540
Rp1541
(dp1542
g6
Nsg8
S'LOCATION'
p1543
sg10
Nsg24
NsbsS'tiles'
p1544
g0
(g1
g2
Ntp1545
Rp1546
(dp1547
g6
Nsg8
S'NUMBER'
p1548
sg10
Nsg24
NsbsS'tammy'
p1549
g0
(g1
g2
Ntp1550
Rp1551
(dp1552
g6
Nsg8
S'PERSON'
p1553
sg10
Nsg24
NsbsS'tuberculosis'
p1554
g0
(g1
g2
Ntp1555
Rp1556
(dp1557
g6
Nsg8
S'LOCATION'
p1558
sg10
Nsg24
NsbsS'wedding'
p1559
g0
(g1
g2
Ntp1560
Rp1561
(dp1562
g6
Nsg8
S'DATE'
p1563
sg10
Nsg24
NsbsS'tips'
p1564
g0
(g1
g2
Ntp1565
Rp1566
(dp1567
g6
Nsg8
S'OTHER'
p1568
sg10
Nsg24
NsbsS'runs'
p1569
g0
(g1
g2
Ntp1570
Rp1571
(dp1572
g6
Nsg8
S'NUMBER'
p1573
sg10
Nsg24
NsbsS'bar'
p1574
g0
(g1
g2
Ntp1575
Rp1576
(dp1577
g6
Nsg8
S'OTHER'
p1578
sg10
Nsg24
NsbsS'countries'
p1579
g0
(g1
g2
Ntp1580
Rp1581
(dp1582
g6
g16
sg8
S'LOCATION'
p1583
sg10
(dp1584
S'how'
p1585
g0
(g1
g2
Ntp1586
Rp1587
(dp1588
g6
Nsg8
S'NUMBER'
p1589
sg10
Nsg24
NsbsS'what'
p1590
g0
(g1
g2
Ntp1591
Rp1592
(dp1593
g6
Nsg8
S'LOCATION'
p1594
sg10
Nsg24
Nsbssg24
NsbsS'fields'
p1595
g0
(g1
g2
Ntp1596
Rp1597
(dp1598
g6
Nsg8
S'PERSON'
p1599
sg10
Nsg24
NsbsS'bay'
p1600
g0
(g1
g2
Ntp1601
Rp1602
(dp1603
g6
Nsg8
S'LOCATION'
p1604
sg10
Nsg24
NsbsS'architecture'
p1605
g0
(g1
g2
Ntp1606
Rp1607
(dp1608
g6
Nsg8
S'DATE'
p1609
sg10
Nsg24
NsbsS'shots'
p1610
g0
(g1
g2
Ntp1611
Rp1612
(dp1613
g6
Nsg8
S'NUMBER'
p1614
sg10
Nsg24
NsbsS'secretary'
p1615
g0
(g1
g2
Ntp1616
Rp1617
(dp1618
g6
Nsg8
S'PERSON'
p1619
sg10
Nsg24
NsbsS'disaster'
p1620
g0
(g1
g2
Ntp1621
Rp1622
(dp1623
g6
Nsg8
S'OTHER'
p1624
sg10
Nsg24
NsbsS'reference'
p1625
g0
(g1
g2
Ntp1626
Rp1627
(dp1628
g6
Nsg8
S'LOCATION'
p1629
sg10
Nsg24
NsbsS'nun'
p1630
g0
(g1
g2
Ntp1631
Rp1632
(dp1633
g6
Nsg8
S'PERSON'
p1634
sg10
Nsg24
NsbsS'rings'
p1635
g0
(g1
g2
Ntp1636
Rp1637
(dp1638
g6
Nsg8
S'NUMBER'
p1639
sg10
Nsg24
NsbsS'score'
p1640
g0
(g1
g2
Ntp1641
Rp1642
(dp1643
g6
Nsg8
S'NUMBER'
p1644
sg10
Nsg24
NsbsS'olympics'
p1645
g0
(g1
g2
Ntp1646
Rp1647
(dp1648
g6
Nsg8
S'LOCATION'
p1649
sg10
Nsg24
NsbsS'finger'
p1650
g0
(g1
g2
Ntp1651
Rp1652
(dp1653
g6
Nsg8
S'PERSON'
p1654
sg10
Nsg24
NsbsS'encounters'
p1655
g0
(g1
g2
Ntp1656
Rp1657
(dp1658
g6
Nsg8
S'OTHER'
p1659
sg10
Nsg24
NsbsS'glasgow'
p1660
g0
(g1
g2
Ntp1661
Rp1662
(dp1663
g6
Nsg8
S'LOCATION'
p1664
sg10
Nsg24
NsbsS'boss'
p1665
g0
(g1
g2
Ntp1666
Rp1667
(dp1668
g6
Nsg8
S'PERSON'
p1669
sg10
Nsg24
NsbsS'toothbrush'
p1670
g0
(g1
g2
Ntp1671
Rp1672
(dp1673
g6
Nsg8
S'PERSON'
p1674
sg10
Nsg24
NsbsS'motto'
p1675
g0
(g1
g2
Ntp1676
Rp1677
(dp1678
g6
Nsg8
S'ORGANIZATION'
p1679
sg10
Nsg24
NsbsS'horsemen'
p1680
g0
(g1
g2
Ntp1681
Rp1682
(dp1683
g6
Nsg8
S'PERSON'
p1684
sg10
Nsg24
NsbsS'accident'
p1685
g0
(g1
g2
Ntp1686
Rp1687
(dp1688
g6
Nsg8
S'DATE'
p1689
sg10
Nsg24
NsbsS'country'
p1690
g0
(g1
g2
Ntp1691
Rp1692
(dp1693
g6
Nsg8
S'LOCATION'
p1694
sg10
Nsg24
NsbsS'adventures'
p1695
g0
(g1
g2
Ntp1696
Rp1697
(dp1698
g6
Nsg8
S'LOCATION'
p1699
sg10
Nsg24
NsbsS'players'
p1700
g0
(g1
g2
Ntp1701
Rp1702
(dp1703
g6
Nsg8
S'PERSON'
p1704
sg10
Nsg24
NsbsS'games'
p1705
g0
(g1
g2
Ntp1706
Rp1707
(dp1708
g6
g16
sg8
S'OTHER'
p1709
sg10
(dp1710
S'how'
p1711
g0
(g1
g2
Ntp1712
Rp1713
(dp1714
g6
Nsg8
S'NUMBER'
p1715
sg10
Nsg24
NsbsS'what'
p1716
g0
(g1
g2
Ntp1717
Rp1718
(dp1719
g6
Nsg8
S'OTHER'
p1720
sg10
Nsg24
NsbsS'who'
p1721
g0
(g1
g2
Ntp1722
Rp1723
(dp1724
g6
Nsg8
S'PERSON'
p1725
sg10
Nsg24
NsbsS'when'
p1726
g0
(g1
g2
Ntp1727
Rp1728
(dp1729
g6
Nsg8
S'DATE'
p1730
sg10
Nsg24
Nsbssg24
NsbsS'faces'
p1731
g0
(g1
g2
Ntp1732
Rp1733
(dp1734
g6
Nsg8
S'OTHER'
p1735
sg10
Nsg24
NsbsS'maclaine'
p1736
g0
(g1
g2
Ntp1737
Rp1738
(dp1739
g6
g16
sg8
S'OTHER'
p1740
sg10
(dp1741
S'what'
p1742
g0
(g1
g2
Ntp1743
Rp1744
(dp1745
g6
Nsg8
g1740
sg10
Nsg24
NsbsS'who'
p1746
g0
(g1
g2
Ntp1747
Rp1748
(dp1749
g6
Nsg8
S'PERSON'
p1750
sg10
Nsg24
Nsbssg24
NsbsS'seizure'
p1751
g0
(g1
g2
Ntp1752
Rp1753
(dp1754
g6
Nsg8
S'ORGANIZATION'
p1755
sg10
Nsg24
NsbsS'canyon'
p1756
g0
(g1
g2
Ntp1757
Rp1758
(dp1759
g6
Nsg8
S'LOCATION'
p1760
sg10
Nsg24
NsbsS'hitler'
p1761
g0
(g1
g2
Ntp1762
Rp1763
(dp1764
g6
Nsg8
S'DATE'
p1765
sg10
Nsg24
NsbsS'conference'
p1766
g0
(g1
g2
Ntp1767
Rp1768
(dp1769
g6
Nsg8
S'OTHER'
p1770
sg10
Nsg24
NsbsS'engines'
p1771
g0
(g1
g2
Ntp1772
Rp1773
(dp1774
g6
Nsg8
S'NUMBER'
p1775
sg10
Nsg24
NsbsS'submarine'
p1776
g0
(g1
g2
Ntp1777
Rp1778
(dp1779
g6
Nsg8
S'OTHER'
p1780
sg10
Nsg24
NsbsS'beer'
p1781
g0
(g1
g2
Ntp1782
Rp1783
(dp1784
g6
Nsg8
S'OTHER'
p1785
sg10
Nsg24
NsbsS'stadium'
p1786
g0
(g1
g2
Ntp1787
Rp1788
(dp1789
g6
Nsg8
S'LOCATION'
p1790
sg10
Nsg24
NsbsS'teenager'
p1791
g0
(g1
g2
Ntp1792
Rp1793
(dp1794
g6
g16
sg8
S'PERSON'
p1795
sg10
(dp1796
S'who'
p1797
g0
(g1
g2
Ntp1798
Rp1799
(dp1800
g6
Nsg8
g1795
sg10
Nsg24
NsbsS'when'
p1801
g0
(g1
g2
Ntp1802
Rp1803
(dp1804
g6
Nsg8
S'DATE'
p1805
sg10
Nsg24
Nsbssg24
NsbsS'dots'
p1806
g0
(g1
g2
Ntp1807
Rp1808
(dp1809
g6
Nsg8
S'NUMBER'
p1810
sg10
Nsg24
NsbsS'life'
p1811
g0
(g1
g2
Ntp1812
Rp1813
(dp1814
g6
Nsg8
S'PERSON'
p1815
sg10
Nsg24
NsbsS'generals'
p1816
g0
(g1
g2
Ntp1817
Rp1818
(dp1819
g6
Nsg8
S'NUMBER'
p1820
sg10
Nsg24
NsbsS'child'
p1821
g0
(g1
g2
Ntp1822
Rp1823
(dp1824
g6
Nsg8
S'PERSON'
p1825
sg10
Nsg24
NsbsS'7847'
p1826
g0
(g1
g2
Ntp1827
Rp1828
(dp1829
g6
Nsg8
S'NUMBER'
p1830
sg10
Nsg24
NsbsS'physician'
p1831
g0
(g1
g2
Ntp1832
Rp1833
(dp1834
g6
Nsg8
S'PERSON'
p1835
sg10
Nsg24
NsbsS'calcium'
p1836
g0
(g1
g2
Ntp1837
Rp1838
(dp1839
g6
Nsg8
S'NUMBER'
p1840
sg10
Nsg24
NsbsS'voice'
p1841
g0
(g1
g2
Ntp1842
Rp1843
(dp1844
g6
Nsg8
S'PERSON'
p1845
sg10
Nsg24
NsbsS'procedure'
p1846
g0
(g1
g2
Ntp1847
Rp1848
(dp1849
g6
Nsg8
S'OTHER'
p1850
sg10
Nsg24
NsbsS'pyramid'
p1851
g0
(g1
g2
Ntp1852
Rp1853
(dp1854
g6
Nsg8
S'PERSON'
p1855
sg10
Nsg24
NsbsS'iq'
p1856
g0
(g1
g2
Ntp1857
Rp1858
(dp1859
g6
Nsg8
S'NUMBER'
p1860
sg10
Nsg24
NsbsS'player'
p1861
g0
(g1
g2
Ntp1862
Rp1863
(dp1864
g6
Nsg8
S'PERSON'
p1865
sg10
Nsg24
NsbsS'cone'
p1866
g0
(g1
g2
Ntp1867
Rp1868
(dp1869
g6
Nsg8
S'PERSON'
p1870
sg10
Nsg24
NsbsS'airport'
p1871
g0
(g1
g2
Ntp1872
Rp1873
(dp1874
g6
Nsg8
S'LOCATION'
p1875
sg10
Nsg24
NsbsS'picts'
p1876
g0
(g1
g2
Ntp1877
Rp1878
(dp1879
g6
Nsg8
S'PERSON'
p1880
sg10
Nsg24
NsbsS'complex'
p1881
g0
(g1
g2
Ntp1882
Rp1883
(dp1884
g6
Nsg8
S'LOCATION'
p1885
sg10
Nsg24
NsbsS'esquire'
p1886
g0
(g1
g2
Ntp1887
Rp1888
(dp1889
g6
Nsg8
S'OTHER'
p1890
sg10
Nsg24
NsbsS'vegetable'
p1891
g0
(g1
g2
Ntp1892
Rp1893
(dp1894
g6
Nsg8
S'OTHER'
p1895
sg10
Nsg24
NsbsS'monarch'
p1896
g0
(g1
g2
Ntp1897
Rp1898
(dp1899
g6
Nsg8
S'PERSON'
p1900
sg10
Nsg24
NsbsS'colonies'
p1901
g0
(g1
g2
Ntp1902
Rp1903
(dp1904
g6
Nsg8
S'NUMBER'
p1905
sg10
Nsg24
NsbsS'bid'
p1906
g0
(g1
g2
Ntp1907
Rp1908
(dp1909
g6
Nsg8
S'OTHER'
p1910
sg10
Nsg24
NsbsS'inventors'
p1911
g0
(g1
g2
Ntp1912
Rp1913
(dp1914
g6
Nsg8
S'PERSON'
p1915
sg10
Nsg24
NsbsS'wheel'
p1916
g0
(g1
g2
Ntp1917
Rp1918
(dp1919
g6
Nsg8
S'OTHER'
p1920
sg10
Nsg24
NsbsS'hand'
p1921
g0
(g1
g2
Ntp1922
Rp1923
(dp1924
g6
Nsg8
S'OTHER'
p1925
sg10
Nsg24
NsbsS'waterfall'
p1926
g0
(g1
g2
Ntp1927
Rp1928
(dp1929
g6
Nsg8
S'LOCATION'
p1930
sg10
Nsg24
NsbsS'characters'
p1931
g0
(g1
g2
Ntp1932
Rp1933
(dp1934
g6
g16
sg8
S'NUMBER'
p1935
sg10
(dp1936
S'how'
p1937
g0
(g1
g2
Ntp1938
Rp1939
(dp1940
g6
Nsg8
S'NUMBER'
p1941
sg10
Nsg24
NsbsS'what'
p1942
g0
(g1
g2
Ntp1943
Rp1944
(dp1945
g6
Nsg8
S'PERSON'
p1946
sg10
Nsg24
Nsbssg24
NsbsS'tune'
p1947
g0
(g1
g2
Ntp1948
Rp1949
(dp1950
g6
Nsg8
S'OTHER'
p1951
sg10
Nsg24
NsbsS'kid'
p1952
g0
(g1
g2
Ntp1953
Rp1954
(dp1955
g6
g16
sg8
S'OTHER'
p1956
sg10
(dp1957
S'what'
p1958
g0
(g1
g2
Ntp1959
Rp1960
(dp1961
g6
Nsg8
g1956
sg10
Nsg24
NsbsS'who'
p1962
g0
(g1
g2
Ntp1963
Rp1964
(dp1965
g6
Nsg8
S'PERSON'
p1966
sg10
Nsg24
Nsbssg24
NsbsS'smokey'
p1967
g0
(g1
g2
Ntp1968
Rp1969
(dp1970
g6
Nsg8
S'OTHER'
p1971
sg10
Nsg24
NsbsS'peacocks'
p1972
g0
(g1
g2
Ntp1973
Rp1974
(dp1975
g6
Nsg8
S'OTHER'
p1976
sg10
Nsg24
NsbsS'vice-president'
p1977
g0
(g1
g2
Ntp1978
Rp1979
(dp1980
g6
Nsg8
S'PERSON'
p1981
sg10
Nsg24
NsbsS'suffering'
p1982
g0
(g1
g2
Ntp1983
Rp1984
(dp1985
g6
Nsg8
S'OTHER'
p1986
sg10
Nsg24
NsbsS'ocean'
p1987
g0
(g1
g2
Ntp1988
Rp1989
(dp1990
g6
Nsg8
S'LOCATION'
p1991
sg10
Nsg24
NsbsS'materials'
p1992
g0
(g1
g2
Ntp1993
Rp1994
(dp1995
g6
Nsg8
S'OTHER'
p1996
sg10
Nsg24
NsbsS'mother'
p1997
g0
(g1
g2
Ntp1998
Rp1999
(dp2000
g6
Nsg8
S'PERSON'
p2001
sg10
Nsg24
NsbsS'hearts'
p2002
g0
(g1
g2
Ntp2003
Rp2004
(dp2005
g6
Nsg8
S'NUMBER'
p2006
sg10
Nsg24
NsbsS'musical'
p2007
g0
(g1
g2
Ntp2008
Rp2009
(dp2010
g6
Nsg8
S'OTHER'
p2011
sg10
Nsg24
NsbsS'snowman'
p2012
g0
(g1
g2
Ntp2013
Rp2014
(dp2015
g6
Nsg8
S'LOCATION'
p2016
sg10
Nsg24
NsbsS'traditions'
p2017
g0
(g1
g2
Ntp2018
Rp2019
(dp2020
g6
Nsg8
S'OTHER'
p2021
sg10
Nsg24
NsbsS'basophobic'
p2022
g0
(g1
g2
Ntp2023
Rp2024
(dp2025
g6
Nsg8
S'OTHER'
p2026
sg10
Nsg24
NsbsS'verses'
p2027
g0
(g1
g2
Ntp2028
Rp2029
(dp2030
g6
Nsg8
S'NUMBER'
p2031
sg10
Nsg24
NsbsS'palpatine'
p2032
g0
(g1
g2
Ntp2033
Rp2034
(dp2035
g6
Nsg8
S'PERSON'
p2036
sg10
Nsg24
NsbsS'character'
p2037
g0
(g1
g2
Ntp2038
Rp2039
(dp2040
g6
Nsg8
S'PERSON'
p2041
sg10
Nsg24
NsbsS'woodstock'
p2042
g0
(g1
g2
Ntp2043
Rp2044
(dp2045
g6
Nsg8
S'LOCATION'
p2046
sg10
Nsg24
NsbsS'board'
p2047
g0
(g1
g2
Ntp2048
Rp2049
(dp2050
g6
Nsg8
S'OTHER'
p2051
sg10
Nsg24
NsbsS'prison'
p2052
g0
(g1
g2
Ntp2053
Rp2054
(dp2055
g6
Nsg8
S'LOCATION'
p2056
sg10
Nsg24
NsbsS'sailors'
p2057
g0
(g1
g2
Ntp2058
Rp2059
(dp2060
g6
Nsg8
S'OTHER'
p2061
sg10
Nsg24
NsbsS'bands'
p2062
g0
(g1
g2
Ntp2063
Rp2064
(dp2065
g6
Nsg8
S'OTHER'
p2066
sg10
Nsg24
NsbsS'caps'
p2067
g0
(g1
g2
Ntp2068
Rp2069
(dp2070
g6
Nsg8
S'MONEY'
p2071
sg10
Nsg24
NsbsS'boxer'
p2072
g0
(g1
g2
Ntp2073
Rp2074
(dp2075
g6
Nsg8
S'PERSON'
p2076
sg10
Nsg24
NsbsS'thucydides'
p2077
g0
(g1
g2
Ntp2078
Rp2079
(dp2080
g6
Nsg8
S'PERSON'
p2081
sg10
Nsg24
NsbsS'picasso'
p2082
g0
(g1
g2
Ntp2083
Rp2084
(dp2085
g6
Nsg8
S'PERSON'
p2086
sg10
Nsg24
NsbsS'cinzano'
p2087
g0
(g1
g2
Ntp2088
Rp2089
(dp2090
g6
Nsg8
S'PERSON'
p2091
sg10
Nsg24
NsbsS'steps'
p2092
g0
(g1
g2
Ntp2093
Rp2094
(dp2095
g6
Nsg8
S'LOCATION'
p2096
sg10
Nsg24
NsbsS'vegetation'
p2097
g0
(g1
g2
Ntp2098
Rp2099
(dp2100
g6
Nsg8
S'NUMBER'
p2101
sg10
Nsg24
NsbsS'night'
p2102
g0
(g1
g2
Ntp2103
Rp2104
(dp2105
g6
Nsg8
S'PERSON'
p2106
sg10
Nsg24
NsbsS'battlefield'
p2107
g0
(g1
g2
Ntp2108
Rp2109
(dp2110
g6
Nsg8
S'LOCATION'
p2111
sg10
Nsg24
NsbsS'www'
p2112
g0
(g1
g2
Ntp2113
Rp2114
(dp2115
g6
Nsg8
S'PERSON'
p2116
sg10
Nsg24
NsbsS'commanders'
p2117
g0
(g1
g2
Ntp2118
Rp2119
(dp2120
g6
Nsg8
S'PERSON'
p2121
sg10
Nsg24
NsbsS'korea'
p2122
g0
(g1
g2
Ntp2123
Rp2124
(dp2125
g6
Nsg8
S'DATE'
p2126
sg10
Nsg24
NsbsS'people'
p2127
g0
(g1
g2
Ntp2128
Rp2129
(dp2130
g6
g16
sg8
S'ORGANIZATION'
p2131
sg10
(dp2132
S'how'
p2133
g0
(g1
g2
Ntp2134
Rp2135
(dp2136
g6
Nsg8
S'NUMBER'
p2137
sg10
Nsg24
NsbsS'what'
p2138
g0
(g1
g2
Ntp2139
Rp2140
(dp2141
g6
Nsg8
S'ORGANIZATION'
p2142
sg10
Nsg24
NsbsS'who'
p2143
g0
(g1
g2
Ntp2144
Rp2145
(dp2146
g6
Nsg8
S'PERSON'
p2147
sg10
Nsg24
NsbsS'where'
p2148
g0
(g1
g2
Ntp2149
Rp2150
(dp2151
g6
Nsg8
S'LOCATION'
p2152
sg10
Nsg24
Nsbssg24
NsbsS'stardust'
p2153
g0
(g1
g2
Ntp2154
Rp2155
(dp2156
g6
Nsg8
S'PERSON'
p2157
sg10
Nsg24
NsbsS'election'
p2158
g0
(g1
g2
Ntp2159
Rp2160
(dp2161
g6
Nsg8
S'PERSON'
p2162
sg10
Nsg24
NsbsS'enemies'
p2163
g0
(g1
g2
Ntp2164
Rp2165
(dp2166
g6
Nsg8
S'ORGANIZATION'
p2167
sg10
Nsg24
NsbsS'ice'
p2168
g0
(g1
g2
Ntp2169
Rp2170
(dp2171
g6
Nsg8
S'OTHER'
p2172
sg10
Nsg24
NsbsS'shakespeare'
p2173
g0
(g1
g2
Ntp2174
Rp2175
(dp2176
g6
Nsg8
S'OTHER'
p2177
sg10
Nsg24
NsbsS'cnn'
p2178
g0
(g1
g2
Ntp2179
Rp2180
(dp2181
g6
g16
sg8
S'PERSON'
p2182
sg10
(dp2183
S'who'
p2184
g0
(g1
g2
Ntp2185
Rp2186
(dp2187
g6
Nsg8
g2182
sg10
Nsg24
NsbsS'when'
p2188
g0
(g1
g2
Ntp2189
Rp2190
(dp2191
g6
Nsg8
S'DATE'
p2192
sg10
Nsg24
Nsbssg24
NsbsS'offices'
p2193
g0
(g1
g2
Ntp2194
Rp2195
(dp2196
g6
Nsg8
S'ORGANIZATION'
p2197
sg10
Nsg24
NsbsS'officer'
p2198
g0
(g1
g2
Ntp2199
Rp2200
(dp2201
g6
Nsg8
S'PERSON'
p2202
sg10
Nsg24
NsbsS'columbus'
p2203
g0
(g1
g2
Ntp2204
Rp2205
(dp2206
g6
Nsg8
S'LOCATION'
p2207
sg10
Nsg24
NsbsS'englishmen'
p2208
g0
(g1
g2
Ntp2209
Rp2210
(dp2211
g6
Nsg8
S'NUMBER'
p2212
sg10
Nsg24
NsbsS'super'
p2213
g0
(g1
g2
Ntp2214
Rp2215
(dp2216
g6
Nsg8
S'ORGANIZATION'
p2217
sg10
Nsg24
NsbsS'trophy'
p2218
g0
(g1
g2
Ntp2219
Rp2220
(dp2221
g6
Nsg8
S'OTHER'
p2222
sg10
Nsg24
NsbsS'cowboy'
p2223
g0
(g1
g2
Ntp2224
Rp2225
(dp2226
g6
Nsg8
S'PERSON'
p2227
sg10
Nsg24
NsbsS'months'
p2228
g0
(g1
g2
Ntp2229
Rp2230
(dp2231
g6
g16
sg8
S'NUMBER'
p2232
sg10
(dp2233
S'how'
p2234
g0
(g1
g2
Ntp2235
Rp2236
(dp2237
g6
Nsg8
S'NUMBER'
p2238
sg10
Nsg24
NsbsS'what'
p2239
g0
(g1
g2
Ntp2240
Rp2241
(dp2242
g6
Nsg8
S'DATE'
p2243
sg10
Nsg24
Nsbssg24
NsbsS'ranges'
p2244
g0
(g1
g2
Ntp2245
Rp2246
(dp2247
g6
Nsg8
S'LOCATION'
p2248
sg10
Nsg24
NsbsS'magazine'
p2249
g0
(g1
g2
Ntp2250
Rp2251
(dp2252
g6
Nsg8
S'OTHER'
p2253
sg10
Nsg24
NsbsS'coronado'
p2254
g0
(g1
g2
Ntp2255
Rp2256
(dp2257
g6
Nsg8
S'PERSON'
p2258
sg10
Nsg24
NsbsS'islands'
p2259
g0
(g1
g2
Ntp2260
Rp2261
(dp2262
g6
g16
sg8
S'NUMBER'
p2263
sg10
(dp2264
S'how'
p2265
g0
(g1
g2
Ntp2266
Rp2267
(dp2268
g6
Nsg8
S'NUMBER'
p2269
sg10
Nsg24
NsbsS'what'
p2270
g0
(g1
g2
Ntp2271
Rp2272
(dp2273
g6
Nsg8
S'LOCATION'
p2274
sg10
Nsg24
Nsbssg24
NsbsS'nixon'
p2275
g0
(g1
g2
Ntp2276
Rp2277
(dp2278
g6
g16
sg8
S'DATE'
p2279
sg10
(dp2280
S'where'
p2281
g0
(g1
g2
Ntp2282
Rp2283
(dp2284
g6
Nsg8
S'LOCATION'
p2285
sg10
Nsg24
NsbsS'who'
p2286
g0
(g1
g2
Ntp2287
Rp2288
(dp2289
g6
Nsg8
S'PERSON'
p2290
sg10
Nsg24
NsbsS'when'
p2291
g0
(g1
g2
Ntp2292
Rp2293
(dp2294
g6
Nsg8
S'DATE'
p2295
sg10
Nsg24
Nsbssg24
NsbsS'logo'
p2296
g0
(g1
g2
Ntp2297
Rp2298
(dp2299
g6
Nsg8
S'ORGANIZATION'
p2300
sg10
Nsg24
NsbsS'profession'
p2301
g0
(g1
g2
Ntp2302
Rp2303
(dp2304
g6
Nsg8
S'PERSON'
p2305
sg10
Nsg24
NsbsS'auh2o'
p2306
g0
(g1
g2
Ntp2307
Rp2308
(dp2309
g6
Nsg8
S'PERSON'
p2310
sg10
Nsg24
NsbsS'son'
p2311
g0
(g1
g2
Ntp2312
Rp2313
(dp2314
g6
Nsg8
S'PERSON'
p2315
sg10
Nsg24
NsbsS'rosanna-dana'
p2316
g0
(g1
g2
Ntp2317
Rp2318
(dp2319
g6
Nsg8
S'PERSON'
p2320
sg10
Nsg24
NsbsS'ussr'
p2321
g0
(g1
g2
Ntp2322
Rp2323
(dp2324
g6
Nsg8
S'DATE'
p2325
sg10
Nsg24
NsbsS'amsterdam'
p2326
g0
(g1
g2
Ntp2327
Rp2328
(dp2329
g6
Nsg8
S'LOCATION'
p2330
sg10
Nsg24
NsbsS'sculptress'
p2331
g0
(g1
g2
Ntp2332
Rp2333
(dp2334
g6
Nsg8
S'PERSON'
p2335
sg10
Nsg24
NsbsS'tennis'
p2336
g0
(g1
g2
Ntp2337
Rp2338
(dp2339
g6
Nsg8
S'PERSON'
p2340
sg10
Nsg24
NsbsS'class'
p2341
g0
(g1
g2
Ntp2342
Rp2343
(dp2344
g6
Nsg8
S'OTHER'
p2345
sg10
Nsg24
NsbsS'editor'
p2346
g0
(g1
g2
Ntp2347
Rp2348
(dp2349
g6
Nsg8
S'PERSON'
p2350
sg10
Nsg24
NsbsS'way'
p2351
g0
(g1
g2
Ntp2352
Rp2353
(dp2354
g6
g16
sg8
S'OTHER'
p2355
sg10
(dp2356
S'what'
p2357
g0
(g1
g2
Ntp2358
Rp2359
(dp2360
g6
Nsg8
S'OTHER'
p2361
sg10
Nsg24
NsbsS'who'
p2362
g0
(g1
g2
Ntp2363
Rp2364
(dp2365
g6
Nsg8
S'PERSON'
p2366
sg10
Nsg24
NsbsS'which'
p2367
g0
(g1
g2
Ntp2368
Rp2369
(dp2370
g6
Nsg8
S'LOCATION'
p2371
sg10
Nsg24
Nsbssg24
NsbsS'war'
p2372
g0
(g1
g2
Ntp2373
Rp2374
(dp2375
g6
g16
sg8
S'OTHER'
p2376
sg10
(dp2377
S'what'
p2378
g0
(g1
g2
Ntp2379
Rp2380
(dp2381
g6
Nsg8
S'OTHER'
p2382
sg10
Nsg24
NsbsS'who'
p2383
g0
(g1
g2
Ntp2384
Rp2385
(dp2386
g6
Nsg8
S'PERSON'
p2387
sg10
Nsg24
NsbsS'when'
p2388
g0
(g1
g2
Ntp2389
Rp2390
(dp2391
g6
Nsg8
S'DATE'
p2392
sg10
Nsg24
NsbsS'in'
p2393
g0
(g1
g2
Ntp2394
Rp2395
(dp2396
g6
Nsg8
S'OTHER'
p2397
sg10
Nsg24
Nsbssg24
NsbsS'head'
p2398
g0
(g1
g2
Ntp2399
Rp2400
(dp2401
g6
g16
sg8
S'PERSON'
p2402
sg10
(dp2403
S'how'
p2404
g0
(g1
g2
Ntp2405
Rp2406
(dp2407
g6
Nsg8
S'NUMBER'
p2408
sg10
Nsg24
NsbsS'who'
p2409
g0
(g1
g2
Ntp2410
Rp2411
(dp2412
g6
Nsg8
S'PERSON'
p2413
sg10
Nsg24
Nsbssg24
NsbsS'medium'
p2414
g0
(g1
g2
Ntp2415
Rp2416
(dp2417
g6
Nsg8
S'OTHER'
p2418
sg10
Nsg24
NsbsS'form'
p2419
g0
(g1
g2
Ntp2420
Rp2421
(dp2422
g6
Nsg8
S'OTHER'
p2423
sg10
Nsg24
NsbsS'manufacturers'
p2424
g0
(g1
g2
Ntp2425
Rp2426
(dp2427
g6
Nsg8
S'ORGANIZATION'
p2428
sg10
Nsg24
NsbsS'observances'
p2429
g0
(g1
g2
Ntp2430
Rp2431
(dp2432
g6
Nsg8
S'OTHER'
p2433
sg10
Nsg24
NsbsS'manatees'
p2434
g0
(g1
g2
Ntp2435
Rp2436
(dp2437
g6
Nsg8
S'OTHER'
p2438
sg10
Nsg24
NsbsS'milligrams'
p2439
g0
(g1
g2
Ntp2440
Rp2441
(dp2442
g6
Nsg8
S'NUMBER'
p2443
sg10
Nsg24
NsbsS'vatican'
p2444
g0
(g1
g2
Ntp2445
Rp2446
(dp2447
g6
Nsg8
S'PERSON'
p2448
sg10
Nsg24
NsbsS'meters'
p2449
g0
(g1
g2
Ntp2450
Rp2451
(dp2452
g6
Nsg8
S'NUMBER'
p2453
sg10
Nsg24
NsbsS'stages'
p2454
g0
(g1
g2
Ntp2455
Rp2456
(dp2457
g6
Nsg8
S'OTHER'
p2458
sg10
Nsg24
NsbsS'passenger'
p2459
g0
(g1
g2
Ntp2460
Rp2461
(dp2462
g6
Nsg8
S'LOCATION'
p2463
sg10
Nsg24
NsbsS'moore'
p2464
g0
(g1
g2
Ntp2465
Rp2466
(dp2467
g6
Nsg8
S'PERSON'
p2468
sg10
Nsg24
NsbsS'classic'
p2469
g0
(g1
g2
Ntp2470
Rp2471
(dp2472
g6
Nsg8
S'OTHER'
p2473
sg10
Nsg24
NsbsS'tesla'
p2474
g0
(g1
g2
Ntp2475
Rp2476
(dp2477
g6
Nsg8
S'LOCATION'
p2478
sg10
Nsg24
NsbsS'abstract'
p2479
g0
(g1
g2
Ntp2480
Rp2481
(dp2482
g6
Nsg8
S'LOCATION'
p2483
sg10
Nsg24
NsbsS'gland'
p2484
g0
(g1
g2
Ntp2485
Rp2486
(dp2487
g6
Nsg8
S'OTHER'
p2488
sg10
Nsg24
NsbsS'ship'
p2489
g0
(g1
g2
Ntp2490
Rp2491
(dp2492
g6
Nsg8
S'OTHER'
p2493
sg10
Nsg24
NsbsS'distributions'
p2494
g0
(g1
g2
Ntp2495
Rp2496
(dp2497
g6
Nsg8
S'LOCATION'
p2498
sg10
Nsg24
NsbsS'nnp'
p2499
g0
(g1
g2
Ntp2500
Rp2501
(dp2502
g6
Nsg8
S'PERSON'
p2503
sg10
Nsg24
NsbsS'dumpty'
p2504
g0
(g1
g2
Ntp2505
Rp2506
(dp2507
g6
Nsg8
S'PERSON'
p2508
sg10
Nsg24
NsbsS'actor'
p2509
g0
(g1
g2
Ntp2510
Rp2511
(dp2512
g6
Nsg8
S'PERSON'
p2513
sg10
Nsg24
NsbsS'website'
p2514
g0
(g1
g2
Ntp2515
Rp2516
(dp2517
g6
Nsg8
S'LOCATION'
p2518
sg10
Nsg24
NsbsS'flood'
p2519
g0
(g1
g2
Ntp2520
Rp2521
(dp2522
g6
Nsg8
S'DATE'
p2523
sg10
Nsg24
NsbsS'pickering'
p2524
g0
(g1
g2
Ntp2525
Rp2526
(dp2527
g6
Nsg8
S'PERSON'
p2528
sg10
Nsg24
NsbsS'republic'
p2529
g0
(g1
g2
Ntp2530
Rp2531
(dp2532
g6
Nsg8
S'LOCATION'
p2533
sg10
Nsg24
NsbsS'test'
p2534
g0
(g1
g2
Ntp2535
Rp2536
(dp2537
g6
Nsg8
S'DATE'
p2538
sg10
Nsg24
NsbsS'pseudonym'
p2539
g0
(g1
g2
Ntp2540
Rp2541
(dp2542
g6
Nsg8
S'PERSON'
p2543
sg10
Nsg24
NsbsS'brothers'
p2544
g0
(g1
g2
Ntp2545
Rp2546
(dp2547
g6
g16
sg8
S'NUMBER'
p2548
sg10
(dp2549
S'how'
p2550
g0
(g1
g2
Ntp2551
Rp2552
(dp2553
g6
Nsg8
g2548
sg10
Nsg24
NsbsS'what'
p2554
g0
(g1
g2
Ntp2555
Rp2556
(dp2557
g6
Nsg8
S'OTHER'
p2558
sg10
Nsg24
NsbsS'who'
p2559
g0
(g1
g2
Ntp2560
Rp2561
(dp2562
g6
Nsg8
S'PERSON'
p2563
sg10
Nsg24
NsbsS'where'
p2564
g0
(g1
g2
Ntp2565
Rp2566
(dp2567
g6
Nsg8
S'LOCATION'
p2568
sg10
Nsg24
NsbsS'name'
p2569
g0
(g1
g2
Ntp2570
Rp2571
(dp2572
g6
Nsg8
S'PERSON'
p2573
sg10
Nsg24
Nsbssg24
NsbsS'juices'
p2574
g0
(g1
g2
Ntp2575
Rp2576
(dp2577
g6
Nsg8
S'NUMBER'
p2578
sg10
Nsg24
NsbsS'reign'
p2579
g0
(g1
g2
Ntp2580
Rp2581
(dp2582
g6
Nsg8
S'PERSON'
p2583
sg10
Nsg24
NsbsS'weekend'
p2584
g0
(g1
g2
Ntp2585
Rp2586
(dp2587
g6
Nsg8
S'DATE'
p2588
sg10
Nsg24
NsbsS'airman'
p2589
g0
(g1
g2
Ntp2590
Rp2591
(dp2592
g6
Nsg8
S'PERSON'
p2593
sg10
Nsg24
NsbsS'jones'
p2594
g0
(g1
g2
Ntp2595
Rp2596
(dp2597
g6
Nsg8
S'PERSON'
p2598
sg10
Nsg24
NsbsS'glass'
p2599
g0
(g1
g2
Ntp2600
Rp2601
(dp2602
g6
Nsg8
S'OTHER'
p2603
sg10
Nsg24
NsbsS'coastlines'
p2604
g0
(g1
g2
Ntp2605
Rp2606
(dp2607
g6
Nsg8
S'LOCATION'
p2608
sg10
Nsg24
NsbsS'ottawa'
p2609
g0
(g1
g2
Ntp2610
Rp2611
(dp2612
g6
Nsg8
S'PERSON'
p2613
sg10
Nsg24
NsbsS'fastener'
p2614
g0
(g1
g2
Ntp2615
Rp2616
(dp2617
g6
Nsg8
S'OTHER'
p2618
sg10
Nsg24
NsbsS'almanac'
p2619
g0
(g1
g2
Ntp2620
Rp2621
(dp2622
g6
Nsg8
S'PERSON'
p2623
sg10
Nsg24
NsbsS'time'
p2624
g0
(g1
g2
Ntp2625
Rp2626
(dp2627
g6
g16
sg8
S'NUMBER'
p2628
sg10
(dp2629
S'on'
p2630
g0
(g1
g2
Ntp2631
Rp2632
(dp2633
g6
Nsg8
S'TIME'
p2634
sg10
Nsg24
NsbsS'what'
p2635
g0
(g1
g2
Ntp2636
Rp2637
(dp2638
g6
Nsg8
S'TIME'
p2639
sg10
Nsg24
NsbsS'how'
p2640
g0
(g1
g2
Ntp2641
Rp2642
(dp2643
g6
Nsg8
g2628
sg10
Nsg24
Nsbssg24
NsbsS'songs'
p2644
g0
(g1
g2
Ntp2645
Rp2646
(dp2647
g6
Nsg8
S'OTHER'
p2648
sg10
Nsg24
NsbsS'coach'
p2649
g0
(g1
g2
Ntp2650
Rp2651
(dp2652
g6
Nsg8
S'PERSON'
p2653
sg10
Nsg24
NsbsS'chain'
p2654
g0
(g1
g2
Ntp2655
Rp2656
(dp2657
g6
g16
sg8
S'ORGANIZATION'
p2658
sg10
(dp2659
S'who'
p2660
g0
(g1
g2
Ntp2661
Rp2662
(dp2663
g6
Nsg8
S'PERSON'
p2664
sg10
Nsg24
NsbsS'name'
p2665
g0
(g1
g2
Ntp2666
Rp2667
(dp2668
g6
Nsg8
g2658
sg10
Nsg24
Nsbssg24
NsbsS'jolson'
p2669
g0
(g1
g2
Ntp2670
Rp2671
(dp2672
g6
Nsg8
S'PERSON'
p2673
sg10
Nsg24
NsbsS'themes'
p2674
g0
(g1
g2
Ntp2675
Rp2676
(dp2677
g6
Nsg8
S'PERSON'
p2678
sg10
Nsg24
NsbsS'crocodile'
p2679
g0
(g1
g2
Ntp2680
Rp2681
(dp2682
g6
Nsg8
S'OTHER'
p2683
sg10
Nsg24
NsbsS'manager'
p2684
g0
(g1
g2
Ntp2685
Rp2686
(dp2687
g6
Nsg8
S'PERSON'
p2688
sg10
Nsg24
NsbsS'skin'
p2689
g0
(g1
g2
Ntp2690
Rp2691
(dp2692
g6
Nsg8
S'OTHER'
p2693
sg10
Nsg24
NsbsS'battle'
p2694
g0
(g1
g2
Ntp2695
Rp2696
(dp2697
g6
g16
sg8
S'OTHER'
p2698
sg10
(dp2699
S'when'
p2700
g0
(g1
g2
Ntp2701
Rp2702
(dp2703
g6
Nsg8
S'DATE'
p2704
sg10
Nsg24
NsbsS'what'
p2705
g0
(g1
g2
Ntp2706
Rp2707
(dp2708
g6
Nsg8
S'OTHER'
p2709
sg10
Nsg24
NsbsS'who'
p2710
g0
(g1
g2
Ntp2711
Rp2712
(dp2713
g6
Nsg8
S'PERSON'
p2714
sg10
Nsg24
NsbsS'where'
p2715
g0
(g1
g2
Ntp2716
Rp2717
(dp2718
g6
Nsg8
S'LOCATION'
p2719
sg10
Nsg24
Nsbssg24
NsbsS'mill'
p2720
g0
(g1
g2
Ntp2721
Rp2722
(dp2723
g6
Nsg8
S'DATE'
p2724
sg10
Nsg24
NsbsS'layers'
p2725
g0
(g1
g2
Ntp2726
Rp2727
(dp2728
g6
Nsg8
S'NUMBER'
p2729
sg10
Nsg24
NsbsS'technique'
p2730
g0
(g1
g2
Ntp2731
Rp2732
(dp2733
g6
Nsg8
S'OTHER'
p2734
sg10
Nsg24
NsbsS'father'
p2735
g0
(g1
g2
Ntp2736
Rp2737
(dp2738
g6
Nsg8
S'PERSON'
p2739
sg10
Nsg24
NsbsS'terror'
p2740
g0
(g1
g2
Ntp2741
Rp2742
(dp2743
g6
Nsg8
S'OTHER'
p2744
sg10
Nsg24
NsbsS'vegas'
p2745
g0
(g1
g2
Ntp2746
Rp2747
(dp2748
g6
Nsg8
S'LOCATION'
p2749
sg10
Nsg24
NsbsS'clouds'
p2750
g0
(g1
g2
Ntp2751
Rp2752
(dp2753
g6
Nsg8
S'OTHER'
p2754
sg10
Nsg24
NsbsS'level'
p2755
g0
(g1
g2
Ntp2756
Rp2757
(dp2758
g6
Nsg8
S'OTHER'
p2759
sg10
Nsg24
NsbsS'macdowell'
p2760
g0
(g1
g2
Ntp2761
Rp2762
(dp2763
g6
Nsg8
S'PERSON'
p2764
sg10
Nsg24
NsbsS'brother'
p2765
g0
(g1
g2
Ntp2766
Rp2767
(dp2768
g6
Nsg8
S'PERSON'
p2769
sg10
Nsg24
NsbsS'belushi'
p2770
g0
(g1
g2
Ntp2771
Rp2772
(dp2773
g6
Nsg8
S'OTHER'
p2774
sg10
Nsg24
NsbsS'team'
p2775
g0
(g1
g2
Ntp2776
Rp2777
(dp2778
g6
g16
sg8
S'ORGANIZATION'
p2779
sg10
(dp2780
S'what'
p2781
g0
(g1
g2
Ntp2782
Rp2783
(dp2784
g6
Nsg8
S'ORGANIZATION'
p2785
sg10
Nsg24
NsbsS'who'
p2786
g0
(g1
g2
Ntp2787
Rp2788
(dp2789
g6
Nsg8
S'PERSON'
p2790
sg10
Nsg24
NsbsS'where'
p2791
g0
(g1
g2
Ntp2792
Rp2793
(dp2794
g6
Nsg8
S'LOCATION'
p2795
sg10
Nsg24
NsbsS'name'
p2796
g0
(g1
g2
Ntp2797
Rp2798
(dp2799
g6
Nsg8
S'ORGANIZATION'
p2800
sg10
Nsg24
NsbsS'which'
p2801
g0
(g1
g2
Ntp2802
Rp2803
(dp2804
g6
Nsg8
S'ORGANIZATION'
p2805
sg10
Nsg24
Nsbssg24
NsbsS'guy'
p2806
g0
(g1
g2
Ntp2807
Rp2808
(dp2809
g6
Nsg8
S'PERSON'
p2810
sg10
Nsg24
NsbsS'stingers'
p2811
g0
(g1
g2
Ntp2812
Rp2813
(dp2814
g6
Nsg8
S'OTHER'
p2815
sg10
Nsg24
NsbsS'olympic'
p2816
g0
(g1
g2
Ntp2817
Rp2818
(dp2819
g6
Nsg8
S'OTHER'
p2820
sg10
Nsg24
NsbsS'villi'
p2821
g0
(g1
g2
Ntp2822
Rp2823
(dp2824
g6
Nsg8
S'NUMBER'
p2825
sg10
Nsg24
NsbsS'sign'
p2826
g0
(g1
g2
Ntp2827
Rp2828
(dp2829
g6
Nsg8
S'OTHER'
p2830
sg10
Nsg24
NsbsS'cost'
p2831
g0
(g1
g2
Ntp2832
Rp2833
(dp2834
g6
Nsg8
S'MONEY'
p2835
sg10
Nsg24
NsbsS'drinks'
p2836
g0
(g1
g2
Ntp2837
Rp2838
(dp2839
g6
Nsg8
S'LOCATION'
p2840
sg10
Nsg24
NsbsS'hymn'
p2841
g0
(g1
g2
Ntp2842
Rp2843
(dp2844
g6
Nsg8
S'OTHER'
p2845
sg10
Nsg24
NsbsS'constitution'
p2846
g0
(g1
g2
Ntp2847
Rp2848
(dp2849
g6
Nsg8
S'OTHER'
p2850
sg10
Nsg24
NsbsS'barbie'
p2851
g0
(g1
g2
Ntp2852
Rp2853
(dp2854
g6
Nsg8
S'DATE'
p2855
sg10
Nsg24
NsbsS'goes'
p2856
g0
(g1
g2
Ntp2857
Rp2858
(dp2859
g6
Nsg8
S'LOCATION'
p2860
sg10
Nsg24
NsbsS'tarantula'
p2861
g0
(g1
g2
Ntp2862
Rp2863
(dp2864
g6
Nsg8
S'OTHER'
p2865
sg10
Nsg24
NsbsS'badge'
p2866
g0
(g1
g2
Ntp2867
Rp2868
(dp2869
g6
Nsg8
S'PERSON'
p2870
sg10
Nsg24
NsbsS'dwarf'
p2871
g0
(g1
g2
Ntp2872
Rp2873
(dp2874
g6
Nsg8
S'LOCATION'
p2875
sg10
Nsg24
NsbsS'funeral'
p2876
g0
(g1
g2
Ntp2877
Rp2878
(dp2879
g6
Nsg8
S'PERSON'
p2880
sg10
Nsg24
NsbsS'makeup'
p2881
g0
(g1
g2
Ntp2882
Rp2883
(dp2884
g6
Nsg8
S'LOCATION'
p2885
sg10
Nsg24
NsbsS'french'
p2886
g0
(g1
g2
Ntp2887
Rp2888
(dp2889
g6
Nsg8
S'OTHER'
p2890
sg10
Nsg24
NsbsS'lakes'
p2891
g0
(g1
g2
Ntp2892
Rp2893
(dp2894
g6
Nsg8
S'NUMBER'
p2895
sg10
Nsg24
NsbsS'dubliners'
p2896
g0
(g1
g2
Ntp2897
Rp2898
(dp2899
g6
Nsg8
S'PERSON'
p2900
sg10
Nsg24
NsbsS'witch'
p2901
g0
(g1
g2
Ntp2902
Rp2903
(dp2904
g6
Nsg8
S'PERSON'
p2905
sg10
Nsg24
NsbsS'groups'
p2906
g0
(g1
g2
Ntp2907
Rp2908
(dp2909
g6
g16
sg8
S'ORGANIZATION'
p2910
sg10
(dp2911
S'what'
p2912
g0
(g1
g2
Ntp2913
Rp2914
(dp2915
g6
Nsg8
g2910
sg10
Nsg24
NsbsS'where'
p2916
g0
(g1
g2
Ntp2917
Rp2918
(dp2919
g6
Nsg8
S'LOCATION'
p2920
sg10
Nsg24
Nsbssg24
NsbsS'address'
p2921
g0
(g1
g2
Ntp2922
Rp2923
(dp2924
g6
Nsg8
S'LOCATION'
p2925
sg10
Nsg24
NsbsS'goldfish'
p2926
g0
(g1
g2
Ntp2927
Rp2928
(dp2929
g6
Nsg8
S'OTHER'
p2930
sg10
Nsg24
NsbsS'benson'
p2931
g0
(g1
g2
Ntp2932
Rp2933
(dp2934
g6
Nsg8
S'PERSON'
p2935
sg10
Nsg24
NsbsS'institute'
p2936
g0
(g1
g2
Ntp2937
Rp2938
(dp2939
g6
Nsg8
S'LOCATION'
p2940
sg10
Nsg24
NsbsS'franklin'
p2941
g0
(g1
g2
Ntp2942
Rp2943
(dp2944
g6
Nsg8
S'OTHER'
p2945
sg10
Nsg24
NsbsS'birthstone'
p2946
g0
(g1
g2
Ntp2947
Rp2948
(dp2949
g6
Nsg8
S'OTHER'
p2950
sg10
Nsg24
NsbsS'italians'
p2951
g0
(g1
g2
Ntp2952
Rp2953
(dp2954
g6
Nsg8
S'OTHER'
p2955
sg10
Nsg24
NsbsS'trinidad'
p2956
g0
(g1
g2
Ntp2957
Rp2958
(dp2959
g6
Nsg8
S'LOCATION'
p2960
sg10
Nsg24
NsbsS'flavors'
p2961
g0
(g1
g2
Ntp2962
Rp2963
(dp2964
g6
Nsg8
S'NUMBER'
p2965
sg10
Nsg24
NsbsS'troops'
p2966
g0
(g1
g2
Ntp2967
Rp2968
(dp2969
g6
Nsg8
S'DATE'
p2970
sg10
Nsg24
NsbsS'wonderbra'
p2971
g0
(g1
g2
Ntp2972
Rp2973
(dp2974
g6
Nsg8
S'PERSON'
p2975
sg10
Nsg24
NsbsS'films'
p2976
g0
(g1
g2
Ntp2977
Rp2978
(dp2979
g6
g16
sg8
S'NUMBER'
p2980
sg10
(dp2981
S'how'
p2982
g0
(g1
g2
Ntp2983
Rp2984
(dp2985
g6
Nsg8
S'NUMBER'
p2986
sg10
Nsg24
NsbsS'what'
p2987
g0
(g1
g2
Ntp2988
Rp2989
(dp2990
g6
Nsg8
S'OTHER'
p2991
sg10
Nsg24
Nsbssg24
NsbsS'sonnets'
p2992
g0
(g1
g2
Ntp2993
Rp2994
(dp2995
g6
Nsg8
S'NUMBER'
p2996
sg10
Nsg24
NsbsS'angels'
p2997
g0
(g1
g2
Ntp2998
Rp2999
(dp3000
g6
Nsg8
S'PERSON'
p3001
sg10
Nsg24
NsbsS'today'
p3002
g0
(g1
g2
Ntp3003
Rp3004
(dp3005
g6
Nsg8
S'NUMBER'
p3006
sg10
Nsg24
NsbsS'rios'
p3007
g0
(g1
g2
Ntp3008
Rp3009
(dp3010
g6
Nsg8
S'LOCATION'
p3011
sg10
Nsg24
NsbsS'stradivarius'
p3012
g0
(g1
g2
Ntp3013
Rp3014
(dp3015
g6
Nsg8
S'NUMBER'
p3016
sg10
Nsg24
NsbsS'club'
p3017
g0
(g1
g2
Ntp3018
Rp3019
(dp3020
g6
Nsg8
S'OTHER'
p3021
sg10
Nsg24
NsbsS'chocolate'
p3022
g0
(g1
g2
Ntp3023
Rp3024
(dp3025
g6
g16
sg8
S'ORGANIZATION'
p3026
sg10
(dp3027
S'what'
p3028
g0
(g1
g2
Ntp3029
Rp3030
(dp3031
g6
Nsg8
g3026
sg10
Nsg24
NsbsS'where'
p3032
g0
(g1
g2
Ntp3033
Rp3034
(dp3035
g6
Nsg8
S'LOCATION'
p3036
sg10
Nsg24
Nsbssg24
NsbsS'slinky'
p3037
g0
(g1
g2
Ntp3038
Rp3039
(dp3040
g6
Nsg8
S'DATE'
p3041
sg10
Nsg24
NsbsS'mascot'
p3042
g0
(g1
g2
Ntp3043
Rp3044
(dp3045
g6
Nsg8
S'OTHER'
p3046
sg10
Nsg24
NsbsS'car'
p3047
g0
(g1
g2
Ntp3048
Rp3049
(dp3050
g6
g16
sg8
S'OTHER'
p3051
sg10
(dp3052
S'what'
p3053
g0
(g1
g2
Ntp3054
Rp3055
(dp3056
g6
Nsg8
S'OTHER'
p3057
sg10
Nsg24
NsbsS'which'
p3058
g0
(g1
g2
Ntp3059
Rp3060
(dp3061
g6
Nsg8
S'ORGANIZATION'
p3062
sg10
Nsg24
Nsbssg24
NsbsS'confucius'
p3063
g0
(g1
g2
Ntp3064
Rp3065
(dp3066
g6
Nsg8
S'PERSON'
p3067
sg10
Nsg24
NsbsS'longitude'
p3068
g0
(g1
g2
Ntp3069
Rp3070
(dp3071
g6
Nsg8
S'NUMBER'
p3072
sg10
Nsg24
NsbsS'goodall'
p3073
g0
(g1
g2
Ntp3074
Rp3075
(dp3076
g6
Nsg8
S'PERSON'
p3077
sg10
Nsg24
NsbsS'best-seller'
p3078
g0
(g1
g2
Ntp3079
Rp3080
(dp3081
g6
Nsg8
S'OTHER'
p3082
sg10
Nsg24
NsbsS'spy'
p3083
g0
(g1
g2
Ntp3084
Rp3085
(dp3086
g6
Nsg8
S'PERSON'
p3087
sg10
Nsg24
NsbsS'performer'
p3088
g0
(g1
g2
Ntp3089
Rp3090
(dp3091
g6
Nsg8
S'PERSON'
p3092
sg10
Nsg24
NsbsS'figure'
p3093
g0
(g1
g2
Ntp3094
Rp3095
(dp3096
g6
Nsg8
S'PERSON'
p3097
sg10
Nsg24
NsbsS'chip'
p3098
g0
(g1
g2
Ntp3099
Rp3100
(dp3101
g6
Nsg8
S'OTHER'
p3102
sg10
Nsg24
NsbsS'teaspoons'
p3103
g0
(g1
g2
Ntp3104
Rp3105
(dp3106
g6
Nsg8
S'NUMBER'
p3107
sg10
Nsg24
NsbsS'stroke'
p3108
g0
(g1
g2
Ntp3109
Rp3110
(dp3111
g6
Nsg8
S'OTHER'
p3112
sg10
Nsg24
NsbsS'chemical'
p3113
g0
(g1
g2
Ntp3114
Rp3115
(dp3116
g6
Nsg8
S'OTHER'
p3117
sg10
Nsg24
NsbsS'cardinal'
p3118
g0
(g1
g2
Ntp3119
Rp3120
(dp3121
g6
Nsg8
S'PERSON'
p3122
sg10
Nsg24
NsbsS'skater'
p3123
g0
(g1
g2
Ntp3124
Rp3125
(dp3126
g6
Nsg8
S'PERSON'
p3127
sg10
Nsg24
NsbsS'pins'
p3128
g0
(g1
g2
Ntp3129
Rp3130
(dp3131
g6
Nsg8
S'NUMBER'
p3132
sg10
Nsg24
NsbsS'spielberg'
p3133
g0
(g1
g2
Ntp3134
Rp3135
(dp3136
g6
Nsg8
S'DATE'
p3137
sg10
Nsg24
NsbsS'designer'
p3138
g0
(g1
g2
Ntp3139
Rp3140
(dp3141
g6
Nsg8
S'PERSON'
p3142
sg10
Nsg24
NsbsS'explorer'
p3143
g0
(g1
g2
Ntp3144
Rp3145
(dp3146
g6
g16
sg8
S'PERSON'
p3147
sg10
(dp3148
S'what'
p3149
g0
(g1
g2
Ntp3150
Rp3151
(dp3152
g6
Nsg8
S'PERSON'
p3153
sg10
Nsg24
NsbsS'where'
p3154
g0
(g1
g2
Ntp3155
Rp3156
(dp3157
g6
Nsg8
S'LOCATION'
p3158
sg10
Nsg24
Nsbssg24
NsbsS'cocktail'
p3159
g0
(g1
g2
Ntp3160
Rp3161
(dp3162
g6
Nsg8
S'OTHER'
p3163
sg10
Nsg24
NsbsS'may'
p3164
g0
(g1
g2
Ntp3165
Rp3166
(dp3167
g6
Nsg8
S'OTHER'
p3168
sg10
Nsg24
NsbsS'clone'
p3169
g0
(g1
g2
Ntp3170
Rp3171
(dp3172
g6
Nsg8
S'OTHER'
p3173
sg10
Nsg24
NsbsS'rites'
p3174
g0
(g1
g2
Ntp3175
Rp3176
(dp3177
g6
Nsg8
S'OTHER'
p3178
sg10
Nsg24
NsbsS'conjugations'
p3179
g0
(g1
g2
Ntp3180
Rp3181
(dp3182
g6
Nsg8
S'OTHER'
p3183
sg10
Nsg24
NsbsS'birthday'
p3184
g0
(g1
g2
Ntp3185
Rp3186
(dp3187
g6
Nsg8
S'DATE'
p3188
sg10
Nsg24
NsbsS'date'
p3189
g0
(g1
g2
Ntp3190
Rp3191
(dp3192
g6
Nsg8
S'DATE'
p3193
sg10
Nsg24
NsbsS'man'
p3194
g0
(g1
g2
Ntp3195
Rp3196
(dp3197
g6
g16
sg8
S'PERSON'
p3198
sg10
(dp3199
S'what'
p3200
g0
(g1
g2
Ntp3201
Rp3202
(dp3203
g6
Nsg8
S'OTHER'
p3204
sg10
Nsg24
NsbsS'who'
p3205
g0
(g1
g2
Ntp3206
Rp3207
(dp3208
g6
Nsg8
S'PERSON'
p3209
sg10
Nsg24
NsbsS'when'
p3210
g0
(g1
g2
Ntp3211
Rp3212
(dp3213
g6
Nsg8
S'DATE'
p3214
sg10
Nsg24
Nsbssg24
NsbsS'surfing'
p3215
g0
(g1
g2
Ntp3216
Rp3217
(dp3218
g6
Nsg8
S'LOCATION'
p3219
sg10
Nsg24
NsbsS'noun'
p3220
g0
(g1
g2
Ntp3221
Rp3222
(dp3223
g6
Nsg8
S'OTHER'
p3224
sg10
Nsg24
NsbsS'commodity'
p3225
g0
(g1
g2
Ntp3226
Rp3227
(dp3228
g6
Nsg8
S'OTHER'
p3229
sg10
Nsg24
NsbsS'tale'
p3230
g0
(g1
g2
Ntp3231
Rp3232
(dp3233
g6
Nsg8
S'OTHER'
p3234
sg10
Nsg24
NsbsS'nebbish'
p3235
g0
(g1
g2
Ntp3236
Rp3237
(dp3238
g6
Nsg8
S'PERSON'
p3239
sg10
Nsg24
NsbsS'no.'
p3240
g0
(g1
g2
Ntp3241
Rp3242
(dp3243
g6
Nsg8
S'PERSON'
p3244
sg10
Nsg24
NsbsS'cathedral'
p3245
g0
(g1
g2
Ntp3246
Rp3247
(dp3248
g6
Nsg8
S'LOCATION'
p3249
sg10
Nsg24
NsbsS'years'
p3250
g0
(g1
g2
Ntp3251
Rp3252
(dp3253
g6
Nsg8
S'NUMBER'
p3254
sg10
Nsg24
NsbsS'course'
p3255
g0
(g1
g2
Ntp3256
Rp3257
(dp3258
g6
Nsg8
S'OTHER'
p3259
sg10
Nsg24
NsbsS'magoo'
p3260
g0
(g1
g2
Ntp3261
Rp3262
(dp3263
g6
Nsg8
S'OTHER'
p3264
sg10
Nsg24
NsbsS'birds'
p3265
g0
(g1
g2
Ntp3266
Rp3267
(dp3268
g6
Nsg8
S'OTHER'
p3269
sg10
Nsg24
NsbsS'self-portrait'
p3270
g0
(g1
g2
Ntp3271
Rp3272
(dp3273
g6
Nsg8
S'PERSON'
p3274
sg10
Nsg24
NsbsS'group'
p3275
g0
(g1
g2
Ntp3276
Rp3277
(dp3278
g6
g16
sg8
S'ORGANIZATION'
p3279
sg10
(dp3280
S'what'
p3281
g0
(g1
g2
Ntp3282
Rp3283
(dp3284
g6
Nsg8
S'ORGANIZATION'
p3285
sg10
Nsg24
NsbsS'when'
p3286
g0
(g1
g2
Ntp3287
Rp3288
(dp3289
g6
Nsg8
S'DATE'
p3290
sg10
Nsg24
Nsbssg24
NsbsS'forms'
p3291
g0
(g1
g2
Ntp3292
Rp3293
(dp3294
g6
Nsg8
S'OTHER'
p3295
sg10
Nsg24
NsbsS'window'
p3296
g0
(g1
g2
Ntp3297
Rp3298
(dp3299
g6
Nsg8
S'DATE'
p3300
sg10
Nsg24
NsbsS'dwarfs'
p3301
g0
(g1
g2
Ntp3302
Rp3303
(dp3304
g6
Nsg8
S'PERSON'
p3305
sg10
Nsg24
NsbsS'norway'
p3306
g0
(g1
g2
Ntp3307
Rp3308
(dp3309
g6
Nsg8
S'PERSON'
p3310
sg10
Nsg24
NsbsS'killer'
p3311
g0
(g1
g2
Ntp3312
Rp3313
(dp3314
g6
Nsg8
S'OTHER'
p3315
sg10
Nsg24
NsbsS'amendements'
p3316
g0
(g1
g2
Ntp3317
Rp3318
(dp3319
g6
Nsg8
S'OTHER'
p3320
sg10
Nsg24
NsbsS'nation'
p3321
g0
(g1
g2
Ntp3322
Rp3323
(dp3324
g6
Nsg8
S'LOCATION'
p3325
sg10
Nsg24
NsbsS'term'
p3326
g0
(g1
g2
Ntp3327
Rp3328
(dp3329
g6
Nsg8
S'OTHER'
p3330
sg10
Nsg24
NsbsS'attorneys'
p3331
g0
(g1
g2
Ntp3332
Rp3333
(dp3334
g6
Nsg8
S'PERSON'
p3335
sg10
Nsg24
NsbsS'name'
p3336
g0
(g1
g2
Ntp3337
Rp3338
(dp3339
g6
g16
sg8
S'OTHER'
p3340
sg10
(dp3341
S'what'
p3342
g0
(g1
g2
Ntp3343
Rp3344
(dp3345
g6
Nsg8
S'OTHER'
p3346
sg10
Nsg24
NsbsS'when'
p3347
g0
(g1
g2
Ntp3348
Rp3349
(dp3350
g6
Nsg8
S'PERSON'
p3351
sg10
Nsg24
NsbsS'mississippi'
p3352
g0
(g1
g2
Ntp3353
Rp3354
(dp3355
g6
Nsg8
S'LOCATION'
p3356
sg10
Nsg24
Nsbssg24
NsbsS'opera'
p3357
g0
(g1
g2
Ntp3358
Rp3359
(dp3360
g6
Nsg8
S'OTHER'
p3361
sg10
Nsg24
NsbsS'january'
p3362
g0
(g1
g2
Ntp3363
Rp3364
(dp3365
g6
Nsg8
S'OTHER'
p3366
sg10
Nsg24
NsbsS'bowling'
p3367
g0
(g1
g2
Ntp3368
Rp3369
(dp3370
g6
Nsg8
S'PERSON'
p3371
sg10
Nsg24
NsbsS'concerts'
p3372
g0
(g1
g2
Ntp3373
Rp3374
(dp3375
g6
Nsg8
S'OTHER'
p3376
sg10
Nsg24
NsbsS'square'
p3377
g0
(g1
g2
Ntp3378
Rp3379
(dp3380
g6
Nsg8
S'LOCATION'
p3381
sg10
Nsg24
NsbsS'ailment'
p3382
g0
(g1
g2
Ntp3383
Rp3384
(dp3385
g6
Nsg8
S'OTHER'
p3386
sg10
Nsg24
NsbsS'cyberspace'
p3387
g0
(g1
g2
Ntp3388
Rp3389
(dp3390
g6
Nsg8
S'PERSON'
p3391
sg10
Nsg24
NsbsS'kane'
p3392
g0
(g1
g2
Ntp3393
Rp3394
(dp3395
g6
Nsg8
S'PERSON'
p3396
sg10
Nsg24
NsbsS'year'
p3397
g0
(g1
g2
Ntp3398
Rp3399
(dp3400
g6
g16
sg8
S'DATE'
p3401
sg10
(dp3402
S'how'
p3403
g0
(g1
g2
Ntp3404
Rp3405
(dp3406
g6
Nsg8
S'NUMBER'
p3407
sg10
Nsg24
NsbsS'what'
p3408
g0
(g1
g2
Ntp3409
Rp3410
(dp3411
g6
Nsg8
S'DATE'
p3412
sg10
Nsg24
NsbsS'when'
p3413
g0
(g1
g2
Ntp3414
Rp3415
(dp3416
g6
Nsg8
S'DATE'
p3417
sg10
Nsg24
NsbsS'hitler'
p3418
g0
(g1
g2
Ntp3419
Rp3420
(dp3421
g6
Nsg8
S'DATE'
p3422
sg10
Nsg24
NsbsS'in'
p3423
g0
(g1
g2
Ntp3424
Rp3425
(dp3426
g6
Nsg8
S'DATE'
p3427
sg10
Nsg24
Nsbssg24
NsbsS'girl'
p3428
g0
(g1
g2
Ntp3429
Rp3430
(dp3431
g6
Nsg8
S'PERSON'
p3432
sg10
Nsg24
NsbsS'ribavirin'
p3433
g0
(g1
g2
Ntp3434
Rp3435
(dp3436
g6
Nsg8
S'OTHER'
p3437
sg10
Nsg24
NsbsS'album'
p3438
g0
(g1
g2
Ntp3439
Rp3440
(dp3441
g6
Nsg8
S'OTHER'
p3442
sg10
Nsg24
NsbsS'increase'
p3443
g0
(g1
g2
Ntp3444
Rp3445
(dp3446
g6
Nsg8
S'MONEY'
p3447
sg10
Nsg24
NsbsS'opener'
p3448
g0
(g1
g2
Ntp3449
Rp3450
(dp3451
g6
Nsg8
S'PERSON'
p3452
sg10
Nsg24
NsbsS'cobb'
p3453
g0
(g1
g2
Ntp3454
Rp3455
(dp3456
g6
Nsg8
S'LOCATION'
p3457
sg10
Nsg24
NsbsS'formula'
p3458
g0
(g1
g2
Ntp3459
Rp3460
(dp3461
g6
Nsg8
S'OTHER'
p3462
sg10
Nsg24
NsbsS'squares'
p3463
g0
(g1
g2
Ntp3464
Rp3465
(dp3466
g6
Nsg8
S'NUMBER'
p3467
sg10
Nsg24
NsbsS'maneuver'
p3468
g0
(g1
g2
Ntp3469
Rp3470
(dp3471
g6
Nsg8
S'OTHER'
p3472
sg10
Nsg24
NsbsS'theory'
p3473
g0
(g1
g2
Ntp3474
Rp3475
(dp3476
g6
Nsg8
S'PERSON'
p3477
sg10
Nsg24
NsbsS'cars'
p3478
g0
(g1
g2
Ntp3479
Rp3480
(dp3481
g6
Nsg8
S'LOCATION'
p3482
sg10
Nsg24
NsbsS'descendents'
p3483
g0
(g1
g2
Ntp3484
Rp3485
(dp3486
g6
Nsg8
S'OTHER'
p3487
sg10
Nsg24
NsbsS'hulk'
p3488
g0
(g1
g2
Ntp3489
Rp3490
(dp3491
g6
Nsg8
S'PERSON'
p3492
sg10
Nsg24
NsbsS'statistics'
p3493
g0
(g1
g2
Ntp3494
Rp3495
(dp3496
g6
Nsg8
S'NUMBER'
p3497
sg10
Nsg24
NsbsS'plea'
p3498
g0
(g1
g2
Ntp3499
Rp3500
(dp3501
g6
Nsg8
S'PERSON'
p3502
sg10
Nsg24
NsbsS'explorers'
p3503
g0
(g1
g2
Ntp3504
Rp3505
(dp3506
g6
Nsg8
S'PERSON'
p3507
sg10
Nsg24
NsbsS'card'
p3508
g0
(g1
g2
Ntp3509
Rp3510
(dp3511
g6
Nsg8
S'OTHER'
p3512
sg10
Nsg24
NsbsS'watts'
p3513
g0
(g1
g2
Ntp3514
Rp3515
(dp3516
g6
Nsg8
S'NUMBER'
p3517
sg10
Nsg24
NsbsS'hamed'
p3518
g0
(g1
g2
Ntp3519
Rp3520
(dp3521
g6
Nsg8
S'PERSON'
p3522
sg10
Nsg24
NsbsS'language'
p3523
g0
(g1
g2
Ntp3524
Rp3525
(dp3526
g6
Nsg8
S'OTHER'
p3527
sg10
Nsg24
NsbsS'calories'
p3528
g0
(g1
g2
Ntp3529
Rp3530
(dp3531
g6
Nsg8
S'NUMBER'
p3532
sg10
Nsg24
NsbsS'thing'
p3533
g0
(g1
g2
Ntp3534
Rp3535
(dp3536
g6
g16
sg8
S'LOCATION'
p3537
sg10
(dp3538
S'what'
p3539
g0
(g1
g2
Ntp3540
Rp3541
(dp3542
g6
Nsg8
S'OTHER'
p3543
sg10
Nsg24
NsbsS'where'
p3544
g0
(g1
g2
Ntp3545
Rp3546
(dp3547
g6
Nsg8
g3537
sg10
Nsg24
NsbsS'at'
p3548
g0
(g1
g2
Ntp3549
Rp3550
(dp3551
g6
Nsg8
S'OTHER'
p3552
sg10
Nsg24
Nsbssg24
NsbsS'place'
p3553
g0
(g1
g2
Ntp3554
Rp3555
(dp3556
g6
Nsg8
S'LOCATION'
p3557
sg10
Nsg24
NsbsS'gordon'
p3558
g0
(g1
g2
Ntp3559
Rp3560
(dp3561
g6
Nsg8
S'PERSON'
p3562
sg10
Nsg24
NsbsS'romania'
p3563
g0
(g1
g2
Ntp3564
Rp3565
(dp3566
g6
Nsg8
S'LOCATION'
p3567
sg10
Nsg24
NsbsS'damocles'
p3568
g0
(g1
g2
Ntp3569
Rp3570
(dp3571
g6
Nsg8
S'PERSON'
p3572
sg10
Nsg24
NsbsS'americans'
p3573
g0
(g1
g2
Ntp3574
Rp3575
(dp3576
g6
g16
sg8
S'NUMBER'
p3577
sg10
(dp3578
S'how'
p3579
g0
(g1
g2
Ntp3580
Rp3581
(dp3582
g6
Nsg8
S'NUMBER'
p3583
sg10
Nsg24
NsbsS'about'
p3584
g0
(g1
g2
Ntp3585
Rp3586
(dp3587
g6
Nsg8
g3577
sg10
Nsg24
NsbsS'when'
p3588
g0
(g1
g2
Ntp3589
Rp3590
(dp3591
g6
Nsg8
S'DATE'
p3592
sg10
Nsg24
Nsbssg24
NsbsS'message'
p3593
g0
(g1
g2
Ntp3594
Rp3595
(dp3596
g6
Nsg8
S'PERSON'
p3597
sg10
Nsg24
NsbsS'george'
p3598
g0
(g1
g2
Ntp3599
Rp3600
(dp3601
g6
Nsg8
S'LOCATION'
p3602
sg10
Nsg24
NsbsS'engineer'
p3603
g0
(g1
g2
Ntp3604
Rp3605
(dp3606
g6
Nsg8
S'PERSON'
p3607
sg10
Nsg24
NsbsS'city'
p3608
g0
(g1
g2
Ntp3609
Rp3610
(dp3611
g6
Nsg8
S'LOCATION'
p3612
sg10
Nsg24
NsbsS'lap'
p3613
g0
(g1
g2
Ntp3614
Rp3615
(dp3616
g6
Nsg8
S'PERSON'
p3617
sg10
Nsg24
NsbsS'carson'
p3618
g0
(g1
g2
Ntp3619
Rp3620
(dp3621
g6
Nsg8
S'PERSON'
p3622
sg10
Nsg24
NsbsS'williams'
p3623
g0
(g1
g2
Ntp3624
Rp3625
(dp3626
g6
Nsg8
S'PERSON'
p3627
sg10
Nsg24
NsbsS'eyes'
p3628
g0
(g1
g2
Ntp3629
Rp3630
(dp3631
g6
g16
sg8
S'NUMBER'
p3632
sg10
(dp3633
S'how'
p3634
g0
(g1
g2
Ntp3635
Rp3636
(dp3637
g6
Nsg8
g3632
sg10
Nsg24
NsbsS'who'
p3638
g0
(g1
g2
Ntp3639
Rp3640
(dp3641
g6
Nsg8
S'PERSON'
p3642
sg10
Nsg24
Nsbssg24
NsbsS'labianca'
p3643
g0
(g1
g2
Ntp3644
Rp3645
(dp3646
g6
Nsg8
S'PERSON'
p3647
sg10
Nsg24
NsbsS'fraction'
p3648
g0
(g1
g2
Ntp3649
Rp3650
(dp3651
g6
Nsg8
S'PERCENT'
p3652
sg10
Nsg24
NsbsS'season'
p3653
g0
(g1
g2
Ntp3654
Rp3655
(dp3656
g6
Nsg8
S'DATE'
p3657
sg10
Nsg24
NsbsS'montenegro'
p3658
g0
(g1
g2
Ntp3659
Rp3660
(dp3661
g6
Nsg8
S'LOCATION'
p3662
sg10
Nsg24
NsbsS'broadcast'
p3663
g0
(g1
g2
Ntp3664
Rp3665
(dp3666
g6
Nsg8
S'DATE'
p3667
sg10
Nsg24
NsbsS'flowers'
p3668
g0
(g1
g2
Ntp3669
Rp3670
(dp3671
g6
Nsg8
S'OTHER'
p3672
sg10
Nsg24
NsbsS'inventor'
p3673
g0
(g1
g2
Ntp3674
Rp3675
(dp3676
g6
Nsg8
S'PERSON'
p3677
sg10
Nsg24
NsbsS'television'
p3678
g0
(g1
g2
Ntp3679
Rp3680
(dp3681
g6
Nsg8
S'PERSON'
p3682
sg10
Nsg24
NsbsS'cards'
p3683
g0
(g1
g2
Ntp3684
Rp3685
(dp3686
g6
g16
sg8
S'NUMBER'
p3687
sg10
(dp3688
S'how'
p3689
g0
(g1
g2
Ntp3690
Rp3691
(dp3692
g6
Nsg8
S'NUMBER'
p3693
sg10
Nsg24
NsbsS'what'
p3694
g0
(g1
g2
Ntp3695
Rp3696
(dp3697
g6
Nsg8
S'OTHER'
p3698
sg10
Nsg24
Nsbssg24
NsbsS'outcome'
p3699
g0
(g1
g2
Ntp3700
Rp3701
(dp3702
g6
Nsg8
S'OTHER'
p3703
sg10
Nsg24
NsbsS'surname'
p3704
g0
(g1
g2
Ntp3705
Rp3706
(dp3707
g6
Nsg8
S'PERSON'
p3708
sg10
Nsg24
NsbsS'premier'
p3709
g0
(g1
g2
Ntp3710
Rp3711
(dp3712
g6
Nsg8
S'PERSON'
p3713
sg10
Nsg24
NsbsS'locations'
p3714
g0
(g1
g2
Ntp3715
Rp3716
(dp3717
g6
Nsg8
S'OTHER'
p3718
sg10
Nsg24
NsbsS'alley'
p3719
g0
(g1
g2
Ntp3720
Rp3721
(dp3722
g6
Nsg8
S'LOCATION'
p3723
sg10
Nsg24
NsbsS'voices'
p3724
g0
(g1
g2
Ntp3725
Rp3726
(dp3727
g6
Nsg8
S'PERSON'
p3728
sg10
Nsg24
NsbsS'tastes'
p3729
g0
(g1
g2
Ntp3730
Rp3731
(dp3732
g6
Nsg8
S'OTHER'
p3733
sg10
Nsg24
NsbsS'comedian'
p3734
g0
(g1
g2
Ntp3735
Rp3736
(dp3737
g6
Nsg8
S'PERSON'
p3738
sg10
Nsg24
NsbsS'spectacle'
p3739
g0
(g1
g2
Ntp3740
Rp3741
(dp3742
g6
Nsg8
S'OTHER'
p3743
sg10
Nsg24
NsbsS'horsepower'
p3744
g0
(g1
g2
Ntp3745
Rp3746
(dp3747
g6
Nsg8
S'NUMBER'
p3748
sg10
Nsg24
NsbsS'allen'
p3749
g0
(g1
g2
Ntp3750
Rp3751
(dp3752
g6
Nsg8
S'OTHER'
p3753
sg10
Nsg24
NsbsS'handicraft'
p3754
g0
(g1
g2
Ntp3755
Rp3756
(dp3757
g6
Nsg8
S'OTHER'
p3758
sg10
Nsg24
NsbsS'zoo'
p3759
g0
(g1
g2
Ntp3760
Rp3761
(dp3762
g6
Nsg8
S'LOCATION'
p3763
sg10
Nsg24
NsbsS'chefs'
p3764
g0
(g1
g2
Ntp3765
Rp3766
(dp3767
g6
Nsg8
S'OTHER'
p3768
sg10
Nsg24
NsbsS'grammys'
p3769
g0
(g1
g2
Ntp3770
Rp3771
(dp3772
g6
Nsg8
S'NUMBER'
p3773
sg10
Nsg24
NsbsS'price'
p3774
g0
(g1
g2
Ntp3775
Rp3776
(dp3777
g6
Nsg8
S'MONEY'
p3778
sg10
Nsg24
NsbsS'honecker'
p3779
g0
(g1
g2
Ntp3780
Rp3781
(dp3782
g6
Nsg8
S'LOCATION'
p3783
sg10
Nsg24
NsbsS'badu'
p3784
g0
(g1
g2
Ntp3785
Rp3786
(dp3787
g6
Nsg8
S'LOCATION'
p3788
sg10
Nsg24
NsbsS'synonym'
p3789
g0
(g1
g2
Ntp3790
Rp3791
(dp3792
g6
Nsg8
S'OTHER'
p3793
sg10
Nsg24
NsbsS'salt'
p3794
g0
(g1
g2
Ntp3795
Rp3796
(dp3797
g6
Nsg8
S'NUMBER'
p3798
sg10
Nsg24
NsbsS'quantity'
p3799
g0
(g1
g2
Ntp3800
Rp3801
(dp3802
g6
Nsg8
S'NUMBER'
p3803
sg10
Nsg24
NsbsS'detective'
p3804
g0
(g1
g2
Ntp3805
Rp3806
(dp3807
g6
Nsg8
S'PERSON'
p3808
sg10
Nsg24
NsbsS'rating'
p3809
g0
(g1
g2
Ntp3810
Rp3811
(dp3812
g6
Nsg8
S'PERCENT'
p3813
sg10
Nsg24
NsbsS'show'
p3814
g0
(g1
g2
Ntp3815
Rp3816
(dp3817
g6
g16
sg8
S'DATE'
p3818
sg10
(dp3819
S'what'
p3820
g0
(g1
g2
Ntp3821
Rp3822
(dp3823
g6
Nsg8
S'OTHER'
p3824
sg10
Nsg24
NsbsS'when'
p3825
g0
(g1
g2
Ntp3826
Rp3827
(dp3828
g6
Nsg8
g3818
sg10
Nsg24
Nsbssg24
NsbsS'recipe'
p3829
g0
(g1
g2
Ntp3830
Rp3831
(dp3832
g6
Nsg8
S'OTHER'
p3833
sg10
Nsg24
NsbsS'spaces'
p3834
g0
(g1
g2
Ntp3835
Rp3836
(dp3837
g6
Nsg8
S'NUMBER'
p3838
sg10
Nsg24
NsbsS'gulf'
p3839
g0
(g1
g2
Ntp3840
Rp3841
(dp3842
g6
Nsg8
S'LOCATION'
p3843
sg10
Nsg24
NsbsS'title'
p3844
g0
(g1
g2
Ntp3845
Rp3846
(dp3847
g6
Nsg8
S'PERSON'
p3848
sg10
Nsg24
NsbsS'hockey'
p3849
g0
(g1
g2
Ntp3850
Rp3851
(dp3852
g6
Nsg8
S'PERSON'
p3853
sg10
Nsg24
NsbsS'beatles'
p3854
g0
(g1
g2
Ntp3855
Rp3856
(dp3857
g6
Nsg8
S'NUMBER'
p3858
sg10
Nsg24
NsbsS'bocci'
p3859
g0
(g1
g2
Ntp3860
Rp3861
(dp3862
g6
Nsg8
S'LOCATION'
p3863
sg10
Nsg24
NsbsS'jong'
p3864
g0
(g1
g2
Ntp3865
Rp3866
(dp3867
g6
Nsg8
S'OTHER'
p3868
sg10
Nsg24
NsbsS'resource'
p3869
g0
(g1
g2
Ntp3870
Rp3871
(dp3872
g6
Nsg8
S'OTHER'
p3873
sg10
Nsg24
NsbsS'bestselling'
p3874
g0
(g1
g2
Ntp3875
Rp3876
(dp3877
g6
Nsg8
S'PERSON'
p3878
sg10
Nsg24
NsbsS'artist'
p3879
g0
(g1
g2
Ntp3880
Rp3881
(dp3882
g6
Nsg8
S'PERSON'
p3883
sg10
Nsg24
NsbsS'saliva'
p3884
g0
(g1
g2
Ntp3885
Rp3886
(dp3887
g6
Nsg8
S'OTHER'
p3888
sg10
Nsg24
NsbsS'penguins'
p3889
g0
(g1
g2
Ntp3890
Rp3891
(dp3892
g6
Nsg8
S'OTHER'
p3893
sg10
Nsg24
NsbsS'roger'
p3894
g0
(g1
g2
Ntp3895
Rp3896
(dp3897
g6
Nsg8
S'OTHER'
p3898
sg10
Nsg24
NsbsS'husband'
p3899
g0
(g1
g2
Ntp3900
Rp3901
(dp3902
g6
Nsg8
S'PERSON'
p3903
sg10
Nsg24
NsbsS'beethoven'
p3904
g0
(g1
g2
Ntp3905
Rp3906
(dp3907
g6
Nsg8
S'DATE'
p3908
sg10
Nsg24
NsbsS'osbourne'
p3909
g0
(g1
g2
Ntp3910
Rp3911
(dp3912
g6
Nsg8
S'DATE'
p3913
sg10
Nsg24
NsbsS'eriksen'
p3914
g0
(g1
g2
Ntp3915
Rp3916
(dp3917
g6
Nsg8
S'PERSON'
p3918
sg10
Nsg24
NsbsS'seas'
p3919
g0
(g1
g2
Ntp3920
Rp3921
(dp3922
g6
Nsg8
S'LOCATION'
p3923
sg10
Nsg24
NsbsS'cologne'
p3924
g0
(g1
g2
Ntp3925
Rp3926
(dp3927
g6
Nsg8
S'OTHER'
p3928
sg10
Nsg24
NsbsS'college'
p3929
g0
(g1
g2
Ntp3930
Rp3931
(dp3932
g6
g16
sg8
S'NUMBER'
p3933
sg10
(dp3934
S'how'
p3935
g0
(g1
g2
Ntp3936
Rp3937
(dp3938
g6
Nsg8
g3933
sg10
Nsg24
NsbsS'what'
p3939
g0
(g1
g2
Ntp3940
Rp3941
(dp3942
g6
Nsg8
S'ORGANIZATION'
p3943
sg10
Nsg24
NsbsS'where'
p3944
g0
(g1
g2
Ntp3945
Rp3946
(dp3947
g6
Nsg8
S'LOCATION'
p3948
sg10
Nsg24
NsbsS'which'
p3949
g0
(g1
g2
Ntp3950
Rp3951
(dp3952
g6
Nsg8
S'ORGANIZATION'
p3953
sg10
Nsg24
Nsbssg24
NsbsS'chiropodist'
p3954
g0
(g1
g2
Ntp3955
Rp3956
(dp3957
g6
Nsg8
S'OTHER'
p3958
sg10
Nsg24
NsbsS'seal'
p3959
g0
(g1
g2
Ntp3960
Rp3961
(dp3962
g6
Nsg8
S'OTHER'
p3963
sg10
Nsg24
NsbsS'sport'
p3964
g0
(g1
g2
Ntp3965
Rp3966
(dp3967
g6
g16
sg8
S'OTHER'
p3968
sg10
(dp3969
S'what'
p3970
g0
(g1
g2
Ntp3971
Rp3972
(dp3973
g6
Nsg8
S'OTHER'
p3974
sg10
Nsg24
NsbsS'where'
p3975
g0
(g1
g2
Ntp3976
Rp3977
(dp3978
g6
Nsg8
S'LOCATION'
p3979
sg10
Nsg24
NsbsS'in'
p3980
g0
(g1
g2
Ntp3981
Rp3982
(dp3983
g6
Nsg8
S'OTHER'
p3984
sg10
Nsg24
Nsbssg24
NsbsS'ability'
p3985
g0
(g1
g2
Ntp3986
Rp3987
(dp3988
g6
Nsg8
S'OTHER'
p3989
sg10
Nsg24
NsbsS'ways'
p3990
g0
(g1
g2
Ntp3991
Rp3992
(dp3993
g6
Nsg8
S'OTHER'
p3994
sg10
Nsg24
NsbsS'review'
p3995
g0
(g1
g2
Ntp3996
Rp3997
(dp3998
g6
Nsg8
S'OTHER'
p3999
sg10
Nsg24
NsbsS'sites'
p4000
g0
(g1
g2
Ntp4001
Rp4002
(dp4003
g6
Nsg8
S'LOCATION'
p4004
sg10
Nsg24
NsbsS'bureau'
p4005
g0
(g1
g2
Ntp4006
Rp4007
(dp4008
g6
Nsg8
S'ORGANIZATION'
p4009
sg10
Nsg24
NsbsS'diamonds'
p4010
g0
(g1
g2
Ntp4011
Rp4012
(dp4013
g6
Nsg8
S'LOCATION'
p4014
sg10
Nsg24
NsbsS'advertizing'
p4015
g0
(g1
g2
Ntp4016
Rp4017
(dp4018
g6
Nsg8
S'PERSON'
p4019
sg10
Nsg24
NsbsS'guitar'
p4020
g0
(g1
g2
Ntp4021
Rp4022
(dp4023
g6
Nsg8
S'PERSON'
p4024
sg10
Nsg24
NsbsS'awards'
p4025
g0
(g1
g2
Ntp4026
Rp4027
(dp4028
g6
Nsg8
S'DATE'
p4029
sg10
Nsg24
NsbsS'nationality'
p4030
g0
(g1
g2
Ntp4031
Rp4032
(dp4033
g6
Nsg8
S'LOCATION'
p4034
sg10
Nsg24
NsbsS'cities'
p4035
g0
(g1
g2
Ntp4036
Rp4037
(dp4038
g6
g16
sg8
S'LOCATION'
p4039
sg10
(dp4040
S'how'
p4041
g0
(g1
g2
Ntp4042
Rp4043
(dp4044
g6
Nsg8
S'NUMBER'
p4045
sg10
Nsg24
NsbsS'what'
p4046
g0
(g1
g2
Ntp4047
Rp4048
(dp4049
g6
Nsg8
S'LOCATION'
p4050
sg10
Nsg24
Nsbssg24
NsbsS'first-aid'
p4051
g0
(g1
g2
Ntp4052
Rp4053
(dp4054
g6
Nsg8
S'OTHER'
p4055
sg10
Nsg24
NsbsS'jfk'
p4056
g0
(g1
g2
Ntp4057
Rp4058
(dp4059
g6
Nsg8
S'PERSON'
p4060
sg10
Nsg24
NsbsS'dates'
p4061
g0
(g1
g2
Ntp4062
Rp4063
(dp4064
g6
Nsg8
S'DATE'
p4065
sg10
Nsg24
NsbsS'superstar'
p4066
g0
(g1
g2
Ntp4067
Rp4068
(dp4069
g6
Nsg8
S'PERSON'
p4070
sg10
Nsg24
NsbsS'residence'
p4071
g0
(g1
g2
Ntp4072
Rp4073
(dp4074
g6
Nsg8
S'LOCATION'
p4075
sg10
Nsg24
NsbsS'region'
p4076
g0
(g1
g2
Ntp4077
Rp4078
(dp4079
g6
Nsg8
S'LOCATION'
p4080
sg10
Nsg24
NsbsS'monk'
p4081
g0
(g1
g2
Ntp4082
Rp4083
(dp4084
g6
Nsg8
S'PERSON'
p4085
sg10
Nsg24
NsbsS'berry'
p4086
g0
(g1
g2
Ntp4087
Rp4088
(dp4089
g6
Nsg8
S'OTHER'
p4090
sg10
Nsg24
NsbsS'senator'
p4091
g0
(g1
g2
Ntp4092
Rp4093
(dp4094
g6
Nsg8
S'PERSON'
p4095
sg10
Nsg24
NsbsS'railway'
p4096
g0
(g1
g2
Ntp4097
Rp4098
(dp4099
g6
Nsg8
S'DATE'
p4100
sg10
Nsg24
NsbsS'concert'
p4101
g0
(g1
g2
Ntp4102
Rp4103
(dp4104
g6
Nsg8
S'DATE'
p4105
sg10
Nsg24
NsbsS'cancer'
p4106
g0
(g1
g2
Ntp4107
Rp4108
(dp4109
g6
Nsg8
S'OTHER'
p4110
sg10
Nsg24
NsbsS'color'
p4111
g0
(g1
g2
Ntp4112
Rp4113
(dp4114
g6
Nsg8
S'OTHER'
p4115
sg10
Nsg24
NsbsS'colony'
p4116
g0
(g1
g2
Ntp4117
Rp4118
(dp4119
g6
Nsg8
S'PERSON'
p4120
sg10
Nsg24
NsbsS'period'
p4121
g0
(g1
g2
Ntp4122
Rp4123
(dp4124
g6
g16
sg8
S'TIME'
p4125
sg10
(dp4126
S'what'
p4127
g0
(g1
g2
Ntp4128
Rp4129
(dp4130
g6
Nsg8
g4125
sg10
Nsg24
NsbsS'when'
p4131
g0
(g1
g2
Ntp4132
Rp4133
(dp4134
g6
Nsg8
S'DATE'
p4135
sg10
Nsg24
NsbsS'name'
p4136
g0
(g1
g2
Ntp4137
Rp4138
(dp4139
g6
Nsg8
S'OTHER'
p4140
sg10
Nsg24
Nsbssg24
NsbsS'mccain'
p4141
g0
(g1
g2
Ntp4142
Rp4143
(dp4144
g6
Nsg8
S'PERSON'
p4145
sg10
Nsg24
NsbsS'pole'
p4146
g0
(g1
g2
Ntp4147
Rp4148
(dp4149
g6
Nsg8
S'OTHER'
p4150
sg10
Nsg24
NsbsS'edberg'
p4151
g0
(g1
g2
Ntp4152
Rp4153
(dp4154
g6
Nsg8
S'LOCATION'
p4155
sg10
Nsg24
NsbsS'biographer'
p4156
g0
(g1
g2
Ntp4157
Rp4158
(dp4159
g6
Nsg8
S'PERSON'
p4160
sg10
Nsg24
NsbsS'poe'
p4161
g0
(g1
g2
Ntp4162
Rp4163
(dp4164
g6
Nsg8
S'LOCATION'
p4165
sg10
Nsg24
NsbsS'boat'
p4166
g0
(g1
g2
Ntp4167
Rp4168
(dp4169
g6
Nsg8
S'PERSON'
p4170
sg10
Nsg24
NsbsS'turkey'
p4171
g0
(g1
g2
Ntp4172
Rp4173
(dp4174
g6
Nsg8
S'PERSON'
p4175
sg10
Nsg24
NsbsS'mark'
p4176
g0
(g1
g2
Ntp4177
Rp4178
(dp4179
g6
Nsg8
S'OTHER'
p4180
sg10
Nsg24
NsbsS'dictator'
p4181
g0
(g1
g2
Ntp4182
Rp4183
(dp4184
g6
Nsg8
S'PERSON'
p4185
sg10
Nsg24
NsbsS'engine'
p4186
g0
(g1
g2
Ntp4187
Rp4188
(dp4189
g6
g16
sg8
S'DATE'
p4190
sg10
(dp4191
S'who'
p4192
g0
(g1
g2
Ntp4193
Rp4194
(dp4195
g6
Nsg8
S'PERSON'
p4196
sg10
Nsg24
NsbsS'when'
p4197
g0
(g1
g2
Ntp4198
Rp4199
(dp4200
g6
Nsg8
g4190
sg10
Nsg24
Nsbssg24
NsbsS'direction'
p4201
g0
(g1
g2
Ntp4202
Rp4203
(dp4204
g6
Nsg8
S'LOCATION'
p4205
sg10
Nsg24
NsbsS'cobain'
p4206
g0
(g1
g2
Ntp4207
Rp4208
(dp4209
g6
Nsg8
S'PERSON'
p4210
sg10
Nsg24
NsbsS'tiger'
p4211
g0
(g1
g2
Ntp4212
Rp4213
(dp4214
g6
Nsg8
S'OTHER'
p4215
sg10
Nsg24
NsbsS'minister'
p4216
g0
(g1
g2
Ntp4217
Rp4218
(dp4219
g6
Nsg8
S'PERSON'
p4220
sg10
Nsg24
NsbsS'ruby'
p4221
g0
(g1
g2
Ntp4222
Rp4223
(dp4224
g6
Nsg8
S'DATE'
p4225
sg10
Nsg24
NsbsS'sound'
p4226
g0
(g1
g2
Ntp4227
Rp4228
(dp4229
g6
Nsg8
S'OTHER'
p4230
sg10
Nsg24
NsbsS'hughes'
p4231
g0
(g1
g2
Ntp4232
Rp4233
(dp4234
g6
Nsg8
S'PERSON'
p4235
sg10
Nsg24
NsbsS'bar-code'
p4236
g0
(g1
g2
Ntp4237
Rp4238
(dp4239
g6
Nsg8
S'DATE'
p4240
sg10
Nsg24
NsbsS'newspaper'
p4241
g0
(g1
g2
Ntp4242
Rp4243
(dp4244
g6
Nsg8
S'OTHER'
p4245
sg10
Nsg24
NsbsS'strait'
p4246
g0
(g1
g2
Ntp4247
Rp4248
(dp4249
g6
Nsg8
S'LOCATION'
p4250
sg10
Nsg24
NsbsS'commander'
p4251
g0
(g1
g2
Ntp4252
Rp4253
(dp4254
g6
Nsg8
S'PERSON'
p4255
sg10
Nsg24
NsbsS'helium'
p4256
g0
(g1
g2
Ntp4257
Rp4258
(dp4259
g6
Nsg8
S'LOCATION'
p4260
sg10
Nsg24
NsbsS'par'
p4261
g0
(g1
g2
Ntp4262
Rp4263
(dp4264
g6
Nsg8
S'NUMBER'
p4265
sg10
Nsg24
NsbsS'revolutions'
p4266
g0
(g1
g2
Ntp4267
Rp4268
(dp4269
g6
Nsg8
S'NUMBER'
p4270
sg10
Nsg24
NsbsS'doctor'
p4271
g0
(g1
g2
Ntp4272
Rp4273
(dp4274
g6
Nsg8
S'PERSON'
p4275
sg10
Nsg24
NsbsS'alphabet'
p4276
g0
(g1
g2
Ntp4277
Rp4278
(dp4279
g6
Nsg8
S'OTHER'
p4280
sg10
Nsg24
NsbsS'bowl'
p4281
g0
(g1
g2
Ntp4282
Rp4283
(dp4284
g6
g16
sg8
S'LOCATION'
p4285
sg10
(dp4286
S'what'
p4287
g0
(g1
g2
Ntp4288
Rp4289
(dp4290
g6
Nsg8
S'OTHER'
p4291
sg10
Nsg24
NsbsS'where'
p4292
g0
(g1
g2
Ntp4293
Rp4294
(dp4295
g6
Nsg8
S'LOCATION'
p4296
sg10
Nsg24
Nsbssg24
NsbsS'speech'
p4297
g0
(g1
g2
Ntp4298
Rp4299
(dp4300
g6
Nsg8
S'PERSON'
p4301
sg10
Nsg24
NsbsS'document'
p4302
g0
(g1
g2
Ntp4303
Rp4304
(dp4305
g6
Nsg8
S'OTHER'
p4306
sg10
Nsg24
NsbsS'isle'
p4307
g0
(g1
g2
Ntp4308
Rp4309
(dp4310
g6
Nsg8
S'LOCATION'
p4311
sg10
Nsg24
NsbsS'week'
p4312
g0
(g1
g2
Ntp4313
Rp4314
(dp4315
g6
Nsg8
S'OTHER'
p4316
sg10
Nsg24
NsbsS'oil'
p4317
g0
(g1
g2
Ntp4318
Rp4319
(dp4320
g6
g16
sg8
S'OTHER'
p4321
sg10
(dp4322
S'what'
p4323
g0
(g1
g2
Ntp4324
Rp4325
(dp4326
g6
Nsg8
g4321
sg10
Nsg24
NsbsS'which'
p4327
g0
(g1
g2
Ntp4328
Rp4329
(dp4330
g6
Nsg8
S'ORGANIZATION'
p4331
sg10
Nsg24
Nsbssg24
NsbsS'director'
p4332
g0
(g1
g2
Ntp4333
Rp4334
(dp4335
g6
Nsg8
S'PERSON'
p4336
sg10
Nsg24
NsbsS'fruit'
p4337
g0
(g1
g2
Ntp4338
Rp4339
(dp4340
g6
Nsg8
S'OTHER'
p4341
sg10
Nsg24
NsbsS'vowel'
p4342
g0
(g1
g2
Ntp4343
Rp4344
(dp4345
g6
Nsg8
S'OTHER'
p4346
sg10
Nsg24
NsbsS'cartoon'
p4347
g0
(g1
g2
Ntp4348
Rp4349
(dp4350
g6
Nsg8
S'PERSON'
p4351
sg10
Nsg24
NsbsS'components'
p4352
g0
(g1
g2
Ntp4353
Rp4354
(dp4355
g6
Nsg8
S'OTHER'
p4356
sg10
Nsg24
NsbsS'genie'
p4357
g0
(g1
g2
Ntp4358
Rp4359
(dp4360
g6
Nsg8
S'PERSON'
p4361
sg10
Nsg24
NsbsS'model'
p4362
g0
(g1
g2
Ntp4363
Rp4364
(dp4365
g6
Nsg8
S'PERSON'
p4366
sg10
Nsg24
NsbsS'bodies'
p4367
g0
(g1
g2
Ntp4368
Rp4369
(dp4370
g6
Nsg8
S'LOCATION'
p4371
sg10
Nsg24
NsbsS'gates'
p4372
g0
(g1
g2
Ntp4373
Rp4374
(dp4375
g6
Nsg8
S'LOCATION'
p4376
sg10
Nsg24
NsbsS'monet'
p4377
g0
(g1
g2
Ntp4378
Rp4379
(dp4380
g6
Nsg8
S'PERSON'
p4381
sg10
Nsg24
NsbsS'livestock'
p4382
g0
(g1
g2
Ntp4383
Rp4384
(dp4385
g6
Nsg8
S'OTHER'
p4386
sg10
Nsg24
NsbsS'money'
p4387
g0
(g1
g2
Ntp4388
Rp4389
(dp4390
g6
g16
sg8
S'OTHER'
p4391
sg10
(dp4392
S'how'
p4393
g0
(g1
g2
Ntp4394
Rp4395
(dp4396
g6
Nsg8
S'MONEY'
p4397
sg10
Nsg24
NsbsS'what'
p4398
g0
(g1
g2
Ntp4399
Rp4400
(dp4401
g6
Nsg8
S'OTHER'
p4402
sg10
Nsg24
Nsbssg24
NsbsS'mccheese'
p4403
g0
(g1
g2
Ntp4404
Rp4405
(dp4406
g6
Nsg8
S'LOCATION'
p4407
sg10
Nsg24
NsbsS'actress'
p4408
g0
(g1
g2
Ntp4409
Rp4410
(dp4411
g6
Nsg8
S'PERSON'
p4412
sg10
Nsg24
NsbsS'harrison'
p4413
g0
(g1
g2
Ntp4414
Rp4415
(dp4416
g6
Nsg8
S'PERSON'
p4417
sg10
Nsg24
NsbsS'flavor'
p4418
g0
(g1
g2
Ntp4419
Rp4420
(dp4421
g6
Nsg8
S'OTHER'
p4422
sg10
Nsg24
NsbsS'speed'
p4423
g0
(g1
g2
Ntp4424
Rp4425
(dp4426
g6
Nsg8
S'NUMBER'
p4427
sg10
Nsg24
NsbsS'death'
p4428
g0
(g1
g2
Ntp4429
Rp4430
(dp4431
g6
Nsg8
S'PERSON'
p4432
sg10
Nsg24
NsbsS'feminist'
p4433
g0
(g1
g2
Ntp4434
Rp4435
(dp4436
g6
Nsg8
S'PERSON'
p4437
sg10
Nsg24
NsbsS'rose'
p4438
g0
(g1
g2
Ntp4439
Rp4440
(dp4441
g6
Nsg8
S'PERSON'
p4442
sg10
Nsg24
NsbsS'instrument'
p4443
g0
(g1
g2
Ntp4444
Rp4445
(dp4446
g6
Nsg8
S'OTHER'
p4447
sg10
Nsg24
NsbsS'treatment'
p4448
g0
(g1
g2
Ntp4449
Rp4450
(dp4451
g6
Nsg8
S'OTHER'
p4452
sg10
Nsg24
NsbsS'role'
p4453
g0
(g1
g2
Ntp4454
Rp4455
(dp4456
g6
Nsg8
S'PERSON'
p4457
sg10
Nsg24
NsbsS'visine'
p4458
g0
(g1
g2
Ntp4459
Rp4460
(dp4461
g6
Nsg8
S'OTHER'
p4462
sg10
Nsg24
NsbsS'metalious'
p4463
g0
(g1
g2
Ntp4464
Rp4465
(dp4466
g6
Nsg8
S'OTHER'
p4467
sg10
Nsg24
NsbsS'tenses'
p4468
g0
(g1
g2
Ntp4469
Rp4470
(dp4471
g6
Nsg8
S'OTHER'
p4472
sg10
Nsg24
NsbsS'world'
p4473
g0
(g1
g2
Ntp4474
Rp4475
(dp4476
g6
g16
sg8
S'LOCATION'
p4477
sg10
(dp4478
S'what'
p4479
g0
(g1
g2
Ntp4480
Rp4481
(dp4482
g6
Nsg8
S'OTHER'
p4483
sg10
Nsg24
NsbsS'who'
p4484
g0
(g1
g2
Ntp4485
Rp4486
(dp4487
g6
Nsg8
S'PERSON'
p4488
sg10
Nsg24
NsbsS'where'
p4489
g0
(g1
g2
Ntp4490
Rp4491
(dp4492
g6
Nsg8
g4477
sg10
Nsg24
Nsbssg24
NsbsS'railroad'
p4493
g0
(g1
g2
Ntp4494
Rp4495
(dp4496
g6
Nsg8
S'DATE'
p4497
sg10
Nsg24
NsbsS'lady'
p4498
g0
(g1
g2
Ntp4499
Rp4500
(dp4501
g6
Nsg8
S'PERSON'
p4502
sg10
Nsg24
NsbsS'martyrs'
p4503
g0
(g1
g2
Ntp4504
Rp4505
(dp4506
g6
Nsg8
S'PERSON'
p4507
sg10
Nsg24
NsbsS'pounds'
p4508
g0
(g1
g2
Ntp4509
Rp4510
(dp4511
g6
Nsg8
S'NUMBER'
p4512
sg10
Nsg24
NsbsS'clay'
p4513
g0
(g1
g2
Ntp4514
Rp4515
(dp4516
g6
Nsg8
S'OTHER'
p4517
sg10
Nsg24
NsbsS'pyramid-builders'
p4518
g0
(g1
g2
Ntp4519
Rp4520
(dp4521
g6
Nsg8
S'OTHER'
p4522
sg10
Nsg24
NsbsS'jews'
p4523
g0
(g1
g2
Ntp4524
Rp4525
(dp4526
g6
g16
sg8
S'OTHER'
p4527
sg10
(dp4528
S'how'
p4529
g0
(g1
g2
Ntp4530
Rp4531
(dp4532
g6
Nsg8
S'NUMBER'
p4533
sg10
Nsg24
NsbsS'what'
p4534
g0
(g1
g2
Ntp4535
Rp4536
(dp4537
g6
Nsg8
g4527
sg10
Nsg24
Nsbssg24
NsbsS'apartments'
p4538
g0
(g1
g2
Ntp4539
Rp4540
(dp4541
g6
Nsg8
S'LOCATION'
p4542
sg10
Nsg24
NsbsS'shillings'
p4543
g0
(g1
g2
Ntp4544
Rp4545
(dp4546
g6
Nsg8
S'NUMBER'
p4547
sg10
Nsg24
NsbsS'oscars'
p4548
g0
(g1
g2
Ntp4549
Rp4550
(dp4551
g6
Nsg8
S'PERSON'
p4552
sg10
Nsg24
NsbsS'brontosauruses'
p4553
g0
(g1
g2
Ntp4554
Rp4555
(dp4556
g6
Nsg8
S'OTHER'
p4557
sg10
Nsg24
NsbsS'danube'
p4558
g0
(g1
g2
Ntp4559
Rp4560
(dp4561
g6
Nsg8
S'LOCATION'
p4562
sg10
Nsg24
NsbsS'dimensions'
p4563
g0
(g1
g2
Ntp4564
Rp4565
(dp4566
g6
Nsg8
S'NUMBER'
p4567
sg10
Nsg24
NsbsS'stops'
p4568
g0
(g1
g2
Ntp4569
Rp4570
(dp4571
g6
Nsg8
S'LOCATION'
p4572
sg10
Nsg24
NsbsS'provider'
p4573
g0
(g1
g2
Ntp4574
Rp4575
(dp4576
g6
Nsg8
S'MONEY'
p4577
sg10
Nsg24
NsbsS'business'
p4578
g0
(g1
g2
Ntp4579
Rp4580
(dp4581
g6
Nsg8
S'ORGANIZATION'
p4582
sg10
Nsg24
NsbsS'liquid'
p4583
g0
(g1
g2
Ntp4584
Rp4585
(dp4586
g6
Nsg8
S'OTHER'
p4587
sg10
Nsg24
NsbsS'equivalent'
p4588
g0
(g1
g2
Ntp4589
Rp4590
(dp4591
g6
Nsg8
S'NUMBER'
p4592
sg10
Nsg24
NsbsS'seine'
p4593
g0
(g1
g2
Ntp4594
Rp4595
(dp4596
g6
Nsg8
S'LOCATION'
p4597
sg10
Nsg24
NsbsS'slaughter'
p4598
g0
(g1
g2
Ntp4599
Rp4600
(dp4601
g6
Nsg8
S'OTHER'
p4602
sg10
Nsg24
NsbsS'trials'
p4603
g0
(g1
g2
Ntp4604
Rp4605
(dp4606
g6
Nsg8
S'OTHER'
p4607
sg10
Nsg24
NsbsS'manufacturer'
p4608
g0
(g1
g2
Ntp4609
Rp4610
(dp4611
g6
Nsg8
S'ORGANIZATION'
p4612
sg10
Nsg24
NsbsS'son-in-law'
p4613
g0
(g1
g2
Ntp4614
Rp4615
(dp4616
g6
Nsg8
S'PERSON'
p4617
sg10
Nsg24
NsbsS'stations'
p4618
g0
(g1
g2
Ntp4619
Rp4620
(dp4621
g6
g16
sg8
S'LOCATION'
p4622
sg10
(dp4623
S'how'
p4624
g0
(g1
g2
Ntp4625
Rp4626
(dp4627
g6
Nsg8
S'NUMBER'
p4628
sg10
Nsg24
NsbsS'where'
p4629
g0
(g1
g2
Ntp4630
Rp4631
(dp4632
g6
Nsg8
g4622
sg10
Nsg24
Nsbssg24
NsbsS'resurrectionist'
p4633
g0
(g1
g2
Ntp4634
Rp4635
(dp4636
g6
Nsg8
S'OTHER'
p4637
sg10
Nsg24
NsbsS'island'
p4638
g0
(g1
g2
Ntp4639
Rp4640
(dp4641
g6
Nsg8
S'LOCATION'
p4642
sg10
Nsg24
NsbsS'chop'
p4643
g0
(g1
g2
Ntp4644
Rp4645
(dp4646
g6
Nsg8
S'LOCATION'
p4647
sg10
Nsg24
NsbsS'cartier'
p4648
g0
(g1
g2
Ntp4649
Rp4650
(dp4651
g6
Nsg8
S'OTHER'
p4652
sg10
Nsg24
NsbsS'tribe'
p4653
g0
(g1
g2
Ntp4654
Rp4655
(dp4656
g6
Nsg8
S'ORGANIZATION'
p4657
sg10
Nsg24
NsbsS'revolutionaries'
p4658
g0
(g1
g2
Ntp4659
Rp4660
(dp4661
g6
Nsg8
S'DATE'
p4662
sg10
Nsg24
NsbsS'newtons'
p4663
g0
(g1
g2
Ntp4664
Rp4665
(dp4666
g6
Nsg8
S'NUMBER'
p4667
sg10
Nsg24
NsbsS'strip'
p4668
g0
(g1
g2
Ntp4669
Rp4670
(dp4671
g6
Nsg8
S'OTHER'
p4672
sg10
Nsg24
NsbsS'snakes'
p4673
g0
(g1
g2
Ntp4674
Rp4675
(dp4676
g6
Nsg8
S'OTHER'
p4677
sg10
Nsg24
NsbsS'area'
p4678
g0
(g1
g2
Ntp4679
Rp4680
(dp4681
g6
Nsg8
S'LOCATION'
p4682
sg10
Nsg24
NsbsS'desert'
p4683
g0
(g1
g2
Ntp4684
Rp4685
(dp4686
g6
Nsg8
S'LOCATION'
p4687
sg10
Nsg24
NsbsS'grange'
p4688
g0
(g1
g2
Ntp4689
Rp4690
(dp4691
g6
Nsg8
S'PERSON'
p4692
sg10
Nsg24
NsbsS'cats'
p4693
g0
(g1
g2
Ntp4694
Rp4695
(dp4696
g6
Nsg8
S'OTHER'
p4697
sg10
Nsg24
NsbsS'stars'
p4698
g0
(g1
g2
Ntp4699
Rp4700
(dp4701
g6
g16
sg8
S'OTHER'
p4702
sg10
(dp4703
S'how'
p4704
g0
(g1
g2
Ntp4705
Rp4706
(dp4707
g6
Nsg8
S'NUMBER'
p4708
sg10
Nsg24
NsbsS'what'
p4709
g0
(g1
g2
Ntp4710
Rp4711
(dp4712
g6
Nsg8
g4702
sg10
Nsg24
Nsbssg24
NsbsS'series'
p4713
g0
(g1
g2
Ntp4714
Rp4715
(dp4716
g6
g16
sg8
S'PERSON'
p4717
sg10
(dp4718
S'what'
p4719
g0
(g1
g2
Ntp4720
Rp4721
(dp4722
g6
Nsg8
S'OTHER'
p4723
sg10
Nsg24
NsbsS'who'
p4724
g0
(g1
g2
Ntp4725
Rp4726
(dp4727
g6
Nsg8
g4717
sg10
Nsg24
Nsbssg24
NsbsS'valley'
p4728
g0
(g1
g2
Ntp4729
Rp4730
(dp4731
g6
Nsg8
S'LOCATION'
p4732
sg10
Nsg24
NsbsS'fish'
p4733
g0
(g1
g2
Ntp4734
Rp4735
(dp4736
g6
g16
sg8
S'OTHER'
p4737
sg10
(dp4738
S'what'
p4739
g0
(g1
g2
Ntp4740
Rp4741
(dp4742
g6
Nsg8
g4737
sg10
Nsg24
NsbsS'when'
p4743
g0
(g1
g2
Ntp4744
Rp4745
(dp4746
g6
Nsg8
S'DATE'
p4747
sg10
Nsg24
Nsbssg24
NsbsS'continents'
p4748
g0
(g1
g2
Ntp4749
Rp4750
(dp4751
g6
Nsg8
S'NUMBER'
p4752
sg10
Nsg24
NsbsS'pitcher'
p4753
g0
(g1
g2
Ntp4754
Rp4755
(dp4756
g6
Nsg8
S'PERSON'
p4757
sg10
Nsg24
NsbsS'pitches'
p4758
g0
(g1
g2
Ntp4759
Rp4760
(dp4761
g6
Nsg8
S'NUMBER'
p4762
sg10
Nsg24
NsbsS'principles'
p4763
g0
(g1
g2
Ntp4764
Rp4765
(dp4766
g6
Nsg8
S'OTHER'
p4767
sg10
Nsg24
NsbsS'spice'
p4768
g0
(g1
g2
Ntp4769
Rp4770
(dp4771
g6
Nsg8
S'OTHER'
p4772
sg10
Nsg24
NsbsS'waste'
p4773
g0
(g1
g2
Ntp4774
Rp4775
(dp4776
g6
Nsg8
S'NUMBER'
p4777
sg10
Nsg24
NsbsS'natick'
p4778
g0
(g1
g2
Ntp4779
Rp4780
(dp4781
g6
Nsg8
S'LOCATION'
p4782
sg10
Nsg24
NsbsS'toilet'
p4783
g0
(g1
g2
Ntp4784
Rp4785
(dp4786
g6
Nsg8
S'DATE'
p4787
sg10
Nsg24
NsbsS'palate'
p4788
g0
(g1
g2
Ntp4789
Rp4790
(dp4791
g6
Nsg8
S'OTHER'
p4792
sg10
Nsg24
NsbsS'taste'
p4793
g0
(g1
g2
Ntp4794
Rp4795
(dp4796
g6
Nsg8
S'OTHER'
p4797
sg10
Nsg24
NsbsS'general'
p4798
g0
(g1
g2
Ntp4799
Rp4800
(dp4801
g6
Nsg8
S'PERSON'
p4802
sg10
Nsg24
NsbsS'mormons'
p4803
g0
(g1
g2
Ntp4804
Rp4805
(dp4806
g6
Nsg8
S'DATE'
p4807
sg10
Nsg24
NsbsS'laboratory'
p4808
g0
(g1
g2
Ntp4809
Rp4810
(dp4811
g6
Nsg8
S'PERSON'
p4812
sg10
Nsg24
NsbsS'cables'
p4813
g0
(g1
g2
Ntp4814
Rp4815
(dp4816
g6
Nsg8
S'NUMBER'
p4817
sg10
Nsg24
NsbsS'film'
p4818
g0
(g1
g2
Ntp4819
Rp4820
(dp4821
g6
Nsg8
S'OTHER'
p4822
sg10
Nsg24
NsbsS'angelica'
p4823
g0
(g1
g2
Ntp4824
Rp4825
(dp4826
g6
Nsg8
S'LOCATION'
p4827
sg10
Nsg24
NsbsS'innings'
p4828
g0
(g1
g2
Ntp4829
Rp4830
(dp4831
g6
Nsg8
S'NUMBER'
p4832
sg10
Nsg24
NsbsS'bremer'
p4833
g0
(g1
g2
Ntp4834
Rp4835
(dp4836
g6
Nsg8
S'PERSON'
p4837
sg10
Nsg24
NsbsS'astronaut'
p4838
g0
(g1
g2
Ntp4839
Rp4840
(dp4841
g6
Nsg8
S'PERSON'
p4842
sg10
Nsg24
NsbsS'pastorius'
p4843
g0
(g1
g2
Ntp4844
Rp4845
(dp4846
g6
Nsg8
S'DATE'
p4847
sg10
Nsg24
NsbsS'congress'
p4848
g0
(g1
g2
Ntp4849
Rp4850
(dp4851
g6
g16
sg8
S'DATE'
p4852
sg10
(dp4853
S'what'
p4854
g0
(g1
g2
Ntp4855
Rp4856
(dp4857
g6
Nsg8
S'OTHER'
p4858
sg10
Nsg24
NsbsS'when'
p4859
g0
(g1
g2
Ntp4860
Rp4861
(dp4862
g6
Nsg8
g4852
sg10
Nsg24
Nsbssg24
NsbsS'students'
p4863
g0
(g1
g2
Ntp4864
Rp4865
(dp4866
g6
Nsg8
S'NUMBER'
p4867
sg10
Nsg24
NsbsS'symbol'
p4868
g0
(g1
g2
Ntp4869
Rp4870
(dp4871
g6
Nsg8
S'OTHER'
p4872
sg10
Nsg24
NsbsS'gutenberg'
p4873
g0
(g1
g2
Ntp4874
Rp4875
(dp4876
g6
Nsg8
S'NUMBER'
p4877
sg10
Nsg24
NsbsS'peak'
p4878
g0
(g1
g2
Ntp4879
Rp4880
(dp4881
g6
Nsg8
S'LOCATION'
p4882
sg10
Nsg24
NsbsS'stocks'
p4883
g0
(g1
g2
Ntp4884
Rp4885
(dp4886
g6
Nsg8
S'LOCATION'
p4887
sg10
Nsg24
NsbsS'brandt'
p4888
g0
(g1
g2
Ntp4889
Rp4890
(dp4891
g6
Nsg8
S'PERSON'
p4892
sg10
Nsg24
NsbsS'building'
p4893
g0
(g1
g2
Ntp4894
Rp4895
(dp4896
g6
Nsg8
S'LOCATION'
p4897
sg10
Nsg24
NsbsS'wife'
p4898
g0
(g1
g2
Ntp4899
Rp4900
(dp4901
g6
Nsg8
S'PERSON'
p4902
sg10
Nsg24
NsbsS'odds'
p4903
g0
(g1
g2
Ntp4904
Rp4905
(dp4906
g6
Nsg8
S'PERCENT'
p4907
sg10
Nsg24
NsbsS'websites'
p4908
g0
(g1
g2
Ntp4909
Rp4910
(dp4911
g6
Nsg8
S'LOCATION'
p4912
sg10
Nsg24
NsbsS'callosum'
p4913
g0
(g1
g2
Ntp4914
Rp4915
(dp4916
g6
Nsg8
S'LOCATION'
p4917
sg10
Nsg24
NsbsS'colleges'
p4918
g0
(g1
g2
Ntp4919
Rp4920
(dp4921
g6
g16
sg8
S'ORGANIZATION'
p4922
sg10
(dp4923
S'how'
p4924
g0
(g1
g2
Ntp4925
Rp4926
(dp4927
g6
Nsg8
S'NUMBER'
p4928
sg10
Nsg24
NsbsS'what'
p4929
g0
(g1
g2
Ntp4930
Rp4931
(dp4932
g6
Nsg8
g4922
sg10
Nsg24
Nsbssg24
NsbsS'founder'
p4933
g0
(g1
g2
Ntp4934
Rp4935
(dp4936
g6
Nsg8
S'PERSON'
p4937
sg10
Nsg24
NsbsS'ali'
p4938
g0
(g1
g2
Ntp4939
Rp4940
(dp4941
g6
Nsg8
S'PERSON'
p4942
sg10
Nsg24
NsbsS'lack'
p4943
g0
(g1
g2
Ntp4944
Rp4945
(dp4946
g6
Nsg8
S'OTHER'
p4947
sg10
Nsg24
NsbsS'month'
p4948
g0
(g1
g2
Ntp4949
Rp4950
(dp4951
g6
Nsg8
S'DATE'
p4952
sg10
Nsg24
NsbsS'tours'
p4953
g0
(g1
g2
Ntp4954
Rp4955
(dp4956
g6
Nsg8
S'LOCATION'
p4957
sg10
Nsg24
NsbsS'dish'
p4958
g0
(g1
g2
Ntp4959
Rp4960
(dp4961
g6
Nsg8
S'OTHER'
p4962
sg10
Nsg24
NsbsS'children'
p4963
g0
(g1
g2
Ntp4964
Rp4965
(dp4966
g6
g16
sg8
S'PERSON'
p4967
sg10
(dp4968
S'how'
p4969
g0
(g1
g2
Ntp4970
Rp4971
(dp4972
g6
Nsg8
S'NUMBER'
p4973
sg10
Nsg24
NsbsS'what'
p4974
g0
(g1
g2
Ntp4975
Rp4976
(dp4977
g6
Nsg8
S'OTHER'
p4978
sg10
Nsg24
NsbsS'name'
p4979
g0
(g1
g2
Ntp4980
Rp4981
(dp4982
g6
Nsg8
g4967
sg10
Nsg24
Nsbssg24
NsbsS'gymnast'
p4983
g0
(g1
g2
Ntp4984
Rp4985
(dp4986
g6
Nsg8
S'PERSON'
p4987
sg10
Nsg24
NsbsS'tail'
p4988
g0
(g1
g2
Ntp4989
Rp4990
(dp4991
g6
Nsg8
S'OTHER'
p4992
sg10
Nsg24
NsbsS'program'
p4993
g0
(g1
g2
Ntp4994
Rp4995
(dp4996
g6
Nsg8
S'OTHER'
p4997
sg10
Nsg24
NsbsS'woman'
p4998
g0
(g1
g2
Ntp4999
Rp5000
(dp5001
g6
g16
sg8
S'PERSON'
p5002
sg10
(dp5003
S'what'
p5004
g0
(g1
g2
Ntp5005
Rp5006
(dp5007
g6
Nsg8
S'PERSON'
p5008
sg10
Nsg24
NsbsS'who'
p5009
g0
(g1
g2
Ntp5010
Rp5011
(dp5012
g6
Nsg8
S'PERSON'
p5013
sg10
Nsg24
NsbsS'when'
p5014
g0
(g1
g2
Ntp5015
Rp5016
(dp5017
g6
Nsg8
S'DATE'
p5018
sg10
Nsg24
Nsbssg24
NsbsS'song'
p5019
g0
(g1
g2
Ntp5020
Rp5021
(dp5022
g6
g16
sg8
S'OTHER'
p5023
sg10
(dp5024
S'what'
p5025
g0
(g1
g2
Ntp5026
Rp5027
(dp5028
g6
Nsg8
S'OTHER'
p5029
sg10
Nsg24
NsbsS'who'
p5030
g0
(g1
g2
Ntp5031
Rp5032
(dp5033
g6
Nsg8
S'PERSON'
p5034
sg10
Nsg24
Nsbssg24
NsbsS'spumante'
p5035
g0
(g1
g2
Ntp5036
Rp5037
(dp5038
g6
Nsg8
S'ORGANIZATION'
p5039
sg10
Nsg24
NsbsS'translations'
p5040
g0
(g1
g2
Ntp5041
Rp5042
(dp5043
g6
Nsg8
S'OTHER'
p5044
sg10
Nsg24
NsbsS'sons'
p5045
g0
(g1
g2
Ntp5046
Rp5047
(dp5048
g6
Nsg8
S'PERSON'
p5049
sg10
Nsg24
NsbsS'diary'
p5050
g0
(g1
g2
Ntp5051
Rp5052
(dp5053
g6
Nsg8
S'PERSON'
p5054
sg10
Nsg24
NsbsS'ticker'
p5055
g0
(g1
g2
Ntp5056
Rp5057
(dp5058
g6
Nsg8
S'PERSON'
p5059
sg10
Nsg24
NsbsS'lawnmower'
p5060
g0
(g1
g2
Ntp5061
Rp5062
(dp5063
g6
Nsg8
S'PERSON'
p5064
sg10
Nsg24
NsbsS'celebrity'
p5065
g0
(g1
g2
Ntp5066
Rp5067
(dp5068
g6
Nsg8
S'PERSON'
p5069
sg10
Nsg24
NsbsS'grandfather'
p5070
g0
(g1
g2
Ntp5071
Rp5072
(dp5073
g6
Nsg8
S'PERSON'
p5074
sg10
Nsg24
NsbsS'mammal'
p5075
g0
(g1
g2
Ntp5076
Rp5077
(dp5078
g6
Nsg8
S'OTHER'
p5079
sg10
Nsg24
NsbsS'kemper'
p5080
g0
(g1
g2
Ntp5081
Rp5082
(dp5083
g6
Nsg8
S'PERSON'
p5084
sg10
Nsg24
NsbsS'maggio'
p5085
g0
(g1
g2
Ntp5086
Rp5087
(dp5088
g6
Nsg8
S'PERSON'
p5089
sg10
Nsg24
NsbsS'orinoco'
p5090
g0
(g1
g2
Ntp5091
Rp5092
(dp5093
g6
Nsg8
S'LOCATION'
p5094
sg10
Nsg24
NsbsS'zero'
p5095
g0
(g1
g2
Ntp5096
Rp5097
(dp5098
g6
Nsg8
S'LOCATION'
p5099
sg10
Nsg24
NsbsS'titles'
p5100
g0
(g1
g2
Ntp5101
Rp5102
(dp5103
g6
Nsg8
S'OTHER'
p5104
sg10
Nsg24
NsbsS'lawyer'
p5105
g0
(g1
g2
Ntp5106
Rp5107
(dp5108
g6
Nsg8
S'PERSON'
p5109
sg10
Nsg24
NsbsS'nba'
p5110
g0
(g1
g2
Ntp5111
Rp5112
(dp5113
g6
Nsg8
S'PERSON'
p5114
sg10
Nsg24
NsbsS'chair'
p5115
g0
(g1
g2
Ntp5116
Rp5117
(dp5118
g6
Nsg8
S'PERSON'
p5119
sg10
Nsg24
NsbsS'swampy'
p5120
g0
(g1
g2
Ntp5121
Rp5122
(dp5123
g6
Nsg8
S'PERSON'
p5124
sg10
Nsg24
NsbsS'clock'
p5125
g0
(g1
g2
Ntp5126
Rp5127
(dp5128
g6
Nsg8
S'OTHER'
p5129
sg10
Nsg24
NsbsS'mutombo'
p5130
g0
(g1
g2
Ntp5131
Rp5132
(dp5133
g6
Nsg8
S'LOCATION'
p5134
sg10
Nsg24
NsbsS'sun'
p5135
g0
(g1
g2
Ntp5136
Rp5137
(dp5138
g6
Nsg8
S'DATE'
p5139
sg10
Nsg24
NsbsS'caffeine'
p5140
g0
(g1
g2
Ntp5141
Rp5142
(dp5143
g6
Nsg8
S'NUMBER'
p5144
sg10
Nsg24
NsbsS'method'
p5145
g0
(g1
g2
Ntp5146
Rp5147
(dp5148
g6
Nsg8
S'OTHER'
p5149
sg10
Nsg24
NsbsS'stockyards'
p5150
g0
(g1
g2
Ntp5151
Rp5152
(dp5153
g6
Nsg8
S'LOCATION'
p5154
sg10
Nsg24
NsbsS'theresa'
p5155
g0
(g1
g2
Ntp5156
Rp5157
(dp5158
g6
Nsg8
S'PERSON'
p5159
sg10
Nsg24
NsbsS'answers'
p5160
g0
(g1
g2
Ntp5161
Rp5162
(dp5163
g6
Nsg8
S'NUMBER'
p5164
sg10
Nsg24
NsbsS'hours'
p5165
g0
(g1
g2
Ntp5166
Rp5167
(dp5168
g6
Nsg8
S'NUMBER'
p5169
sg10
Nsg24
NsbsS'ranger'
p5170
g0
(g1
g2
Ntp5171
Rp5172
(dp5173
g6
Nsg8
S'PERSON'
p5174
sg10
Nsg24
NsbsS'operating'
p5175
g0
(g1
g2
Ntp5176
Rp5177
(dp5178
g6
Nsg8
S'OTHER'
p5179
sg10
Nsg24
NsbsS'andrews'
p5180
g0
(g1
g2
Ntp5181
Rp5182
(dp5183
g6
Nsg8
S'PERSON'
p5184
sg10
Nsg24
NsbsS'belize'
p5185
g0
(g1
g2
Ntp5186
Rp5187
(dp5188
g6
Nsg8
S'LOCATION'
p5189
sg10
Nsg24
NsbsS'tragedy'
p5190
g0
(g1
g2
Ntp5191
Rp5192
(dp5193
g6
Nsg8
S'OTHER'
p5194
sg10
Nsg24
NsbsS'hass'
p5195
g0
(g1
g2
Ntp5196
Rp5197
(dp5198
g6
Nsg8
S'OTHER'
p5199
sg10
Nsg24
NsbsS'bible'
p5200
g0
(g1
g2
Ntp5201
Rp5202
(dp5203
g6
g16
sg8
S'DATE'
p5204
sg10
(dp5205
S'what'
p5206
g0
(g1
g2
Ntp5207
Rp5208
(dp5209
g6
Nsg8
S'OTHER'
p5210
sg10
Nsg24
NsbsS'who'
p5211
g0
(g1
g2
Ntp5212
Rp5213
(dp5214
g6
Nsg8
S'PERSON'
p5215
sg10
Nsg24
NsbsS'when'
p5216
g0
(g1
g2
Ntp5217
Rp5218
(dp5219
g6
Nsg8
g5204
sg10
Nsg24
Nsbssg24
NsbsS'soldier'
p5220
g0
(g1
g2
Ntp5221
Rp5222
(dp5223
g6
Nsg8
S'PERSON'
p5224
sg10
Nsg24
NsbsS'amount'
p5225
g0
(g1
g2
Ntp5226
Rp5227
(dp5228
g6
Nsg8
S'MONEY'
p5229
sg10
Nsg24
NsbsS'advertising'
p5230
g0
(g1
g2
Ntp5231
Rp5232
(dp5233
g6
Nsg8
S'DATE'
p5234
sg10
Nsg24
NsbsS'megawatts'
p5235
g0
(g1
g2
Ntp5236
Rp5237
(dp5238
g6
Nsg8
S'NUMBER'
p5239
sg10
Nsg24
NsbsS'spermologer'
p5240
g0
(g1
g2
Ntp5241
Rp5242
(dp5243
g6
Nsg8
S'OTHER'
p5244
sg10
Nsg24
NsbsS'thatcher'
p5245
g0
(g1
g2
Ntp5246
Rp5247
(dp5248
g6
Nsg8
S'DATE'
p5249
sg10
Nsg24
NsbsS'fatman'
p5250
g0
(g1
g2
Ntp5251
Rp5252
(dp5253
g6
Nsg8
S'PERSON'
p5254
sg10
Nsg24
NsbsS'ladybugs'
p5255
g0
(g1
g2
Ntp5256
Rp5257
(dp5258
g6
Nsg8
S'OTHER'
p5259
sg10
Nsg24
NsbsS'ballad'
p5260
g0
(g1
g2
Ntp5261
Rp5262
(dp5263
g6
Nsg8
S'OTHER'
p5264
sg10
Nsg24
NsbsS'horses'
p5265
g0
(g1
g2
Ntp5266
Rp5267
(dp5268
g6
Nsg8
S'NUMBER'
p5269
sg10
Nsg24
NsbsS'israel'
p5270
g0
(g1
g2
Ntp5271
Rp5272
(dp5273
g6
Nsg8
S'DATE'
p5274
sg10
Nsg24
NsbsS'fellow'
p5275
g0
(g1
g2
Ntp5276
Rp5277
(dp5278
g6
Nsg8
S'PERSON'
p5279
sg10
Nsg24
NsbsS'company'
p5280
g0
(g1
g2
Ntp5281
Rp5282
(dp5283
g6
g16
sg8
S'ORGANIZATION'
p5284
sg10
(dp5285
S'what'
p5286
g0
(g1
g2
Ntp5287
Rp5288
(dp5289
g6
Nsg8
S'ORGANIZATION'
p5290
sg10
Nsg24
NsbsS'who'
p5291
g0
(g1
g2
Ntp5292
Rp5293
(dp5294
g6
Nsg8
S'PERSON'
p5295
sg10
Nsg24
NsbsS'when'
p5296
g0
(g1
g2
Ntp5297
Rp5298
(dp5299
g6
Nsg8
S'ORGANIZATION'
p5300
sg10
Nsg24
NsbsS'name'
p5301
g0
(g1
g2
Ntp5302
Rp5303
(dp5304
g6
Nsg8
S'ORGANIZATION'
p5305
sg10
Nsg24
NsbsS'which'
p5306
g0
(g1
g2
Ntp5307
Rp5308
(dp5309
g6
Nsg8
S'ORGANIZATION'
p5310
sg10
Nsg24
Nsbssg24
NsbsS'waterways'
p5311
g0
(g1
g2
Ntp5312
Rp5313
(dp5314
g6
Nsg8
S'LOCATION'
p5315
sg10
Nsg24
NsbsS'flag'
p5316
g0
(g1
g2
Ntp5317
Rp5318
(dp5319
g6
Nsg8
S'OTHER'
p5320
sg10
Nsg24
NsbsS'stethoscope'
p5321
g0
(g1
g2
Ntp5322
Rp5323
(dp5324
g6
Nsg8
S'PERSON'
p5325
sg10
Nsg24
NsbsS'coyote'
p5326
g0
(g1
g2
Ntp5327
Rp5328
(dp5329
g6
Nsg8
S'LOCATION'
p5330
sg10
Nsg24
NsbsS'gogh'
p5331
g0
(g1
g2
Ntp5332
Rp5333
(dp5334
g6
Nsg8
S'PERSON'
p5335
sg10
Nsg24
NsbsS'town'
p5336
g0
(g1
g2
Ntp5337
Rp5338
(dp5339
g6
Nsg8
S'LOCATION'
p5340
sg10
Nsg24
NsbsS'hour'
p5341
g0
(g1
g2
Ntp5342
Rp5343
(dp5344
g6
Nsg8
S'LOCATION'
p5345
sg10
Nsg24
NsbsS'primate'
p5346
g0
(g1
g2
Ntp5347
Rp5348
(dp5349
g6
Nsg8
S'OTHER'
p5350
sg10
Nsg24
NsbsS'barroom'
p5351
g0
(g1
g2
Ntp5352
Rp5353
(dp5354
g6
Nsg8
S'PERSON'
p5355
sg10
Nsg24
NsbsS'roosevelt'
p5356
g0
(g1
g2
Ntp5357
Rp5358
(dp5359
g6
Nsg8
S'DATE'
p5360
sg10
Nsg24
NsbsS'dew'
p5361
g0
(g1
g2
Ntp5362
Rp5363
(dp5364
g6
Nsg8
S'LOCATION'
p5365
sg10
Nsg24
NsbsS'mall'
p5366
g0
(g1
g2
Ntp5367
Rp5368
(dp5369
g6
Nsg8
S'LOCATION'
p5370
sg10
Nsg24
NsbsS'morgan'
p5371
g0
(g1
g2
Ntp5372
Rp5373
(dp5374
g6
Nsg8
S'PERSON'
p5375
sg10
Nsg24
NsbsS'seagull'
p5376
g0
(g1
g2
Ntp5377
Rp5378
(dp5379
g6
Nsg8
S'OTHER'
p5380
sg10
Nsg24
NsbsS'yemen'
p5381
g0
(g1
g2
Ntp5382
Rp5383
(dp5384
g6
Nsg8
S'DATE'
p5385
sg10
Nsg24
NsbsS'nino'
p5386
g0
(g1
g2
Ntp5387
Rp5388
(dp5389
g6
g16
sg8
S'OTHER'
p5390
sg10
(dp5391
S'what'
p5392
g0
(g1
g2
Ntp5393
Rp5394
(dp5395
g6
Nsg8
g5390
sg10
Nsg24
NsbsS'who'
p5396
g0
(g1
g2
Ntp5397
Rp5398
(dp5399
g6
Nsg8
S'PERSON'
p5400
sg10
Nsg24
Nsbssg24
NsbsS'states'
p5401
g0
(g1
g2
Ntp5402
Rp5403
(dp5404
g6
g16
sg8
S'LOCATION'
p5405
sg10
(dp5406
S'how'
p5407
g0
(g1
g2
Ntp5408
Rp5409
(dp5410
g6
Nsg8
S'NUMBER'
p5411
sg10
Nsg24
NsbsS'what'
p5412
g0
(g1
g2
Ntp5413
Rp5414
(dp5415
g6
Nsg8
S'LOCATION'
p5416
sg10
Nsg24
NsbsS'which'
p5417
g0
(g1
g2
Ntp5418
Rp5419
(dp5420
g6
Nsg8
S'LOCATION'
p5421
sg10
Nsg24
Nsbssg24
NsbsS'numbers'
p5422
g0
(g1
g2
Ntp5423
Rp5424
(dp5425
g6
g16
sg8
S'PERSON'
p5426
sg10
(dp5427
S'what'
p5428
g0
(g1
g2
Ntp5429
Rp5430
(dp5431
g6
Nsg8
S'NUMBER'
p5432
sg10
Nsg24
NsbsS'who'
p5433
g0
(g1
g2
Ntp5434
Rp5435
(dp5436
g6
Nsg8
g5426
sg10
Nsg24
Nsbssg24
NsbsS'airplane'
p5437
g0
(g1
g2
Ntp5438
Rp5439
(dp5440
g6
g16
sg8
S'OTHER'
p5441
sg10
(dp5442
S'who'
p5443
g0
(g1
g2
Ntp5444
Rp5445
(dp5446
g6
Nsg8
S'ORGANIZATION'
p5447
sg10
Nsg24
NsbsS'which'
p5448
g0
(g1
g2
Ntp5449
Rp5450
(dp5451
g6
Nsg8
S'OTHER'
p5452
sg10
Nsg24
Nsbssg24
NsbsS'species'
p5453
g0
(g1
g2
Ntp5454
Rp5455
(dp5456
g6
g16
sg8
S'OTHER'
p5457
sg10
(dp5458
S'how'
p5459
g0
(g1
g2
Ntp5460
Rp5461
(dp5462
g6
Nsg8
S'NUMBER'
p5463
sg10
Nsg24
NsbsS'what'
p5464
g0
(g1
g2
Ntp5465
Rp5466
(dp5467
g6
Nsg8
S'OTHER'
p5468
sg10
Nsg24
Nsbssg24
NsbsS'freleng'
p5469
g0
(g1
g2
Ntp5470
Rp5471
(dp5472
g6
Nsg8
S'PERSON'
p5473
sg10
Nsg24
NsbsS'information'
p5474
g0
(g1
g2
Ntp5475
Rp5476
(dp5477
g6
g16
sg8
S'LOCATION'
p5478
sg10
(dp5479
S'what'
p5480
g0
(g1
g2
Ntp5481
Rp5482
(dp5483
g6
Nsg8
S'PERSON'
p5484
sg10
Nsg24
NsbsS'where'
p5485
g0
(g1
g2
Ntp5486
Rp5487
(dp5488
g6
Nsg8
g5478
sg10
Nsg24
Nsbssg24
NsbsS'court'
p5489
g0
(g1
g2
Ntp5490
Rp5491
(dp5492
g6
Nsg8
S'ORGANIZATION'
p5493
sg10
Nsg24
NsbsS'hugo'
p5494
g0
(g1
g2
Ntp5495
Rp5496
(dp5497
g6
g16
sg8
S'LOCATION'
p5498
sg10
(dp5499
S'when'
p5500
g0
(g1
g2
Ntp5501
Rp5502
(dp5503
g6
Nsg8
S'DATE'
p5504
sg10
Nsg24
NsbsS'where'
p5505
g0
(g1
g2
Ntp5506
Rp5507
(dp5508
g6
Nsg8
g5498
sg10
Nsg24
Nsbssg24
NsbsS'creature'
p5509
g0
(g1
g2
Ntp5510
Rp5511
(dp5512
g6
Nsg8
S'OTHER'
p5513
sg10
Nsg24
NsbsS'plant'
p5514
g0
(g1
g2
Ntp5515
Rp5516
(dp5517
g6
Nsg8
S'OTHER'
p5518
sg10
Nsg24
NsbsS'bacall'
p5519
g0
(g1
g2
Ntp5520
Rp5521
(dp5522
g6
Nsg8
S'PERSON'
p5523
sg10
Nsg24
NsbsS'soundtrack'
p5524
g0
(g1
g2
Ntp5525
Rp5526
(dp5527
g6
Nsg8
S'OTHER'
p5528
sg10
Nsg24
NsbsS'softball'
p5529
g0
(g1
g2
Ntp5530
Rp5531
(dp5532
g6
Nsg8
S'OTHER'
p5533
sg10
Nsg24
NsbsS'pangaea'
p5534
g0
(g1
g2
Ntp5535
Rp5536
(dp5537
g6
Nsg8
S'DATE'
p5538
sg10
Nsg24
NsbsS'author'
p5539
g0
(g1
g2
Ntp5540
Rp5541
(dp5542
g6
Nsg8
S'PERSON'
p5543
sg10
Nsg24
NsbsS'volleyball'
p5544
g0
(g1
g2
Ntp5545
Rp5546
(dp5547
g6
Nsg8
S'PERSON'
p5548
sg10
Nsg24
NsbsS'shorn'
p5549
g0
(g1
g2
Ntp5550
Rp5551
(dp5552
g6
Nsg8
S'DATE'
p5553
sg10
Nsg24
NsbsS'photoshop'
p5554
g0
(g1
g2
Ntp5555
Rp5556
(dp5557
g6
Nsg8
S'ORGANIZATION'
p5558
sg10
Nsg24
NsbsS'mission'
p5559
g0
(g1
g2
Ntp5560
Rp5561
(dp5562
g6
Nsg8
S'OTHER'
p5563
sg10
Nsg24
NsbsS'trade'
p5564
g0
(g1
g2
Ntp5565
Rp5566
(dp5567
g6
Nsg8
S'OTHER'
p5568
sg10
Nsg24
NsbsS'paper'
p5569
g0
(g1
g2
Ntp5570
Rp5571
(dp5572
g6
Nsg8
S'OTHER'
p5573
sg10
Nsg24
NsbsS'signs'
p5574
g0
(g1
g2
Ntp5575
Rp5576
(dp5577
g6
Nsg8
S'OTHER'
p5578
sg10
Nsg24
NsbsS'schoolhouse'
p5579
g0
(g1
g2
Ntp5580
Rp5581
(dp5582
g6
Nsg8
S'LOCATION'
p5583
sg10
Nsg24
NsbsS'avenue'
p5584
g0
(g1
g2
Ntp5585
Rp5586
(dp5587
g6
Nsg8
S'LOCATION'
p5588
sg10
Nsg24
NsbsS'golfing'
p5589
g0
(g1
g2
Ntp5590
Rp5591
(dp5592
g6
Nsg8
S'OTHER'
p5593
sg10
Nsg24
NsbsS'shortstop'
p5594
g0
(g1
g2
Ntp5595
Rp5596
(dp5597
g6
Nsg8
S'PERSON'
p5598
sg10
Nsg24
NsbsS'founders'
p5599
g0
(g1
g2
Ntp5600
Rp5601
(dp5602
g6
Nsg8
S'PERSON'
p5603
sg10
Nsg24
NsbsS'wingspan'
p5604
g0
(g1
g2
Ntp5605
Rp5606
(dp5607
g6
Nsg8
S'NUMBER'
p5608
sg10
Nsg24
NsbsS'fool'
p5609
g0
(g1
g2
Ntp5610
Rp5611
(dp5612
g6
Nsg8
S'PERSON'
p5613
sg10
Nsg24
NsbsS'food'
p5614
g0
(g1
g2
Ntp5615
Rp5616
(dp5617
g6
Nsg8
S'OTHER'
p5618
sg10
Nsg24
NsbsS'hunter'
p5619
g0
(g1
g2
Ntp5620
Rp5621
(dp5622
g6
Nsg8
S'PERSON'
p5623
sg10
Nsg24
NsbsS'compound'
p5624
g0
(g1
g2
Ntp5625
Rp5626
(dp5627
g6
Nsg8
S'OTHER'
p5628
sg10
Nsg24
NsbsS'mystery'
p5629
g0
(g1
g2
Ntp5630
Rp5631
(dp5632
g6
Nsg8
S'PERSON'
p5633
sg10
Nsg24
NsbsS'mathematician'
p5634
g0
(g1
g2
Ntp5635
Rp5636
(dp5637
g6
Nsg8
S'PERSON'
p5638
sg10
Nsg24
NsbsS'policeman'
p5639
g0
(g1
g2
Ntp5640
Rp5641
(dp5642
g6
Nsg8
S'OTHER'
p5643
sg10
Nsg24
NsbsS'drake'
p5644
g0
(g1
g2
Ntp5645
Rp5646
(dp5647
g6
Nsg8
S'OTHER'
p5648
sg10
Nsg24
NsbsS'events'
p5649
g0
(g1
g2
Ntp5650
Rp5651
(dp5652
g6
g16
sg8
S'NUMBER'
p5653
sg10
(dp5654
S'how'
p5655
g0
(g1
g2
Ntp5656
Rp5657
(dp5658
g6
Nsg8
g5653
sg10
Nsg24
NsbsS'what'
p5659
g0
(g1
g2
Ntp5660
Rp5661
(dp5662
g6
Nsg8
S'OTHER'
p5663
sg10
Nsg24
Nsbssg24
NsbsS'habits'
p5664
g0
(g1
g2
Ntp5665
Rp5666
(dp5667
g6
Nsg8
S'OTHER'
p5668
sg10
Nsg24
NsbsS'predators'
p5669
g0
(g1
g2
Ntp5670
Rp5671
(dp5672
g6
Nsg8
S'OTHER'
p5673
sg10
Nsg24
NsbsS'positions'
p5674
g0
(g1
g2
Ntp5675
Rp5676
(dp5677
g6
Nsg8
S'PERSON'
p5678
sg10
Nsg24
NsbsS'paganini'
p5679
g0
(g1
g2
Ntp5680
Rp5681
(dp5682
g6
Nsg8
S'PERSON'
p5683
sg10
Nsg24
NsbsS'ports'
p5684
g0
(g1
g2
Ntp5685
Rp5686
(dp5687
g6
Nsg8
S'LOCATION'
p5688
sg10
Nsg24
NsbsS'bends'
p5689
g0
(g1
g2
Ntp5690
Rp5691
(dp5692
g6
Nsg8
S'NUMBER'
p5693
sg10
Nsg24
NsbsS'weight'
p5694
g0
(g1
g2
Ntp5695
Rp5696
(dp5697
g6
Nsg8
S'NUMBER'
p5698
sg10
Nsg24
NsbsS'generation'
p5699
g0
(g1
g2
Ntp5700
Rp5701
(dp5702
g6
Nsg8
S'OTHER'
p5703
sg10
Nsg24
NsbsS'jaws'
p5704
g0
(g1
g2
Ntp5705
Rp5706
(dp5707
g6
Nsg8
S'PERSON'
p5708
sg10
Nsg24
NsbsS'energy'
p5709
g0
(g1
g2
Ntp5710
Rp5711
(dp5712
g6
Nsg8
S'NUMBER'
p5713
sg10
Nsg24
NsbsS'hawaii'
p5714
g0
(g1
g2
Ntp5715
Rp5716
(dp5717
g6
Nsg8
S'PERSON'
p5718
sg10
Nsg24
NsbsS'event'
p5719
g0
(g1
g2
Ntp5720
Rp5721
(dp5722
g6
Nsg8
S'OTHER'
p5723
sg10
Nsg24
NsbsS'aldrin'
p5724
g0
(g1
g2
Ntp5725
Rp5726
(dp5727
g6
Nsg8
S'LOCATION'
p5728
sg10
Nsg24
NsbsS'flower'
p5729
g0
(g1
g2
Ntp5730
Rp5731
(dp5732
g6
Nsg8
S'OTHER'
p5733
sg10
Nsg24
NsbsS'seaport'
p5734
g0
(g1
g2
Ntp5735
Rp5736
(dp5737
g6
Nsg8
S'LOCATION'
p5738
sg10
Nsg24
NsbsS'fountain'
p5739
g0
(g1
g2
Ntp5740
Rp5741
(dp5742
g6
Nsg8
S'PERSON'
p5743
sg10
Nsg24
NsbsS'paine'
p5744
g0
(g1
g2
Ntp5745
Rp5746
(dp5747
g6
Nsg8
S'OTHER'
p5748
sg10
Nsg24
NsbsS'pythagoras'
p5749
g0
(g1
g2
Ntp5750
Rp5751
(dp5752
g6
Nsg8
S'LOCATION'
p5753
sg10
Nsg24
NsbsS'horse'
p5754
g0
(g1
g2
Ntp5755
Rp5756
(dp5757
g6
Nsg8
S'OTHER'
p5758
sg10
Nsg24
NsbsS'pub'
p5759
g0
(g1
g2
Ntp5760
Rp5761
(dp5762
g6
Nsg8
S'PERSON'
p5763
sg10
Nsg24
NsbsS'isps'
p5764
g0
(g1
g2
Ntp5765
Rp5766
(dp5767
g6
Nsg8
S'ORGANIZATION'
p5768
sg10
Nsg24
NsbsS'darius'
p5769
g0
(g1
g2
Ntp5770
Rp5771
(dp5772
g6
Nsg8
S'PERSON'
p5773
sg10
Nsg24
NsbsS'basketball'
p5774
g0
(g1
g2
Ntp5775
Rp5776
(dp5777
g6
Nsg8
S'PERSON'
p5778
sg10
Nsg24
NsbsS'cookie'
p5779
g0
(g1
g2
Ntp5780
Rp5781
(dp5782
g6
Nsg8
S'OTHER'
p5783
sg10
Nsg24
NsbsS'members'
p5784
g0
(g1
g2
Ntp5785
Rp5786
(dp5787
g6
g16
sg8
S'NUMBER'
p5788
sg10
(dp5789
S'how'
p5790
g0
(g1
g2
Ntp5791
Rp5792
(dp5793
g6
Nsg8
g5788
sg10
Nsg24
NsbsS'name'
p5794
g0
(g1
g2
Ntp5795
Rp5796
(dp5797
g6
Nsg8
S'PERSON'
p5798
sg10
Nsg24
Nsbssg24
NsbsS'bulls'
p5799
g0
(g1
g2
Ntp5800
Rp5801
(dp5802
g6
Nsg8
S'ORGANIZATION'
p5803
sg10
Nsg24
NsbsS'revolutionary'
p5804
g0
(g1
g2
Ntp5805
Rp5806
(dp5807
g6
Nsg8
S'PERSON'
p5808
sg10
Nsg24
NsbsS'prophet'
p5809
g0
(g1
g2
Ntp5810
Rp5811
(dp5812
g6
Nsg8
S'PERSON'
p5813
sg10
Nsg24
NsbsS'american'
p5814
g0
(g1
g2
Ntp5815
Rp5816
(dp5817
g6
Nsg8
S'PERSON'
p5818
sg10
Nsg24
NsbsS'castle'
p5819
g0
(g1
g2
Ntp5820
Rp5821
(dp5822
g6
Nsg8
S'LOCATION'
p5823
sg10
Nsg24
NsbsS'superbowl'
p5824
g0
(g1
g2
Ntp5825
Rp5826
(dp5827
g6
Nsg8
S'PERSON'
p5828
sg10
Nsg24
NsbsS'fischer'
p5829
g0
(g1
g2
Ntp5830
Rp5831
(dp5832
g6
Nsg8
S'PERSON'
p5833
sg10
Nsg24
NsbsS'probability'
p5834
g0
(g1
g2
Ntp5835
Rp5836
(dp5837
g6
Nsg8
S'PERCENT'
p5838
sg10
Nsg24
NsbsS'guam'
p5839
g0
(g1
g2
Ntp5840
Rp5841
(dp5842
g6
Nsg8
S'LOCATION'
p5843
sg10
Nsg24
NsbsS'number'
p5844
g0
(g1
g2
Ntp5845
Rp5846
(dp5847
g6
Nsg8
S'NUMBER'
p5848
sg10
Nsg24
NsbsS'feet'
p5849
g0
(g1
g2
Ntp5850
Rp5851
(dp5852
g6
g16
sg8
S'NUMBER'
p5853
sg10
(dp5854
S'how'
p5855
g0
(g1
g2
Ntp5856
Rp5857
(dp5858
g6
Nsg8
S'NUMBER'
p5859
sg10
Nsg24
NsbsS'what'
p5860
g0
(g1
g2
Ntp5861
Rp5862
(dp5863
g6
Nsg8
S'OTHER'
p5864
sg10
Nsg24
NsbsS'who'
p5865
g0
(g1
g2
Ntp5866
Rp5867
(dp5868
g6
Nsg8
S'PERSON'
p5869
sg10
Nsg24
Nsbssg24
NsbsS'sailor'
p5870
g0
(g1
g2
Ntp5871
Rp5872
(dp5873
g6
Nsg8
S'PERSON'
p5874
sg10
Nsg24
NsbsS'overalls'
p5875
g0
(g1
g2
Ntp5876
Rp5877
(dp5878
g6
Nsg8
S'OTHER'
p5879
sg10
Nsg24
NsbsS'earthworms'
p5880
g0
(g1
g2
Ntp5881
Rp5882
(dp5883
g6
Nsg8
S'NUMBER'
p5884
sg10
Nsg24
NsbsS'corporal'
p5885
g0
(g1
g2
Ntp5886
Rp5887
(dp5888
g6
Nsg8
S'PERSON'
p5889
sg10
Nsg24
NsbsS'razor'
p5890
g0
(g1
g2
Ntp5891
Rp5892
(dp5893
g6
Nsg8
S'OTHER'
p5894
sg10
Nsg24
NsbsS'story'
p5895
g0
(g1
g2
Ntp5896
Rp5897
(dp5898
g6
Nsg8
S'PERSON'
p5899
sg10
Nsg24
NsbsS'temperature'
p5900
g0
(g1
g2
Ntp5901
Rp5902
(dp5903
g6
Nsg8
S'NUMBER'
p5904
sg10
Nsg24
NsbsS'automobile'
p5905
g0
(g1
g2
Ntp5906
Rp5907
(dp5908
g6
g16
sg8
S'ORGANIZATION'
p5909
sg10
(dp5910
S'what'
p5911
g0
(g1
g2
Ntp5912
Rp5913
(dp5914
g6
Nsg8
S'OTHER'
p5915
sg10
Nsg24
NsbsS'who'
p5916
g0
(g1
g2
Ntp5917
Rp5918
(dp5919
g6
Nsg8
g5909
sg10
Nsg24
Nsbssg24
NsbsS'vocalist'
p5920
g0
(g1
g2
Ntp5921
Rp5922
(dp5923
g6
Nsg8
S'PERSON'
p5924
sg10
Nsg24
NsbsS'master'
p5925
g0
(g1
g2
Ntp5926
Rp5927
(dp5928
g6
Nsg8
S'PERSON'
p5929
sg10
Nsg24
NsbsS'syllables'
p5930
g0
(g1
g2
Ntp5931
Rp5932
(dp5933
g6
Nsg8
S'NUMBER'
p5934
sg10
Nsg24
NsbsS'syrup'
p5935
g0
(g1
g2
Ntp5936
Rp5937
(dp5938
g6
Nsg8
S'OTHER'
p5939
sg10
Nsg24
NsbsS'store'
p5940
g0
(g1
g2
Ntp5941
Rp5942
(dp5943
g6
g16
sg8
S'ORGANIZATION'
p5944
sg10
(dp5945
S'what'
p5946
g0
(g1
g2
Ntp5947
Rp5948
(dp5949
g6
Nsg8
S'ORGANIZATION'
p5950
sg10
Nsg24
NsbsS'where'
p5951
g0
(g1
g2
Ntp5952
Rp5953
(dp5954
g6
Nsg8
S'LOCATION'
p5955
sg10
Nsg24
Nsbssg24
NsbsS'muscles'
p5956
g0
(g1
g2
Ntp5957
Rp5958
(dp5959
g6
Nsg8
S'NUMBER'
p5960
sg10
Nsg24
NsbsS'circumnavigator'
p5961
g0
(g1
g2
Ntp5962
Rp5963
(dp5964
g6
Nsg8
S'PERSON'
p5965
sg10
Nsg24
NsbsS'hotel'
p5966
g0
(g1
g2
Ntp5967
Rp5968
(dp5969
g6
Nsg8
S'LOCATION'
p5970
sg10
Nsg24
NsbsS'park'
p5971
g0
(g1
g2
Ntp5972
Rp5973
(dp5974
g6
Nsg8
S'LOCATION'
p5975
sg10
Nsg24
NsbsS'part'
p5976
g0
(g1
g2
Ntp5977
Rp5978
(dp5979
g6
g16
sg8
S'PERSON'
p5980
sg10
(dp5981
S'the'
p5982
g0
(g1
g2
Ntp5983
Rp5984
(dp5985
g6
Nsg8
S'OTHER'
p5986
sg10
Nsg24
NsbsS'who'
p5987
g0
(g1
g2
Ntp5988
Rp5989
(dp5990
g6
Nsg8
S'PERSON'
p5991
sg10
Nsg24
NsbsS'what'
p5992
g0
(g1
g2
Ntp5993
Rp5994
(dp5995
g6
Nsg8
S'OTHER'
p5996
sg10
Nsg24
Nsbssg24
NsbsS'jordan'
p5997
g0
(g1
g2
Ntp5998
Rp5999
(dp6000
g6
Nsg8
S'PERSON'
p6001
sg10
Nsg24
NsbsS'cotrubas'
p6002
g0
(g1
g2
Ntp6003
Rp6004
(dp6005
g6
Nsg8
S'LOCATION'
p6006
sg10
Nsg24
NsbsS'translation'
p6007
g0
(g1
g2
Ntp6008
Rp6009
(dp6010
g6
Nsg8
S'OTHER'
p6011
sg10
Nsg24
NsbsS'surfboard'
p6012
g0
(g1
g2
Ntp6013
Rp6014
(dp6015
g6
Nsg8
S'PERSON'
p6016
sg10
Nsg24
NsbsS'king'
p6017
g0
(g1
g2
Ntp6018
Rp6019
(dp6020
g6
Nsg8
S'PERSON'
p6021
sg10
Nsg24
NsbsS'kind'
p6022
g0
(g1
g2
Ntp6023
Rp6024
(dp6025
g6
Nsg8
S'OTHER'
p6026
sg10
Nsg24
NsbsS'mahal'
p6027
g0
(g1
g2
Ntp6028
Rp6029
(dp6030
g6
Nsg8
S'LOCATION'
p6031
sg10
Nsg24
NsbsS'dogs'
p6032
g0
(g1
g2
Ntp6033
Rp6034
(dp6035
g6
g16
sg8
S'OTHER'
p6036
sg10
(dp6037
S'how'
p6038
g0
(g1
g2
Ntp6039
Rp6040
(dp6041
g6
Nsg8
S'NUMBER'
p6042
sg10
Nsg24
NsbsS'who'
p6043
g0
(g1
g2
Ntp6044
Rp6045
(dp6046
g6
Nsg8
g6036
sg10
Nsg24
Nsbssg24
NsbsS'architect'
p6047
g0
(g1
g2
Ntp6048
Rp6049
(dp6050
g6
Nsg8
S'PERSON'
p6051
sg10
Nsg24
NsbsS'nominee'
p6052
g0
(g1
g2
Ntp6053
Rp6054
(dp6055
g6
Nsg8
S'PERSON'
p6056
sg10
Nsg24
NsbsS'ages'
p6057
g0
(g1
g2
Ntp6058
Rp6059
(dp6060
g6
Nsg8
S'OTHER'
p6061
sg10
Nsg24
NsbsS'pedometer'
p6062
g0
(g1
g2
Ntp6063
Rp6064
(dp6065
g6
Nsg8
S'OTHER'
p6066
sg10
Nsg24
NsbsS'garfield'
p6067
g0
(g1
g2
Ntp6068
Rp6069
(dp6070
g6
Nsg8
S'PERSON'
p6071
sg10
Nsg24
NsbsS'showers'
p6072
g0
(g1
g2
Ntp6073
Rp6074
(dp6075
g6
Nsg8
S'LOCATION'
p6076
sg10
Nsg24
NsbsS'mountain'
p6077
g0
(g1
g2
Ntp6078
Rp6079
(dp6080
g6
Nsg8
S'LOCATION'
p6081
sg10
Nsg24
NsbsS'cherokee'
p6082
g0
(g1
g2
Ntp6083
Rp6084
(dp6085
g6
Nsg8
S'PERSON'
p6086
sg10
Nsg24
NsbsS'caesar'
p6087
g0
(g1
g2
Ntp6088
Rp6089
(dp6090
g6
Nsg8
S'PERSON'
p6091
sg10
Nsg24
NsbsS'chairman'
p6092
g0
(g1
g2
Ntp6093
Rp6094
(dp6095
g6
Nsg8
S'PERSON'
p6096
sg10
Nsg24
NsbsS'province'
p6097
g0
(g1
g2
Ntp6098
Rp6099
(dp6100
g6
Nsg8
S'LOCATION'
p6101
sg10
Nsg24
NsbsS'play'
p6102
g0
(g1
g2
Ntp6103
Rp6104
(dp6105
g6
Nsg8
S'OTHER'
p6106
sg10
Nsg24
NsbsS'godfather'
p6107
g0
(g1
g2
Ntp6108
Rp6109
(dp6110
g6
Nsg8
S'PERSON'
p6111
sg10
Nsg24
NsbsS'measures'
p6112
g0
(g1
g2
Ntp6113
Rp6114
(dp6115
g6
Nsg8
S'OTHER'
p6116
sg10
Nsg24
NsbsS'eruption'
p6117
g0
(g1
g2
Ntp6118
Rp6119
(dp6120
g6
Nsg8
S'DATE'
p6121
sg10
Nsg24
NsbsS'cigarette'
p6122
g0
(g1
g2
Ntp6123
Rp6124
(dp6125
g6
Nsg8
S'OTHER'
p6126
sg10
Nsg24
NsbsS'nothing'
p6127
g0
(g1
g2
Ntp6128
Rp6129
(dp6130
g6
Nsg8
S'PERSON'
p6131
sg10
Nsg24
NsbsS'salary'
p6132
g0
(g1
g2
Ntp6133
Rp6134
(dp6135
g6
Nsg8
S'MONEY'
p6136
sg10
Nsg24
NsbsS'cover'
p6137
g0
(g1
g2
Ntp6138
Rp6139
(dp6140
g6
g16
sg8
S'OTHER'
p6141
sg10
(dp6142
S'whose'
p6143
g0
(g1
g2
Ntp6144
Rp6145
(dp6146
g6
Nsg8
S'PERSON'
p6147
sg10
Nsg24
NsbsS'which'
p6148
g0
(g1
g2
Ntp6149
Rp6150
(dp6151
g6
Nsg8
g6141
sg10
Nsg24
Nsbssg24
NsbsS'rockefeller'
p6152
g0
(g1
g2
Ntp6153
Rp6154
(dp6155
g6
g16
sg8
S'DATE'
p6156
sg10
(dp6157
S'when'
p6158
g0
(g1
g2
Ntp6159
Rp6160
(dp6161
g6
Nsg8
g6156
sg10
Nsg24
NsbsS'which'
p6162
g0
(g1
g2
Ntp6163
Rp6164
(dp6165
g6
Nsg8
S'PERSON'
p6166
sg10
Nsg24
Nsbssg24
NsbsS'transplant'
p6167
g0
(g1
g2
Ntp6168
Rp6169
(dp6170
g6
Nsg8
S'DATE'
p6171
sg10
Nsg24
NsbsS'microsoft'
p6172
g0
(g1
g2
Ntp6173
Rp6174
(dp6175
g6
Nsg8
S'DATE'
p6176
sg10
Nsg24
NsbsS'thomas'
p6177
g0
(g1
g2
Ntp6178
Rp6179
(dp6180
g6
Nsg8
S'LOCATION'
p6181
sg10
Nsg24
NsbsS'golf'
p6182
g0
(g1
g2
Ntp6183
Rp6184
(dp6185
g6
Nsg8
S'OTHER'
p6186
sg10
Nsg24
NsbsS'phenomenon'
p6187
g0
(g1
g2
Ntp6188
Rp6189
(dp6190
g6
Nsg8
S'OTHER'
p6191
sg10
Nsg24
NsbsS'businesses'
p6192
g0
(g1
g2
Ntp6193
Rp6194
(dp6195
g6
g16
sg8
S'NUMBER'
p6196
sg10
(dp6197
S'how'
p6198
g0
(g1
g2
Ntp6199
Rp6200
(dp6201
g6
Nsg8
g6196
sg10
Nsg24
NsbsS'what'
p6202
g0
(g1
g2
Ntp6203
Rp6204
(dp6205
g6
Nsg8
S'ORGANIZATION'
p6206
sg10
Nsg24
Nsbssg24
NsbsS'finn'
p6207
g0
(g1
g2
Ntp6208
Rp6209
(dp6210
g6
Nsg8
S'PERSON'
p6211
sg10
Nsg24
NsbsS'fine'
p6212
g0
(g1
g2
Ntp6213
Rp6214
(dp6215
g6
Nsg8
S'MONEY'
p6216
sg10
Nsg24
NsbsS'albums'
p6217
g0
(g1
g2
Ntp6218
Rp6219
(dp6220
g6
Nsg8
S'OTHER'
p6221
sg10
Nsg24
NsbsS'occupation'
p6222
g0
(g1
g2
Ntp6223
Rp6224
(dp6225
g6
Nsg8
S'PERSON'
p6226
sg10
Nsg24
NsbsS'deserts'
p6227
g0
(g1
g2
Ntp6228
Rp6229
(dp6230
g6
Nsg8
S'LOCATION'
p6231
sg10
Nsg24
NsbsS'ruin'
p6232
g0
(g1
g2
Ntp6233
Rp6234
(dp6235
g6
Nsg8
S'OTHER'
p6236
sg10
Nsg24
NsbsS'writer'
p6237
g0
(g1
g2
Ntp6238
Rp6239
(dp6240
g6
Nsg8
S'PERSON'
p6241
sg10
Nsg24
NsbsS'penalty'
p6242
g0
(g1
g2
Ntp6243
Rp6244
(dp6245
g6
Nsg8
S'OTHER'
p6246
sg10
Nsg24
NsbsS'viagra'
p6247
g0
(g1
g2
Ntp6248
Rp6249
(dp6250
g6
Nsg8
S'PERSON'
p6251
sg10
Nsg24
NsbsS'circle'
p6252
g0
(g1
g2
Ntp6253
Rp6254
(dp6255
g6
Nsg8
S'OTHER'
p6256
sg10
Nsg24
NsbsS'bernstein'
p6257
g0
(g1
g2
Ntp6258
Rp6259
(dp6260
g6
Nsg8
S'PERSON'
p6261
sg10
Nsg24
NsbsS'racehorse'
p6262
g0
(g1
g2
Ntp6263
Rp6264
(dp6265
g6
Nsg8
S'OTHER'
p6266
sg10
Nsg24
NsbsS'hit'
p6267
g0
(g1
g2
Ntp6268
Rp6269
(dp6270
g6
Nsg8
S'PERSON'
p6271
sg10
Nsg24
NsbsS'renaud'
p6272
g0
(g1
g2
Ntp6273
Rp6274
(dp6275
g6
Nsg8
S'PERSON'
p6276
sg10
Nsg24
NsbsS'referees'
p6277
g0
(g1
g2
Ntp6278
Rp6279
(dp6280
g6
Nsg8
S'NUMBER'
p6281
sg10
Nsg24
NsbsS'penny-farthings'
p6282
g0
(g1
g2
Ntp6283
Rp6284
(dp6285
g6
Nsg8
S'NUMBER'
p6286
sg10
Nsg24
NsbsS'banner'
p6287
g0
(g1
g2
Ntp6288
Rp6289
(dp6290
g6
Nsg8
S'DATE'
p6291
sg10
Nsg24
NsbsS'nicholas'
p6292
g0
(g1
g2
Ntp6293
Rp6294
(dp6295
g6
Nsg8
S'LOCATION'
p6296
sg10
Nsg24
NsbsS'clinic'
p6297
g0
(g1
g2
Ntp6298
Rp6299
(dp6300
g6
Nsg8
S'LOCATION'
p6301
sg10
Nsg24
NsbsS'abolitionists'
p6302
g0
(g1
g2
Ntp6303
Rp6304
(dp6305
g6
Nsg8
S'OTHER'
p6306
sg10
Nsg24
NsbsS'river'
p6307
g0
(g1
g2
Ntp6308
Rp6309
(dp6310
g6
Nsg8
S'LOCATION'
p6311
sg10
Nsg24
NsbsS'art'
p6312
g0
(g1
g2
Ntp6313
Rp6314
(dp6315
g6
Nsg8
S'DATE'
p6316
sg10
Nsg24
NsbsS'creator'
p6317
g0
(g1
g2
Ntp6318
Rp6319
(dp6320
g6
Nsg8
S'PERSON'
p6321
sg10
Nsg24
NsbsS'farrier'
p6322
g0
(g1
g2
Ntp6323
Rp6324
(dp6325
g6
Nsg8
S'OTHER'
p6326
sg10
Nsg24
NsbsS'sex'
p6327
g0
(g1
g2
Ntp6328
Rp6329
(dp6330
g6
Nsg8
S'OTHER'
p6331
sg10
Nsg24
NsbsS'culture'
p6332
g0
(g1
g2
Ntp6333
Rp6334
(dp6335
g6
Nsg8
S'ORGANIZATION'
p6336
sg10
Nsg24
NsbsS'lion'
p6337
g0
(g1
g2
Ntp6338
Rp6339
(dp6340
g6
Nsg8
S'PERSON'
p6341
sg10
Nsg24
NsbsS'individual'
p6342
g0
(g1
g2
Ntp6343
Rp6344
(dp6345
g6
Nsg8
S'LOCATION'
p6346
sg10
Nsg24
NsbsS'sea'
p6347
g0
(g1
g2
Ntp6348
Rp6349
(dp6350
g6
Nsg8
S'LOCATION'
p6351
sg10
Nsg24
NsbsS'constellation'
p6352
g0
(g1
g2
Ntp6353
Rp6354
(dp6355
g6
Nsg8
S'LOCATION'
p6356
sg10
Nsg24
NsbsS'movie'
p6357
g0
(g1
g2
Ntp6358
Rp6359
(dp6360
g6
Nsg8
S'OTHER'
p6361
sg10
Nsg24
NsbsS'libraries'
p6362
g0
(g1
g2
Ntp6363
Rp6364
(dp6365
g6
Nsg8
S'LOCATION'
p6366
sg10
Nsg24
NsbsS'fans'
p6367
g0
(g1
g2
Ntp6368
Rp6369
(dp6370
g6
Nsg8
S'PERSON'
p6371
sg10
Nsg24
NsbsS'latin'
p6372
g0
(g1
g2
Ntp6373
Rp6374
(dp6375
g6
Nsg8
S'OTHER'
p6376
sg10
Nsg24
NsbsS'tristan'
p6377
g0
(g1
g2
Ntp6378
Rp6379
(dp6380
g6
Nsg8
S'OTHER'
p6381
sg10
Nsg24
NsbsS'conservationist'
p6382
g0
(g1
g2
Ntp6383
Rp6384
(dp6385
g6
Nsg8
S'PERSON'
p6386
sg10
Nsg24
NsbsS'league'
p6387
g0
(g1
g2
Ntp6388
Rp6389
(dp6390
g6
Nsg8
S'ORGANIZATION'
p6391
sg10
Nsg24
NsbsS'restaurant'
p6392
g0
(g1
g2
Ntp6393
Rp6394
(dp6395
g6
Nsg8
S'LOCATION'
p6396
sg10
Nsg24
NsbsS'thor'
p6397
g0
(g1
g2
Ntp6398
Rp6399
(dp6400
g6
Nsg8
S'PERSON'
p6401
sg10
Nsg24
NsbsS'connection'
p6402
g0
(g1
g2
Ntp6403
Rp6404
(dp6405
g6
Nsg8
S'OTHER'
p6406
sg10
Nsg24
NsbsS'canadians'
p6407
g0
(g1
g2
Ntp6408
Rp6409
(dp6410
g6
Nsg8
S'NUMBER'
p6411
sg10
Nsg24
NsbsS'baseball'
p6412
g0
(g1
g2
Ntp6413
Rp6414
(dp6415
g6
g16
sg8
S'PERSON'
p6416
sg10
(dp6417
S'how'
p6418
g0
(g1
g2
Ntp6419
Rp6420
(dp6421
g6
Nsg8
S'NUMBER'
p6422
sg10
Nsg24
NsbsS'what'
p6423
g0
(g1
g2
Ntp6424
Rp6425
(dp6426
g6
Nsg8
S'PERSON'
p6427
sg10
Nsg24
NsbsS'who'
p6428
g0
(g1
g2
Ntp6429
Rp6430
(dp6431
g6
Nsg8
S'PERSON'
p6432
sg10
Nsg24
Nsbssg24
NsbsS'yards'
p6433
g0
(g1
g2
Ntp6434
Rp6435
(dp6436
g6
g16
sg8
S'NUMBER'
p6437
sg10
(dp6438
S'how'
p6439
g0
(g1
g2
Ntp6440
Rp6441
(dp6442
g6
Nsg8
g6437
sg10
Nsg24
NsbsS'what'
p6443
g0
(g1
g2
Ntp6444
Rp6445
(dp6446
g6
Nsg8
S'OTHER'
p6447
sg10
Nsg24
Nsbssg24
NsbsS'pendulum'
p6448
g0
(g1
g2
Ntp6449
Rp6450
(dp6451
g6
Nsg8
S'PERSON'
p6452
sg10
Nsg24
NsbsS'point'
p6453
g0
(g1
g2
Ntp6454
Rp6455
(dp6456
g6
Nsg8
S'LOCATION'
p6457
sg10
Nsg24
NsbsS'battery'
p6458
g0
(g1
g2
Ntp6459
Rp6460
(dp6461
g6
Nsg8
S'PERSON'
p6462
sg10
Nsg24
NsbsS'community'
p6463
g0
(g1
g2
Ntp6464
Rp6465
(dp6466
g6
Nsg8
S'NUMBER'
p6467
sg10
Nsg24
NsbsS'leos'
p6468
g0
(g1
g2
Ntp6469
Rp6470
(dp6471
g6
Nsg8
S'NUMBER'
p6472
sg10
Nsg24
NsbsS'church'
p6473
g0
(g1
g2
Ntp6474
Rp6475
(dp6476
g6
Nsg8
S'PERSON'
p6477
sg10
Nsg24
NsbsS'vessel'
p6478
g0
(g1
g2
Ntp6479
Rp6480
(dp6481
g6
Nsg8
S'OTHER'
p6482
sg10
Nsg24
NsbsS'belt'
p6483
g0
(g1
g2
Ntp6484
Rp6485
(dp6486
g6
Nsg8
S'OTHER'
p6487
sg10
Nsg24
NsbsS'milton'
p6488
g0
(g1
g2
Ntp6489
Rp6490
(dp6491
g6
Nsg8
S'OTHER'
p6492
sg10
Nsg24
NsbsS'trilogy'
p6493
g0
(g1
g2
Ntp6494
Rp6495
(dp6496
g6
Nsg8
S'OTHER'
p6497
sg10
Nsg24
NsbsS'mutiny'
p6498
g0
(g1
g2
Ntp6499
Rp6500
(dp6501
g6
g16
sg8
S'PERSON'
p6502
sg10
(dp6503
S'who'
p6504
g0
(g1
g2
Ntp6505
Rp6506
(dp6507
g6
Nsg8
g6502
sg10
Nsg24
NsbsS'when'
p6508
g0
(g1
g2
Ntp6509
Rp6510
(dp6511
g6
Nsg8
S'DATE'
p6512
sg10
Nsg24
Nsbssg24
NsbsS'make-up'
p6513
g0
(g1
g2
Ntp6514
Rp6515
(dp6516
g6
Nsg8
S'PERSON'
p6517
sg10
Nsg24
NsbsS'meeting'
p6518
g0
(g1
g2
Ntp6519
Rp6520
(dp6521
g6
Nsg8
S'LOCATION'
p6522
sg10
Nsg24
NsbsS'flight'
p6523
g0
(g1
g2
Ntp6524
Rp6525
(dp6526
g6
Nsg8
S'OTHER'
p6527
sg10
Nsg24
NsbsS'champion'
p6528
g0
(g1
g2
Ntp6529
Rp6530
(dp6531
g6
Nsg8
S'PERSON'
p6532
sg10
Nsg24
NsbsS'fire'
p6533
g0
(g1
g2
Ntp6534
Rp6535
(dp6536
g6
Nsg8
S'DATE'
p6537
sg10
Nsg24
NsbsS'crack'
p6538
g0
(g1
g2
Ntp6539
Rp6540
(dp6541
g6
Nsg8
S'OTHER'
p6542
sg10
Nsg24
NsbsS'races'
p6543
g0
(g1
g2
Ntp6544
Rp6545
(dp6546
g6
Nsg8
S'ORGANIZATION'
p6547
sg10
Nsg24
NsbsS'jell-o'
p6548
g0
(g1
g2
Ntp6549
Rp6550
(dp6551
g6
Nsg8
S'OTHER'
p6552
sg10
Nsg24
NsbsS'plants'
p6553
g0
(g1
g2
Ntp6554
Rp6555
(dp6556
g6
Nsg8
S'OTHER'
p6557
sg10
Nsg24
NsbsS'look'
p6558
g0
(g1
g2
Ntp6559
Rp6560
(dp6561
g6
Nsg8
S'PERSON'
p6562
sg10
Nsg24
NsbsS'bill'
p6563
g0
(g1
g2
Ntp6564
Rp6565
(dp6566
g6
g16
sg8
S'PERSON'
p6567
sg10
(dp6568
S'who'
p6569
g0
(g1
g2
Ntp6570
Rp6571
(dp6572
g6
Nsg8
g6567
sg10
Nsg24
NsbsS'when'
p6573
g0
(g1
g2
Ntp6574
Rp6575
(dp6576
g6
Nsg8
S'DATE'
p6577
sg10
Nsg24
Nsbssg24
NsbsS'governor'
p6578
g0
(g1
g2
Ntp6579
Rp6580
(dp6581
g6
Nsg8
S'PERSON'
p6582
sg10
Nsg24
NsbsS'loop'
p6583
g0
(g1
g2
Ntp6584
Rp6585
(dp6586
g6
Nsg8
S'LOCATION'
p6587
sg10
Nsg24
NsbsS'potlatch'
p6588
g0
(g1
g2
Ntp6589
Rp6590
(dp6591
g6
Nsg8
S'PERSON'
p6592
sg10
Nsg24
NsbsS'century'
p6593
g0
(g1
g2
Ntp6594
Rp6595
(dp6596
g6
Nsg8
S'DATE'
p6597
sg10
Nsg24
NsbsS'calculator'
p6598
g0
(g1
g2
Ntp6599
Rp6600
(dp6601
g6
Nsg8
S'OTHER'
p6602
sg10
Nsg24
NsbsS'lengths'
p6603
g0
(g1
g2
Ntp6604
Rp6605
(dp6606
g6
Nsg8
S'NUMBER'
p6607
sg10
Nsg24
NsbsS'fraze'
p6608
g0
(g1
g2
Ntp6609
Rp6610
(dp6611
g6
Nsg8
S'DATE'
p6612
sg10
Nsg24
NsbsS'liston'
p6613
g0
(g1
g2
Ntp6614
Rp6615
(dp6616
g6
Nsg8
S'PERSON'
p6617
sg10
Nsg24
NsbsS'kennedy'
p6618
g0
(g1
g2
Ntp6619
Rp6620
(dp6621
g6
g16
sg8
S'OTHER'
p6622
sg10
(dp6623
S'what'
p6624
g0
(g1
g2
Ntp6625
Rp6626
(dp6627
g6
Nsg8
g6622
sg10
Nsg24
NsbsS'who'
p6628
g0
(g1
g2
Ntp6629
Rp6630
(dp6631
g6
Nsg8
S'PERSON'
p6632
sg10
Nsg24
Nsbssg24
NsbsS'ruth'
p6633
g0
(g1
g2
Ntp6634
Rp6635
(dp6636
g6
Nsg8
S'DATE'
p6637
sg10
Nsg24
NsbsS'composition'
p6638
g0
(g1
g2
Ntp6639
Rp6640
(dp6641
g6
Nsg8
S'OTHER'
p6642
sg10
Nsg24
NsbsS'daughters'
p6643
g0
(g1
g2
Ntp6644
Rp6645
(dp6646
g6
Nsg8
S'PERSON'
p6647
sg10
Nsg24
NsbsS'commune'
p6648
g0
(g1
g2
Ntp6649
Rp6650
(dp6651
g6
Nsg8
S'PERSON'
p6652
sg10
Nsg24
NsbsS'strips'
p6653
g0
(g1
g2
Ntp6654
Rp6655
(dp6656
g6
Nsg8
S'OTHER'
p6657
sg10
Nsg24
NsbsS'lawyers'
p6658
g0
(g1
g2
Ntp6659
Rp6660
(dp6661
g6
Nsg8
S'NUMBER'
p6662
sg10
Nsg24
NsbsS'huston'
p6663
g0
(g1
g2
Ntp6664
Rp6665
(dp6666
g6
Nsg8
S'OTHER'
p6667
sg10
Nsg24
NsbsS'holidays'
p6668
g0
(g1
g2
Ntp6669
Rp6670
(dp6671
g6
Nsg8
S'OTHER'
p6672
sg10
Nsg24
NsbsS'husbands'
p6673
g0
(g1
g2
Ntp6674
Rp6675
(dp6676
g6
Nsg8
S'PERSON'
p6677
sg10
Nsg24
NsbsS'nickname'
p6678
g0
(g1
g2
Ntp6679
Rp6680
(dp6681
g6
Nsg8
S'PERSON'
p6682
sg10
Nsg24
NsbsS'beanie'
p6683
g0
(g1
g2
Ntp6684
Rp6685
(dp6686
g6
Nsg8
S'NUMBER'
p6687
sg10
Nsg24
NsbsS'task'
p6688
g0
(g1
g2
Ntp6689
Rp6690
(dp6691
g6
Nsg8
S'PERSON'
p6692
sg10
Nsg24
NsbsS'person'
p6693
g0
(g1
g2
Ntp6694
Rp6695
(dp6696
g6
Nsg8
S'PERSON'
p6697
sg10
Nsg24
NsbsS'chronicles'
p6698
g0
(g1
g2
Ntp6699
Rp6700
(dp6701
g6
Nsg8
S'LOCATION'
p6702
sg10
Nsg24
NsbsS'landmark'
p6703
g0
(g1
g2
Ntp6704
Rp6705
(dp6706
g6
Nsg8
S'LOCATION'
p6707
sg10
Nsg24
NsbsS'organization'
p6708
g0
(g1
g2
Ntp6709
Rp6710
(dp6711
g6
Nsg8
S'ORGANIZATION'
p6712
sg10
Nsg24
NsbsS'ambassador'
p6713
g0
(g1
g2
Ntp6714
Rp6715
(dp6716
g6
g16
sg8
S'DATE'
p6717
sg10
(dp6718
S'who'
p6719
g0
(g1
g2
Ntp6720
Rp6721
(dp6722
g6
Nsg8
S'PERSON'
p6723
sg10
Nsg24
NsbsS'when'
p6724
g0
(g1
g2
Ntp6725
Rp6726
(dp6727
g6
Nsg8
g6717
sg10
Nsg24
Nsbssg24
NsbsS'lobsters'
p6728
g0
(g1
g2
Ntp6729
Rp6730
(dp6731
g6
Nsg8
S'LOCATION'
p6732
sg10
Nsg24
NsbsS'quarters'
p6733
g0
(g1
g2
Ntp6734
Rp6735
(dp6736
g6
Nsg8
S'NUMBER'
p6737
sg10
Nsg24
NsbsS'shape'
p6738
g0
(g1
g2
Ntp6739
Rp6740
(dp6741
g6
g16
sg8
S'OTHER'
p6742
sg10
(dp6743
S'what'
p6744
g0
(g1
g2
Ntp6745
Rp6746
(dp6747
g6
Nsg8
S'OTHER'
p6748
sg10
Nsg24
NsbsS'where'
p6749
g0
(g1
g2
Ntp6750
Rp6751
(dp6752
g6
Nsg8
S'LOCATION'
p6753
sg10
Nsg24
Nsbssg24
NsbsS'questions'
p6754
g0
(g1
g2
Ntp6755
Rp6756
(dp6757
g6
Nsg8
S'NUMBER'
p6758
sg10
Nsg24
NsbsS'continent'
p6759
g0
(g1
g2
Ntp6760
Rp6761
(dp6762
g6
Nsg8
S'LOCATION'
p6763
sg10
Nsg24
NsbsS'superbowls'
p6764
g0
(g1
g2
Ntp6765
Rp6766
(dp6767
g6
Nsg8
S'NUMBER'
p6768
sg10
Nsg24
NsbsS'wage'
p6769
g0
(g1
g2
Ntp6770
Rp6771
(dp6772
g6
Nsg8
S'MONEY'
p6773
sg10
Nsg24
NsbsS'cup'
p6774
g0
(g1
g2
Ntp6775
Rp6776
(dp6777
g6
Nsg8
S'PERSON'
p6778
sg10
Nsg24
NsbsS'alternate'
p6779
g0
(g1
g2
Ntp6780
Rp6781
(dp6782
g6
Nsg8
S'OTHER'
p6783
sg10
Nsg24
NsbsS'source'
p6784
g0
(g1
g2
Ntp6785
Rp6786
(dp6787
g6
Nsg8
S'OTHER'
p6788
sg10
Nsg24
NsbsS'location'
p6789
g0
(g1
g2
Ntp6790
Rp6791
(dp6792
g6
Nsg8
S'LOCATION'
p6793
sg10
Nsg24
NsbsS'format'
p6794
g0
(g1
g2
Ntp6795
Rp6796
(dp6797
g6
Nsg8
S'OTHER'
p6798
sg10
Nsg24
NsbsS'couple'
p6799
g0
(g1
g2
Ntp6800
Rp6801
(dp6802
g6
Nsg8
S'PERSON'
p6803
sg10
Nsg24
NsbsS'advocate'
p6804
g0
(g1
g2
Ntp6805
Rp6806
(dp6807
g6
Nsg8
S'PERSON'
p6808
sg10
Nsg24
NsbsS'wives'
p6809
g0
(g1
g2
Ntp6810
Rp6811
(dp6812
g6
Nsg8
S'NUMBER'
p6813
sg10
Nsg24
NsbsS'game'
p6814
g0
(g1
g2
Ntp6815
Rp6816
(dp6817
g6
g16
sg8
S'OTHER'
p6818
sg10
(dp6819
S'what'
p6820
g0
(g1
g2
Ntp6821
Rp6822
(dp6823
g6
Nsg8
S'OTHER'
p6824
sg10
Nsg24
NsbsS'who'
p6825
g0
(g1
g2
Ntp6826
Rp6827
(dp6828
g6
Nsg8
S'PERSON'
p6829
sg10
Nsg24
Nsbssg24
NsbsS'gama'
p6830
g0
(g1
g2
Ntp6831
Rp6832
(dp6833
g6
Nsg8
S'OTHER'
p6834
sg10
Nsg24
NsbsS'wings'
p6835
g0
(g1
g2
Ntp6836
Rp6837
(dp6838
g6
Nsg8
S'NUMBER'
p6839
sg10
Nsg24
NsbsS'pillar'
p6840
g0
(g1
g2
Ntp6841
Rp6842
(dp6843
g6
Nsg8
S'PERSON'
p6844
sg10
Nsg24
NsbsS'disks'
p6845
g0
(g1
g2
Ntp6846
Rp6847
(dp6848
g6
Nsg8
S'NUMBER'
p6849
sg10
Nsg24
NsbsS'eidologist'
p6850
g0
(g1
g2
Ntp6851
Rp6852
(dp6853
g6
Nsg8
S'OTHER'
p6854
sg10
Nsg24
NsbsS'judson'
p6855
g0
(g1
g2
Ntp6856
Rp6857
(dp6858
g6
Nsg8
S'PERSON'
p6859
sg10
Nsg24
NsbsS'methods'
p6860
g0
(g1
g2
Ntp6861
Rp6862
(dp6863
g6
Nsg8
S'OTHER'
p6864
sg10
Nsg24
NsbsS'qatar'
p6865
g0
(g1
g2
Ntp6866
Rp6867
(dp6868
g6
Nsg8
S'LOCATION'
p6869
sg10
Nsg24
NsbsS'singing'
p6870
g0
(g1
g2
Ntp6871
Rp6872
(dp6873
g6
Nsg8
S'PERSON'
p6874
sg10
Nsg24
NsbsS'religion'
p6875
g0
(g1
g2
Ntp6876
Rp6877
(dp6878
g6
Nsg8
S'OTHER'
p6879
sg10
Nsg24
NsbsS'civilization'
p6880
g0
(g1
g2
Ntp6881
Rp6882
(dp6883
g6
Nsg8
S'ORGANIZATION'
p6884
sg10
Nsg24
NsbsS'epic'
p6885
g0
(g1
g2
Ntp6886
Rp6887
(dp6888
g6
Nsg8
S'OTHER'
p6889
sg10
Nsg24
NsbsS'rum'
p6890
g0
(g1
g2
Ntp6891
Rp6892
(dp6893
g6
Nsg8
S'OTHER'
p6894
sg10
Nsg24
NsbsS'weir'
p6895
g0
(g1
g2
Ntp6896
Rp6897
(dp6898
g6
Nsg8
S'PERSON'
p6899
sg10
Nsg24
NsbsS'hostages'
p6900
g0
(g1
g2
Ntp6901
Rp6902
(dp6903
g6
Nsg8
S'NUMBER'
p6904
sg10
Nsg24
NsbsS'pitchers'
p6905
g0
(g1
g2
Ntp6906
Rp6907
(dp6908
g6
Nsg8
S'NUMBER'
p6909
sg10
Nsg24
NsbsS'vaccine'
p6910
g0
(g1
g2
Ntp6911
Rp6912
(dp6913
g6
g16
sg8
S'OTHER'
p6914
sg10
(dp6915
S'what'
p6916
g0
(g1
g2
Ntp6917
Rp6918
(dp6919
g6
Nsg8
g6914
sg10
Nsg24
NsbsS'who'
p6920
g0
(g1
g2
Ntp6921
Rp6922
(dp6923
g6
Nsg8
S'PERSON'
p6924
sg10
Nsg24
Nsbssg24
NsbsS'faith'
p6925
g0
(g1
g2
Ntp6926
Rp6927
(dp6928
g6
Nsg8
S'PERSON'
p6929
sg10
Nsg24
NsbsS'melbourne'
p6930
g0
(g1
g2
Ntp6931
Rp6932
(dp6933
g6
Nsg8
S'LOCATION'
p6934
sg10
Nsg24
NsbsS'congressman'
p6935
g0
(g1
g2
Ntp6936
Rp6937
(dp6938
g6
Nsg8
S'PERSON'
p6939
sg10
Nsg24
NsbsS'block'
p6940
g0
(g1
g2
Ntp6941
Rp6942
(dp6943
g6
Nsg8
S'LOCATION'
p6944
sg10
Nsg24
NsbsS'clinton'
p6945
g0
(g1
g2
Ntp6946
Rp6947
(dp6948
g6
Nsg8
S'LOCATION'
p6949
sg10
Nsg24
NsbsS'comedienne'
p6950
g0
(g1
g2
Ntp6951
Rp6952
(dp6953
g6
Nsg8
S'PERSON'
p6954
sg10
Nsg24
NsbsS'frames'
p6955
g0
(g1
g2
Ntp6956
Rp6957
(dp6958
g6
Nsg8
S'NUMBER'
p6959
sg10
Nsg24
NsbsS'canal'
p6960
g0
(g1
g2
Ntp6961
Rp6962
(dp6963
g6
Nsg8
S'LOCATION'
p6964
sg10
Nsg24
NsbsS'jockey'
p6965
g0
(g1
g2
Ntp6966
Rp6967
(dp6968
g6
Nsg8
S'PERSON'
p6969
sg10
Nsg24
NsbsS'span'
p6970
g0
(g1
g2
Ntp6971
Rp6972
(dp6973
g6
Nsg8
S'TIME'
p6974
sg10
Nsg24
NsbsS'question'
p6975
g0
(g1
g2
Ntp6976
Rp6977
(dp6978
g6
Nsg8
S'PERSON'
p6979
sg10
Nsg24
NsbsS'suit'
p6980
g0
(g1
g2
Ntp6981
Rp6982
(dp6983
g6
Nsg8
S'OTHER'
p6984
sg10
Nsg24
NsbsS'warlock'
p6985
g0
(g1
g2
Ntp6986
Rp6987
(dp6988
g6
Nsg8
S'OTHER'
p6989
sg10
Nsg24
NsbsS'mountains'
p6990
g0
(g1
g2
Ntp6991
Rp6992
(dp6993
g6
g16
sg8
S'NUMBER'
p6994
sg10
(dp6995
S'how'
p6996
g0
(g1
g2
Ntp6997
Rp6998
(dp6999
g6
Nsg8
g6994
sg10
Nsg24
NsbsS'what'
p7000
g0
(g1
g2
Ntp7001
Rp7002
(dp7003
g6
Nsg8
S'LOCATION'
p7004
sg10
Nsg24
Nsbssg24
NsbsS'quetzalcoatl'
p7005
g0
(g1
g2
Ntp7006
Rp7007
(dp7008
g6
Nsg8
S'PERSON'
p7009
sg10
Nsg24
NsbsS'inches'
p7010
g0
(g1
g2
Ntp7011
Rp7012
(dp7013
g6
Nsg8
S'NUMBER'
p7014
sg10
Nsg24
NsbsS'boys'
p7015
g0
(g1
g2
Ntp7016
Rp7017
(dp7018
g6
Nsg8
S'NUMBER'
p7019
sg10
Nsg24
NsbsS'line'
p7020
g0
(g1
g2
Ntp7021
Rp7022
(dp7023
g6
Nsg8
S'OTHER'
p7024
sg10
Nsg24
NsbsS'us'
p7025
g0
(g1
g2
Ntp7026
Rp7027
(dp7028
g6
Nsg8
S'PERSON'
p7029
sg10
Nsg24
NsbsS'planet'
p7030
g0
(g1
g2
Ntp7031
Rp7032
(dp7033
g6
Nsg8
S'LOCATION'
p7034
sg10
Nsg24
NsbsS'mozambique'
p7035
g0
(g1
g2
Ntp7036
Rp7037
(dp7038
g6
Nsg8
S'LOCATION'
p7039
sg10
Nsg24
NsbsS'sort'
p7040
g0
(g1
g2
Ntp7041
Rp7042
(dp7043
g6
Nsg8
S'OTHER'
p7044
sg10
Nsg24
NsbsS'duckling'
p7045
g0
(g1
g2
Ntp7046
Rp7047
(dp7048
g6
Nsg8
S'PERSON'
p7049
sg10
Nsg24
NsbsS'expedition'
p7050
g0
(g1
g2
Ntp7051
Rp7052
(dp7053
g6
Nsg8
S'OTHER'
p7054
sg10
Nsg24
NsbsS'unsafe'
p7055
g0
(g1
g2
Ntp7056
Rp7057
(dp7058
g6
Nsg8
S'PERSON'
p7059
sg10
Nsg24
NsbsS'majal'
p7060
g0
(g1
g2
Ntp7061
Rp7062
(dp7063
g6
Nsg8
S'OTHER'
p7064
sg10
Nsg24
NsbsS'nostradamus'
p7065
g0
(g1
g2
Ntp7066
Rp7067
(dp7068
g6
Nsg8
S'DATE'
p7069
sg10
Nsg24
NsbsS'camcorders'
p7070
g0
(g1
g2
Ntp7071
Rp7072
(dp7073
g6
Nsg8
S'DATE'
p7074
sg10
Nsg24
NsbsS'corners'
p7075
g0
(g1
g2
Ntp7076
Rp7077
(dp7078
g6
Nsg8
S'NUMBER'
p7079
sg10
Nsg24
NsbsS'actors'
p7080
g0
(g1
g2
Ntp7081
Rp7082
(dp7083
g6
Nsg8
S'NUMBER'
p7084
sg10
Nsg24
NsbsS'income'
p7085
g0
(g1
g2
Ntp7086
Rp7087
(dp7088
g6
Nsg8
S'MONEY'
p7089
sg10
Nsg24
NsbsS'department'
p7090
g0
(g1
g2
Ntp7091
Rp7092
(dp7093
g6
Nsg8
S'PERSON'
p7094
sg10
Nsg24
NsbsS'mayonnaise'
p7095
g0
(g1
g2
Ntp7096
Rp7097
(dp7098
g6
Nsg8
S'OTHER'
p7099
sg10
Nsg24
NsbsS'elements'
p7100
g0
(g1
g2
Ntp7101
Rp7102
(dp7103
g6
g16
sg8
S'OTHER'
p7104
sg10
(dp7105
S'how'
p7106
g0
(g1
g2
Ntp7107
Rp7108
(dp7109
g6
Nsg8
S'NUMBER'
p7110
sg10
Nsg24
NsbsS'what'
p7111
g0
(g1
g2
Ntp7112
Rp7113
(dp7114
g6
Nsg8
S'OTHER'
p7115
sg10
Nsg24
Nsbssg24
NsbsS'lucia'
p7116
g0
(g1
g2
Ntp7117
Rp7118
(dp7119
g6
Nsg8
S'LOCATION'
p7120
sg10
Nsg24
NsbsS'lens'
p7121
g0
(g1
g2
Ntp7122
Rp7123
(dp7124
g6
Nsg8
S'OTHER'
p7125
sg10
Nsg24
NsbsS'sides'
p7126
g0
(g1
g2
Ntp7127
Rp7128
(dp7129
g6
Nsg8
S'NUMBER'
p7130
sg10
Nsg24
NsbsS'structure'
p7131
g0
(g1
g2
Ntp7132
Rp7133
(dp7134
g6
Nsg8
S'OTHER'
p7135
sg10
Nsg24
NsbsS'miles'
p7136
g0
(g1
g2
Ntp7137
Rp7138
(dp7139
g6
Nsg8
S'NUMBER'
p7140
sg10
Nsg24
NsbsS'age'
p7141
g0
(g1
g2
Ntp7142
Rp7143
(dp7144
g6
Nsg8
S'TIME'
p7145
sg10
Nsg24
NsbsS'vehicles'
p7146
g0
(g1
g2
Ntp7147
Rp7148
(dp7149
g6
Nsg8
S'OTHER'
p7150
sg10
Nsg24
NsbsS'holes'
p7151
g0
(g1
g2
Ntp7152
Rp7153
(dp7154
g6
Nsg8
S'NUMBER'
p7155
sg10
Nsg24
NsbsS'feud'
p7156
g0
(g1
g2
Ntp7157
Rp7158
(dp7159
g6
Nsg8
S'OTHER'
p7160
sg10
Nsg24
NsbsS'walker'
p7161
g0
(g1
g2
Ntp7162
Rp7163
(dp7164
g6
Nsg8
S'LOCATION'
p7165
sg10
Nsg24
NsbsS'menace'
p7166
g0
(g1
g2
Ntp7167
Rp7168
(dp7169
g6
Nsg8
S'OTHER'
p7170
sg10
Nsg24
NsbsS'code'
p7171
g0
(g1
g2
Ntp7172
Rp7173
(dp7174
g6
Nsg8
S'NUMBER'
p7175
sg10
Nsg24
NsbsS'astronauts'
p7176
g0
(g1
g2
Ntp7177
Rp7178
(dp7179
g6
Nsg8
S'NUMBER'
p7180
sg10
Nsg24
NsbsS'gang'
p7181
g0
(g1
g2
Ntp7182
Rp7183
(dp7184
g6
Nsg8
S'OTHER'
p7185
sg10
Nsg24
NsbsS'super-teams'
p7186
g0
(g1
g2
Ntp7187
Rp7188
(dp7189
g6
Nsg8
S'ORGANIZATION'
p7190
sg10
Nsg24
NsbsS'birthplace'
p7191
g0
(g1
g2
Ntp7192
Rp7193
(dp7194
g6
Nsg8
S'LOCATION'
p7195
sg10
Nsg24
NsbsS'simon'
p7196
g0
(g1
g2
Ntp7197
Rp7198
(dp7199
g6
Nsg8
S'OTHER'
p7200
sg10
Nsg24
NsbsS'vesuvius'
p7201
g0
(g1
g2
Ntp7202
Rp7203
(dp7204
g6
Nsg8
S'DATE'
p7205
sg10
Nsg24
NsbsS'lyrics'
p7206
g0
(g1
g2
Ntp7207
Rp7208
(dp7209
g6
Nsg8
S'PERSON'
p7210
sg10
Nsg24
NsbsS'vietnamese'
p7211
g0
(g1
g2
Ntp7212
Rp7213
(dp7214
g6
Nsg8
S'NUMBER'
p7215
sg10
Nsg24
NsbsS'languages'
p7216
g0
(g1
g2
Ntp7217
Rp7218
(dp7219
g6
g16
sg8
S'NUMBER'
p7220
sg10
(dp7221
S'how'
p7222
g0
(g1
g2
Ntp7223
Rp7224
(dp7225
g6
Nsg8
S'NUMBER'
p7226
sg10
Nsg24
NsbsS'what'
p7227
g0
(g1
g2
Ntp7228
Rp7229
(dp7230
g6
Nsg8
S'OTHER'
p7231
sg10
Nsg24
Nsbssg24
NsbsS'resources'
p7232
g0
(g1
g2
Ntp7233
Rp7234
(dp7235
g6
Nsg8
S'LOCATION'
p7236
sg10
Nsg24
NsbsS'ingredient'
p7237
g0
(g1
g2
Ntp7238
Rp7239
(dp7240
g6
Nsg8
S'OTHER'
p7241
sg10
Nsg24
NsbsS'stonehenge'
p7242
g0
(g1
g2
Ntp7243
Rp7244
(dp7245
g6
Nsg8
S'PERSON'
p7246
sg10
Nsg24
NsbsS'droppings'
p7247
g0
(g1
g2
Ntp7248
Rp7249
(dp7250
g6
Nsg8
S'OTHER'
p7251
sg10
Nsg24
NsbsS'ukulele'
p7252
g0
(g1
g2
Ntp7253
Rp7254
(dp7255
g6
Nsg8
S'LOCATION'
p7256
sg10
Nsg24
NsbsS'acreage'
p7257
g0
(g1
g2
Ntp7258
Rp7259
(dp7260
g6
Nsg8
S'NUMBER'
p7261
sg10
Nsg24
NsbsS'surgeon'
p7262
g0
(g1
g2
Ntp7263
Rp7264
(dp7265
g6
Nsg8
S'PERSON'
p7266
sg10
Nsg24
NsbsS'tutu'
p7267
g0
(g1
g2
Ntp7268
Rp7269
(dp7270
g6
Nsg8
S'PERSON'
p7271
sg10
Nsg24
NsbsS'magic'
p7272
g0
(g1
g2
Ntp7273
Rp7274
(dp7275
g6
Nsg8
S'OTHER'
p7276
sg10
Nsg24
NsbsS'gender'
p7277
g0
(g1
g2
Ntp7278
Rp7279
(dp7280
g6
Nsg8
S'OTHER'
p7281
sg10
Nsg24
NsbsS'notes'
p7282
g0
(g1
g2
Ntp7283
Rp7284
(dp7285
g6
Nsg8
S'OTHER'
p7286
sg10
Nsg24
NsbsS'race'
p7287
g0
(g1
g2
Ntp7288
Rp7289
(dp7290
g6
g16
sg8
S'OTHER'
p7291
sg10
(dp7292
S'what'
p7293
g0
(g1
g2
Ntp7294
Rp7295
(dp7296
g6
Nsg8
S'OTHER'
p7297
sg10
Nsg24
NsbsS'where'
p7298
g0
(g1
g2
Ntp7299
Rp7300
(dp7301
g6
Nsg8
S'LOCATION'
p7302
sg10
Nsg24
Nsbssg24
NsbsS'malick'
p7303
g0
(g1
g2
Ntp7304
Rp7305
(dp7306
g6
Nsg8
S'PERSON'
p7307
sg10
Nsg24
NsbsS'carter'
p7308
g0
(g1
g2
Ntp7309
Rp7310
(dp7311
g6
Nsg8
S'OTHER'
p7312
sg10
Nsg24
NsbsS'cds'
p7313
g0
(g1
g2
Ntp7314
Rp7315
(dp7316
g6
Nsg8
S'NUMBER'
p7317
sg10
Nsg24
NsbsS'wrestling'
p7318
g0
(g1
g2
Ntp7319
Rp7320
(dp7321
g6
Nsg8
S'PERSON'
p7322
sg10
Nsg24
NsbsS'crop'
p7323
g0
(g1
g2
Ntp7324
Rp7325
(dp7326
g6
Nsg8
S'OTHER'
p7327
sg10
Nsg24
NsbsS'rivers'
p7328
g0
(g1
g2
Ntp7329
Rp7330
(dp7331
g6
Nsg8
S'LOCATION'
p7332
sg10
Nsg24
NsbsS'scrabble'
p7333
g0
(g1
g2
Ntp7334
Rp7335
(dp7336
g6
Nsg8
S'PERSON'
p7337
sg10
Nsg24
NsbsS'video'
p7338
g0
(g1
g2
Ntp7339
Rp7340
(dp7341
g6
g16
sg8
S'OTHER'
p7342
sg10
(dp7343
S'whose'
p7344
g0
(g1
g2
Ntp7345
Rp7346
(dp7347
g6
Nsg8
S'PERSON'
p7348
sg10
Nsg24
NsbsS'what'
p7349
g0
(g1
g2
Ntp7350
Rp7351
(dp7352
g6
Nsg8
S'OTHER'
p7353
sg10
Nsg24
Nsbssg24
NsbsS'grooves'
p7354
g0
(g1
g2
Ntp7355
Rp7356
(dp7357
g6
Nsg8
S'NUMBER'
p7358
sg10
Nsg24
NsbsS'acid'
p7359
g0
(g1
g2
Ntp7360
Rp7361
(dp7362
g6
Nsg8
S'NUMBER'
p7363
sg10
Nsg24
NsbsS'depression'
p7364
g0
(g1
g2
Ntp7365
Rp7366
(dp7367
g6
Nsg8
S'DATE'
p7368
sg10
Nsg24
NsbsS'power'
p7369
g0
(g1
g2
Ntp7370
Rp7371
(dp7372
g6
Nsg8
S'PERSON'
p7373
sg10
Nsg24
NsbsS'capital'
p7374
g0
(g1
g2
Ntp7375
Rp7376
(dp7377
g6
Nsg8
S'LOCATION'
p7378
sg10
Nsg24
NsbsS'tournaments'
p7379
g0
(g1
g2
Ntp7380
Rp7381
(dp7382
g6
Nsg8
S'OTHER'
p7383
sg10
Nsg24
NsbsS'bird'
p7384
g0
(g1
g2
Ntp7385
Rp7386
(dp7387
g6
Nsg8
S'OTHER'
p7388
sg10
Nsg24
NsbsS'body'
p7389
g0
(g1
g2
Ntp7390
Rp7391
(dp7392
g6
Nsg8
S'OTHER'
p7393
sg10
Nsg24
NsbsS'leg'
p7394
g0
(g1
g2
Ntp7395
Rp7396
(dp7397
g6
Nsg8
S'OTHER'
p7398
sg10
Nsg24
NsbsS'napolean'
p7399
g0
(g1
g2
Ntp7400
Rp7401
(dp7402
g6
Nsg8
S'PERSON'
p7403
sg10
Nsg24
NsbsS'canals'
p7404
g0
(g1
g2
Ntp7405
Rp7406
(dp7407
g6
Nsg8
S'LOCATION'
p7408
sg10
Nsg24
NsbsS'survivor'
p7409
g0
(g1
g2
Ntp7410
Rp7411
(dp7412
g6
Nsg8
S'PERSON'
p7413
sg10
Nsg24
NsbsS'jinnah'
p7414
g0
(g1
g2
Ntp7415
Rp7416
(dp7417
g6
Nsg8
S'PERSON'
p7418
sg10
Nsg24
NsbsS'products'
p7419
g0
(g1
g2
Ntp7420
Rp7421
(dp7422
g6
Nsg8
S'OTHER'
p7423
sg10
Nsg24
NsbsS'residents'
p7424
g0
(g1
g2
Ntp7425
Rp7426
(dp7427
g6
Nsg8
S'ORGANIZATION'
p7428
sg10
Nsg24
NsbsS'patents'
p7429
g0
(g1
g2
Ntp7430
Rp7431
(dp7432
g6
Nsg8
S'PERSON'
p7433
sg10
Nsg24
NsbsS'holmes'
p7434
g0
(g1
g2
Ntp7435
Rp7436
(dp7437
g6
Nsg8
S'PERSON'
p7438
sg10
Nsg24
NsbsS'clark'
p7439
g0
(g1
g2
Ntp7440
Rp7441
(dp7442
g6
Nsg8
S'DATE'
p7443
sg10
Nsg24
NsbsS'scales'
p7444
g0
(g1
g2
Ntp7445
Rp7446
(dp7447
g6
Nsg8
S'NUMBER'
p7448
sg10
Nsg24
NsbsS'presidents'
p7449
g0
(g1
g2
Ntp7450
Rp7451
(dp7452
g6
g16
sg8
S'PERSON'
p7453
sg10
(dp7454
S'how'
p7455
g0
(g1
g2
Ntp7456
Rp7457
(dp7458
g6
Nsg8
S'NUMBER'
p7459
sg10
Nsg24
NsbsS'who'
p7460
g0
(g1
g2
Ntp7461
Rp7462
(dp7463
g6
Nsg8
S'PERSON'
p7464
sg10
Nsg24
Nsbssg24
NsbsS'respirator'
p7465
g0
(g1
g2
Ntp7466
Rp7467
(dp7468
g6
Nsg8
S'OTHER'
p7469
sg10
Nsg24
NsbsS'names'
p7470
g0
(g1
g2
Ntp7471
Rp7472
(dp7473
g6
g16
sg8
S'PERSON'
p7474
sg10
(dp7475
S'how'
p7476
g0
(g1
g2
Ntp7477
Rp7478
(dp7479
g6
Nsg8
S'NUMBER'
p7480
sg10
Nsg24
NsbsS'what'
p7481
g0
(g1
g2
Ntp7482
Rp7483
(dp7484
g6
Nsg8
S'PERSON'
p7485
sg10
Nsg24
Nsbssg24
NsbsS'composer'
p7486
g0
(g1
g2
Ntp7487
Rp7488
(dp7489
g6
Nsg8
S'PERSON'
p7490
sg10
Nsg24
NsbsS'tools'
p7491
g0
(g1
g2
Ntp7492
Rp7493
(dp7494
g6
Nsg8
S'PERSON'
p7495
sg10
Nsg24
NsbsS'lime'
p7496
g0
(g1
g2
Ntp7497
Rp7498
(dp7499
g6
Nsg8
S'PERSON'
p7500
sg10
Nsg24
NsbsS'use'
p7501
g0
(g1
g2
Ntp7502
Rp7503
(dp7504
g6
Nsg8
S'DATE'
p7505
sg10
Nsg24
NsbsS'zip'
p7506
g0
(g1
g2
Ntp7507
Rp7508
(dp7509
g6
Nsg8
S'NUMBER'
p7510
sg10
Nsg24
NsbsS'remains'
p7511
g0
(g1
g2
Ntp7512
Rp7513
(dp7514
g6
Nsg8
S'LOCATION'
p7515
sg10
Nsg24
NsbsS'butler'
p7516
g0
(g1
g2
Ntp7517
Rp7518
(dp7519
g6
Nsg8
S'PERSON'
p7520
sg10
Nsg24
NsbsS'possession'
p7521
g0
(g1
g2
Ntp7522
Rp7523
(dp7524
g6
Nsg8
S'LOCATION'
p7525
sg10
Nsg24
NsbsS'shipwreck'
p7526
g0
(g1
g2
Ntp7527
Rp7528
(dp7529
g6
Nsg8
S'OTHER'
p7530
sg10
Nsg24
NsbsS'tax'
p7531
g0
(g1
g2
Ntp7532
Rp7533
(dp7534
g6
Nsg8
S'MONEY'
p7535
sg10
Nsg24
NsbsS'trail'
p7536
g0
(g1
g2
Ntp7537
Rp7538
(dp7539
g6
Nsg8
S'LOCATION'
p7540
sg10
Nsg24
NsbsS'rabbit'
p7541
g0
(g1
g2
Ntp7542
Rp7543
(dp7544
g6
Nsg8
S'OTHER'
p7545
sg10
Nsg24
NsbsS'baby'
p7546
g0
(g1
g2
Ntp7547
Rp7548
(dp7549
g6
Nsg8
S'PERSON'
p7550
sg10
Nsg24
NsbsS'antichrist'
p7551
g0
(g1
g2
Ntp7552
Rp7553
(dp7554
g6
Nsg8
S'PERSON'
p7555
sg10
Nsg24
NsbsS'shostakovich'
p7556
g0
(g1
g2
Ntp7557
Rp7558
(dp7559
g6
Nsg8
S'OTHER'
p7560
sg10
Nsg24
NsbsS'iii'
p7561
g0
(g1
g2
Ntp7562
Rp7563
(dp7564
g6
Nsg8
S'PERSON'
p7565
sg10
Nsg24
NsbsS'huxley'
p7566
g0
(g1
g2
Ntp7567
Rp7568
(dp7569
g6
Nsg8
S'DATE'
p7570
sg10
Nsg24
NsbsS'women'
p7571
g0
(g1
g2
Ntp7572
Rp7573
(dp7574
g6
Nsg8
S'PERSON'
p7575
sg10
Nsg24
NsbsS'account'
p7576
g0
(g1
g2
Ntp7577
Rp7578
(dp7579
g6
Nsg8
S'PERCENT'
p7580
sg10
Nsg24
NsbsS'balls'
p7581
g0
(g1
g2
Ntp7582
Rp7583
(dp7584
g6
Nsg8
S'OTHER'
p7585
sg10
Nsg24
NsbsS'animals'
p7586
g0
(g1
g2
Ntp7587
Rp7588
(dp7589
g6
Nsg8
S'OTHER'
p7590
sg10
Nsg24
NsbsS'athlete'
p7591
g0
(g1
g2
Ntp7592
Rp7593
(dp7594
g6
Nsg8
S'PERSON'
p7595
sg10
Nsg24
NsbsS'control'
p7596
g0
(g1
g2
Ntp7597
Rp7598
(dp7599
g6
Nsg8
S'DATE'
p7600
sg10
Nsg24
NsbsS'process'
p7601
g0
(g1
g2
Ntp7602
Rp7603
(dp7604
g6
Nsg8
S'PERSON'
p7605
sg10
Nsg24
NsbsS'tootsie'
p7606
g0
(g1
g2
Ntp7607
Rp7608
(dp7609
g6
Nsg8
S'PERSON'
p7610
sg10
Nsg24
NsbsS'high'
p7611
g0
(g1
g2
Ntp7612
Rp7613
(dp7614
g6
Nsg8
S'NUMBER'
p7615
sg10
Nsg24
NsbsS'villain'
p7616
g0
(g1
g2
Ntp7617
Rp7618
(dp7619
g6
Nsg8
S'PERSON'
p7620
sg10
Nsg24
NsbsS'bend'
p7621
g0
(g1
g2
Ntp7622
Rp7623
(dp7624
g6
Nsg8
S'LOCATION'
p7625
sg10
Nsg24
NsbsS'bones'
p7626
g0
(g1
g2
Ntp7627
Rp7628
(dp7629
g6
Nsg8
S'NUMBER'
p7630
sg10
Nsg24
NsbsS'native'
p7631
g0
(g1
g2
Ntp7632
Rp7633
(dp7634
g6
Nsg8
S'LOCATION'
p7635
sg10
Nsg24
NsbsS'autobiography'
p7636
g0
(g1
g2
Ntp7637
Rp7638
(dp7639
g6
Nsg8
S'PERSON'
p7640
sg10
Nsg24
NsbsS'hampshire'
p7641
g0
(g1
g2
Ntp7642
Rp7643
(dp7644
g6
Nsg8
S'LOCATION'
p7645
sg10
Nsg24
NsbsS'winners'
p7646
g0
(g1
g2
Ntp7647
Rp7648
(dp7649
g6
Nsg8
S'PERSON'
p7650
sg10
Nsg24
NsbsS'forest'
p7651
g0
(g1
g2
Ntp7652
Rp7653
(dp7654
g6
Nsg8
S'LOCATION'
p7655
sg10
Nsg24
NsbsS'animal'
p7656
g0
(g1
g2
Ntp7657
Rp7658
(dp7659
g6
Nsg8
S'OTHER'
p7660
sg10
Nsg24
NsbsS'rousseau'
p7661
g0
(g1
g2
Ntp7662
Rp7663
(dp7664
g6
Nsg8
S'DATE'
p7665
sg10
Nsg24
NsbsS'fare'
p7666
g0
(g1
g2
Ntp7667
Rp7668
(dp7669
g6
Nsg8
S'MONEY'
p7670
sg10
Nsg24
NsbsS'buildings'
p7671
g0
(g1
g2
Ntp7672
Rp7673
(dp7674
g6
Nsg8
S'LOCATION'
p7675
sg10
Nsg24
NsbsS'cupboard'
p7676
g0
(g1
g2
Ntp7677
Rp7678
(dp7679
g6
Nsg8
S'PERSON'
p7680
sg10
Nsg24
NsbsS'singular'
p7681
g0
(g1
g2
Ntp7682
Rp7683
(dp7684
g6
Nsg8
S'OTHER'
p7685
sg10
Nsg24
NsbsS'collection'
p7686
g0
(g1
g2
Ntp7687
Rp7688
(dp7689
g6
Nsg8
S'PERSON'
p7690
sg10
Nsg24
NsbsS'pigs'
p7691
g0
(g1
g2
Ntp7692
Rp7693
(dp7694
g6
Nsg8
S'LOCATION'
p7695
sg10
Nsg24
NsbsS'muppets'
p7696
g0
(g1
g2
Ntp7697
Rp7698
(dp7699
g6
Nsg8
S'PERSON'
p7700
sg10
Nsg24
NsbsS'liner'
p7701
g0
(g1
g2
Ntp7702
Rp7703
(dp7704
g6
Nsg8
S'OTHER'
p7705
sg10
Nsg24
NsbsS'element'
p7706
g0
(g1
g2
Ntp7707
Rp7708
(dp7709
g6
Nsg8
S'OTHER'
p7710
sg10
Nsg24
NsbsS'bakery'
p7711
g0
(g1
g2
Ntp7712
Rp7713
(dp7714
g6
Nsg8
S'OTHER'
p7715
sg10
Nsg24
NsbsS'encyclopedia'
p7716
g0
(g1
g2
Ntp7717
Rp7718
(dp7719
g6
Nsg8
S'DATE'
p7720
sg10
Nsg24
NsbsS'alloy'
p7721
g0
(g1
g2
Ntp7722
Rp7723
(dp7724
g6
Nsg8
S'OTHER'
p7725
sg10
Nsg24
NsbsS'software'
p7726
g0
(g1
g2
Ntp7727
Rp7728
(dp7729
g6
Nsg8
S'OTHER'
p7730
sg10
Nsg24
NsbsS'marlowe'
p7731
g0
(g1
g2
Ntp7732
Rp7733
(dp7734
g6
Nsg8
S'PERSON'
p7735
sg10
Nsg24
NsbsS'producer'
p7736
g0
(g1
g2
Ntp7737
Rp7738
(dp7739
g6
g16
sg8
S'ORGANIZATION'
p7740
sg10
(dp7741
S'what'
p7742
g0
(g1
g2
Ntp7743
Rp7744
(dp7745
g6
Nsg8
S'ORGANIZATION'
p7746
sg10
Nsg24
NsbsS'italy'
p7747
g0
(g1
g2
Ntp7748
Rp7749
(dp7750
g6
Nsg8
S'OTHER'
p7751
sg10
Nsg24
NsbsS'which'
p7752
g0
(g1
g2
Ntp7753
Rp7754
(dp7755
g6
Nsg8
g7740
sg10
Nsg24
Nsbssg24
NsbsS'move'
p7756
g0
(g1
g2
Ntp7757
Rp7758
(dp7759
g6
Nsg8
S'OTHER'
p7760
sg10
Nsg24
NsbsS'meter'
p7761
g0
(g1
g2
Ntp7762
Rp7763
(dp7764
g6
Nsg8
S'OTHER'
p7765
sg10
Nsg24
NsbsS'sperm'
p7766
g0
(g1
g2
Ntp7767
Rp7768
(dp7769
g6
g16
sg8
S'OTHER'
p7770
sg10
(dp7771
S'how'
p7772
g0
(g1
g2
Ntp7773
Rp7774
(dp7775
g6
Nsg8
S'NUMBER'
p7776
sg10
Nsg24
NsbsS'what'
p7777
g0
(g1
g2
Ntp7778
Rp7779
(dp7780
g6
Nsg8
g7770
sg10
Nsg24
NsbsS'which'
p7781
g0
(g1
g2
Ntp7782
Rp7783
(dp7784
g6
Nsg8
S'OTHER'
p7785
sg10
Nsg24
Nsbssg24
NsbsS'costume'
p7786
g0
(g1
g2
Ntp7787
Rp7788
(dp7789
g6
Nsg8
S'PERSON'
p7790
sg10
Nsg24
NsbsS'bunch'
p7791
g0
(g1
g2
Ntp7792
Rp7793
(dp7794
g6
Nsg8
S'PERSON'
p7795
sg10
Nsg24
NsbsS'labor'
p7796
g0
(g1
g2
Ntp7797
Rp7798
(dp7799
g6
Nsg8
S'DATE'
p7800
sg10
Nsg24
NsbsS'degrees'
p7801
g0
(g1
g2
Ntp7802
Rp7803
(dp7804
g6
Nsg8
S'NUMBER'
p7805
sg10
Nsg24
NsbsS'holiday'
p7806
g0
(g1
g2
Ntp7807
Rp7808
(dp7809
g6
Nsg8
S'OTHER'
p7810
sg10
Nsg24
NsbsS'image'
p7811
g0
(g1
g2
Ntp7812
Rp7813
(dp7814
g6
Nsg8
S'PERSON'
p7815
sg10
Nsg24
NsbsS'dam'
p7816
g0
(g1
g2
Ntp7817
Rp7818
(dp7819
g6
g16
sg8
S'DATE'
p7820
sg10
(dp7821
S'where'
p7822
g0
(g1
g2
Ntp7823
Rp7824
(dp7825
g6
Nsg8
S'LOCATION'
p7826
sg10
Nsg24
NsbsS'when'
p7827
g0
(g1
g2
Ntp7828
Rp7829
(dp7830
g6
Nsg8
g7820
sg10
Nsg24
Nsbssg24
NsbsS'snake'
p7831
g0
(g1
g2
Ntp7832
Rp7833
(dp7834
g6
Nsg8
S'OTHER'
p7835
sg10
Nsg24
NsbsS'hands'
p7836
g0
(g1
g2
Ntp7837
Rp7838
(dp7839
g6
Nsg8
S'NUMBER'
p7840
sg10
Nsg24
NsbsS'satellites'
p7841
g0
(g1
g2
Ntp7842
Rp7843
(dp7844
g6
Nsg8
S'OTHER'
p7845
sg10
Nsg24
NsbsS'cage'
p7846
g0
(g1
g2
Ntp7847
Rp7848
(dp7849
g6
Nsg8
S'PERSON'
p7850
sg10
Nsg24
NsbsS'day'
p7851
g0
(g1
g2
Ntp7852
Rp7853
(dp7854
g6
g16
sg8
S'DATE'
p7855
sg10
(dp7856
S'how'
p7857
g0
(g1
g2
Ntp7858
Rp7859
(dp7860
g6
Nsg8
S'NUMBER'
p7861
sg10
Nsg24
NsbsS'what'
p7862
g0
(g1
g2
Ntp7863
Rp7864
(dp7865
g6
Nsg8
S'DATE'
p7866
sg10
Nsg24
NsbsS'who'
p7867
g0
(g1
g2
Ntp7868
Rp7869
(dp7870
g6
Nsg8
S'PERSON'
p7871
sg10
Nsg24
NsbsS'when'
p7872
g0
(g1
g2
Ntp7873
Rp7874
(dp7875
g6
Nsg8
S'DATE'
p7876
sg10
Nsg24
NsbsS'on'
p7877
g0
(g1
g2
Ntp7878
Rp7879
(dp7880
g6
Nsg8
S'DATE'
p7881
sg10
Nsg24
Nsbssg24
NsbsS'd.a.'
p7882
g0
(g1
g2
Ntp7883
Rp7884
(dp7885
g6
Nsg8
S'PERSON'
p7886
sg10
Nsg24
NsbsS'articles'
p7887
g0
(g1
g2
Ntp7888
Rp7889
(dp7890
g6
Nsg8
S'OTHER'
p7891
sg10
Nsg24
NsbsS'airports'
p7892
g0
(g1
g2
Ntp7893
Rp7894
(dp7895
g6
Nsg8
S'LOCATION'
p7896
sg10
Nsg24
NsbsS'university'
p7897
g0
(g1
g2
Ntp7898
Rp7899
(dp7900
g6
g16
sg8
S'LOCATION'
p7901
sg10
(dp7902
S'what'
p7903
g0
(g1
g2
Ntp7904
Rp7905
(dp7906
g6
Nsg8
S'ORGANIZATION'
p7907
sg10
Nsg24
NsbsS'where'
p7908
g0
(g1
g2
Ntp7909
Rp7910
(dp7911
g6
Nsg8
S'LOCATION'
p7912
sg10
Nsg24
NsbsS'name'
p7913
g0
(g1
g2
Ntp7914
Rp7915
(dp7916
g6
Nsg8
S'ORGANIZATION'
p7917
sg10
Nsg24
Nsbssg24
NsbsS'nfl'
p7918
g0
(g1
g2
Ntp7919
Rp7920
(dp7921
g6
Nsg8
S'DATE'
p7922
sg10
Nsg24
NsbsS'typewriter'
p7923
g0
(g1
g2
Ntp7924
Rp7925
(dp7926
g6
Nsg8
S'DATE'
p7927
sg10
Nsg24
NsbsS'normans'
p7928
g0
(g1
g2
Ntp7929
Rp7930
(dp7931
g6
Nsg8
S'PERSON'
p7932
sg10
Nsg24
NsbsS'product'
p7933
g0
(g1
g2
Ntp7934
Rp7935
(dp7936
g6
Nsg8
S'OTHER'
p7937
sg10
Nsg24
NsbsS'society'
p7938
g0
(g1
g2
Ntp7939
Rp7940
(dp7941
g6
Nsg8
S'ORGANIZATION'
p7942
sg10
Nsg24
NsbsS'books'
p7943
g0
(g1
g2
Ntp7944
Rp7945
(dp7946
g6
Nsg8
S'OTHER'
p7947
sg10
Nsg24
NsbsS'salesman'
p7948
g0
(g1
g2
Ntp7949
Rp7950
(dp7951
g6
Nsg8
S'PERSON'
p7952
sg10
Nsg24
NsbsS'witness'
p7953
g0
(g1
g2
Ntp7954
Rp7955
(dp7956
g6
Nsg8
S'PERSON'
p7957
sg10
Nsg24
NsbsS'house'
p7958
g0
(g1
g2
Ntp7959
Rp7960
(dp7961
g6
g16
sg8
S'DATE'
p7962
sg10
(dp7963
S'what'
p7964
g0
(g1
g2
Ntp7965
Rp7966
(dp7967
g6
Nsg8
S'LOCATION'
p7968
sg10
Nsg24
NsbsS'when'
p7969
g0
(g1
g2
Ntp7970
Rp7971
(dp7972
g6
Nsg8
g7962
sg10
Nsg24
Nsbssg24
NsbsS'www.questions.com'
p7973
g0
(g1
g2
Ntp7974
Rp7975
(dp7976
g6
Nsg8
S'DATE'
p7977
sg10
Nsg24
NsbsS'strokes'
p7978
g0
(g1
g2
Ntp7979
Rp7980
(dp7981
g6
Nsg8
S'OTHER'
p7982
sg10
Nsg24
NsbsS'plural'
p7983
g0
(g1
g2
Ntp7984
Rp7985
(dp7986
g6
Nsg8
S'OTHER'
p7987
sg10
Nsg24
NsbsS'achievements'
p7988
g0
(g1
g2
Ntp7989
Rp7990
(dp7991
g6
Nsg8
S'OTHER'
p7992
sg10
Nsg24
NsbsS'approaches'
p7993
g0
(g1
g2
Ntp7994
Rp7995
(dp7996
g6
Nsg8
S'OTHER'
p7997
sg10
Nsg24
NsbsS'florida'
p7998
g0
(g1
g2
Ntp7999
Rp8000
(dp8001
g6
g16
sg8
S'PERSON'
p8002
sg10
(dp8003
S'who'
p8004
g0
(g1
g2
Ntp8005
Rp8006
(dp8007
g6
Nsg8
g8002
sg10
Nsg24
NsbsS'when'
p8008
g0
(g1
g2
Ntp8009
Rp8010
(dp8011
g6
Nsg8
S'DATE'
p8012
sg10
Nsg24
Nsbssg24
NsbsS'david'
p8013
g0
(g1
g2
Ntp8014
Rp8015
(dp8016
g6
Nsg8
S'PERSON'
p8017
sg10
Nsg24
NsbsS'counterpart'
p8018
g0
(g1
g2
Ntp8019
Rp8020
(dp8021
g6
Nsg8
S'OTHER'
p8022
sg10
Nsg24
NsbsS'length'
p8023
g0
(g1
g2
Ntp8024
Rp8025
(dp8026
g6
Nsg8
S'NUMBER'
p8027
sg10
Nsg24
NsbsS'museum'
p8028
g0
(g1
g2
Ntp8029
Rp8030
(dp8031
g6
Nsg8
S'LOCATION'
p8032
sg10
Nsg24
NsbsS'pines'
p8033
g0
(g1
g2
Ntp8034
Rp8035
(dp8036
g6
Nsg8
S'PERSON'
p8037
sg10
Nsg24
NsbsS'muhammad'
p8038
g0
(g1
g2
Ntp8039
Rp8040
(dp8041
g6
Nsg8
S'DATE'
p8042
sg10
Nsg24
NsbsS'ybarra'
p8043
g0
(g1
g2
Ntp8044
Rp8045
(dp8046
g6
Nsg8
S'PERSON'
p8047
sg10
Nsg24
NsbsS'owner'
p8048
g0
(g1
g2
Ntp8049
Rp8050
(dp8051
g6
g16
sg8
S'PERSON'
p8052
sg10
(dp8053
S'what'
p8054
g0
(g1
g2
Ntp8055
Rp8056
(dp8057
g6
Nsg8
S'OTHER'
p8058
sg10
Nsg24
NsbsS'who'
p8059
g0
(g1
g2
Ntp8060
Rp8061
(dp8062
g6
Nsg8
g8052
sg10
Nsg24
Nsbssg24
NsbsS'lacan'
p8063
g0
(g1
g2
Ntp8064
Rp8065
(dp8066
g6
Nsg8
S'PERSON'
p8067
sg10
Nsg24
NsbsS'cohan'
p8068
g0
(g1
g2
Ntp8069
Rp8070
(dp8071
g6
Nsg8
S'PERSON'
p8072
sg10
Nsg24
NsbsS'festival'
p8073
g0
(g1
g2
Ntp8074
Rp8075
(dp8076
g6
Nsg8
S'DATE'
p8077
sg10
Nsg24
NsbsS'system'
p8078
g0
(g1
g2
Ntp8079
Rp8080
(dp8081
g6
Nsg8
S'OTHER'
p8082
sg10
Nsg24
NsbsS'attack'
p8083
g0
(g1
g2
Ntp8084
Rp8085
(dp8086
g6
Nsg8
S'DATE'
p8087
sg10
Nsg24
NsbsS'sergeant'
p8088
g0
(g1
g2
Ntp8089
Rp8090
(dp8091
g6
Nsg8
S'PERSON'
p8092
sg10
Nsg24
NsbsS'tourists'
p8093
g0
(g1
g2
Ntp8094
Rp8095
(dp8096
g6
Nsg8
S'LOCATION'
p8097
sg10
Nsg24
NsbsS'beard'
p8098
g0
(g1
g2
Ntp8099
Rp8100
(dp8101
g6
Nsg8
S'PERSON'
p8102
sg10
Nsg24
NsbsS'inuits'
p8103
g0
(g1
g2
Ntp8104
Rp8105
(dp8106
g6
Nsg8
S'LOCATION'
p8107
sg10
Nsg24
NsbsS'chemicals'
p8108
g0
(g1
g2
Ntp8109
Rp8110
(dp8111
g6
Nsg8
S'OTHER'
p8112
sg10
Nsg24
NsbsS'mules'
p8113
g0
(g1
g2
Ntp8114
Rp8115
(dp8116
g6
Nsg8
S'PERSON'
p8117
sg10
Nsg24
NsbsS'steel'
p8118
g0
(g1
g2
Ntp8119
Rp8120
(dp8121
g6
Nsg8
S'LOCATION'
p8122
sg10
Nsg24
NsbsS'ben'
p8123
g0
(g1
g2
Ntp8124
Rp8125
(dp8126
g6
Nsg8
S'PERSON'
p8127
sg10
Nsg24
NsbsS'johnson'
p8128
g0
(g1
g2
Ntp8129
Rp8130
(dp8131
g6
Nsg8
S'OTHER'
p8132
sg10
Nsg24
NsbsS'shampoo'
p8133
g0
(g1
g2
Ntp8134
Rp8135
(dp8136
g6
Nsg8
S'OTHER'
p8137
sg10
Nsg24
NsbsS'listeners'
p8138
g0
(g1
g2
Ntp8139
Rp8140
(dp8141
g6
Nsg8
S'PERSON'
p8142
sg10
Nsg24
NsbsS'sculpture'
p8143
g0
(g1
g2
Ntp8144
Rp8145
(dp8146
g6
Nsg8
S'OTHER'
p8147
sg10
Nsg24
NsbsS'clip'
p8148
g0
(g1
g2
Ntp8149
Rp8150
(dp8151
g6
Nsg8
S'PERSON'
p8152
sg10
Nsg24
NsbsS'fowl'
p8153
g0
(g1
g2
Ntp8154
Rp8155
(dp8156
g6
Nsg8
S'OTHER'
p8157
sg10
Nsg24
NsbsS'deodorant'
p8158
g0
(g1
g2
Ntp8159
Rp8160
(dp8161
g6
g16
sg8
S'PERSON'
p8162
sg10
(dp8163
S'who'
p8164
g0
(g1
g2
Ntp8165
Rp8166
(dp8167
g6
Nsg8
g8162
sg10
Nsg24
NsbsS'in'
p8168
g0
(g1
g2
Ntp8169
Rp8170
(dp8171
g6
Nsg8
S'OTHER'
p8172
sg10
Nsg24
Nsbssg24
NsbsS'russians'
p8173
g0
(g1
g2
Ntp8174
Rp8175
(dp8176
g6
Nsg8
S'NUMBER'
p8177
sg10
Nsg24
NsbsS'agency'
p8178
g0
(g1
g2
Ntp8179
Rp8180
(dp8181
g6
Nsg8
S'ORGANIZATION'
p8182
sg10
Nsg24
NsbsS'parks'
p8183
g0
(g1
g2
Ntp8184
Rp8185
(dp8186
g6
Nsg8
S'PERSON'
p8187
sg10
Nsg24
NsbsS'soap'
p8188
g0
(g1
g2
Ntp8189
Rp8190
(dp8191
g6
Nsg8
S'OTHER'
p8192
sg10
Nsg24
NsbsS'medals'
p8193
g0
(g1
g2
Ntp8194
Rp8195
(dp8196
g6
Nsg8
S'PERSON'
p8197
sg10
Nsg24
NsbsS'device'
p8198
g0
(g1
g2
Ntp8199
Rp8200
(dp8201
g6
Nsg8
S'OTHER'
p8202
sg10
Nsg24
NsbsS'gallery'
p8203
g0
(g1
g2
Ntp8204
Rp8205
(dp8206
g6
Nsg8
S'LOCATION'
p8207
sg10
Nsg24
NsbsS'ishmael'
p8208
g0
(g1
g2
Ntp8209
Rp8210
(dp8211
g6
Nsg8
S'PERSON'
p8212
sg10
Nsg24
NsbsS'stereo'
p8213
g0
(g1
g2
Ntp8214
Rp8215
(dp8216
g6
Nsg8
S'ORGANIZATION'
p8217
sg10
Nsg24
NsbsS'url'
p8218
g0
(g1
g2
Ntp8219
Rp8220
(dp8221
g6
Nsg8
S'NUMBER'
p8222
sg10
Nsg24
NsbsS'disease'
p8223
g0
(g1
g2
Ntp8224
Rp8225
(dp8226
g6
Nsg8
S'OTHER'
p8227
sg10
Nsg24
NsbsS'charley'
p8228
g0
(g1
g2
Ntp8229
Rp8230
(dp8231
g6
Nsg8
S'OTHER'
p8232
sg10
Nsg24
NsbsS'chances'
p8233
g0
(g1
g2
Ntp8234
Rp8235
(dp8236
g6
Nsg8
S'PERCENT'
p8237
sg10
Nsg24
NsbsS'charles'
p8238
g0
(g1
g2
Ntp8239
Rp8240
(dp8241
g6
Nsg8
S'DATE'
p8242
sg10
Nsg24
NsbsS'hamlet'
p8243
g0
(g1
g2
Ntp8244
Rp8245
(dp8246
g6
Nsg8
S'PERSON'
p8247
sg10
Nsg24
NsbsS'soldiers'
p8248
g0
(g1
g2
Ntp8249
Rp8250
(dp8251
g6
Nsg8
S'NUMBER'
p8252
sg10
Nsg24
NsbsS'fear'
p8253
g0
(g1
g2
Ntp8254
Rp8255
(dp8256
g6
Nsg8
S'OTHER'
p8257
sg10
Nsg24
NsbsS'debate'
p8258
g0
(g1
g2
Ntp8259
Rp8260
(dp8261
g6
Nsg8
S'PERSON'
p8262
sg10
Nsg24
NsbsS'winner'
p8263
g0
(g1
g2
Ntp8264
Rp8265
(dp8266
g6
Nsg8
S'OTHER'
p8267
sg10
Nsg24
NsbsS'molecules'
p8268
g0
(g1
g2
Ntp8269
Rp8270
(dp8271
g6
Nsg8
S'OTHER'
p8272
sg10
Nsg24
NsbsS'fuel'
p8273
g0
(g1
g2
Ntp8274
Rp8275
(dp8276
g6
Nsg8
S'OTHER'
p8277
sg10
Nsg24
NsbsS'piano'
p8278
g0
(g1
g2
Ntp8279
Rp8280
(dp8281
g6
Nsg8
S'ORGANIZATION'
p8282
sg10
Nsg24
NsbsS'thousands'
p8283
g0
(g1
g2
Ntp8284
Rp8285
(dp8286
g6
Nsg8
S'NUMBER'
p8287
sg10
Nsg24
NsbsS'bear'
p8288
g0
(g1
g2
Ntp8289
Rp8290
(dp8291
g6
Nsg8
S'OTHER'
p8292
sg10
Nsg24
NsbsS'words'
p8293
g0
(g1
g2
Ntp8294
Rp8295
(dp8296
g6
g16
sg8
S'NUMBER'
p8297
sg10
(dp8298
S'how'
p8299
g0
(g1
g2
Ntp8300
Rp8301
(dp8302
g6
Nsg8
g8297
sg10
Nsg24
NsbsS'what'
p8303
g0
(g1
g2
Ntp8304
Rp8305
(dp8306
g6
Nsg8
S'OTHER'
p8307
sg10
Nsg24
NsbsS'name'
p8308
g0
(g1
g2
Ntp8309
Rp8310
(dp8311
g6
Nsg8
S'OTHER'
p8312
sg10
Nsg24
Nsbssg24
NsbsS'abby'
p8313
g0
(g1
g2
Ntp8314
Rp8315
(dp8316
g6
Nsg8
S'PERSON'
p8317
sg10
Nsg24
NsbsS'organ'
p8318
g0
(g1
g2
Ntp8319
Rp8320
(dp8321
g6
Nsg8
S'OTHER'
p8322
sg10
Nsg24
NsbsS'humans'
p8323
g0
(g1
g2
Ntp8324
Rp8325
(dp8326
g6
g16
sg8
S'OTHER'
p8327
sg10
(dp8328
S'what'
p8329
g0
(g1
g2
Ntp8330
Rp8331
(dp8332
g6
Nsg8
g8327
sg10
Nsg24
NsbsS'when'
p8333
g0
(g1
g2
Ntp8334
Rp8335
(dp8336
g6
Nsg8
S'DATE'
p8337
sg10
Nsg24
Nsbssg24
NsbsS'computer'
p8338
g0
(g1
g2
Ntp8339
Rp8340
(dp8341
g6
Nsg8
S'OTHER'
p8342
sg10
Nsg24
NsbsS'aeul'
p8343
g0
(g1
g2
Ntp8344
Rp8345
(dp8346
g6
Nsg8
S'DATE'
p8347
sg10
Nsg24
NsbsS'amtrak'
p8348
g0
(g1
g2
Ntp8349
Rp8350
(dp8351
g6
Nsg8
S'DATE'
p8352
sg10
Nsg24
NsbsS'laureate'
p8353
g0
(g1
g2
Ntp8354
Rp8355
(dp8356
g6
Nsg8
S'PERSON'
p8357
sg10
Nsg24
NsbsS'genius'
p8358
g0
(g1
g2
Ntp8359
Rp8360
(dp8361
g6
Nsg8
S'PERSON'
p8362
sg10
Nsg24
NsbsS'state'
p8363
g0
(g1
g2
Ntp8364
Rp8365
(dp8366
g6
Nsg8
S'LOCATION'
p8367
sg10
Nsg24
NsbsS'limit'
p8368
g0
(g1
g2
Ntp8369
Rp8370
(dp8371
g6
Nsg8
S'OTHER'
p8372
sg10
Nsg24
NsbsS'gemstone'
p8373
g0
(g1
g2
Ntp8374
Rp8375
(dp8376
g6
Nsg8
S'OTHER'
p8377
sg10
Nsg24
NsbsS'explosive'
p8378
g0
(g1
g2
Ntp8379
Rp8380
(dp8381
g6
Nsg8
S'OTHER'
p8382
sg10
Nsg24
NsbsS'astroturf'
p8383
g0
(g1
g2
Ntp8384
Rp8385
(dp8386
g6
Nsg8
S'PERSON'
p8387
sg10
Nsg24
NsbsS't.v.'
p8388
g0
(g1
g2
Ntp8389
Rp8390
(dp8391
g6
Nsg8
S'OTHER'
p8392
sg10
Nsg24
NsbsS'monarchy'
p8393
g0
(g1
g2
Ntp8394
Rp8395
(dp8396
g6
Nsg8
S'LOCATION'
p8397
sg10
Nsg24
NsbsS'agencies'
p8398
g0
(g1
g2
Ntp8399
Rp8400
(dp8401
g6
Nsg8
S'ORGANIZATION'
p8402
sg10
Nsg24
NsbsS'job'
p8403
g0
(g1
g2
Ntp8404
Rp8405
(dp8406
g6
Nsg8
S'PERSON'
p8407
sg10
Nsg24
NsbsS'police'
p8408
g0
(g1
g2
Ntp8409
Rp8410
(dp8411
g6
Nsg8
S'ORGANIZATION'
p8412
sg10
Nsg24
NsbsS'career'
p8413
g0
(g1
g2
Ntp8414
Rp8415
(dp8416
g6
Nsg8
S'PERSON'
p8417
sg10
Nsg24
NsbsS'challengers'
p8418
g0
(g1
g2
Ntp8419
Rp8420
(dp8421
g6
Nsg8
S'ORGANIZATION'
p8422
sg10
Nsg24
NsbsS'drug'
p8423
g0
(g1
g2
Ntp8424
Rp8425
(dp8426
g6
Nsg8
S'OTHER'
p8427
sg10
Nsg24
NsbsS'rams'
p8428
g0
(g1
g2
Ntp8429
Rp8430
(dp8431
g6
Nsg8
S'PERSON'
p8432
sg10
Nsg24
NsbsS'kinds'
p8433
g0
(g1
g2
Ntp8434
Rp8435
(dp8436
g6
Nsg8
S'OTHER'
p8437
sg10
Nsg24
NsbsS'heliologist'
p8438
g0
(g1
g2
Ntp8439
Rp8440
(dp8441
g6
Nsg8
S'OTHER'
p8442
sg10
Nsg24
NsbsS'statues'
p8443
g0
(g1
g2
Ntp8444
Rp8445
(dp8446
g6
Nsg8
S'OTHER'
p8447
sg10
Nsg24
NsbsS'opposition'
p8448
g0
(g1
g2
Ntp8449
Rp8450
(dp8451
g6
Nsg8
S'PERSON'
p8452
sg10
Nsg24
NsbsS'wall'
p8453
g0
(g1
g2
Ntp8454
Rp8455
(dp8456
g6
g16
sg8
S'LOCATION'
p8457
sg10
(dp8458
S'what'
p8459
g0
(g1
g2
Ntp8460
Rp8461
(dp8462
g6
Nsg8
g8457
sg10
Nsg24
NsbsS'when'
p8463
g0
(g1
g2
Ntp8464
Rp8465
(dp8466
g6
Nsg8
S'DATE'
p8467
sg10
Nsg24
Nsbssg24
NsbsS'lyricist'
p8468
g0
(g1
g2
Ntp8469
Rp8470
(dp8471
g6
Nsg8
S'PERSON'
p8472
sg10
Nsg24
NsbsS'table'
p8473
g0
(g1
g2
Ntp8474
Rp8475
(dp8476
g6
Nsg8
S'PERSON'
p8477
sg10
Nsg24
NsbsS'poem'
p8478
g0
(g1
g2
Ntp8479
Rp8480
(dp8481
g6
Nsg8
S'PERSON'
p8482
sg10
Nsg24
NsbsS'hawkins'
p8483
g0
(g1
g2
Ntp8484
Rp8485
(dp8486
g6
Nsg8
S'OTHER'
p8487
sg10
Nsg24
NsbsS'swimmer'
p8488
g0
(g1
g2
Ntp8489
Rp8490
(dp8491
g6
Nsg8
S'PERSON'
p8492
sg10
Nsg24
NsbsS'trademark'
p8493
g0
(g1
g2
Ntp8494
Rp8495
(dp8496
g6
Nsg8
S'OTHER'
p8497
sg10
Nsg24
NsbsS'newscast'
p8498
g0
(g1
g2
Ntp8499
Rp8500
(dp8501
g6
Nsg8
S'PERSON'
p8502
sg10
Nsg24
NsbsS'treat'
p8503
g0
(g1
g2
Ntp8504
Rp8505
(dp8506
g6
Nsg8
S'OTHER'
p8507
sg10
Nsg24
NsbsS'hawking'
p8508
g0
(g1
g2
Ntp8509
Rp8510
(dp8511
g6
Nsg8
S'PERSON'
p8512
sg10
Nsg24
NsbsS'tv'
p8513
g0
(g1
g2
Ntp8514
Rp8515
(dp8516
g6
Nsg8
S'OTHER'
p8517
sg10
Nsg24
NsbsS'poet'
p8518
g0
(g1
g2
Ntp8519
Rp8520
(dp8521
g6
Nsg8
S'PERSON'
p8522
sg10
Nsg24
NsbsS'nicolet'
p8523
g0
(g1
g2
Ntp8524
Rp8525
(dp8526
g6
Nsg8
S'PERSON'
p8527
sg10
Nsg24
NsbsS'louisiana'
p8528
g0
(g1
g2
Ntp8529
Rp8530
(dp8531
g6
Nsg8
S'LOCATION'
p8532
sg10
Nsg24
NsbsS'naples'
p8533
g0
(g1
g2
Ntp8534
Rp8535
(dp8536
g6
Nsg8
S'PERSON'
p8537
sg10
Nsg24
NsbsS'cop'
p8538
g0
(g1
g2
Ntp8539
Rp8540
(dp8541
g6
Nsg8
S'PERSON'
p8542
sg10
Nsg24
NsbsS'ridder'
p8543
g0
(g1
g2
Ntp8544
Rp8545
(dp8546
g6
Nsg8
S'OTHER'
p8547
sg10
Nsg24
NsbsS'angles'
p8548
g0
(g1
g2
Ntp8549
Rp8550
(dp8551
g6
Nsg8
S'NUMBER'
p8552
sg10
Nsg24
NsbsS'ravens'
p8553
g0
(g1
g2
Ntp8554
Rp8555
(dp8556
g6
Nsg8
S'OTHER'
p8557
sg10
Nsg24
NsbsS'painter'
p8558
g0
(g1
g2
Ntp8559
Rp8560
(dp8561
g6
Nsg8
S'PERSON'
p8562
sg10
Nsg24
NsbsS'quotation'
p8563
g0
(g1
g2
Ntp8564
Rp8565
(dp8566
g6
Nsg8
S'PERSON'
p8567
sg10
Nsg24
NsbsS'novel'
p8568
g0
(g1
g2
Ntp8569
Rp8570
(dp8571
g6
Nsg8
S'OTHER'
p8572
sg10
Nsg24
NsbsS'value'
p8573
g0
(g1
g2
Ntp8574
Rp8575
(dp8576
g6
Nsg8
S'OTHER'
p8577
sg10
Nsg24
NsbsS'stalin'
p8578
g0
(g1
g2
Ntp8579
Rp8580
(dp8581
g6
Nsg8
S'PERSON'
p8582
sg10
Nsg24
NsbsS'santos-dumont'
p8583
g0
(g1
g2
Ntp8584
Rp8585
(dp8586
g6
Nsg8
S'PERSON'
p8587
sg10
Nsg24
NsbsS'thrillers'
p8588
g0
(g1
g2
Ntp8589
Rp8590
(dp8591
g6
Nsg8
S'PERSON'
p8592
sg10
Nsg24
NsbsS'layer'
p8593
g0
(g1
g2
Ntp8594
Rp8595
(dp8596
g6
Nsg8
S'OTHER'
p8597
sg10
Nsg24
NsbsS'resident'
p8598
g0
(g1
g2
Ntp8599
Rp8600
(dp8601
g6
Nsg8
S'PERSON'
p8602
sg10
Nsg24
NsbsS'site'
p8603
g0
(g1
g2
Ntp8604
Rp8605
(dp8606
g6
Nsg8
S'LOCATION'
p8607
sg10
Nsg24
NsbsS'partner'
p8608
g0
(g1
g2
Ntp8609
Rp8610
(dp8611
g6
Nsg8
S'PERSON'
p8612
sg10
Nsg24
NsbsS'terrorist'
p8613
g0
(g1
g2
Ntp8614
Rp8615
(dp8616
g6
Nsg8
S'PERSON'
p8617
sg10
Nsg24
NsbsS'wordsworth'
p8618
g0
(g1
g2
Ntp8619
Rp8620
(dp8621
g6
Nsg8
S'PERSON'
p8622
sg10
Nsg24
NsbsS'administration'
p8623
g0
(g1
g2
Ntp8624
Rp8625
(dp8626
g6
Nsg8
S'ORGANIZATION'
p8627
sg10
Nsg24
NsbsS'member'
p8628
g0
(g1
g2
Ntp8629
Rp8630
(dp8631
g6
Nsg8
S'PERSON'
p8632
sg10
Nsg24
NsbsS'strange'
p8633
g0
(g1
g2
Ntp8634
Rp8635
(dp8636
g6
Nsg8
S'PERSON'
p8637
sg10
Nsg24
NsbsS'speaker'
p8638
g0
(g1
g2
Ntp8639
Rp8640
(dp8641
g6
Nsg8
S'PERSON'
p8642
sg10
Nsg24
NsbsS'auto'
p8643
g0
(g1
g2
Ntp8644
Rp8645
(dp8646
g6
Nsg8
S'OTHER'
p8647
sg10
Nsg24
NsbsS'party'
p8648
g0
(g1
g2
Ntp8649
Rp8650
(dp8651
g6
Nsg8
S'ORGANIZATION'
p8652
sg10
Nsg24
NsbsS'powell'
p8653
g0
(g1
g2
Ntp8654
Rp8655
(dp8656
g6
Nsg8
S'PERSON'
p8657
sg10
Nsg24
NsbsS'parthenon'
p8658
g0
(g1
g2
Ntp8659
Rp8660
(dp8661
g6
Nsg8
S'DATE'
p8662
sg10
Nsg24
NsbsS'ball'
p8663
g0
(g1
g2
Ntp8664
Rp8665
(dp8666
g6
Nsg8
S'OTHER'
p8667
sg10
Nsg24
NsbsS'appearances'
p8668
g0
(g1
g2
Ntp8669
Rp8670
(dp8671
g6
Nsg8
S'PERSON'
p8672
sg10
Nsg24
NsbsS'drink'
p8673
g0
(g1
g2
Ntp8674
Rp8675
(dp8676
g6
Nsg8
S'OTHER'
p8677
sg10
Nsg24
NsbsS'whale'
p8678
g0
(g1
g2
Ntp8679
Rp8680
(dp8681
g6
Nsg8
S'OTHER'
p8682
sg10
Nsg24
NsbsS'identity'
p8683
g0
(g1
g2
Ntp8684
Rp8685
(dp8686
g6
Nsg8
S'PERSON'
p8687
sg10
Nsg24
NsbsS'center'
p8688
g0
(g1
g2
Ntp8689
Rp8690
(dp8691
g6
Nsg8
S'LOCATION'
p8692
sg10
Nsg24
NsbsS'i'
p8693
g0
(g1
g2
Ntp8694
Rp8695
(dp8696
g6
g16
sg8
S'LOCATION'
p8697
sg10
(dp8698
S'when'
p8699
g0
(g1
g2
Ntp8700
Rp8701
(dp8702
g6
Nsg8
S'DATE'
p8703
sg10
Nsg24
NsbsS'where'
p8704
g0
(g1
g2
Ntp8705
Rp8706
(dp8707
g6
Nsg8
g8697
sg10
Nsg24
Nsbssg24
NsbsS'weapon'
p8708
g0
(g1
g2
Ntp8709
Rp8710
(dp8711
g6
Nsg8
S'OTHER'
p8712
sg10
Nsg24
NsbsS'variety'
p8713
g0
(g1
g2
Ntp8714
Rp8715
(dp8716
g6
Nsg8
S'OTHER'
p8717
sg10
Nsg24
NsbsS'antonio'
p8718
g0
(g1
g2
Ntp8719
Rp8720
(dp8721
g6
Nsg8
S'PERSON'
p8722
sg10
Nsg24
NsbsS'corporation'
p8723
g0
(g1
g2
Ntp8724
Rp8725
(dp8726
g6
Nsg8
S'ORGANIZATION'
p8727
sg10
Nsg24
NsbsS'deltiologist'
p8728
g0
(g1
g2
Ntp8729
Rp8730
(dp8731
g6
Nsg8
S'OTHER'
p8732
sg10
Nsg24
NsbsS'khrushchev'
p8733
g0
(g1
g2
Ntp8734
Rp8735
(dp8736
g6
Nsg8
S'PERSON'
p8737
sg10
Nsg24
NsbsS'dose'
p8738
g0
(g1
g2
Ntp8739
Rp8740
(dp8741
g6
Nsg8
S'PERSON'
p8742
sg10
Nsg24
NsbsS'batteries'
p8743
g0
(g1
g2
Ntp8744
Rp8745
(dp8746
g6
Nsg8
S'PERSON'
p8747
sg10
Nsg24
NsbsS'seats'
p8748
g0
(g1
g2
Ntp8749
Rp8750
(dp8751
g6
Nsg8
S'NUMBER'
p8752
sg10
Nsg24
NsbsS'web'
p8753
g0
(g1
g2
Ntp8754
Rp8755
(dp8756
g6
g16
sg8
S'LOCATION'
p8757
sg10
(dp8758
S'how'
p8759
g0
(g1
g2
Ntp8760
Rp8761
(dp8762
g6
Nsg8
S'NUMBER'
p8763
sg10
Nsg24
NsbsS'what'
p8764
g0
(g1
g2
Ntp8765
Rp8766
(dp8767
g6
Nsg8
g8757
sg10
Nsg24
Nsbssg24
NsbsS'ads'
p8768
g0
(g1
g2
Ntp8769
Rp8770
(dp8771
g6
Nsg8
S'OTHER'
p8772
sg10
Nsg24
NsbsS'field'
p8773
g0
(g1
g2
Ntp8774
Rp8775
(dp8776
g6
Nsg8
S'OTHER'
p8777
sg10
Nsg24
NsbsS'bell'
p8778
g0
(g1
g2
Ntp8779
Rp8780
(dp8781
g6
Nsg8
S'LOCATION'
p8782
sg10
Nsg24
NsbsS'lake'
p8783
g0
(g1
g2
Ntp8784
Rp8785
(dp8786
g6
Nsg8
S'LOCATION'
p8787
sg10
Nsg24
NsbsS'citizen'
p8788
g0
(g1
g2
Ntp8789
Rp8790
(dp8791
g6
Nsg8
S'PERSON'
p8792
sg10
Nsg24
NsbsS'scoundrel'
p8793
g0
(g1
g2
Ntp8794
Rp8795
(dp8796
g6
Nsg8
S'PERSON'
p8797
sg10
Nsg24
NsbsS'earthquakes'
p8798
g0
(g1
g2
Ntp8799
Rp8800
(dp8801
g6
Nsg8
S'OTHER'
p8802
sg10
Nsg24
NsbsS'gestapo'
p8803
g0
(g1
g2
Ntp8804
Rp8805
(dp8806
g6
Nsg8
S'PERSON'
p8807
sg10
Nsg24
NsbsS'myth'
p8808
g0
(g1
g2
Ntp8809
Rp8810
(dp8811
g6
Nsg8
S'LOCATION'
p8812
sg10
Nsg24
NsbsS'government'
p8813
g0
(g1
g2
Ntp8814
Rp8815
(dp8816
g6
Nsg8
S'ORGANIZATION'
p8817
sg10
Nsg24
NsbsS'press'
p8818
g0
(g1
g2
Ntp8819
Rp8820
(dp8821
g6
Nsg8
S'PERSON'
p8822
sg10
Nsg24
NsbsS'knox'
p8823
g0
(g1
g2
Ntp8824
Rp8825
(dp8826
g6
Nsg8
S'OTHER'
p8827
sg10
Nsg24
NsbsS'lincoln'
p8828
g0
(g1
g2
Ntp8829
Rp8830
(dp8831
g6
Nsg8
S'LOCATION'
p8832
sg10
Nsg24
NsbsS'sizes'
p8833
g0
(g1
g2
Ntp8834
Rp8835
(dp8836
g6
Nsg8
S'NUMBER'
p8837
sg10
Nsg24
NsbsS'chairs'
p8838
g0
(g1
g2
Ntp8839
Rp8840
(dp8841
g6
Nsg8
S'NUMBER'
p8842
sg10
Nsg24
NsbsS'clown'
p8843
g0
(g1
g2
Ntp8844
Rp8845
(dp8846
g6
Nsg8
S'PERSON'
p8847
sg10
Nsg24
NsbsS'journalist'
p8848
g0
(g1
g2
Ntp8849
Rp8850
(dp8851
g6
Nsg8
S'PERSON'
p8852
sg10
Nsg24
NsbsS'james'
p8853
g0
(g1
g2
Ntp8854
Rp8855
(dp8856
g6
Nsg8
S'NUMBER'
p8857
sg10
Nsg24
NsbsS'page'
p8858
g0
(g1
g2
Ntp8859
Rp8860
(dp8861
g6
Nsg8
S'LOCATION'
p8862
sg10
Nsg24
NsbsS'x-man'
p8863
g0
(g1
g2
Ntp8864
Rp8865
(dp8866
g6
Nsg8
S'PERSON'
p8867
sg10
Nsg24
NsbsS'wonders'
p8868
g0
(g1
g2
Ntp8869
Rp8870
(dp8871
g6
Nsg8
S'OTHER'
p8872
sg10
Nsg24
NsbsS'amendment'
p8873
g0
(g1
g2
Ntp8874
Rp8875
(dp8876
g6
Nsg8
S'DATE'
p8877
sg10
Nsg24
NsbsS'habitat'
p8878
g0
(g1
g2
Ntp8879
Rp8880
(dp8881
g6
Nsg8
S'LOCATION'
p8882
sg10
Nsg24
NsbsS'elevators'
p8883
g0
(g1
g2
Ntp8884
Rp8885
(dp8886
g6
Nsg8
S'NUMBER'
p8887
sg10
Nsg24
NsbsS'library'
p8888
g0
(g1
g2
Ntp8889
Rp8890
(dp8891
g6
Nsg8
S'LOCATION'
p8892
sg10
Nsg24
NsbsS'hair'
p8893
g0
(g1
g2
Ntp8894
Rp8895
(dp8896
g6
Nsg8
S'OTHER'
p8897
sg10
Nsg24
NsbsS'export'
p8898
g0
(g1
g2
Ntp8899
Rp8900
(dp8901
g6
Nsg8
S'OTHER'
p8902
sg10
Nsg24
NsbsS'archenemy'
p8903
g0
(g1
g2
Ntp8904
Rp8905
(dp8906
g6
Nsg8
S'PERSON'
p8907
sg10
Nsg24
NsbsS'home'
p8908
g0
(g1
g2
Ntp8909
Rp8910
(dp8911
g6
Nsg8
S'LOCATION'
p8912
sg10
Nsg24
NsbsS'novelist'
p8913
g0
(g1
g2
Ntp8914
Rp8915
(dp8916
g6
Nsg8
S'PERSON'
p8917
sg10
Nsg24
NsbsS'competitor'
p8918
g0
(g1
g2
Ntp8919
Rp8920
(dp8921
g6
Nsg8
S'ORGANIZATION'
p8922
sg10
Nsg24
NsbsS'arch-enemy'
p8923
g0
(g1
g2
Ntp8924
Rp8925
(dp8926
g6
Nsg8
S'PERSON'
p8927
sg10
Nsg24
NsbsS'hurricane'
p8928
g0
(g1
g2
Ntp8929
Rp8930
(dp8931
g6
Nsg8
S'OTHER'
p8932
sg10
Nsg24
NsbsS'mines'
p8933
g0
(g1
g2
Ntp8934
Rp8935
(dp8936
g6
Nsg8
S'NUMBER'
p8937
sg10
Nsg24
NsbsS'leader'
p8938
g0
(g1
g2
Ntp8939
Rp8940
(dp8941
g6
Nsg8
S'PERSON'
p8942
sg10
Nsg24
NsbsS'journal'
p8943
g0
(g1
g2
Ntp8944
Rp8945
(dp8946
g6
Nsg8
S'DATE'
p8947
sg10
Nsg24
NsbsS'rock'
p8948
g0
(g1
g2
Ntp8949
Rp8950
(dp8951
g6
Nsg8
S'LOCATION'
p8952
sg10
Nsg24
NsbsS'host'
p8953
g0
(g1
g2
Ntp8954
Rp8955
(dp8956
g6
Nsg8
S'PERSON'
p8957
sg10
Nsg24
NsbsS'counties'
p8958
g0
(g1
g2
Ntp8959
Rp8960
(dp8961
g6
Nsg8
S'NUMBER'
p8962
sg10
Nsg24
NsbsS'science'
p8963
g0
(g1
g2
Ntp8964
Rp8965
(dp8966
g6
Nsg8
S'OTHER'
p8967
sg10
Nsg24
NsbsS'pike'
p8968
g0
(g1
g2
Ntp8969
Rp8970
(dp8971
g6
Nsg8
S'PERSON'
p8972
sg10
Nsg24
NsbsS'sister'
p8973
g0
(g1
g2
Ntp8974
Rp8975
(dp8976
g6
Nsg8
S'PERSON'
p8977
sg10
Nsg24
NsbsS'gandhi'
p8978
g0
(g1
g2
Ntp8979
Rp8980
(dp8981
g6
Nsg8
S'PERSON'
p8982
sg10
Nsg24
NsbsS'camels'
p8983
g0
(g1
g2
Ntp8984
Rp8985
(dp8986
g6
Nsg8
S'OTHER'
p8987
sg10
Nsg24
NsbsS'emperor'
p8988
g0
(g1
g2
Ntp8989
Rp8990
(dp8991
g6
g16
sg8
S'OTHER'
p8992
sg10
(dp8993
S'what'
p8994
g0
(g1
g2
Ntp8995
Rp8996
(dp8997
g6
Nsg8
g8992
sg10
Nsg24
NsbsS'who'
p8998
g0
(g1
g2
Ntp8999
Rp9000
(dp9001
g6
Nsg8
S'PERSON'
p9002
sg10
Nsg24
Nsbssg24
NsbsS'swimming'
p9003
g0
(g1
g2
Ntp9004
Rp9005
(dp9006
g6
Nsg8
S'DATE'
p9007
sg10
Nsg24
NsbsS'burma'
p9008
g0
(g1
g2
Ntp9009
Rp9010
(dp9011
g6
Nsg8
S'LOCATION'
p9012
sg10
Nsg24
NsbsS'letters'
p9013
g0
(g1
g2
Ntp9014
Rp9015
(dp9016
g6
Nsg8
S'OTHER'
p9017
sg10
Nsg24
NsbsS'washington'
p9018
g0
(g1
g2
Ntp9019
Rp9020
(dp9021
g6
g16
sg8
S'LOCATION'
p9022
sg10
(dp9023
S'what'
p9024
g0
(g1
g2
Ntp9025
Rp9026
(dp9027
g6
Nsg8
S'OTHER'
p9028
sg10
Nsg24
NsbsS'where'
p9029
g0
(g1
g2
Ntp9030
Rp9031
(dp9032
g6
Nsg8
S'LOCATION'
p9033
sg10
Nsg24
Nsbssg24
NsbsS'weather'
p9034
g0
(g1
g2
Ntp9035
Rp9036
(dp9037
g6
Nsg8
S'PERSON'
p9038
sg10
Nsg24
NsbsS'brush'
p9039
g0
(g1
g2
Ntp9040
Rp9041
(dp9042
g6
Nsg8
S'OTHER'
p9043
sg10
Nsg24
NsbsS'yankee'
p9044
g0
(g1
g2
Ntp9045
Rp9046
(dp9047
g6
Nsg8
S'PERSON'
p9048
sg10
Nsg24
NsbsS'vegetables'
p9049
g0
(g1
g2
Ntp9050
Rp9051
(dp9052
g6
Nsg8
S'OTHER'
p9053
sg10
Nsg24
NsbsS'elephants'
p9054
g0
(g1
g2
Ntp9055
Rp9056
(dp9057
g6
Nsg8
S'NUMBER'
p9058
sg10
Nsg24
NsbsS'synthesizer'
p9059
g0
(g1
g2
Ntp9060
Rp9061
(dp9062
g6
Nsg8
S'PERSON'
p9063
sg10
Nsg24
NsbsS'airline'
p9064
g0
(g1
g2
Ntp9065
Rp9066
(dp9067
g6
Nsg8
S'ORGANIZATION'
p9068
sg10
Nsg24
NsbsS'bros.'
p9069
g0
(g1
g2
Ntp9070
Rp9071
(dp9072
g6
Nsg8
S'OTHER'
p9073
sg10
Nsg24
NsbsS'prewett'
p9074
g0
(g1
g2
Ntp9075
Rp9076
(dp9077
g6
Nsg8
S'PERSON'
p9078
sg10
Nsg24
NsbsS'brand'
p9079
g0
(g1
g2
Ntp9080
Rp9081
(dp9082
g6
Nsg8
S'OTHER'
p9083
sg10
Nsg24
NsbsS'sequel'
p9084
g0
(g1
g2
Ntp9085
Rp9086
(dp9087
g6
Nsg8
S'OTHER'
p9088
sg10
Nsg24
NsbsS'ear'
p9089
g0
(g1
g2
Ntp9090
Rp9091
(dp9092
g6
Nsg8
S'OTHER'
p9093
sg10
Nsg24
NsbsS'count'
p9094
g0
(g1
g2
Ntp9095
Rp9096
(dp9097
g6
Nsg8
S'PERSON'
p9098
sg10
Nsg24
NsbsS'breweries'
p9099
g0
(g1
g2
Ntp9100
Rp9101
(dp9102
g6
Nsg8
S'LOCATION'
p9103
sg10
Nsg24
NsbsS'birthdate'
p9104
g0
(g1
g2
Ntp9105
Rp9106
(dp9107
g6
Nsg8
S'DATE'
p9108
sg10
Nsg24
NsbsS'record'
p9109
g0
(g1
g2
Ntp9110
Rp9111
(dp9112
g6
g16
sg8
S'NUMBER'
p9113
sg10
(dp9114
S'what'
p9115
g0
(g1
g2
Ntp9116
Rp9117
(dp9118
g6
Nsg8
S'ORGANIZATION'
p9119
sg10
Nsg24
NsbsS'who'
p9120
g0
(g1
g2
Ntp9121
Rp9122
(dp9123
g6
Nsg8
S'PERSON'
p9124
sg10
Nsg24
Nsbssg24
NsbsS'frequency'
p9125
g0
(g1
g2
Ntp9126
Rp9127
(dp9128
g6
Nsg8
S'NUMBER'
p9129
sg10
Nsg24
NsbsS'stories'
p9130
g0
(g1
g2
Ntp9131
Rp9132
(dp9133
g6
Nsg8
S'OTHER'
p9134
sg10
Nsg24
NsbsS'piece'
p9135
g0
(g1
g2
Ntp9136
Rp9137
(dp9138
g6
Nsg8
S'OTHER'
p9139
sg10
Nsg24
NsbsS'minutes'
p9140
g0
(g1
g2
Ntp9141
Rp9142
(dp9143
g6
Nsg8
S'NUMBER'
p9144
sg10
Nsg24
NsbsS'menstruation'
p9145
g0
(g1
g2
Ntp9146
Rp9147
(dp9148
g6
Nsg8
S'DATE'
p9149
sg10
Nsg24
NsbsS'gulliver'
p9150
g0
(g1
g2
Ntp9151
Rp9152
(dp9153
g6
Nsg8
S'LOCATION'
p9154
sg10
Nsg24
NsbsS'condiment'
p9155
g0
(g1
g2
Ntp9156
Rp9157
(dp9158
g6
Nsg8
S'OTHER'
p9159
sg10
Nsg24
NsbsS'rubble'
p9160
g0
(g1
g2
Ntp9161
Rp9162
(dp9163
g6
Nsg8
S'LOCATION'
p9164
sg10
Nsg24
NsbsS'fiddlers'
p9165
g0
(g1
g2
Ntp9166
Rp9167
(dp9168
g6
Nsg8
S'NUMBER'
p9169
sg10
Nsg24
NsbsS'ingredients'
p9170
g0
(g1
g2
Ntp9171
Rp9172
(dp9173
g6
Nsg8
S'OTHER'
p9174
sg10
Nsg24
NsbsS'marley'
p9175
g0
(g1
g2
Ntp9176
Rp9177
(dp9178
g6
Nsg8
S'OTHER'
p9179
sg10
Nsg24
NsbsS'guitarist'
p9180
g0
(g1
g2
Ntp9181
Rp9182
(dp9183
g6
Nsg8
S'PERSON'
p9184
sg10
Nsg24
NsbsS'percent'
p9185
g0
(g1
g2
Ntp9186
Rp9187
(dp9188
g6
Nsg8
S'PERCENT'
p9189
sg10
Nsg24
NsbsS'book'
p9190
g0
(g1
g2
Ntp9191
Rp9192
(dp9193
g6
g16
sg8
S'OTHER'
p9194
sg10
(dp9195
S'what'
p9196
g0
(g1
g2
Ntp9197
Rp9198
(dp9199
g6
Nsg8
S'OTHER'
p9200
sg10
Nsg24
NsbsS'who'
p9201
g0
(g1
g2
Ntp9202
Rp9203
(dp9204
g6
Nsg8
S'PERSON'
p9205
sg10
Nsg24
NsbsS'which'
p9206
g0
(g1
g2
Ntp9207
Rp9208
(dp9209
g6
Nsg8
S'OTHER'
p9210
sg10
Nsg24
NsbsS'in'
p9211
g0
(g1
g2
Ntp9212
Rp9213
(dp9214
g6
Nsg8
S'OTHER'
p9215
sg10
Nsg24
Nsbssg24
NsbsS'boob'
p9216
g0
(g1
g2
Ntp9217
Rp9218
(dp9219
g6
Nsg8
S'OTHER'
p9220
sg10
Nsg24
NsbsS'star'
p9221
g0
(g1
g2
Ntp9222
Rp9223
(dp9224
g6
g16
sg8
S'PERSON'
p9225
sg10
(dp9226
S'what'
p9227
g0
(g1
g2
Ntp9228
Rp9229
(dp9230
g6
Nsg8
S'LOCATION'
p9231
sg10
Nsg24
NsbsS'who'
p9232
g0
(g1
g2
Ntp9233
Rp9234
(dp9235
g6
Nsg8
S'PERSON'
p9236
sg10
Nsg24
Nsbssg24
NsbsS'chance'
p9237
g0
(g1
g2
Ntp9238
Rp9239
(dp9240
g6
Nsg8
S'PERCENT'
p9241
sg10
Nsg24
NsbsS'golfer'
p9242
g0
(g1
g2
Ntp9243
Rp9244
(dp9245
g6
Nsg8
S'PERSON'
p9246
sg10
Nsg24
NsbsS'ghost'
p9247
g0
(g1
g2
Ntp9248
Rp9249
(dp9250
g6
Nsg8
S'PERSON'
p9251
sg10
Nsg24
NsbsS'flatfish'
p9252
g0
(g1
g2
Ntp9253
Rp9254
(dp9255
g6
Nsg8
S'OTHER'
p9256
sg10
Nsg24
NsbsS'craft'
p9257
g0
(g1
g2
Ntp9258
Rp9259
(dp9260
g6
Nsg8
S'OTHER'
p9261
sg10
Nsg24
Nsbssg24
Nsb.