ccopy_reg
_reconstructor
p0
(cnltk.classify.decisiontree
DecisionTreeClassifier
p1
c__builtin__
object
p2
Ntp3
Rp4
(dp5
S'_fname'
p6
S'head'
p7
sS'_label'
p8
S'OTHER'
p9
sS'_decisions'
p10
(dp11
S''
p12
g0
(g1
g2
Ntp13
Rp14
(dp15
g6
S'first'
p16
sg8
S'OTHER'
p17
sg10
(dp18
S'in'
p19
g0
(g1
g2
Ntp20
Rp21
(dp22
g6
Nsg8
S'LOCATION'
p23
sg10
NsS'_default'
p24
NsbsS'madonna'
p25
g0
(g1
g2
Ntp26
Rp27
(dp28
g6
Nsg8
S'OTHER'
p29
sg10
Nsg24
NsbsS'ray'
p30
g0
(g1
g2
Ntp31
Rp32
(dp33
g6
Nsg8
S'OTHER'
p34
sg10
Nsg24
NsbsS'whose'
p35
g0
(g1
g2
Ntp36
Rp37
(dp38
g6
Nsg8
S'PERSON'
p39
sg10
Nsg24
NsbsS'what'
p40
g0
(g1
g2
Ntp41
Rp42
(dp43
g6
Nsg8
S'OTHER'
p44
sg10
Nsg24
NsbsS'jackson'
p45
g0
(g1
g2
Ntp46
Rp47
(dp48
g6
Nsg8
S'LOCATION'
p49
sg10
Nsg24
NsbsS'how'
p50
g0
(g1
g2
Ntp51
Rp52
(dp53
g6
Nsg8
S'NUMBER'
p54
sg10
Nsg24
NsbsS'boxing'
p55
g0
(g1
g2
Ntp56
Rp57
(dp58
g6
Nsg8
S'DATE'
p59
sg10
Nsg24
NsbsS'when'
p60
g0
(g1
g2
Ntp61
Rp62
(dp63
g6
Nsg8
S'DATE'
p64
sg10
Nsg24
NsbsS'approximately'
p65
g0
(g1
g2
Ntp66
Rp67
(dp68
g6
Nsg8
S'NUMBER'
p69
sg10
Nsg24
NsbsS'dialing'
p70
g0
(g1
g2
Ntp71
Rp72
(dp73
g6
Nsg8
S'MONEY'
p74
sg10
Nsg24
NsbsS'to'
p75
g0
(g1
g2
Ntp76
Rp77
(dp78
g6
Nsg8
S'OTHER'
p79
sg10
Nsg24
NsbsS'garry'
p80
g0
(g1
g2
Ntp81
Rp82
(dp83
g6
Nsg8
S'OTHER'
p84
sg10
Nsg24
NsbsS'which'
p85
g0
(g1
g2
Ntp86
Rp87
(dp88
g6
Nsg8
S'PERSON'
p89
sg10
Nsg24
NsbsS'cnn'
p90
g0
(g1
g2
Ntp91
Rp92
(dp93
g6
Nsg8
S'PERSON'
p94
sg10
Nsg24
NsbsS'tell'
p95
g0
(g1
g2
Ntp96
Rp97
(dp98
g6
Nsg8
S'LOCATION'
p99
sg10
Nsg24
NsbsS'aspartame'
p100
g0
(g1
g2
Ntp101
Rp102
(dp103
g6
Nsg8
S'OTHER'
p104
sg10
Nsg24
NsbsS'musician'
p105
g0
(g1
g2
Ntp106
Rp107
(dp108
g6
Nsg8
S'OTHER'
p109
sg10
Nsg24
NsbsS'saddam'
p110
g0
(g1
g2
Ntp111
Rp112
(dp113
g6
Nsg8
S'PERSON'
p114
sg10
Nsg24
NsbsS'who'
p115
g0
(g1
g2
Ntp116
Rp117
(dp118
g6
Nsg8
S'PERSON'
p119
sg10
Nsg24
NsbsS'mississippi'
p120
g0
(g1
g2
Ntp121
Rp122
(dp123
g6
Nsg8
S'OTHER'
p124
sg10
Nsg24
NsbsS'president'
p125
g0
(g1
g2
Ntp126
Rp127
(dp128
g6
Nsg8
S'PERSON'
p129
sg10
Nsg24
NsbsS'with'
p130
g0
(g1
g2
Ntp131
Rp132
(dp133
g6
Nsg8
S'PERSON'
p134
sg10
Nsg24
NsbsS'by'
p135
g0
(g1
g2
Ntp136
Rp137
(dp138
g6
Nsg8
S'MONEY'
p139
sg10
Nsg24
NsbsS'a'
p140
g0
(g1
g2
Ntp141
Rp142
(dp143
g6
Nsg8
S'NUMBER'
p144
sg10
Nsg24
NsbsS'name'
p145
g0
(g1
g2
Ntp146
Rp147
(dp148
g6
Nsg8
S'PERSON'
p149
sg10
Nsg24
NsbsS'of'
p150
g0
(g1
g2
Ntp151
Rp152
(dp153
g6
Nsg8
S'PERCENT'
p154
sg10
Nsg24
NsbsS'rotary'
p155
g0
(g1
g2
Ntp156
Rp157
(dp158
g6
Nsg8
S'PERSON'
p159
sg10
Nsg24
NsbsS'jude'
p160
g0
(g1
g2
Ntp161
Rp162
(dp163
g6
Nsg8
S'OTHER'
p164
sg10
Nsg24
NsbsS'silly'
p165
g0
(g1
g2
Ntp166
Rp167
(dp168
g6
Nsg8
S'PERSON'
p169
sg10
Nsg24
NsbsS'stuart'
p170
g0
(g1
g2
Ntp171
Rp172
(dp173
g6
Nsg8
S'OTHER'
p174
sg10
Nsg24
NsbsS'mccarren'
p175
g0
(g1
g2
Ntp176
Rp177
(dp178
g6
Nsg8
S'LOCATION'
p179
sg10
Nsg24
NsbsS'the'
p180
g0
(g1
g2
Ntp181
Rp182
(dp183
g6
Nsg8
S'OTHER'
p184
sg10
Nsg24
NsbsS'where'
p185
g0
(g1
g2
Ntp186
Rp187
(dp188
g6
Nsg8
S'LOCATION'
p189
sg10
Nsg24
Nsbssg24
NsbsS'four'
p190
g0
(g1
g2
Ntp191
Rp192
(dp193
g6
Nsg8
S'OTHER'
p194
sg10
Nsg24
NsbsS'captain'
p195
g0
(g1
g2
Ntp196
Rp197
(dp198
g6
Nsg8
S'PERSON'
p199
sg10
Nsg24
NsbsS'votes'
p200
g0
(g1
g2
Ntp201
Rp202
(dp203
g6
Nsg8
S'NUMBER'
p204
sg10
Nsg24
NsbsS'electricity'
p205
g0
(g1
g2
Ntp206
Rp207
(dp208
g6
g16
sg8
S'NUMBER'
p209
sg10
(dp210
S'how'
p211
g0
(g1
g2
Ntp212
Rp213
(dp214
g6
Nsg8
g209
sg10
Nsg24
NsbsS'who'
p215
g0
(g1
g2
Ntp216
Rp217
(dp218
g6
Nsg8
S'PERSON'
p219
sg10
Nsg24
Nsbssg24
NsbsS'fingernails'
p220
g0
(g1
g2
Ntp221
Rp222
(dp223
g6
Nsg8
S'OTHER'
p224
sg10
Nsg24
NsbsS'teaspoon'
p225
g0
(g1
g2
Ntp226
Rp227
(dp228
g6
Nsg8
S'NUMBER'
p229
sg10
Nsg24
NsbsS'crooner'
p230
g0
(g1
g2
Ntp231
Rp232
(dp233
g6
Nsg8
S'PERSON'
p234
sg10
Nsg24
NsbsS'pride'
p235
g0
(g1
g2
Ntp236
Rp237
(dp238
g6
Nsg8
S'PERSON'
p239
sg10
Nsg24
NsbsS'worth'
p240
g0
(g1
g2
Ntp241
Rp242
(dp243
g6
Nsg8
S'MONEY'
p244
sg10
Nsg24
NsbsS'oceans'
p245
g0
(g1
g2
Ntp246
Rp247
(dp248
g6
g16
sg8
S'LOCATION'
p249
sg10
(dp250
S'how'
p251
g0
(g1
g2
Ntp252
Rp253
(dp254
g6
Nsg8
S'NUMBER'
p255
sg10
Nsg24
NsbsS'what'
p256
g0
(g1
g2
Ntp257
Rp258
(dp259
g6
Nsg8
S'LOCATION'
p260
sg10
Nsg24
Nsbssg24
NsbsS'railways'
p261
g0
(g1
g2
Ntp262
Rp263
(dp264
g6
Nsg8
S'PERSON'
p265
sg10
Nsg24
NsbsS'jeroboams'
p266
g0
(g1
g2
Ntp267
Rp268
(dp269
g6
Nsg8
S'OTHER'
p270
sg10
Nsg24
NsbsS'jack'
p271
g0
(g1
g2
Ntp272
Rp273
(dp274
g6
Nsg8
S'OTHER'
p275
sg10
Nsg24
NsbsS'chapel'
p276
g0
(g1
g2
Ntp277
Rp278
(dp279
g6
Nsg8
S'PERSON'
p280
sg10
Nsg24
NsbsS'school'
p281
g0
(g1
g2
Ntp282
Rp283
(dp284
g6
g16
sg8
S'PERSON'
p285
sg10
(dp286
S'how'
p287
g0
(g1
g2
Ntp288
Rp289
(dp290
g6
Nsg8
S'NUMBER'
p291
sg10
Nsg24
NsbsS'what'
p292
g0
(g1
g2
Ntp293
Rp294
(dp295
g6
Nsg8
S'PERSON'
p296
sg10
Nsg24
Nsbssg24
NsbsS'prize'
p297
g0
(g1
g2
Ntp298
Rp299
(dp300
g6
g16
sg8
S'OTHER'
p301
sg10
(dp302
S'what'
p303
g0
(g1
g2
Ntp304
Rp305
(dp306
g6
Nsg8
g301
sg10
Nsg24
NsbsS'who'
p307
g0
(g1
g2
Ntp308
Rp309
(dp310
g6
Nsg8
S'PERSON'
p311
sg10
Nsg24
Nsbssg24
NsbsS'crops'
p312
g0
(g1
g2
Ntp313
Rp314
(dp315
g6
Nsg8
S'OTHER'
p316
sg10
Nsg24
NsbsS'companies'
p317
g0
(g1
g2
Ntp318
Rp319
(dp320
g6
Nsg8
S'PERSON'
p321
sg10
Nsg24
NsbsS'casinos'
p322
g0
(g1
g2
Ntp323
Rp324
(dp325
g6
Nsg8
S'NUMBER'
p326
sg10
Nsg24
NsbsS'force'
p327
g0
(g1
g2
Ntp328
Rp329
(dp330
g6
Nsg8
S'PERSON'
p331
sg10
Nsg24
NsbsS'leaders'
p332
g0
(g1
g2
Ntp333
Rp334
(dp335
g6
Nsg8
S'PERSON'
p336
sg10
Nsg24
NsbsS'japanese'
p337
g0
(g1
g2
Ntp338
Rp339
(dp340
g6
Nsg8
S'OTHER'
p341
sg10
Nsg24
NsbsS'chef'
p342
g0
(g1
g2
Ntp343
Rp344
(dp345
g6
Nsg8
S'OTHER'
p346
sg10
Nsg24
NsbsS'street'
p347
g0
(g1
g2
Ntp348
Rp349
(dp350
g6
Nsg8
S'LOCATION'
p351
sg10
Nsg24
NsbsS'monster'
p352
g0
(g1
g2
Ntp353
Rp354
(dp355
g6
g16
sg8
S'PERSON'
p356
sg10
(dp357
S'what'
p358
g0
(g1
g2
Ntp359
Rp360
(dp361
g6
Nsg8
S'OTHER'
p362
sg10
Nsg24
NsbsS'who'
p363
g0
(g1
g2
Ntp364
Rp365
(dp366
g6
Nsg8
g356
sg10
Nsg24
Nsbssg24
NsbsS'christ'
p367
g0
(g1
g2
Ntp368
Rp369
(dp370
g6
Nsg8
S'DATE'
p371
sg10
Nsg24
NsbsS'fingers'
p372
g0
(g1
g2
Ntp373
Rp374
(dp375
g6
Nsg8
S'NUMBER'
p376
sg10
Nsg24
NsbsS'toll'
p377
g0
(g1
g2
Ntp378
Rp379
(dp380
g6
Nsg8
S'NUMBER'
p381
sg10
Nsg24
NsbsS'new'
p382
g0
(g1
g2
Ntp383
Rp384
(dp385
g6
Nsg8
S'PERSON'
p386
sg10
Nsg24
NsbsS'net'
p387
g0
(g1
g2
Ntp388
Rp389
(dp390
g6
Nsg8
S'OTHER'
p391
sg10
Nsg24
NsbsS'admiral'
p392
g0
(g1
g2
Ntp393
Rp394
(dp395
g6
Nsg8
S'PERSON'
p396
sg10
Nsg24
NsbsS'hero'
p397
g0
(g1
g2
Ntp398
Rp399
(dp400
g6
Nsg8
S'PERSON'
p401
sg10
Nsg24
NsbsS'men'
p402
g0
(g1
g2
Ntp403
Rp404
(dp405
g6
Nsg8
S'OTHER'
p406
sg10
Nsg24
NsbsS'dipsomaniac'
p407
g0
(g1
g2
Ntp408
Rp409
(dp410
g6
Nsg8
S'OTHER'
p411
sg10
Nsg24
NsbsS'studio'
p412
g0
(g1
g2
Ntp413
Rp414
(dp415
g6
Nsg8
S'PERSON'
p416
sg10
Nsg24
NsbsS'cult'
p417
g0
(g1
g2
Ntp418
Rp419
(dp420
g6
Nsg8
S'OTHER'
p421
sg10
Nsg24
NsbsS'digits'
p422
g0
(g1
g2
Ntp423
Rp424
(dp425
g6
Nsg8
S'NUMBER'
p426
sg10
Nsg24
NsbsS'luther'
p427
g0
(g1
g2
Ntp428
Rp429
(dp430
g6
g16
sg8
S'OTHER'
p431
sg10
(dp432
S'what'
p433
g0
(g1
g2
Ntp434
Rp435
(dp436
g6
Nsg8
g431
sg10
Nsg24
NsbsS'where'
p437
g0
(g1
g2
Ntp438
Rp439
(dp440
g6
Nsg8
S'LOCATION'
p441
sg10
Nsg24
Nsbssg24
NsbsS'substance'
p442
g0
(g1
g2
Ntp443
Rp444
(dp445
g6
Nsg8
S'OTHER'
p446
sg10
Nsg24
NsbsS'daughter'
p447
g0
(g1
g2
Ntp448
Rp449
(dp450
g6
Nsg8
S'PERSON'
p451
sg10
Nsg24
NsbsS'credit'
p452
g0
(g1
g2
Ntp453
Rp454
(dp455
g6
Nsg8
S'PERSON'
p456
sg10
Nsg24
NsbsS'mentor'
p457
g0
(g1
g2
Ntp458
Rp459
(dp460
g6
Nsg8
S'PERSON'
p461
sg10
Nsg24
NsbsS'otters'
p462
g0
(g1
g2
Ntp463
Rp464
(dp465
g6
Nsg8
S'OTHER'
p466
sg10
Nsg24
NsbsS'classification'
p467
g0
(g1
g2
Ntp468
Rp469
(dp470
g6
Nsg8
S'OTHER'
p471
sg10
Nsg24
NsbsS'erected'
p472
g0
(g1
g2
Ntp473
Rp474
(dp475
g6
Nsg8
S'DATE'
p476
sg10
Nsg24
NsbsS'county'
p477
g0
(g1
g2
Ntp478
Rp479
(dp480
g6
g16
sg8
S'LOCATION'
p481
sg10
(dp482
S'what'
p483
g0
(g1
g2
Ntp484
Rp485
(dp486
g6
Nsg8
S'LOCATION'
p487
sg10
Nsg24
NsbsS'which'
p488
g0
(g1
g2
Ntp489
Rp490
(dp491
g6
Nsg8
S'PERSON'
p492
sg10
Nsg24
NsbsS'in'
p493
g0
(g1
g2
Ntp494
Rp495
(dp496
g6
Nsg8
S'LOCATION'
p497
sg10
Nsg24
Nsbssg24
NsbsS'bra'
p498
g0
(g1
g2
Ntp499
Rp500
(dp501
g6
Nsg8
S'PERSON'
p502
sg10
Nsg24
NsbsS'dna'
p503
g0
(g1
g2
Ntp504
Rp505
(dp506
g6
Nsg8
S'PERSON'
p507
sg10
Nsg24
NsbsS'army'
p508
g0
(g1
g2
Ntp509
Rp510
(dp511
g6
Nsg8
S'PERSON'
p512
sg10
Nsg24
NsbsS'hospital'
p513
g0
(g1
g2
Ntp514
Rp515
(dp516
g6
Nsg8
S'LOCATION'
p517
sg10
Nsg24
NsbsS'indians'
p518
g0
(g1
g2
Ntp519
Rp520
(dp521
g6
g16
sg8
S'OTHER'
p522
sg10
(dp523
S'what'
p524
g0
(g1
g2
Ntp525
Rp526
(dp527
g6
Nsg8
g522
sg10
Nsg24
NsbsS'where'
p528
g0
(g1
g2
Ntp529
Rp530
(dp531
g6
Nsg8
S'LOCATION'
p532
sg10
Nsg24
Nsbssg24
NsbsS'symphony'
p533
g0
(g1
g2
Ntp534
Rp535
(dp536
g6
Nsg8
S'OTHER'
p537
sg10
Nsg24
NsbsS'music'
p538
g0
(g1
g2
Ntp539
Rp540
(dp541
g6
g16
sg8
S'DATE'
p542
sg10
(dp543
S'what'
p544
g0
(g1
g2
Ntp545
Rp546
(dp547
g6
Nsg8
S'PERSON'
p548
sg10
Nsg24
NsbsS'when'
p549
g0
(g1
g2
Ntp550
Rp551
(dp552
g6
Nsg8
g542
sg10
Nsg24
Nsbssg24
NsbsS'type'
p553
g0
(g1
g2
Ntp554
Rp555
(dp556
g6
Nsg8
S'OTHER'
p557
sg10
Nsg24
NsbsS'playboy'
p558
g0
(g1
g2
Ntp559
Rp560
(dp561
g6
Nsg8
S'OTHER'
p562
sg10
Nsg24
NsbsS'phobophobe'
p563
g0
(g1
g2
Ntp564
Rp565
(dp566
g6
Nsg8
S'OTHER'
p567
sg10
Nsg24
NsbsS'award'
p568
g0
(g1
g2
Ntp569
Rp570
(dp571
g6
g16
sg8
S'OTHER'
p572
sg10
(dp573
S'what'
p574
g0
(g1
g2
Ntp575
Rp576
(dp577
g6
Nsg8
g572
sg10
Nsg24
NsbsS'who'
p578
g0
(g1
g2
Ntp579
Rp580
(dp581
g6
Nsg8
S'PERSON'
p582
sg10
Nsg24
Nsbssg24
NsbsS'phone'
p583
g0
(g1
g2
Ntp584
Rp585
(dp586
g6
Nsg8
S'NUMBER'
p587
sg10
Nsg24
NsbsS'adult'
p588
g0
(g1
g2
Ntp589
Rp590
(dp591
g6
Nsg8
S'OTHER'
p592
sg10
Nsg24
NsbsS'hole'
p593
g0
(g1
g2
Ntp594
Rp595
(dp596
g6
Nsg8
S'LOCATION'
p597
sg10
Nsg24
NsbsS'word'
p598
g0
(g1
g2
Ntp599
Rp600
(dp601
g6
g16
sg8
S'OTHER'
p602
sg10
(dp603
S'what'
p604
g0
(g1
g2
Ntp605
Rp606
(dp607
g6
Nsg8
S'OTHER'
p608
sg10
Nsg24
NsbsS'who'
p609
g0
(g1
g2
Ntp610
Rp611
(dp612
g6
Nsg8
S'PERSON'
p613
sg10
Nsg24
Nsbssg24
NsbsS'room'
p614
g0
(g1
g2
Ntp615
Rp616
(dp617
g6
g16
sg8
S'PERSON'
p618
sg10
(dp619
S'whom'
p620
g0
(g1
g2
Ntp621
Rp622
(dp623
g6
Nsg8
g618
sg10
Nsg24
NsbsS'what'
p624
g0
(g1
g2
Ntp625
Rp626
(dp627
g6
Nsg8
S'LOCATION'
p628
sg10
Nsg24
Nsbssg24
NsbsS'rights'
p629
g0
(g1
g2
Ntp630
Rp631
(dp632
g6
Nsg8
S'PERSON'
p633
sg10
Nsg24
NsbsS'work'
p634
g0
(g1
g2
Ntp635
Rp636
(dp637
g6
Nsg8
S'OTHER'
p638
sg10
Nsg24
NsbsS'worm'
p639
g0
(g1
g2
Ntp640
Rp641
(dp642
g6
Nsg8
S'PERSON'
p643
sg10
Nsg24
NsbsS'movies'
p644
g0
(g1
g2
Ntp645
Rp646
(dp647
g6
Nsg8
S'NUMBER'
p648
sg10
Nsg24
NsbsS'sweeter'
p649
g0
(g1
g2
Ntp650
Rp651
(dp652
g6
Nsg8
S'OTHER'
p653
sg10
Nsg24
NsbsS'entertainer'
p654
g0
(g1
g2
Ntp655
Rp656
(dp657
g6
Nsg8
S'OTHER'
p658
sg10
Nsg24
NsbsS'example'
p659
g0
(g1
g2
Ntp660
Rp661
(dp662
g6
Nsg8
S'PERSON'
p663
sg10
Nsg24
NsbsS'boyfriend'
p664
g0
(g1
g2
Ntp665
Rp666
(dp667
g6
Nsg8
S'PERSON'
p668
sg10
Nsg24
NsbsS'hyatt'
p669
g0
(g1
g2
Ntp670
Rp671
(dp672
g6
Nsg8
S'PERSON'
p673
sg10
Nsg24
NsbsS'household'
p674
g0
(g1
g2
Ntp675
Rp676
(dp677
g6
Nsg8
S'OTHER'
p678
sg10
Nsg24
NsbsS'frickett'
p679
g0
(g1
g2
Ntp680
Rp681
(dp682
g6
Nsg8
S'PERSON'
p683
sg10
Nsg24
NsbsS'currency'
p684
g0
(g1
g2
Ntp685
Rp686
(dp687
g6
Nsg8
g9
sg10
Nsg24
NsbsS'foods'
p688
g0
(g1
g2
Ntp689
Rp690
(dp691
g6
Nsg8
S'OTHER'
p692
sg10
Nsg24
NsbsS'times'
p693
g0
(g1
g2
Ntp694
Rp695
(dp696
g6
Nsg8
S'NUMBER'
p697
sg10
Nsg24
NsbsS'damage'
p698
g0
(g1
g2
Ntp699
Rp700
(dp701
g6
Nsg8
S'OTHER'
p702
sg10
Nsg24
NsbsS'machine'
p703
g0
(g1
g2
Ntp704
Rp705
(dp706
g6
Nsg8
S'PERSON'
p707
sg10
Nsg24
NsbsS'writers'
p708
g0
(g1
g2
Ntp709
Rp710
(dp711
g6
Nsg8
S'PERSON'
p712
sg10
Nsg24
NsbsS'gate'
p713
g0
(g1
g2
Ntp714
Rp715
(dp716
g6
g16
sg8
S'DATE'
p717
sg10
(dp718
S'what'
p719
g0
(g1
g2
Ntp720
Rp721
(dp722
g6
Nsg8
S'LOCATION'
p723
sg10
Nsg24
NsbsS'when'
p724
g0
(g1
g2
Ntp725
Rp726
(dp727
g6
Nsg8
S'DATE'
p728
sg10
Nsg24
Nsbssg24
NsbsS'gamble'
p729
g0
(g1
g2
Ntp730
Rp731
(dp732
g6
Nsg8
S'LOCATION'
p733
sg10
Nsg24
NsbsS'pizza'
p734
g0
(g1
g2
Ntp735
Rp736
(dp737
g6
Nsg8
S'NUMBER'
p738
sg10
Nsg24
NsbsS'gaming'
p739
g0
(g1
g2
Ntp740
Rp741
(dp742
g6
Nsg8
S'OTHER'
p743
sg10
Nsg24
NsbsS'cherubs'
p744
g0
(g1
g2
Ntp745
Rp746
(dp747
g6
Nsg8
S'NUMBER'
p748
sg10
Nsg24
NsbsS'horoscope'
p749
g0
(g1
g2
Ntp750
Rp751
(dp752
g6
Nsg8
S'PERSON'
p753
sg10
Nsg24
NsbsS'delicacy'
p754
g0
(g1
g2
Ntp755
Rp756
(dp757
g6
Nsg8
S'OTHER'
p758
sg10
Nsg24
NsbsS'shores'
p759
g0
(g1
g2
Ntp760
Rp761
(dp762
g6
Nsg8
S'PERSON'
p763
sg10
Nsg24
NsbsS'philatelist'
p764
g0
(g1
g2
Ntp765
Rp766
(dp767
g6
Nsg8
S'OTHER'
p768
sg10
Nsg24
NsbsS'president'
p769
g0
(g1
g2
Ntp770
Rp771
(dp772
g6
Nsg8
S'PERSON'
p773
sg10
Nsg24
NsbsS'arch'
p774
g0
(g1
g2
Ntp775
Rp776
(dp777
g6
Nsg8
S'LOCATION'
p778
sg10
Nsg24
NsbsS'types'
p779
g0
(g1
g2
Ntp780
Rp781
(dp782
g6
Nsg8
S'OTHER'
p783
sg10
Nsg24
NsbsS'headquarters'
p784
g0
(g1
g2
Ntp785
Rp786
(dp787
g6
Nsg8
S'LOCATION'
p788
sg10
Nsg24
NsbsS'davies'
p789
g0
(g1
g2
Ntp790
Rp791
(dp792
g6
Nsg8
S'LOCATION'
p793
sg10
Nsg24
NsbsS'lindbergh'
p794
g0
(g1
g2
Ntp795
Rp796
(dp797
g6
g16
sg8
S'DATE'
p798
sg10
(dp799
S'who'
p800
g0
(g1
g2
Ntp801
Rp802
(dp803
g6
Nsg8
S'PERSON'
p804
sg10
Nsg24
NsbsS'when'
p805
g0
(g1
g2
Ntp806
Rp807
(dp808
g6
Nsg8
g798
sg10
Nsg24
Nsbssg24
NsbsS'athletes'
p809
g0
(g1
g2
Ntp810
Rp811
(dp812
g6
Nsg8
S'NUMBER'
p813
sg10
Nsg24
NsbsS'order'
p814
g0
(g1
g2
Ntp815
Rp816
(dp817
g6
Nsg8
S'PERSON'
p818
sg10
Nsg24
NsbsS'wine'
p819
g0
(g1
g2
Ntp820
Rp821
(dp822
g6
Nsg8
S'OTHER'
p823
sg10
Nsg24
NsbsS'helens'
p824
g0
(g1
g2
Ntp825
Rp826
(dp827
g6
Nsg8
S'DATE'
p828
sg10
Nsg24
NsbsS'office'
p829
g0
(g1
g2
Ntp830
Rp831
(dp832
g6
g16
sg8
S'NUMBER'
p833
sg10
(dp834
S'the'
p835
g0
(g1
g2
Ntp836
Rp837
(dp838
g6
Nsg8
g833
sg10
Nsg24
NsbsS'shea'
p839
g0
(g1
g2
Ntp840
Rp841
(dp842
g6
Nsg8
S'TIME'
p843
sg10
Nsg24
Nsbssg24
NsbsS'oven'
p844
g0
(g1
g2
Ntp845
Rp846
(dp847
g6
Nsg8
S'OTHER'
p848
sg10
Nsg24
NsbsS'ancients'
p849
g0
(g1
g2
Ntp850
Rp851
(dp852
g6
Nsg8
S'OTHER'
p853
sg10
Nsg24
NsbsS'oswald'
p854
g0
(g1
g2
Ntp855
Rp856
(dp857
g6
Nsg8
S'PERSON'
p858
sg10
Nsg24
NsbsS'mayor'
p859
g0
(g1
g2
Ntp860
Rp861
(dp862
g6
Nsg8
S'PERSON'
p863
sg10
Nsg24
NsbsS'personas'
p864
g0
(g1
g2
Ntp865
Rp866
(dp867
g6
Nsg8
S'PERSON'
p868
sg10
Nsg24
NsbsS'diseases'
p869
g0
(g1
g2
Ntp870
Rp871
(dp872
g6
Nsg8
S'OTHER'
p873
sg10
Nsg24
NsbsS'band'
p874
g0
(g1
g2
Ntp875
Rp876
(dp877
g6
Nsg8
S'PERSON'
p878
sg10
Nsg24
NsbsS'therapy'
p879
g0
(g1
g2
Ntp880
Rp881
(dp882
g6
Nsg8
S'OTHER'
p883
sg10
Nsg24
NsbsS'schools'
p884
g0
(g1
g2
Ntp885
Rp886
(dp887
g6
g16
sg8
S'NUMBER'
p888
sg10
(dp889
S'how'
p890
g0
(g1
g2
Ntp891
Rp892
(dp893
g6
Nsg8
g888
sg10
Nsg24
NsbsS'which'
p894
g0
(g1
g2
Ntp895
Rp896
(dp897
g6
Nsg8
S'PERSON'
p898
sg10
Nsg24
Nsbssg24
NsbsS'meat'
p899
g0
(g1
g2
Ntp900
Rp901
(dp902
g6
Nsg8
S'OTHER'
p903
sg10
Nsg24
NsbsS'volcano'
p904
g0
(g1
g2
Ntp905
Rp906
(dp907
g6
Nsg8
S'LOCATION'
p908
sg10
Nsg24
NsbsS'bells'
p909
g0
(g1
g2
Ntp910
Rp911
(dp912
g6
Nsg8
S'NUMBER'
p913
sg10
Nsg24
NsbsS'side'
p914
g0
(g1
g2
Ntp915
Rp916
(dp917
g6
Nsg8
S'OTHER'
p918
sg10
Nsg24
NsbsS'bone'
p919
g0
(g1
g2
Ntp920
Rp921
(dp922
g6
Nsg8
S'OTHER'
p923
sg10
Nsg24
NsbsS'expectancy'
p924
g0
(g1
g2
Ntp925
Rp926
(dp927
g6
Nsg8
S'TIME'
p928
sg10
Nsg24
NsbsS'telescope'
p929
g0
(g1
g2
Ntp930
Rp931
(dp932
g6
Nsg8
S'LOCATION'
p933
sg10
Nsg24
NsbsS'statue'
p934
g0
(g1
g2
Ntp935
Rp936
(dp937
g6
Nsg8
S'OTHER'
p938
sg10
Nsg24
NsbsS'garment'
p939
g0
(g1
g2
Ntp940
Rp941
(dp942
g6
Nsg8
S'OTHER'
p943
sg10
Nsg24
NsbsS'spider'
p944
g0
(g1
g2
Ntp945
Rp946
(dp947
g6
Nsg8
S'OTHER'
p948
sg10
Nsg24
NsbsS'aids'
p949
g0
(g1
g2
Ntp950
Rp951
(dp952
g6
Nsg8
S'OTHER'
p953
sg10
Nsg24
NsbsS'collector'
p954
g0
(g1
g2
Ntp955
Rp956
(dp957
g6
Nsg8
S'PERSON'
p958
sg10
Nsg24
NsbsS'network'
p959
g0
(g1
g2
Ntp960
Rp961
(dp962
g6
Nsg8
S'PERSON'
p963
sg10
Nsg24
NsbsS'god'
p964
g0
(g1
g2
Ntp965
Rp966
(dp967
g6
g16
sg8
S'PERSON'
p968
sg10
(dp969
S'what'
p970
g0
(g1
g2
Ntp971
Rp972
(dp973
g6
Nsg8
S'OTHER'
p974
sg10
Nsg24
NsbsS'who'
p975
g0
(g1
g2
Ntp976
Rp977
(dp978
g6
Nsg8
S'PERSON'
p979
sg10
Nsg24
Nsbssg24
NsbsS'vessels'
p980
g0
(g1
g2
Ntp981
Rp982
(dp983
g6
Nsg8
S'OTHER'
p984
sg10
Nsg24
NsbsS'daniel'
p985
g0
(g1
g2
Ntp986
Rp987
(dp988
g6
Nsg8
S'LOCATION'
p989
sg10
Nsg24
NsbsS'millennium'
p990
g0
(g1
g2
Ntp991
Rp992
(dp993
g6
Nsg8
S'DATE'
p994
sg10
Nsg24
NsbsS'medicine'
p995
g0
(g1
g2
Ntp996
Rp997
(dp998
g6
Nsg8
S'OTHER'
p999
sg10
Nsg24
NsbsS'millions'
p1000
g0
(g1
g2
Ntp1001
Rp1002
(dp1003
g6
Nsg8
S'OTHER'
p1004
sg10
Nsg24
NsbsS'foundation'
p1005
g0
(g1
g2
Ntp1006
Rp1007
(dp1008
g6
Nsg8
S'PERSON'
p1009
sg10
Nsg24
NsbsS'barrier'
p1010
g0
(g1
g2
Ntp1011
Rp1012
(dp1013
g6
Nsg8
S'PERSON'
p1014
sg10
Nsg24
NsbsS'noriega'
p1015
g0
(g1
g2
Ntp1016
Rp1017
(dp1018
g6
Nsg8
S'DATE'
p1019
sg10
Nsg24
NsbsS'dracula'
p1020
g0
(g1
g2
Ntp1021
Rp1022
(dp1023
g6
Nsg8
S'PERSON'
p1024
sg10
Nsg24
NsbsS'u.s.'
p1025
g0
(g1
g2
Ntp1026
Rp1027
(dp1028
g6
g16
sg8
S'NUMBER'
p1029
sg10
(dp1030
S'how'
p1031
g0
(g1
g2
Ntp1032
Rp1033
(dp1034
g6
Nsg8
S'NUMBER'
p1035
sg10
Nsg24
NsbsS'what'
p1036
g0
(g1
g2
Ntp1037
Rp1038
(dp1039
g6
Nsg8
S'LOCATION'
p1040
sg10
Nsg24
NsbsS'where'
p1041
g0
(g1
g2
Ntp1042
Rp1043
(dp1044
g6
Nsg8
S'NUMBER'
p1045
sg10
Nsg24
Nsbssg24
NsbsS'youngsters'
p1046
g0
(g1
g2
Ntp1047
Rp1048
(dp1049
g6
Nsg8
S'PERSON'
p1050
sg10
Nsg24
NsbsS'putty'
p1051
g0
(g1
g2
Ntp1052
Rp1053
(dp1054
g6
Nsg8
S'PERSON'
p1055
sg10
Nsg24
NsbsS'days'
p1056
g0
(g1
g2
Ntp1057
Rp1058
(dp1059
g6
Nsg8
S'NUMBER'
p1060
sg10
Nsg24
NsbsS'soda'
p1061
g0
(g1
g2
Ntp1062
Rp1063
(dp1064
g6
Nsg8
S'OTHER'
p1065
sg10
Nsg24
NsbsS'stewart'
p1066
g0
(g1
g2
Ntp1067
Rp1068
(dp1069
g6
Nsg8
S'OTHER'
p1070
sg10
Nsg24
NsbsS'size'
p1071
g0
(g1
g2
Ntp1072
Rp1073
(dp1074
g6
Nsg8
S'NUMBER'
p1075
sg10
Nsg24
NsbsS'playwright'
p1076
g0
(g1
g2
Ntp1077
Rp1078
(dp1079
g6
Nsg8
S'PERSON'
p1080
sg10
Nsg24
NsbsS'attractions'
p1081
g0
(g1
g2
Ntp1082
Rp1083
(dp1084
g6
Nsg8
S'LOCATION'
p1085
sg10
Nsg24
NsbsS'primary'
p1086
g0
(g1
g2
Ntp1087
Rp1088
(dp1089
g6
Nsg8
S'PERSON'
p1090
sg10
Nsg24
NsbsS'comic'
p1091
g0
(g1
g2
Ntp1092
Rp1093
(dp1094
g6
Nsg8
S'PERSON'
p1095
sg10
Nsg24
NsbsS'toy'
p1096
g0
(g1
g2
Ntp1097
Rp1098
(dp1099
g6
Nsg8
S'PERSON'
p1100
sg10
Nsg24
NsbsS'service'
p1101
g0
(g1
g2
Ntp1102
Rp1103
(dp1104
g6
Nsg8
S'PERSON'
p1105
sg10
Nsg24
NsbsS'zeros'
p1106
g0
(g1
g2
Ntp1107
Rp1108
(dp1109
g6
Nsg8
S'NUMBER'
p1110
sg10
Nsg24
NsbsS'percentage'
p1111
g0
(g1
g2
Ntp1112
Rp1113
(dp1114
g6
Nsg8
S'PERCENT'
p1115
sg10
Nsg24
NsbsS'genesis'
p1116
g0
(g1
g2
Ntp1117
Rp1118
(dp1119
g6
Nsg8
S'OTHER'
p1120
sg10
Nsg24
NsbsS'airwaves'
p1121
g0
(g1
g2
Ntp1122
Rp1123
(dp1124
g6
Nsg8
S'PERSON'
p1125
sg10
Nsg24
NsbsS'rommel'
p1126
g0
(g1
g2
Ntp1127
Rp1128
(dp1129
g6
Nsg8
S'PERSON'
p1130
sg10
Nsg24
NsbsS'inoco'
p1131
g0
(g1
g2
Ntp1132
Rp1133
(dp1134
g6
Nsg8
S'LOCATION'
p1135
sg10
Nsg24
NsbsS'cereal'
p1136
g0
(g1
g2
Ntp1137
Rp1138
(dp1139
g6
Nsg8
S'OTHER'
p1140
sg10
Nsg24
NsbsS'helen'
p1141
g0
(g1
g2
Ntp1142
Rp1143
(dp1144
g6
Nsg8
S'DATE'
p1145
sg10
Nsg24
NsbsS'symptom'
p1146
g0
(g1
g2
Ntp1147
Rp1148
(dp1149
g6
Nsg8
S'OTHER'
p1150
sg10
Nsg24
NsbsS'charcter'
p1151
g0
(g1
g2
Ntp1152
Rp1153
(dp1154
g6
Nsg8
S'PERSON'
p1155
sg10
Nsg24
NsbsS'domestica'
p1156
g0
(g1
g2
Ntp1157
Rp1158
(dp1159
g6
Nsg8
S'OTHER'
p1160
sg10
Nsg24
NsbsS'hyenas'
p1161
g0
(g1
g2
Ntp1162
Rp1163
(dp1164
g6
Nsg8
S'LOCATION'
p1165
sg10
Nsg24
NsbsS'tree'
p1166
g0
(g1
g2
Ntp1167
Rp1168
(dp1169
g6
Nsg8
S'OTHER'
p1170
sg10
Nsg24
NsbsS'rate'
p1171
g0
(g1
g2
Ntp1172
Rp1173
(dp1174
g6
Nsg8
S'PERCENT'
p1175
sg10
Nsg24
NsbsS'nations'
p1176
g0
(g1
g2
Ntp1177
Rp1178
(dp1179
g6
Nsg8
S'LOCATION'
p1180
sg10
Nsg24
NsbsS'project'
p1181
g0
(g1
g2
Ntp1182
Rp1183
(dp1184
g6
Nsg8
S'LOCATION'
p1185
sg10
Nsg24
NsbsS'invention'
p1186
g0
(g1
g2
Ntp1187
Rp1188
(dp1189
g6
Nsg8
S'OTHER'
p1190
sg10
Nsg24
NsbsS'friend'
p1191
g0
(g1
g2
Ntp1192
Rp1193
(dp1194
g6
Nsg8
S'PERSON'
p1195
sg10
Nsg24
NsbsS'iron'
p1196
g0
(g1
g2
Ntp1197
Rp1198
(dp1199
g6
Nsg8
S'NUMBER'
p1200
sg10
Nsg24
NsbsS'prankster'
p1201
g0
(g1
g2
Ntp1202
Rp1203
(dp1204
g6
Nsg8
S'PERSON'
p1205
sg10
Nsg24
NsbsS'bridge'
p1206
g0
(g1
g2
Ntp1207
Rp1208
(dp1209
g6
g16
sg8
S'PERSON'
p1210
sg10
(dp1211
S'what'
p1212
g0
(g1
g2
Ntp1213
Rp1214
(dp1215
g6
Nsg8
S'LOCATION'
p1216
sg10
Nsg24
NsbsS'who'
p1217
g0
(g1
g2
Ntp1218
Rp1219
(dp1220
g6
Nsg8
g1210
sg10
Nsg24
NsbsS'where'
p1221
g0
(g1
g2
Ntp1222
Rp1223
(dp1224
g6
Nsg8
S'LOCATION'
p1225
sg10
Nsg24
Nsbssg24
NsbsS'blackhawks'
p1226
g0
(g1
g2
Ntp1227
Rp1228
(dp1229
g6
Nsg8
S'LOCATION'
p1230
sg10
Nsg24
NsbsS'palace'
p1231
g0
(g1
g2
Ntp1232
Rp1233
(dp1234
g6
Nsg8
S'LOCATION'
p1235
sg10
Nsg24
NsbsS'astaire'
p1236
g0
(g1
g2
Ntp1237
Rp1238
(dp1239
g6
Nsg8
S'PERSON'
p1240
sg10
Nsg24
NsbsS'mine'
p1241
g0
(g1
g2
Ntp1242
Rp1243
(dp1244
g6
Nsg8
S'OTHER'
p1245
sg10
Nsg24
NsbsS'talking'
p1246
g0
(g1
g2
Ntp1247
Rp1248
(dp1249
g6
Nsg8
S'PERSON'
p1250
sg10
Nsg24
NsbsS'shrubs'
p1251
g0
(g1
g2
Ntp1252
Rp1253
(dp1254
g6
Nsg8
S'OTHER'
p1255
sg10
Nsg24
NsbsS'eels'
p1256
g0
(g1
g2
Ntp1257
Rp1258
(dp1259
g6
Nsg8
S'LOCATION'
p1260
sg10
Nsg24
NsbsS'realm'
p1261
g0
(g1
g2
Ntp1262
Rp1263
(dp1264
g6
Nsg8
S'PERSON'
p1265
sg10
Nsg24
NsbsS'harper'
p1266
g0
(g1
g2
Ntp1267
Rp1268
(dp1269
g6
Nsg8
S'OTHER'
p1270
sg10
Nsg24
NsbsS'steamboat'
p1271
g0
(g1
g2
Ntp1272
Rp1273
(dp1274
g6
Nsg8
S'PERSON'
p1275
sg10
Nsg24
NsbsS'snow'
p1276
g0
(g1
g2
Ntp1277
Rp1278
(dp1279
g6
Nsg8
S'NUMBER'
p1280
sg10
Nsg24
NsbsS'reactivity'
p1281
g0
(g1
g2
Ntp1282
Rp1283
(dp1284
g6
Nsg8
S'NUMBER'
p1285
sg10
Nsg24
NsbsS'forces'
p1286
g0
(g1
g2
Ntp1287
Rp1288
(dp1289
g6
g16
sg8
S'LOCATION'
p1290
sg10
(dp1291
S'who'
p1292
g0
(g1
g2
Ntp1293
Rp1294
(dp1295
g6
Nsg8
S'PERSON'
p1296
sg10
Nsg24
NsbsS'where'
p1297
g0
(g1
g2
Ntp1298
Rp1299
(dp1300
g6
Nsg8
g1290
sg10
Nsg24
Nsbssg24
NsbsS'president-to-be'
p1301
g0
(g1
g2
Ntp1302
Rp1303
(dp1304
g6
Nsg8
S'PERSON'
p1305
sg10
Nsg24
NsbsS'panties'
p1306
g0
(g1
g2
Ntp1307
Rp1308
(dp1309
g6
Nsg8
S'PERSON'
p1310
sg10
Nsg24
NsbsS'zebras'
p1311
g0
(g1
g2
Ntp1312
Rp1313
(dp1314
g6
Nsg8
S'LOCATION'
p1315
sg10
Nsg24
NsbsS'thrilled'
p1316
g0
(g1
g2
Ntp1317
Rp1318
(dp1319
g6
Nsg8
S'OTHER'
p1320
sg10
Nsg24
NsbsS'object'
p1321
g0
(g1
g2
Ntp1322
Rp1323
(dp1324
g6
Nsg8
S'OTHER'
p1325
sg10
Nsg24
NsbsS'phonograph'
p1326
g0
(g1
g2
Ntp1327
Rp1328
(dp1329
g6
Nsg8
S'PERSON'
p1330
sg10
Nsg24
NsbsS'victoria'
p1331
g0
(g1
g2
Ntp1332
Rp1333
(dp1334
g6
Nsg8
S'DATE'
p1335
sg10
Nsg24
NsbsS'regular'
p1336
g0
(g1
g2
Ntp1337
Rp1338
(dp1339
g6
Nsg8
S'OTHER'
p1340
sg10
Nsg24
NsbsS'letter'
p1341
g0
(g1
g2
Ntp1342
Rp1343
(dp1344
g6
g16
sg8
S'PERSON'
p1345
sg10
(dp1346
S'what'
p1347
g0
(g1
g2
Ntp1348
Rp1349
(dp1350
g6
Nsg8
S'OTHER'
p1351
sg10
Nsg24
NsbsS'who'
p1352
g0
(g1
g2
Ntp1353
Rp1354
(dp1355
g6
Nsg8
g1345
sg10
Nsg24
Nsbssg24
NsbsS'exercises'
p1356
g0
(g1
g2
Ntp1357
Rp1358
(dp1359
g6
Nsg8
S'OTHER'
p1360
sg10
Nsg24
NsbsS'coin'
p1361
g0
(g1
g2
Ntp1362
Rp1363
(dp1364
g6
Nsg8
S'OTHER'
p1365
sg10
Nsg24
NsbsS'dummy'
p1366
g0
(g1
g2
Ntp1367
Rp1368
(dp1369
g6
Nsg8
S'PERSON'
p1370
sg10
Nsg24
NsbsS'singer'
p1371
g0
(g1
g2
Ntp1372
Rp1373
(dp1374
g6
Nsg8
S'PERSON'
p1375
sg10
Nsg24
NsbsS'rogers'
p1376
g0
(g1
g2
Ntp1377
Rp1378
(dp1379
g6
Nsg8
S'PERSON'
p1380
sg10
Nsg24
NsbsS'camp'
p1381
g0
(g1
g2
Ntp1382
Rp1383
(dp1384
g6
Nsg8
S'LOCATION'
p1385
sg10
Nsg24
NsbsS'dog'
p1386
g0
(g1
g2
Ntp1387
Rp1388
(dp1389
g6
Nsg8
S'OTHER'
p1390
sg10
Nsg24
NsbsS'points'
p1391
g0
(g1
g2
Ntp1392
Rp1393
(dp1394
g6
Nsg8
S'NUMBER'
p1395
sg10
Nsg24
NsbsS'enterprise'
p1396
g0
(g1
g2
Ntp1397
Rp1398
(dp1399
g6
Nsg8
S'PERSON'
p1400
sg10
Nsg24
NsbsS'scotch'
p1401
g0
(g1
g2
Ntp1402
Rp1403
(dp1404
g6
Nsg8
S'OTHER'
p1405
sg10
Nsg24
NsbsS'dow'
p1406
g0
(g1
g2
Ntp1407
Rp1408
(dp1409
g6
Nsg8
S'DATE'
p1410
sg10
Nsg24
NsbsS'dot'
p1411
g0
(g1
g2
Ntp1412
Rp1413
(dp1414
g6
Nsg8
S'OTHER'
p1415
sg10
Nsg24
NsbsS'marvel'
p1416
g0
(g1
g2
Ntp1417
Rp1418
(dp1419
g6
Nsg8
S'LOCATION'
p1420
sg10
Nsg24
NsbsS'bomb'
p1421
g0
(g1
g2
Ntp1422
Rp1423
(dp1424
g6
Nsg8
S'OTHER'
p1425
sg10
Nsg24
NsbsS'pope'
p1426
g0
(g1
g2
Ntp1427
Rp1428
(dp1429
g6
Nsg8
S'PERSON'
p1430
sg10
Nsg24
NsbsS'queen'
p1431
g0
(g1
g2
Ntp1432
Rp1433
(dp1434
g6
g16
sg8
S'OTHER'
p1435
sg10
(dp1436
S'how'
p1437
g0
(g1
g2
Ntp1438
Rp1439
(dp1440
g6
Nsg8
S'NUMBER'
p1441
sg10
Nsg24
NsbsS'what'
p1442
g0
(g1
g2
Ntp1443
Rp1444
(dp1445
g6
Nsg8
S'PERSON'
p1446
sg10
Nsg24
NsbsS'who'
p1447
g0
(g1
g2
Ntp1448
Rp1449
(dp1450
g6
Nsg8
S'PERSON'
p1451
sg10
Nsg24
Nsbssg24
NsbsS'plagues'
p1452
g0
(g1
g2
Ntp1453
Rp1454
(dp1455
g6
Nsg8
S'OTHER'
p1456
sg10
Nsg24
NsbsS'colors'
p1457
g0
(g1
g2
Ntp1458
Rp1459
(dp1460
g6
g16
sg8
S'NUMBER'
p1461
sg10
(dp1462
S'how'
p1463
g0
(g1
g2
Ntp1464
Rp1465
(dp1466
g6
Nsg8
S'NUMBER'
p1467
sg10
Nsg24
NsbsS'what'
p1468
g0
(g1
g2
Ntp1469
Rp1470
(dp1471
g6
Nsg8
S'OTHER'
p1472
sg10
Nsg24
NsbsS'in'
p1473
g0
(g1
g2
Ntp1474
Rp1475
(dp1476
g6
Nsg8
S'OTHER'
p1477
sg10
Nsg24
Nsbssg24
NsbsS'radio'
p1478
g0
(g1
g2
Ntp1479
Rp1480
(dp1481
g6
Nsg8
S'PERSON'
p1482
sg10
Nsg24
NsbsS'nephew'
p1483
g0
(g1
g2
Ntp1484
Rp1485
(dp1486
g6
Nsg8
S'PERSON'
p1487
sg10
Nsg24
NsbsS'debts'
p1488
g0
(g1
g2
Ntp1489
Rp1490
(dp1491
g6
Nsg8
S'MONEY'
p1492
sg10
Nsg24
NsbsS'buxom'
p1493
g0
(g1
g2
Ntp1494
Rp1495
(dp1496
g6
Nsg8
S'PERSON'
p1497
sg10
Nsg24
NsbsS'population'
p1498
g0
(g1
g2
Ntp1499
Rp1500
(dp1501
g6
Nsg8
S'NUMBER'
p1502
sg10
Nsg24
NsbsS'goalie'
p1503
g0
(g1
g2
Ntp1504
Rp1505
(dp1506
g6
Nsg8
S'LOCATION'
p1507
sg10
Nsg24
NsbsS'tiles'
p1508
g0
(g1
g2
Ntp1509
Rp1510
(dp1511
g6
Nsg8
S'NUMBER'
p1512
sg10
Nsg24
NsbsS'tammy'
p1513
g0
(g1
g2
Ntp1514
Rp1515
(dp1516
g6
Nsg8
S'PERSON'
p1517
sg10
Nsg24
NsbsS'tuberculosis'
p1518
g0
(g1
g2
Ntp1519
Rp1520
(dp1521
g6
Nsg8
S'LOCATION'
p1522
sg10
Nsg24
NsbsS'wedding'
p1523
g0
(g1
g2
Ntp1524
Rp1525
(dp1526
g6
Nsg8
S'DATE'
p1527
sg10
Nsg24
NsbsS'tips'
p1528
g0
(g1
g2
Ntp1529
Rp1530
(dp1531
g6
Nsg8
S'OTHER'
p1532
sg10
Nsg24
NsbsS'runs'
p1533
g0
(g1
g2
Ntp1534
Rp1535
(dp1536
g6
Nsg8
S'NUMBER'
p1537
sg10
Nsg24
NsbsS'bar'
p1538
g0
(g1
g2
Ntp1539
Rp1540
(dp1541
g6
Nsg8
S'OTHER'
p1542
sg10
Nsg24
NsbsS'countries'
p1543
g0
(g1
g2
Ntp1544
Rp1545
(dp1546
g6
g16
sg8
S'LOCATION'
p1547
sg10
(dp1548
S'how'
p1549
g0
(g1
g2
Ntp1550
Rp1551
(dp1552
g6
Nsg8
S'NUMBER'
p1553
sg10
Nsg24
NsbsS'what'
p1554
g0
(g1
g2
Ntp1555
Rp1556
(dp1557
g6
Nsg8
S'LOCATION'
p1558
sg10
Nsg24
Nsbssg24
NsbsS'fields'
p1559
g0
(g1
g2
Ntp1560
Rp1561
(dp1562
g6
Nsg8
S'PERSON'
p1563
sg10
Nsg24
NsbsS'bay'
p1564
g0
(g1
g2
Ntp1565
Rp1566
(dp1567
g6
Nsg8
S'LOCATION'
p1568
sg10
Nsg24
NsbsS'architecture'
p1569
g0
(g1
g2
Ntp1570
Rp1571
(dp1572
g6
Nsg8
S'DATE'
p1573
sg10
Nsg24
NsbsS'shots'
p1574
g0
(g1
g2
Ntp1575
Rp1576
(dp1577
g6
Nsg8
S'NUMBER'
p1578
sg10
Nsg24
NsbsS'secretary'
p1579
g0
(g1
g2
Ntp1580
Rp1581
(dp1582
g6
Nsg8
S'PERSON'
p1583
sg10
Nsg24
NsbsS'disaster'
p1584
g0
(g1
g2
Ntp1585
Rp1586
(dp1587
g6
Nsg8
S'OTHER'
p1588
sg10
Nsg24
NsbsS'reference'
p1589
g0
(g1
g2
Ntp1590
Rp1591
(dp1592
g6
Nsg8
S'LOCATION'
p1593
sg10
Nsg24
NsbsS'nun'
p1594
g0
(g1
g2
Ntp1595
Rp1596
(dp1597
g6
Nsg8
S'PERSON'
p1598
sg10
Nsg24
NsbsS'rings'
p1599
g0
(g1
g2
Ntp1600
Rp1601
(dp1602
g6
Nsg8
S'NUMBER'
p1603
sg10
Nsg24
NsbsS'score'
p1604
g0
(g1
g2
Ntp1605
Rp1606
(dp1607
g6
Nsg8
S'NUMBER'
p1608
sg10
Nsg24
NsbsS'olympics'
p1609
g0
(g1
g2
Ntp1610
Rp1611
(dp1612
g6
Nsg8
S'LOCATION'
p1613
sg10
Nsg24
NsbsS'finger'
p1614
g0
(g1
g2
Ntp1615
Rp1616
(dp1617
g6
Nsg8
S'PERSON'
p1618
sg10
Nsg24
NsbsS'encounters'
p1619
g0
(g1
g2
Ntp1620
Rp1621
(dp1622
g6
Nsg8
S'OTHER'
p1623
sg10
Nsg24
NsbsS'glasgow'
p1624
g0
(g1
g2
Ntp1625
Rp1626
(dp1627
g6
Nsg8
S'LOCATION'
p1628
sg10
Nsg24
NsbsS'boss'
p1629
g0
(g1
g2
Ntp1630
Rp1631
(dp1632
g6
Nsg8
S'PERSON'
p1633
sg10
Nsg24
NsbsS'toothbrush'
p1634
g0
(g1
g2
Ntp1635
Rp1636
(dp1637
g6
Nsg8
S'PERSON'
p1638
sg10
Nsg24
NsbsS'motto'
p1639
g0
(g1
g2
Ntp1640
Rp1641
(dp1642
g6
Nsg8
S'PERSON'
p1643
sg10
Nsg24
NsbsS'horsemen'
p1644
g0
(g1
g2
Ntp1645
Rp1646
(dp1647
g6
Nsg8
S'PERSON'
p1648
sg10
Nsg24
NsbsS'accident'
p1649
g0
(g1
g2
Ntp1650
Rp1651
(dp1652
g6
Nsg8
S'DATE'
p1653
sg10
Nsg24
NsbsS'country'
p1654
g0
(g1
g2
Ntp1655
Rp1656
(dp1657
g6
Nsg8
S'LOCATION'
p1658
sg10
Nsg24
NsbsS'adventures'
p1659
g0
(g1
g2
Ntp1660
Rp1661
(dp1662
g6
Nsg8
S'LOCATION'
p1663
sg10
Nsg24
NsbsS'players'
p1664
g0
(g1
g2
Ntp1665
Rp1666
(dp1667
g6
Nsg8
S'PERSON'
p1668
sg10
Nsg24
NsbsS'games'
p1669
g0
(g1
g2
Ntp1670
Rp1671
(dp1672
g6
g16
sg8
S'OTHER'
p1673
sg10
(dp1674
S'how'
p1675
g0
(g1
g2
Ntp1676
Rp1677
(dp1678
g6
Nsg8
S'NUMBER'
p1679
sg10
Nsg24
NsbsS'what'
p1680
g0
(g1
g2
Ntp1681
Rp1682
(dp1683
g6
Nsg8
S'OTHER'
p1684
sg10
Nsg24
NsbsS'who'
p1685
g0
(g1
g2
Ntp1686
Rp1687
(dp1688
g6
Nsg8
S'PERSON'
p1689
sg10
Nsg24
NsbsS'when'
p1690
g0
(g1
g2
Ntp1691
Rp1692
(dp1693
g6
Nsg8
S'DATE'
p1694
sg10
Nsg24
Nsbssg24
NsbsS'faces'
p1695
g0
(g1
g2
Ntp1696
Rp1697
(dp1698
g6
Nsg8
S'OTHER'
p1699
sg10
Nsg24
NsbsS'maclaine'
p1700
g0
(g1
g2
Ntp1701
Rp1702
(dp1703
g6
g16
sg8
S'OTHER'
p1704
sg10
(dp1705
S'what'
p1706
g0
(g1
g2
Ntp1707
Rp1708
(dp1709
g6
Nsg8
g1704
sg10
Nsg24
NsbsS'who'
p1710
g0
(g1
g2
Ntp1711
Rp1712
(dp1713
g6
Nsg8
S'PERSON'
p1714
sg10
Nsg24
Nsbssg24
NsbsS'seizure'
p1715
g0
(g1
g2
Ntp1716
Rp1717
(dp1718
g6
Nsg8
S'PERSON'
p1719
sg10
Nsg24
NsbsS'canyon'
p1720
g0
(g1
g2
Ntp1721
Rp1722
(dp1723
g6
Nsg8
S'LOCATION'
p1724
sg10
Nsg24
NsbsS'hitler'
p1725
g0
(g1
g2
Ntp1726
Rp1727
(dp1728
g6
Nsg8
S'DATE'
p1729
sg10
Nsg24
NsbsS'conference'
p1730
g0
(g1
g2
Ntp1731
Rp1732
(dp1733
g6
Nsg8
S'OTHER'
p1734
sg10
Nsg24
NsbsS'engines'
p1735
g0
(g1
g2
Ntp1736
Rp1737
(dp1738
g6
Nsg8
S'NUMBER'
p1739
sg10
Nsg24
NsbsS'submarine'
p1740
g0
(g1
g2
Ntp1741
Rp1742
(dp1743
g6
Nsg8
S'OTHER'
p1744
sg10
Nsg24
NsbsS'beer'
p1745
g0
(g1
g2
Ntp1746
Rp1747
(dp1748
g6
Nsg8
S'OTHER'
p1749
sg10
Nsg24
NsbsS'stadium'
p1750
g0
(g1
g2
Ntp1751
Rp1752
(dp1753
g6
Nsg8
S'LOCATION'
p1754
sg10
Nsg24
NsbsS'teenager'
p1755
g0
(g1
g2
Ntp1756
Rp1757
(dp1758
g6
g16
sg8
S'PERSON'
p1759
sg10
(dp1760
S'who'
p1761
g0
(g1
g2
Ntp1762
Rp1763
(dp1764
g6
Nsg8
g1759
sg10
Nsg24
NsbsS'when'
p1765
g0
(g1
g2
Ntp1766
Rp1767
(dp1768
g6
Nsg8
S'DATE'
p1769
sg10
Nsg24
Nsbssg24
NsbsS'dots'
p1770
g0
(g1
g2
Ntp1771
Rp1772
(dp1773
g6
Nsg8
S'NUMBER'
p1774
sg10
Nsg24
NsbsS'life'
p1775
g0
(g1
g2
Ntp1776
Rp1777
(dp1778
g6
Nsg8
S'PERSON'
p1779
sg10
Nsg24
NsbsS'generals'
p1780
g0
(g1
g2
Ntp1781
Rp1782
(dp1783
g6
Nsg8
S'NUMBER'
p1784
sg10
Nsg24
NsbsS'child'
p1785
g0
(g1
g2
Ntp1786
Rp1787
(dp1788
g6
Nsg8
S'PERSON'
p1789
sg10
Nsg24
NsbsS'7847'
p1790
g0
(g1
g2
Ntp1791
Rp1792
(dp1793
g6
Nsg8
S'NUMBER'
p1794
sg10
Nsg24
NsbsS'physician'
p1795
g0
(g1
g2
Ntp1796
Rp1797
(dp1798
g6
Nsg8
S'PERSON'
p1799
sg10
Nsg24
NsbsS'calcium'
p1800
g0
(g1
g2
Ntp1801
Rp1802
(dp1803
g6
Nsg8
S'NUMBER'
p1804
sg10
Nsg24
NsbsS'voice'
p1805
g0
(g1
g2
Ntp1806
Rp1807
(dp1808
g6
Nsg8
S'PERSON'
p1809
sg10
Nsg24
NsbsS'procedure'
p1810
g0
(g1
g2
Ntp1811
Rp1812
(dp1813
g6
Nsg8
S'OTHER'
p1814
sg10
Nsg24
NsbsS'pyramid'
p1815
g0
(g1
g2
Ntp1816
Rp1817
(dp1818
g6
Nsg8
S'PERSON'
p1819
sg10
Nsg24
NsbsS'iq'
p1820
g0
(g1
g2
Ntp1821
Rp1822
(dp1823
g6
Nsg8
S'NUMBER'
p1824
sg10
Nsg24
NsbsS'player'
p1825
g0
(g1
g2
Ntp1826
Rp1827
(dp1828
g6
Nsg8
S'PERSON'
p1829
sg10
Nsg24
NsbsS'cone'
p1830
g0
(g1
g2
Ntp1831
Rp1832
(dp1833
g6
Nsg8
S'PERSON'
p1834
sg10
Nsg24
NsbsS'airport'
p1835
g0
(g1
g2
Ntp1836
Rp1837
(dp1838
g6
Nsg8
S'LOCATION'
p1839
sg10
Nsg24
NsbsS'picts'
p1840
g0
(g1
g2
Ntp1841
Rp1842
(dp1843
g6
Nsg8
S'PERSON'
p1844
sg10
Nsg24
NsbsS'complex'
p1845
g0
(g1
g2
Ntp1846
Rp1847
(dp1848
g6
Nsg8
S'LOCATION'
p1849
sg10
Nsg24
NsbsS'esquire'
p1850
g0
(g1
g2
Ntp1851
Rp1852
(dp1853
g6
Nsg8
S'OTHER'
p1854
sg10
Nsg24
NsbsS'vegetable'
p1855
g0
(g1
g2
Ntp1856
Rp1857
(dp1858
g6
Nsg8
S'OTHER'
p1859
sg10
Nsg24
NsbsS'monarch'
p1860
g0
(g1
g2
Ntp1861
Rp1862
(dp1863
g6
Nsg8
S'PERSON'
p1864
sg10
Nsg24
NsbsS'colonies'
p1865
g0
(g1
g2
Ntp1866
Rp1867
(dp1868
g6
Nsg8
S'NUMBER'
p1869
sg10
Nsg24
NsbsS'bid'
p1870
g0
(g1
g2
Ntp1871
Rp1872
(dp1873
g6
Nsg8
S'OTHER'
p1874
sg10
Nsg24
NsbsS'inventors'
p1875
g0
(g1
g2
Ntp1876
Rp1877
(dp1878
g6
Nsg8
S'PERSON'
p1879
sg10
Nsg24
NsbsS'wheel'
p1880
g0
(g1
g2
Ntp1881
Rp1882
(dp1883
g6
Nsg8
S'OTHER'
p1884
sg10
Nsg24
NsbsS'hand'
p1885
g0
(g1
g2
Ntp1886
Rp1887
(dp1888
g6
Nsg8
S'OTHER'
p1889
sg10
Nsg24
NsbsS'waterfall'
p1890
g0
(g1
g2
Ntp1891
Rp1892
(dp1893
g6
Nsg8
S'LOCATION'
p1894
sg10
Nsg24
NsbsS'characters'
p1895
g0
(g1
g2
Ntp1896
Rp1897
(dp1898
g6
g16
sg8
S'NUMBER'
p1899
sg10
(dp1900
S'how'
p1901
g0
(g1
g2
Ntp1902
Rp1903
(dp1904
g6
Nsg8
S'NUMBER'
p1905
sg10
Nsg24
NsbsS'what'
p1906
g0
(g1
g2
Ntp1907
Rp1908
(dp1909
g6
Nsg8
S'PERSON'
p1910
sg10
Nsg24
Nsbssg24
NsbsS'tune'
p1911
g0
(g1
g2
Ntp1912
Rp1913
(dp1914
g6
Nsg8
S'OTHER'
p1915
sg10
Nsg24
NsbsS'kid'
p1916
g0
(g1
g2
Ntp1917
Rp1918
(dp1919
g6
g16
sg8
S'OTHER'
p1920
sg10
(dp1921
S'what'
p1922
g0
(g1
g2
Ntp1923
Rp1924
(dp1925
g6
Nsg8
g1920
sg10
Nsg24
NsbsS'who'
p1926
g0
(g1
g2
Ntp1927
Rp1928
(dp1929
g6
Nsg8
S'PERSON'
p1930
sg10
Nsg24
Nsbssg24
NsbsS'smokey'
p1931
g0
(g1
g2
Ntp1932
Rp1933
(dp1934
g6
Nsg8
S'OTHER'
p1935
sg10
Nsg24
NsbsS'peacocks'
p1936
g0
(g1
g2
Ntp1937
Rp1938
(dp1939
g6
Nsg8
S'OTHER'
p1940
sg10
Nsg24
NsbsS'vice-president'
p1941
g0
(g1
g2
Ntp1942
Rp1943
(dp1944
g6
Nsg8
S'PERSON'
p1945
sg10
Nsg24
NsbsS'suffering'
p1946
g0
(g1
g2
Ntp1947
Rp1948
(dp1949
g6
Nsg8
S'OTHER'
p1950
sg10
Nsg24
NsbsS'ocean'
p1951
g0
(g1
g2
Ntp1952
Rp1953
(dp1954
g6
Nsg8
S'LOCATION'
p1955
sg10
Nsg24
NsbsS'materials'
p1956
g0
(g1
g2
Ntp1957
Rp1958
(dp1959
g6
Nsg8
S'OTHER'
p1960
sg10
Nsg24
NsbsS'mother'
p1961
g0
(g1
g2
Ntp1962
Rp1963
(dp1964
g6
Nsg8
S'PERSON'
p1965
sg10
Nsg24
NsbsS'hearts'
p1966
g0
(g1
g2
Ntp1967
Rp1968
(dp1969
g6
Nsg8
S'NUMBER'
p1970
sg10
Nsg24
NsbsS'musical'
p1971
g0
(g1
g2
Ntp1972
Rp1973
(dp1974
g6
Nsg8
S'OTHER'
p1975
sg10
Nsg24
NsbsS'snowman'
p1976
g0
(g1
g2
Ntp1977
Rp1978
(dp1979
g6
Nsg8
S'LOCATION'
p1980
sg10
Nsg24
NsbsS'traditions'
p1981
g0
(g1
g2
Ntp1982
Rp1983
(dp1984
g6
Nsg8
S'OTHER'
p1985
sg10
Nsg24
NsbsS'basophobic'
p1986
g0
(g1
g2
Ntp1987
Rp1988
(dp1989
g6
Nsg8
S'OTHER'
p1990
sg10
Nsg24
NsbsS'verses'
p1991
g0
(g1
g2
Ntp1992
Rp1993
(dp1994
g6
Nsg8
S'NUMBER'
p1995
sg10
Nsg24
NsbsS'palpatine'
p1996
g0
(g1
g2
Ntp1997
Rp1998
(dp1999
g6
Nsg8
S'PERSON'
p2000
sg10
Nsg24
NsbsS'character'
p2001
g0
(g1
g2
Ntp2002
Rp2003
(dp2004
g6
Nsg8
S'PERSON'
p2005
sg10
Nsg24
NsbsS'woodstock'
p2006
g0
(g1
g2
Ntp2007
Rp2008
(dp2009
g6
Nsg8
S'LOCATION'
p2010
sg10
Nsg24
NsbsS'board'
p2011
g0
(g1
g2
Ntp2012
Rp2013
(dp2014
g6
Nsg8
S'OTHER'
p2015
sg10
Nsg24
NsbsS'prison'
p2016
g0
(g1
g2
Ntp2017
Rp2018
(dp2019
g6
Nsg8
S'LOCATION'
p2020
sg10
Nsg24
NsbsS'sailors'
p2021
g0
(g1
g2
Ntp2022
Rp2023
(dp2024
g6
Nsg8
S'OTHER'
p2025
sg10
Nsg24
NsbsS'bands'
p2026
g0
(g1
g2
Ntp2027
Rp2028
(dp2029
g6
Nsg8
S'OTHER'
p2030
sg10
Nsg24
NsbsS'caps'
p2031
g0
(g1
g2
Ntp2032
Rp2033
(dp2034
g6
Nsg8
S'MONEY'
p2035
sg10
Nsg24
NsbsS'boxer'
p2036
g0
(g1
g2
Ntp2037
Rp2038
(dp2039
g6
Nsg8
S'PERSON'
p2040
sg10
Nsg24
NsbsS'thucydides'
p2041
g0
(g1
g2
Ntp2042
Rp2043
(dp2044
g6
Nsg8
S'PERSON'
p2045
sg10
Nsg24
NsbsS'picasso'
p2046
g0
(g1
g2
Ntp2047
Rp2048
(dp2049
g6
Nsg8
S'PERSON'
p2050
sg10
Nsg24
NsbsS'cinzano'
p2051
g0
(g1
g2
Ntp2052
Rp2053
(dp2054
g6
Nsg8
S'PERSON'
p2055
sg10
Nsg24
NsbsS'steps'
p2056
g0
(g1
g2
Ntp2057
Rp2058
(dp2059
g6
Nsg8
S'LOCATION'
p2060
sg10
Nsg24
NsbsS'vegetation'
p2061
g0
(g1
g2
Ntp2062
Rp2063
(dp2064
g6
Nsg8
S'NUMBER'
p2065
sg10
Nsg24
NsbsS'night'
p2066
g0
(g1
g2
Ntp2067
Rp2068
(dp2069
g6
Nsg8
S'PERSON'
p2070
sg10
Nsg24
NsbsS'battlefield'
p2071
g0
(g1
g2
Ntp2072
Rp2073
(dp2074
g6
Nsg8
S'LOCATION'
p2075
sg10
Nsg24
NsbsS'www'
p2076
g0
(g1
g2
Ntp2077
Rp2078
(dp2079
g6
Nsg8
S'PERSON'
p2080
sg10
Nsg24
NsbsS'commanders'
p2081
g0
(g1
g2
Ntp2082
Rp2083
(dp2084
g6
Nsg8
S'PERSON'
p2085
sg10
Nsg24
NsbsS'korea'
p2086
g0
(g1
g2
Ntp2087
Rp2088
(dp2089
g6
Nsg8
S'DATE'
p2090
sg10
Nsg24
NsbsS'people'
p2091
g0
(g1
g2
Ntp2092
Rp2093
(dp2094
g6
g16
sg8
S'PERSON'
p2095
sg10
(dp2096
S'how'
p2097
g0
(g1
g2
Ntp2098
Rp2099
(dp2100
g6
Nsg8
S'NUMBER'
p2101
sg10
Nsg24
NsbsS'what'
p2102
g0
(g1
g2
Ntp2103
Rp2104
(dp2105
g6
Nsg8
S'PERSON'
p2106
sg10
Nsg24
NsbsS'who'
p2107
g0
(g1
g2
Ntp2108
Rp2109
(dp2110
g6
Nsg8
S'PERSON'
p2111
sg10
Nsg24
NsbsS'where'
p2112
g0
(g1
g2
Ntp2113
Rp2114
(dp2115
g6
Nsg8
S'LOCATION'
p2116
sg10
Nsg24
Nsbssg24
NsbsS'stardust'
p2117
g0
(g1
g2
Ntp2118
Rp2119
(dp2120
g6
Nsg8
S'PERSON'
p2121
sg10
Nsg24
NsbsS'election'
p2122
g0
(g1
g2
Ntp2123
Rp2124
(dp2125
g6
Nsg8
S'PERSON'
p2126
sg10
Nsg24
NsbsS'enemies'
p2127
g0
(g1
g2
Ntp2128
Rp2129
(dp2130
g6
Nsg8
S'PERSON'
p2131
sg10
Nsg24
NsbsS'ice'
p2132
g0
(g1
g2
Ntp2133
Rp2134
(dp2135
g6
Nsg8
S'OTHER'
p2136
sg10
Nsg24
NsbsS'shakespeare'
p2137
g0
(g1
g2
Ntp2138
Rp2139
(dp2140
g6
Nsg8
S'OTHER'
p2141
sg10
Nsg24
NsbsS'cnn'
p2142
g0
(g1
g2
Ntp2143
Rp2144
(dp2145
g6
g16
sg8
S'PERSON'
p2146
sg10
(dp2147
S'who'
p2148
g0
(g1
g2
Ntp2149
Rp2150
(dp2151
g6
Nsg8
g2146
sg10
Nsg24
NsbsS'when'
p2152
g0
(g1
g2
Ntp2153
Rp2154
(dp2155
g6
Nsg8
S'DATE'
p2156
sg10
Nsg24
Nsbssg24
NsbsS'offices'
p2157
g0
(g1
g2
Ntp2158
Rp2159
(dp2160
g6
Nsg8
S'PERSON'
p2161
sg10
Nsg24
NsbsS'officer'
p2162
g0
(g1
g2
Ntp2163
Rp2164
(dp2165
g6
Nsg8
S'PERSON'
p2166
sg10
Nsg24
NsbsS'columbus'
p2167
g0
(g1
g2
Ntp2168
Rp2169
(dp2170
g6
Nsg8
S'LOCATION'
p2171
sg10
Nsg24
NsbsS'englishmen'
p2172
g0
(g1
g2
Ntp2173
Rp2174
(dp2175
g6
Nsg8
S'NUMBER'
p2176
sg10
Nsg24
NsbsS'super'
p2177
g0
(g1
g2
Ntp2178
Rp2179
(dp2180
g6
Nsg8
S'PERSON'
p2181
sg10
Nsg24
NsbsS'trophy'
p2182
g0
(g1
g2
Ntp2183
Rp2184
(dp2185
g6
Nsg8
S'OTHER'
p2186
sg10
Nsg24
NsbsS'cowboy'
p2187
g0
(g1
g2
Ntp2188
Rp2189
(dp2190
g6
Nsg8
S'PERSON'
p2191
sg10
Nsg24
NsbsS'months'
p2192
g0
(g1
g2
Ntp2193
Rp2194
(dp2195
g6
g16
sg8
S'NUMBER'
p2196
sg10
(dp2197
S'how'
p2198
g0
(g1
g2
Ntp2199
Rp2200
(dp2201
g6
Nsg8
S'NUMBER'
p2202
sg10
Nsg24
NsbsS'what'
p2203
g0
(g1
g2
Ntp2204
Rp2205
(dp2206
g6
Nsg8
S'DATE'
p2207
sg10
Nsg24
Nsbssg24
NsbsS'ranges'
p2208
g0
(g1
g2
Ntp2209
Rp2210
(dp2211
g6
Nsg8
S'LOCATION'
p2212
sg10
Nsg24
NsbsS'magazine'
p2213
g0
(g1
g2
Ntp2214
Rp2215
(dp2216
g6
Nsg8
S'OTHER'
p2217
sg10
Nsg24
NsbsS'coronado'
p2218
g0
(g1
g2
Ntp2219
Rp2220
(dp2221
g6
Nsg8
S'PERSON'
p2222
sg10
Nsg24
NsbsS'islands'
p2223
g0
(g1
g2
Ntp2224
Rp2225
(dp2226
g6
g16
sg8
S'NUMBER'
p2227
sg10
(dp2228
S'how'
p2229
g0
(g1
g2
Ntp2230
Rp2231
(dp2232
g6
Nsg8
S'NUMBER'
p2233
sg10
Nsg24
NsbsS'what'
p2234
g0
(g1
g2
Ntp2235
Rp2236
(dp2237
g6
Nsg8
S'LOCATION'
p2238
sg10
Nsg24
Nsbssg24
NsbsS'nixon'
p2239
g0
(g1
g2
Ntp2240
Rp2241
(dp2242
g6
g16
sg8
S'DATE'
p2243
sg10
(dp2244
S'where'
p2245
g0
(g1
g2
Ntp2246
Rp2247
(dp2248
g6
Nsg8
S'LOCATION'
p2249
sg10
Nsg24
NsbsS'who'
p2250
g0
(g1
g2
Ntp2251
Rp2252
(dp2253
g6
Nsg8
S'PERSON'
p2254
sg10
Nsg24
NsbsS'when'
p2255
g0
(g1
g2
Ntp2256
Rp2257
(dp2258
g6
Nsg8
S'DATE'
p2259
sg10
Nsg24
Nsbssg24
NsbsS'logo'
p2260
g0
(g1
g2
Ntp2261
Rp2262
(dp2263
g6
Nsg8
S'PERSON'
p2264
sg10
Nsg24
NsbsS'profession'
p2265
g0
(g1
g2
Ntp2266
Rp2267
(dp2268
g6
Nsg8
S'PERSON'
p2269
sg10
Nsg24
NsbsS'auh2o'
p2270
g0
(g1
g2
Ntp2271
Rp2272
(dp2273
g6
Nsg8
S'PERSON'
p2274
sg10
Nsg24
NsbsS'son'
p2275
g0
(g1
g2
Ntp2276
Rp2277
(dp2278
g6
Nsg8
S'PERSON'
p2279
sg10
Nsg24
NsbsS'rosanna-dana'
p2280
g0
(g1
g2
Ntp2281
Rp2282
(dp2283
g6
Nsg8
S'PERSON'
p2284
sg10
Nsg24
NsbsS'ussr'
p2285
g0
(g1
g2
Ntp2286
Rp2287
(dp2288
g6
Nsg8
S'DATE'
p2289
sg10
Nsg24
NsbsS'amsterdam'
p2290
g0
(g1
g2
Ntp2291
Rp2292
(dp2293
g6
Nsg8
S'LOCATION'
p2294
sg10
Nsg24
NsbsS'sculptress'
p2295
g0
(g1
g2
Ntp2296
Rp2297
(dp2298
g6
Nsg8
S'PERSON'
p2299
sg10
Nsg24
NsbsS'tennis'
p2300
g0
(g1
g2
Ntp2301
Rp2302
(dp2303
g6
Nsg8
S'PERSON'
p2304
sg10
Nsg24
NsbsS'class'
p2305
g0
(g1
g2
Ntp2306
Rp2307
(dp2308
g6
Nsg8
S'OTHER'
p2309
sg10
Nsg24
NsbsS'editor'
p2310
g0
(g1
g2
Ntp2311
Rp2312
(dp2313
g6
Nsg8
S'PERSON'
p2314
sg10
Nsg24
NsbsS'way'
p2315
g0
(g1
g2
Ntp2316
Rp2317
(dp2318
g6
g16
sg8
S'OTHER'
p2319
sg10
(dp2320
S'what'
p2321
g0
(g1
g2
Ntp2322
Rp2323
(dp2324
g6
Nsg8
S'OTHER'
p2325
sg10
Nsg24
NsbsS'who'
p2326
g0
(g1
g2
Ntp2327
Rp2328
(dp2329
g6
Nsg8
S'PERSON'
p2330
sg10
Nsg24
NsbsS'which'
p2331
g0
(g1
g2
Ntp2332
Rp2333
(dp2334
g6
Nsg8
S'LOCATION'
p2335
sg10
Nsg24
Nsbssg24
NsbsS'war'
p2336
g0
(g1
g2
Ntp2337
Rp2338
(dp2339
g6
g16
sg8
S'OTHER'
p2340
sg10
(dp2341
S'what'
p2342
g0
(g1
g2
Ntp2343
Rp2344
(dp2345
g6
Nsg8
S'OTHER'
p2346
sg10
Nsg24
NsbsS'who'
p2347
g0
(g1
g2
Ntp2348
Rp2349
(dp2350
g6
Nsg8
S'PERSON'
p2351
sg10
Nsg24
NsbsS'when'
p2352
g0
(g1
g2
Ntp2353
Rp2354
(dp2355
g6
Nsg8
S'DATE'
p2356
sg10
Nsg24
NsbsS'in'
p2357
g0
(g1
g2
Ntp2358
Rp2359
(dp2360
g6
Nsg8
S'OTHER'
p2361
sg10
Nsg24
Nsbssg24
NsbsS'head'
p2362
g0
(g1
g2
Ntp2363
Rp2364
(dp2365
g6
g16
sg8
S'PERSON'
p2366
sg10
(dp2367
S'how'
p2368
g0
(g1
g2
Ntp2369
Rp2370
(dp2371
g6
Nsg8
S'NUMBER'
p2372
sg10
Nsg24
NsbsS'who'
p2373
g0
(g1
g2
Ntp2374
Rp2375
(dp2376
g6
Nsg8
S'PERSON'
p2377
sg10
Nsg24
Nsbssg24
NsbsS'medium'
p2378
g0
(g1
g2
Ntp2379
Rp2380
(dp2381
g6
Nsg8
S'OTHER'
p2382
sg10
Nsg24
NsbsS'form'
p2383
g0
(g1
g2
Ntp2384
Rp2385
(dp2386
g6
Nsg8
S'OTHER'
p2387
sg10
Nsg24
NsbsS'manufacturers'
p2388
g0
(g1
g2
Ntp2389
Rp2390
(dp2391
g6
Nsg8
S'PERSON'
p2392
sg10
Nsg24
NsbsS'observances'
p2393
g0
(g1
g2
Ntp2394
Rp2395
(dp2396
g6
Nsg8
S'OTHER'
p2397
sg10
Nsg24
NsbsS'manatees'
p2398
g0
(g1
g2
Ntp2399
Rp2400
(dp2401
g6
Nsg8
S'OTHER'
p2402
sg10
Nsg24
NsbsS'milligrams'
p2403
g0
(g1
g2
Ntp2404
Rp2405
(dp2406
g6
Nsg8
S'NUMBER'
p2407
sg10
Nsg24
NsbsS'vatican'
p2408
g0
(g1
g2
Ntp2409
Rp2410
(dp2411
g6
Nsg8
S'PERSON'
p2412
sg10
Nsg24
NsbsS'meters'
p2413
g0
(g1
g2
Ntp2414
Rp2415
(dp2416
g6
Nsg8
S'NUMBER'
p2417
sg10
Nsg24
NsbsS'stages'
p2418
g0
(g1
g2
Ntp2419
Rp2420
(dp2421
g6
Nsg8
S'OTHER'
p2422
sg10
Nsg24
NsbsS'passenger'
p2423
g0
(g1
g2
Ntp2424
Rp2425
(dp2426
g6
Nsg8
S'LOCATION'
p2427
sg10
Nsg24
NsbsS'moore'
p2428
g0
(g1
g2
Ntp2429
Rp2430
(dp2431
g6
Nsg8
S'PERSON'
p2432
sg10
Nsg24
NsbsS'classic'
p2433
g0
(g1
g2
Ntp2434
Rp2435
(dp2436
g6
Nsg8
S'OTHER'
p2437
sg10
Nsg24
NsbsS'tesla'
p2438
g0
(g1
g2
Ntp2439
Rp2440
(dp2441
g6
Nsg8
S'LOCATION'
p2442
sg10
Nsg24
NsbsS'abstract'
p2443
g0
(g1
g2
Ntp2444
Rp2445
(dp2446
g6
Nsg8
S'LOCATION'
p2447
sg10
Nsg24
NsbsS'gland'
p2448
g0
(g1
g2
Ntp2449
Rp2450
(dp2451
g6
Nsg8
S'OTHER'
p2452
sg10
Nsg24
NsbsS'ship'
p2453
g0
(g1
g2
Ntp2454
Rp2455
(dp2456
g6
Nsg8
S'OTHER'
p2457
sg10
Nsg24
NsbsS'distributions'
p2458
g0
(g1
g2
Ntp2459
Rp2460
(dp2461
g6
Nsg8
S'LOCATION'
p2462
sg10
Nsg24
NsbsS'nnp'
p2463
g0
(g1
g2
Ntp2464
Rp2465
(dp2466
g6
Nsg8
S'PERSON'
p2467
sg10
Nsg24
NsbsS'dumpty'
p2468
g0
(g1
g2
Ntp2469
Rp2470
(dp2471
g6
Nsg8
S'PERSON'
p2472
sg10
Nsg24
NsbsS'actor'
p2473
g0
(g1
g2
Ntp2474
Rp2475
(dp2476
g6
Nsg8
S'PERSON'
p2477
sg10
Nsg24
NsbsS'website'
p2478
g0
(g1
g2
Ntp2479
Rp2480
(dp2481
g6
Nsg8
S'LOCATION'
p2482
sg10
Nsg24
NsbsS'flood'
p2483
g0
(g1
g2
Ntp2484
Rp2485
(dp2486
g6
Nsg8
S'DATE'
p2487
sg10
Nsg24
NsbsS'pickering'
p2488
g0
(g1
g2
Ntp2489
Rp2490
(dp2491
g6
Nsg8
S'PERSON'
p2492
sg10
Nsg24
NsbsS'republic'
p2493
g0
(g1
g2
Ntp2494
Rp2495
(dp2496
g6
Nsg8
S'LOCATION'
p2497
sg10
Nsg24
NsbsS'test'
p2498
g0
(g1
g2
Ntp2499
Rp2500
(dp2501
g6
Nsg8
S'DATE'
p2502
sg10
Nsg24
NsbsS'pseudonym'
p2503
g0
(g1
g2
Ntp2504
Rp2505
(dp2506
g6
Nsg8
S'PERSON'
p2507
sg10
Nsg24
NsbsS'brothers'
p2508
g0
(g1
g2
Ntp2509
Rp2510
(dp2511
g6
g16
sg8
S'NUMBER'
p2512
sg10
(dp2513
S'how'
p2514
g0
(g1
g2
Ntp2515
Rp2516
(dp2517
g6
Nsg8
g2512
sg10
Nsg24
NsbsS'what'
p2518
g0
(g1
g2
Ntp2519
Rp2520
(dp2521
g6
Nsg8
S'OTHER'
p2522
sg10
Nsg24
NsbsS'who'
p2523
g0
(g1
g2
Ntp2524
Rp2525
(dp2526
g6
Nsg8
S'PERSON'
p2527
sg10
Nsg24
NsbsS'where'
p2528
g0
(g1
g2
Ntp2529
Rp2530
(dp2531
g6
Nsg8
S'LOCATION'
p2532
sg10
Nsg24
NsbsS'name'
p2533
g0
(g1
g2
Ntp2534
Rp2535
(dp2536
g6
Nsg8
S'PERSON'
p2537
sg10
Nsg24
Nsbssg24
NsbsS'juices'
p2538
g0
(g1
g2
Ntp2539
Rp2540
(dp2541
g6
Nsg8
S'NUMBER'
p2542
sg10
Nsg24
NsbsS'reign'
p2543
g0
(g1
g2
Ntp2544
Rp2545
(dp2546
g6
Nsg8
S'PERSON'
p2547
sg10
Nsg24
NsbsS'weekend'
p2548
g0
(g1
g2
Ntp2549
Rp2550
(dp2551
g6
Nsg8
S'DATE'
p2552
sg10
Nsg24
NsbsS'airman'
p2553
g0
(g1
g2
Ntp2554
Rp2555
(dp2556
g6
Nsg8
S'PERSON'
p2557
sg10
Nsg24
NsbsS'jones'
p2558
g0
(g1
g2
Ntp2559
Rp2560
(dp2561
g6
Nsg8
S'PERSON'
p2562
sg10
Nsg24
NsbsS'glass'
p2563
g0
(g1
g2
Ntp2564
Rp2565
(dp2566
g6
Nsg8
S'OTHER'
p2567
sg10
Nsg24
NsbsS'coastlines'
p2568
g0
(g1
g2
Ntp2569
Rp2570
(dp2571
g6
Nsg8
S'LOCATION'
p2572
sg10
Nsg24
NsbsS'ottawa'
p2573
g0
(g1
g2
Ntp2574
Rp2575
(dp2576
g6
Nsg8
S'PERSON'
p2577
sg10
Nsg24
NsbsS'fastener'
p2578
g0
(g1
g2
Ntp2579
Rp2580
(dp2581
g6
Nsg8
S'OTHER'
p2582
sg10
Nsg24
NsbsS'almanac'
p2583
g0
(g1
g2
Ntp2584
Rp2585
(dp2586
g6
Nsg8
S'PERSON'
p2587
sg10
Nsg24
NsbsS'time'
p2588
g0
(g1
g2
Ntp2589
Rp2590
(dp2591
g6
g16
sg8
S'NUMBER'
p2592
sg10
(dp2593
S'on'
p2594
g0
(g1
g2
Ntp2595
Rp2596
(dp2597
g6
Nsg8
S'TIME'
p2598
sg10
Nsg24
NsbsS'what'
p2599
g0
(g1
g2
Ntp2600
Rp2601
(dp2602
g6
Nsg8
S'TIME'
p2603
sg10
Nsg24
NsbsS'how'
p2604
g0
(g1
g2
Ntp2605
Rp2606
(dp2607
g6
Nsg8
g2592
sg10
Nsg24
Nsbssg24
NsbsS'songs'
p2608
g0
(g1
g2
Ntp2609
Rp2610
(dp2611
g6
Nsg8
S'OTHER'
p2612
sg10
Nsg24
NsbsS'coach'
p2613
g0
(g1
g2
Ntp2614
Rp2615
(dp2616
g6
Nsg8
S'PERSON'
p2617
sg10
Nsg24
NsbsS'chain'
p2618
g0
(g1
g2
Ntp2619
Rp2620
(dp2621
g6
Nsg8
S'PERSON'
p2622
sg10
Nsg24
NsbsS'jolson'
p2623
g0
(g1
g2
Ntp2624
Rp2625
(dp2626
g6
Nsg8
S'PERSON'
p2627
sg10
Nsg24
NsbsS'themes'
p2628
g0
(g1
g2
Ntp2629
Rp2630
(dp2631
g6
Nsg8
S'PERSON'
p2632
sg10
Nsg24
NsbsS'crocodile'
p2633
g0
(g1
g2
Ntp2634
Rp2635
(dp2636
g6
Nsg8
S'OTHER'
p2637
sg10
Nsg24
NsbsS'manager'
p2638
g0
(g1
g2
Ntp2639
Rp2640
(dp2641
g6
Nsg8
S'PERSON'
p2642
sg10
Nsg24
NsbsS'skin'
p2643
g0
(g1
g2
Ntp2644
Rp2645
(dp2646
g6
Nsg8
S'OTHER'
p2647
sg10
Nsg24
NsbsS'battle'
p2648
g0
(g1
g2
Ntp2649
Rp2650
(dp2651
g6
g16
sg8
S'OTHER'
p2652
sg10
(dp2653
S'when'
p2654
g0
(g1
g2
Ntp2655
Rp2656
(dp2657
g6
Nsg8
S'DATE'
p2658
sg10
Nsg24
NsbsS'what'
p2659
g0
(g1
g2
Ntp2660
Rp2661
(dp2662
g6
Nsg8
S'OTHER'
p2663
sg10
Nsg24
NsbsS'who'
p2664
g0
(g1
g2
Ntp2665
Rp2666
(dp2667
g6
Nsg8
S'PERSON'
p2668
sg10
Nsg24
NsbsS'where'
p2669
g0
(g1
g2
Ntp2670
Rp2671
(dp2672
g6
Nsg8
S'LOCATION'
p2673
sg10
Nsg24
Nsbssg24
NsbsS'mill'
p2674
g0
(g1
g2
Ntp2675
Rp2676
(dp2677
g6
Nsg8
S'DATE'
p2678
sg10
Nsg24
NsbsS'layers'
p2679
g0
(g1
g2
Ntp2680
Rp2681
(dp2682
g6
Nsg8
S'NUMBER'
p2683
sg10
Nsg24
NsbsS'technique'
p2684
g0
(g1
g2
Ntp2685
Rp2686
(dp2687
g6
Nsg8
S'OTHER'
p2688
sg10
Nsg24
NsbsS'father'
p2689
g0
(g1
g2
Ntp2690
Rp2691
(dp2692
g6
Nsg8
S'PERSON'
p2693
sg10
Nsg24
NsbsS'terror'
p2694
g0
(g1
g2
Ntp2695
Rp2696
(dp2697
g6
Nsg8
S'OTHER'
p2698
sg10
Nsg24
NsbsS'vegas'
p2699
g0
(g1
g2
Ntp2700
Rp2701
(dp2702
g6
Nsg8
S'LOCATION'
p2703
sg10
Nsg24
NsbsS'clouds'
p2704
g0
(g1
g2
Ntp2705
Rp2706
(dp2707
g6
Nsg8
S'OTHER'
p2708
sg10
Nsg24
NsbsS'level'
p2709
g0
(g1
g2
Ntp2710
Rp2711
(dp2712
g6
Nsg8
S'OTHER'
p2713
sg10
Nsg24
NsbsS'macdowell'
p2714
g0
(g1
g2
Ntp2715
Rp2716
(dp2717
g6
Nsg8
S'PERSON'
p2718
sg10
Nsg24
NsbsS'brother'
p2719
g0
(g1
g2
Ntp2720
Rp2721
(dp2722
g6
Nsg8
S'PERSON'
p2723
sg10
Nsg24
NsbsS'belushi'
p2724
g0
(g1
g2
Ntp2725
Rp2726
(dp2727
g6
Nsg8
S'OTHER'
p2728
sg10
Nsg24
NsbsS'team'
p2729
g0
(g1
g2
Ntp2730
Rp2731
(dp2732
g6
g16
sg8
S'PERSON'
p2733
sg10
(dp2734
S'what'
p2735
g0
(g1
g2
Ntp2736
Rp2737
(dp2738
g6
Nsg8
S'PERSON'
p2739
sg10
Nsg24
NsbsS'who'
p2740
g0
(g1
g2
Ntp2741
Rp2742
(dp2743
g6
Nsg8
S'PERSON'
p2744
sg10
Nsg24
NsbsS'where'
p2745
g0
(g1
g2
Ntp2746
Rp2747
(dp2748
g6
Nsg8
S'LOCATION'
p2749
sg10
Nsg24
NsbsS'name'
p2750
g0
(g1
g2
Ntp2751
Rp2752
(dp2753
g6
Nsg8
S'PERSON'
p2754
sg10
Nsg24
NsbsS'which'
p2755
g0
(g1
g2
Ntp2756
Rp2757
(dp2758
g6
Nsg8
S'PERSON'
p2759
sg10
Nsg24
Nsbssg24
NsbsS'guy'
p2760
g0
(g1
g2
Ntp2761
Rp2762
(dp2763
g6
Nsg8
S'PERSON'
p2764
sg10
Nsg24
NsbsS'stingers'
p2765
g0
(g1
g2
Ntp2766
Rp2767
(dp2768
g6
Nsg8
S'OTHER'
p2769
sg10
Nsg24
NsbsS'olympic'
p2770
g0
(g1
g2
Ntp2771
Rp2772
(dp2773
g6
Nsg8
S'OTHER'
p2774
sg10
Nsg24
NsbsS'villi'
p2775
g0
(g1
g2
Ntp2776
Rp2777
(dp2778
g6
Nsg8
S'NUMBER'
p2779
sg10
Nsg24
NsbsS'sign'
p2780
g0
(g1
g2
Ntp2781
Rp2782
(dp2783
g6
Nsg8
S'OTHER'
p2784
sg10
Nsg24
NsbsS'cost'
p2785
g0
(g1
g2
Ntp2786
Rp2787
(dp2788
g6
Nsg8
S'MONEY'
p2789
sg10
Nsg24
NsbsS'drinks'
p2790
g0
(g1
g2
Ntp2791
Rp2792
(dp2793
g6
Nsg8
S'LOCATION'
p2794
sg10
Nsg24
NsbsS'hymn'
p2795
g0
(g1
g2
Ntp2796
Rp2797
(dp2798
g6
Nsg8
S'OTHER'
p2799
sg10
Nsg24
NsbsS'constitution'
p2800
g0
(g1
g2
Ntp2801
Rp2802
(dp2803
g6
Nsg8
S'OTHER'
p2804
sg10
Nsg24
NsbsS'barbie'
p2805
g0
(g1
g2
Ntp2806
Rp2807
(dp2808
g6
Nsg8
S'DATE'
p2809
sg10
Nsg24
NsbsS'goes'
p2810
g0
(g1
g2
Ntp2811
Rp2812
(dp2813
g6
Nsg8
S'LOCATION'
p2814
sg10
Nsg24
NsbsS'tarantula'
p2815
g0
(g1
g2
Ntp2816
Rp2817
(dp2818
g6
Nsg8
S'OTHER'
p2819
sg10
Nsg24
NsbsS'badge'
p2820
g0
(g1
g2
Ntp2821
Rp2822
(dp2823
g6
Nsg8
S'PERSON'
p2824
sg10
Nsg24
NsbsS'dwarf'
p2825
g0
(g1
g2
Ntp2826
Rp2827
(dp2828
g6
Nsg8
S'LOCATION'
p2829
sg10
Nsg24
NsbsS'funeral'
p2830
g0
(g1
g2
Ntp2831
Rp2832
(dp2833
g6
Nsg8
S'PERSON'
p2834
sg10
Nsg24
NsbsS'makeup'
p2835
g0
(g1
g2
Ntp2836
Rp2837
(dp2838
g6
Nsg8
S'LOCATION'
p2839
sg10
Nsg24
NsbsS'french'
p2840
g0
(g1
g2
Ntp2841
Rp2842
(dp2843
g6
Nsg8
S'OTHER'
p2844
sg10
Nsg24
NsbsS'lakes'
p2845
g0
(g1
g2
Ntp2846
Rp2847
(dp2848
g6
Nsg8
S'NUMBER'
p2849
sg10
Nsg24
NsbsS'dubliners'
p2850
g0
(g1
g2
Ntp2851
Rp2852
(dp2853
g6
Nsg8
S'PERSON'
p2854
sg10
Nsg24
NsbsS'witch'
p2855
g0
(g1
g2
Ntp2856
Rp2857
(dp2858
g6
Nsg8
S'PERSON'
p2859
sg10
Nsg24
NsbsS'groups'
p2860
g0
(g1
g2
Ntp2861
Rp2862
(dp2863
g6
g16
sg8
S'PERSON'
p2864
sg10
(dp2865
S'what'
p2866
g0
(g1
g2
Ntp2867
Rp2868
(dp2869
g6
Nsg8
g2864
sg10
Nsg24
NsbsS'where'
p2870
g0
(g1
g2
Ntp2871
Rp2872
(dp2873
g6
Nsg8
S'LOCATION'
p2874
sg10
Nsg24
Nsbssg24
NsbsS'address'
p2875
g0
(g1
g2
Ntp2876
Rp2877
(dp2878
g6
Nsg8
S'LOCATION'
p2879
sg10
Nsg24
NsbsS'goldfish'
p2880
g0
(g1
g2
Ntp2881
Rp2882
(dp2883
g6
Nsg8
S'OTHER'
p2884
sg10
Nsg24
NsbsS'benson'
p2885
g0
(g1
g2
Ntp2886
Rp2887
(dp2888
g6
Nsg8
S'PERSON'
p2889
sg10
Nsg24
NsbsS'institute'
p2890
g0
(g1
g2
Ntp2891
Rp2892
(dp2893
g6
Nsg8
S'LOCATION'
p2894
sg10
Nsg24
NsbsS'franklin'
p2895
g0
(g1
g2
Ntp2896
Rp2897
(dp2898
g6
Nsg8
S'OTHER'
p2899
sg10
Nsg24
NsbsS'birthstone'
p2900
g0
(g1
g2
Ntp2901
Rp2902
(dp2903
g6
Nsg8
S'OTHER'
p2904
sg10
Nsg24
NsbsS'italians'
p2905
g0
(g1
g2
Ntp2906
Rp2907
(dp2908
g6
Nsg8
S'OTHER'
p2909
sg10
Nsg24
NsbsS'trinidad'
p2910
g0
(g1
g2
Ntp2911
Rp2912
(dp2913
g6
Nsg8
S'LOCATION'
p2914
sg10
Nsg24
NsbsS'flavors'
p2915
g0
(g1
g2
Ntp2916
Rp2917
(dp2918
g6
Nsg8
S'NUMBER'
p2919
sg10
Nsg24
NsbsS'troops'
p2920
g0
(g1
g2
Ntp2921
Rp2922
(dp2923
g6
Nsg8
S'DATE'
p2924
sg10
Nsg24
NsbsS'wonderbra'
p2925
g0
(g1
g2
Ntp2926
Rp2927
(dp2928
g6
Nsg8
S'PERSON'
p2929
sg10
Nsg24
NsbsS'films'
p2930
g0
(g1
g2
Ntp2931
Rp2932
(dp2933
g6
g16
sg8
S'NUMBER'
p2934
sg10
(dp2935
S'how'
p2936
g0
(g1
g2
Ntp2937
Rp2938
(dp2939
g6
Nsg8
S'NUMBER'
p2940
sg10
Nsg24
NsbsS'what'
p2941
g0
(g1
g2
Ntp2942
Rp2943
(dp2944
g6
Nsg8
S'OTHER'
p2945
sg10
Nsg24
Nsbssg24
NsbsS'sonnets'
p2946
g0
(g1
g2
Ntp2947
Rp2948
(dp2949
g6
Nsg8
S'NUMBER'
p2950
sg10
Nsg24
NsbsS'angels'
p2951
g0
(g1
g2
Ntp2952
Rp2953
(dp2954
g6
Nsg8
S'PERSON'
p2955
sg10
Nsg24
NsbsS'today'
p2956
g0
(g1
g2
Ntp2957
Rp2958
(dp2959
g6
Nsg8
S'NUMBER'
p2960
sg10
Nsg24
NsbsS'rios'
p2961
g0
(g1
g2
Ntp2962
Rp2963
(dp2964
g6
Nsg8
S'LOCATION'
p2965
sg10
Nsg24
NsbsS'stradivarius'
p2966
g0
(g1
g2
Ntp2967
Rp2968
(dp2969
g6
Nsg8
S'NUMBER'
p2970
sg10
Nsg24
NsbsS'club'
p2971
g0
(g1
g2
Ntp2972
Rp2973
(dp2974
g6
Nsg8
S'OTHER'
p2975
sg10
Nsg24
NsbsS'chocolate'
p2976
g0
(g1
g2
Ntp2977
Rp2978
(dp2979
g6
g16
sg8
S'PERSON'
p2980
sg10
(dp2981
S'what'
p2982
g0
(g1
g2
Ntp2983
Rp2984
(dp2985
g6
Nsg8
g2980
sg10
Nsg24
NsbsS'where'
p2986
g0
(g1
g2
Ntp2987
Rp2988
(dp2989
g6
Nsg8
S'LOCATION'
p2990
sg10
Nsg24
Nsbssg24
NsbsS'slinky'
p2991
g0
(g1
g2
Ntp2992
Rp2993
(dp2994
g6
Nsg8
S'DATE'
p2995
sg10
Nsg24
NsbsS'mascot'
p2996
g0
(g1
g2
Ntp2997
Rp2998
(dp2999
g6
Nsg8
S'OTHER'
p3000
sg10
Nsg24
NsbsS'car'
p3001
g0
(g1
g2
Ntp3002
Rp3003
(dp3004
g6
g16
sg8
S'OTHER'
p3005
sg10
(dp3006
S'what'
p3007
g0
(g1
g2
Ntp3008
Rp3009
(dp3010
g6
Nsg8
S'OTHER'
p3011
sg10
Nsg24
NsbsS'which'
p3012
g0
(g1
g2
Ntp3013
Rp3014
(dp3015
g6
Nsg8
S'PERSON'
p3016
sg10
Nsg24
Nsbssg24
NsbsS'confucius'
p3017
g0
(g1
g2
Ntp3018
Rp3019
(dp3020
g6
Nsg8
S'PERSON'
p3021
sg10
Nsg24
NsbsS'longitude'
p3022
g0
(g1
g2
Ntp3023
Rp3024
(dp3025
g6
Nsg8
S'NUMBER'
p3026
sg10
Nsg24
NsbsS'goodall'
p3027
g0
(g1
g2
Ntp3028
Rp3029
(dp3030
g6
Nsg8
S'PERSON'
p3031
sg10
Nsg24
NsbsS'best-seller'
p3032
g0
(g1
g2
Ntp3033
Rp3034
(dp3035
g6
Nsg8
S'OTHER'
p3036
sg10
Nsg24
NsbsS'spy'
p3037
g0
(g1
g2
Ntp3038
Rp3039
(dp3040
g6
Nsg8
S'PERSON'
p3041
sg10
Nsg24
NsbsS'performer'
p3042
g0
(g1
g2
Ntp3043
Rp3044
(dp3045
g6
Nsg8
S'PERSON'
p3046
sg10
Nsg24
NsbsS'figure'
p3047
g0
(g1
g2
Ntp3048
Rp3049
(dp3050
g6
Nsg8
S'PERSON'
p3051
sg10
Nsg24
NsbsS'chip'
p3052
g0
(g1
g2
Ntp3053
Rp3054
(dp3055
g6
Nsg8
S'OTHER'
p3056
sg10
Nsg24
NsbsS'teaspoons'
p3057
g0
(g1
g2
Ntp3058
Rp3059
(dp3060
g6
Nsg8
S'NUMBER'
p3061
sg10
Nsg24
NsbsS'stroke'
p3062
g0
(g1
g2
Ntp3063
Rp3064
(dp3065
g6
Nsg8
S'OTHER'
p3066
sg10
Nsg24
NsbsS'chemical'
p3067
g0
(g1
g2
Ntp3068
Rp3069
(dp3070
g6
Nsg8
S'OTHER'
p3071
sg10
Nsg24
NsbsS'cardinal'
p3072
g0
(g1
g2
Ntp3073
Rp3074
(dp3075
g6
Nsg8
S'PERSON'
p3076
sg10
Nsg24
NsbsS'skater'
p3077
g0
(g1
g2
Ntp3078
Rp3079
(dp3080
g6
Nsg8
S'PERSON'
p3081
sg10
Nsg24
NsbsS'pins'
p3082
g0
(g1
g2
Ntp3083
Rp3084
(dp3085
g6
Nsg8
S'NUMBER'
p3086
sg10
Nsg24
NsbsS'spielberg'
p3087
g0
(g1
g2
Ntp3088
Rp3089
(dp3090
g6
Nsg8
S'DATE'
p3091
sg10
Nsg24
NsbsS'designer'
p3092
g0
(g1
g2
Ntp3093
Rp3094
(dp3095
g6
Nsg8
S'PERSON'
p3096
sg10
Nsg24
NsbsS'explorer'
p3097
g0
(g1
g2
Ntp3098
Rp3099
(dp3100
g6
g16
sg8
S'PERSON'
p3101
sg10
(dp3102
S'what'
p3103
g0
(g1
g2
Ntp3104
Rp3105
(dp3106
g6
Nsg8
S'PERSON'
p3107
sg10
Nsg24
NsbsS'where'
p3108
g0
(g1
g2
Ntp3109
Rp3110
(dp3111
g6
Nsg8
S'LOCATION'
p3112
sg10
Nsg24
Nsbssg24
NsbsS'cocktail'
p3113
g0
(g1
g2
Ntp3114
Rp3115
(dp3116
g6
Nsg8
S'OTHER'
p3117
sg10
Nsg24
NsbsS'may'
p3118
g0
(g1
g2
Ntp3119
Rp3120
(dp3121
g6
Nsg8
S'OTHER'
p3122
sg10
Nsg24
NsbsS'clone'
p3123
g0
(g1
g2
Ntp3124
Rp3125
(dp3126
g6
Nsg8
S'OTHER'
p3127
sg10
Nsg24
NsbsS'rites'
p3128
g0
(g1
g2
Ntp3129
Rp3130
(dp3131
g6
Nsg8
S'OTHER'
p3132
sg10
Nsg24
NsbsS'conjugations'
p3133
g0
(g1
g2
Ntp3134
Rp3135
(dp3136
g6
Nsg8
S'OTHER'
p3137
sg10
Nsg24
NsbsS'birthday'
p3138
g0
(g1
g2
Ntp3139
Rp3140
(dp3141
g6
Nsg8
S'DATE'
p3142
sg10
Nsg24
NsbsS'date'
p3143
g0
(g1
g2
Ntp3144
Rp3145
(dp3146
g6
Nsg8
S'DATE'
p3147
sg10
Nsg24
NsbsS'man'
p3148
g0
(g1
g2
Ntp3149
Rp3150
(dp3151
g6
g16
sg8
S'PERSON'
p3152
sg10
(dp3153
S'what'
p3154
g0
(g1
g2
Ntp3155
Rp3156
(dp3157
g6
Nsg8
S'OTHER'
p3158
sg10
Nsg24
NsbsS'who'
p3159
g0
(g1
g2
Ntp3160
Rp3161
(dp3162
g6
Nsg8
S'PERSON'
p3163
sg10
Nsg24
NsbsS'when'
p3164
g0
(g1
g2
Ntp3165
Rp3166
(dp3167
g6
Nsg8
S'DATE'
p3168
sg10
Nsg24
Nsbssg24
NsbsS'surfing'
p3169
g0
(g1
g2
Ntp3170
Rp3171
(dp3172
g6
Nsg8
S'LOCATION'
p3173
sg10
Nsg24
NsbsS'noun'
p3174
g0
(g1
g2
Ntp3175
Rp3176
(dp3177
g6
Nsg8
S'OTHER'
p3178
sg10
Nsg24
NsbsS'commodity'
p3179
g0
(g1
g2
Ntp3180
Rp3181
(dp3182
g6
Nsg8
S'OTHER'
p3183
sg10
Nsg24
NsbsS'tale'
p3184
g0
(g1
g2
Ntp3185
Rp3186
(dp3187
g6
Nsg8
S'OTHER'
p3188
sg10
Nsg24
NsbsS'nebbish'
p3189
g0
(g1
g2
Ntp3190
Rp3191
(dp3192
g6
Nsg8
S'PERSON'
p3193
sg10
Nsg24
NsbsS'no.'
p3194
g0
(g1
g2
Ntp3195
Rp3196
(dp3197
g6
Nsg8
S'PERSON'
p3198
sg10
Nsg24
NsbsS'cathedral'
p3199
g0
(g1
g2
Ntp3200
Rp3201
(dp3202
g6
Nsg8
S'LOCATION'
p3203
sg10
Nsg24
NsbsS'years'
p3204
g0
(g1
g2
Ntp3205
Rp3206
(dp3207
g6
Nsg8
S'NUMBER'
p3208
sg10
Nsg24
NsbsS'course'
p3209
g0
(g1
g2
Ntp3210
Rp3211
(dp3212
g6
Nsg8
S'OTHER'
p3213
sg10
Nsg24
NsbsS'magoo'
p3214
g0
(g1
g2
Ntp3215
Rp3216
(dp3217
g6
Nsg8
S'OTHER'
p3218
sg10
Nsg24
NsbsS'birds'
p3219
g0
(g1
g2
Ntp3220
Rp3221
(dp3222
g6
Nsg8
S'OTHER'
p3223
sg10
Nsg24
NsbsS'self-portrait'
p3224
g0
(g1
g2
Ntp3225
Rp3226
(dp3227
g6
Nsg8
S'PERSON'
p3228
sg10
Nsg24
NsbsS'group'
p3229
g0
(g1
g2
Ntp3230
Rp3231
(dp3232
g6
g16
sg8
S'PERSON'
p3233
sg10
(dp3234
S'what'
p3235
g0
(g1
g2
Ntp3236
Rp3237
(dp3238
g6
Nsg8
S'PERSON'
p3239
sg10
Nsg24
NsbsS'when'
p3240
g0
(g1
g2
Ntp3241
Rp3242
(dp3243
g6
Nsg8
S'DATE'
p3244
sg10
Nsg24
Nsbssg24
NsbsS'forms'
p3245
g0
(g1
g2
Ntp3246
Rp3247
(dp3248
g6
Nsg8
S'OTHER'
p3249
sg10
Nsg24
NsbsS'window'
p3250
g0
(g1
g2
Ntp3251
Rp3252
(dp3253
g6
Nsg8
S'DATE'
p3254
sg10
Nsg24
NsbsS'dwarfs'
p3255
g0
(g1
g2
Ntp3256
Rp3257
(dp3258
g6
Nsg8
S'PERSON'
p3259
sg10
Nsg24
NsbsS'norway'
p3260
g0
(g1
g2
Ntp3261
Rp3262
(dp3263
g6
Nsg8
S'PERSON'
p3264
sg10
Nsg24
NsbsS'killer'
p3265
g0
(g1
g2
Ntp3266
Rp3267
(dp3268
g6
Nsg8
S'OTHER'
p3269
sg10
Nsg24
NsbsS'amendements'
p3270
g0
(g1
g2
Ntp3271
Rp3272
(dp3273
g6
Nsg8
S'OTHER'
p3274
sg10
Nsg24
NsbsS'nation'
p3275
g0
(g1
g2
Ntp3276
Rp3277
(dp3278
g6
Nsg8
S'LOCATION'
p3279
sg10
Nsg24
NsbsS'term'
p3280
g0
(g1
g2
Ntp3281
Rp3282
(dp3283
g6
Nsg8
S'OTHER'
p3284
sg10
Nsg24
NsbsS'attorneys'
p3285
g0
(g1
g2
Ntp3286
Rp3287
(dp3288
g6
Nsg8
S'PERSON'
p3289
sg10
Nsg24
NsbsS'name'
p3290
g0
(g1
g2
Ntp3291
Rp3292
(dp3293
g6
g16
sg8
S'OTHER'
p3294
sg10
(dp3295
S'what'
p3296
g0
(g1
g2
Ntp3297
Rp3298
(dp3299
g6
Nsg8
S'PERSON'
p3300
sg10
Nsg24
NsbsS'when'
p3301
g0
(g1
g2
Ntp3302
Rp3303
(dp3304
g6
Nsg8
S'PERSON'
p3305
sg10
Nsg24
NsbsS'mississippi'
p3306
g0
(g1
g2
Ntp3307
Rp3308
(dp3309
g6
Nsg8
S'LOCATION'
p3310
sg10
Nsg24
Nsbssg24
NsbsS'opera'
p3311
g0
(g1
g2
Ntp3312
Rp3313
(dp3314
g6
Nsg8
S'OTHER'
p3315
sg10
Nsg24
NsbsS'january'
p3316
g0
(g1
g2
Ntp3317
Rp3318
(dp3319
g6
Nsg8
S'OTHER'
p3320
sg10
Nsg24
NsbsS'bowling'
p3321
g0
(g1
g2
Ntp3322
Rp3323
(dp3324
g6
Nsg8
S'PERSON'
p3325
sg10
Nsg24
NsbsS'concerts'
p3326
g0
(g1
g2
Ntp3327
Rp3328
(dp3329
g6
Nsg8
S'OTHER'
p3330
sg10
Nsg24
NsbsS'square'
p3331
g0
(g1
g2
Ntp3332
Rp3333
(dp3334
g6
Nsg8
S'LOCATION'
p3335
sg10
Nsg24
NsbsS'ailment'
p3336
g0
(g1
g2
Ntp3337
Rp3338
(dp3339
g6
Nsg8
S'OTHER'
p3340
sg10
Nsg24
NsbsS'cyberspace'
p3341
g0
(g1
g2
Ntp3342
Rp3343
(dp3344
g6
Nsg8
S'PERSON'
p3345
sg10
Nsg24
NsbsS'kane'
p3346
g0
(g1
g2
Ntp3347
Rp3348
(dp3349
g6
Nsg8
S'PERSON'
p3350
sg10
Nsg24
NsbsS'year'
p3351
g0
(g1
g2
Ntp3352
Rp3353
(dp3354
g6
g16
sg8
S'DATE'
p3355
sg10
(dp3356
S'how'
p3357
g0
(g1
g2
Ntp3358
Rp3359
(dp3360
g6
Nsg8
S'NUMBER'
p3361
sg10
Nsg24
NsbsS'what'
p3362
g0
(g1
g2
Ntp3363
Rp3364
(dp3365
g6
Nsg8
S'DATE'
p3366
sg10
Nsg24
NsbsS'when'
p3367
g0
(g1
g2
Ntp3368
Rp3369
(dp3370
g6
Nsg8
S'DATE'
p3371
sg10
Nsg24
NsbsS'hitler'
p3372
g0
(g1
g2
Ntp3373
Rp3374
(dp3375
g6
Nsg8
S'DATE'
p3376
sg10
Nsg24
NsbsS'in'
p3377
g0
(g1
g2
Ntp3378
Rp3379
(dp3380
g6
Nsg8
S'DATE'
p3381
sg10
Nsg24
Nsbssg24
NsbsS'girl'
p3382
g0
(g1
g2
Ntp3383
Rp3384
(dp3385
g6
Nsg8
S'PERSON'
p3386
sg10
Nsg24
NsbsS'ribavirin'
p3387
g0
(g1
g2
Ntp3388
Rp3389
(dp3390
g6
Nsg8
S'OTHER'
p3391
sg10
Nsg24
NsbsS'album'
p3392
g0
(g1
g2
Ntp3393
Rp3394
(dp3395
g6
Nsg8
S'OTHER'
p3396
sg10
Nsg24
NsbsS'increase'
p3397
g0
(g1
g2
Ntp3398
Rp3399
(dp3400
g6
Nsg8
S'MONEY'
p3401
sg10
Nsg24
NsbsS'opener'
p3402
g0
(g1
g2
Ntp3403
Rp3404
(dp3405
g6
Nsg8
S'PERSON'
p3406
sg10
Nsg24
NsbsS'cobb'
p3407
g0
(g1
g2
Ntp3408
Rp3409
(dp3410
g6
Nsg8
S'LOCATION'
p3411
sg10
Nsg24
NsbsS'formula'
p3412
g0
(g1
g2
Ntp3413
Rp3414
(dp3415
g6
Nsg8
S'OTHER'
p3416
sg10
Nsg24
NsbsS'squares'
p3417
g0
(g1
g2
Ntp3418
Rp3419
(dp3420
g6
Nsg8
S'NUMBER'
p3421
sg10
Nsg24
NsbsS'maneuver'
p3422
g0
(g1
g2
Ntp3423
Rp3424
(dp3425
g6
Nsg8
S'OTHER'
p3426
sg10
Nsg24
NsbsS'theory'
p3427
g0
(g1
g2
Ntp3428
Rp3429
(dp3430
g6
Nsg8
S'PERSON'
p3431
sg10
Nsg24
NsbsS'cars'
p3432
g0
(g1
g2
Ntp3433
Rp3434
(dp3435
g6
Nsg8
S'LOCATION'
p3436
sg10
Nsg24
NsbsS'descendents'
p3437
g0
(g1
g2
Ntp3438
Rp3439
(dp3440
g6
Nsg8
S'OTHER'
p3441
sg10
Nsg24
NsbsS'hulk'
p3442
g0
(g1
g2
Ntp3443
Rp3444
(dp3445
g6
Nsg8
S'PERSON'
p3446
sg10
Nsg24
NsbsS'statistics'
p3447
g0
(g1
g2
Ntp3448
Rp3449
(dp3450
g6
Nsg8
S'NUMBER'
p3451
sg10
Nsg24
NsbsS'plea'
p3452
g0
(g1
g2
Ntp3453
Rp3454
(dp3455
g6
Nsg8
S'PERSON'
p3456
sg10
Nsg24
NsbsS'explorers'
p3457
g0
(g1
g2
Ntp3458
Rp3459
(dp3460
g6
Nsg8
S'PERSON'
p3461
sg10
Nsg24
NsbsS'card'
p3462
g0
(g1
g2
Ntp3463
Rp3464
(dp3465
g6
Nsg8
S'OTHER'
p3466
sg10
Nsg24
NsbsS'watts'
p3467
g0
(g1
g2
Ntp3468
Rp3469
(dp3470
g6
Nsg8
S'NUMBER'
p3471
sg10
Nsg24
NsbsS'hamed'
p3472
g0
(g1
g2
Ntp3473
Rp3474
(dp3475
g6
Nsg8
S'PERSON'
p3476
sg10
Nsg24
NsbsS'language'
p3477
g0
(g1
g2
Ntp3478
Rp3479
(dp3480
g6
Nsg8
S'OTHER'
p3481
sg10
Nsg24
NsbsS'calories'
p3482
g0
(g1
g2
Ntp3483
Rp3484
(dp3485
g6
Nsg8
S'NUMBER'
p3486
sg10
Nsg24
NsbsS'thing'
p3487
g0
(g1
g2
Ntp3488
Rp3489
(dp3490
g6
g16
sg8
S'LOCATION'
p3491
sg10
(dp3492
S'what'
p3493
g0
(g1
g2
Ntp3494
Rp3495
(dp3496
g6
Nsg8
S'OTHER'
p3497
sg10
Nsg24
NsbsS'where'
p3498
g0
(g1
g2
Ntp3499
Rp3500
(dp3501
g6
Nsg8
g3491
sg10
Nsg24
NsbsS'at'
p3502
g0
(g1
g2
Ntp3503
Rp3504
(dp3505
g6
Nsg8
S'OTHER'
p3506
sg10
Nsg24
Nsbssg24
NsbsS'place'
p3507
g0
(g1
g2
Ntp3508
Rp3509
(dp3510
g6
Nsg8
S'LOCATION'
p3511
sg10
Nsg24
NsbsS'gordon'
p3512
g0
(g1
g2
Ntp3513
Rp3514
(dp3515
g6
Nsg8
S'PERSON'
p3516
sg10
Nsg24
NsbsS'romania'
p3517
g0
(g1
g2
Ntp3518
Rp3519
(dp3520
g6
Nsg8
S'LOCATION'
p3521
sg10
Nsg24
NsbsS'damocles'
p3522
g0
(g1
g2
Ntp3523
Rp3524
(dp3525
g6
Nsg8
S'PERSON'
p3526
sg10
Nsg24
NsbsS'americans'
p3527
g0
(g1
g2
Ntp3528
Rp3529
(dp3530
g6
g16
sg8
S'NUMBER'
p3531
sg10
(dp3532
S'how'
p3533
g0
(g1
g2
Ntp3534
Rp3535
(dp3536
g6
Nsg8
S'NUMBER'
p3537
sg10
Nsg24
NsbsS'about'
p3538
g0
(g1
g2
Ntp3539
Rp3540
(dp3541
g6
Nsg8
g3531
sg10
Nsg24
NsbsS'when'
p3542
g0
(g1
g2
Ntp3543
Rp3544
(dp3545
g6
Nsg8
S'DATE'
p3546
sg10
Nsg24
Nsbssg24
NsbsS'message'
p3547
g0
(g1
g2
Ntp3548
Rp3549
(dp3550
g6
Nsg8
S'PERSON'
p3551
sg10
Nsg24
NsbsS'george'
p3552
g0
(g1
g2
Ntp3553
Rp3554
(dp3555
g6
Nsg8
S'LOCATION'
p3556
sg10
Nsg24
NsbsS'engineer'
p3557
g0
(g1
g2
Ntp3558
Rp3559
(dp3560
g6
Nsg8
S'PERSON'
p3561
sg10
Nsg24
NsbsS'city'
p3562
g0
(g1
g2
Ntp3563
Rp3564
(dp3565
g6
Nsg8
S'LOCATION'
p3566
sg10
Nsg24
NsbsS'lap'
p3567
g0
(g1
g2
Ntp3568
Rp3569
(dp3570
g6
Nsg8
S'PERSON'
p3571
sg10
Nsg24
NsbsS'carson'
p3572
g0
(g1
g2
Ntp3573
Rp3574
(dp3575
g6
Nsg8
S'PERSON'
p3576
sg10
Nsg24
NsbsS'williams'
p3577
g0
(g1
g2
Ntp3578
Rp3579
(dp3580
g6
Nsg8
S'PERSON'
p3581
sg10
Nsg24
NsbsS'eyes'
p3582
g0
(g1
g2
Ntp3583
Rp3584
(dp3585
g6
g16
sg8
S'NUMBER'
p3586
sg10
(dp3587
S'how'
p3588
g0
(g1
g2
Ntp3589
Rp3590
(dp3591
g6
Nsg8
g3586
sg10
Nsg24
NsbsS'who'
p3592
g0
(g1
g2
Ntp3593
Rp3594
(dp3595
g6
Nsg8
S'PERSON'
p3596
sg10
Nsg24
Nsbssg24
NsbsS'labianca'
p3597
g0
(g1
g2
Ntp3598
Rp3599
(dp3600
g6
Nsg8
S'PERSON'
p3601
sg10
Nsg24
NsbsS'fraction'
p3602
g0
(g1
g2
Ntp3603
Rp3604
(dp3605
g6
Nsg8
S'PERCENT'
p3606
sg10
Nsg24
NsbsS'season'
p3607
g0
(g1
g2
Ntp3608
Rp3609
(dp3610
g6
Nsg8
S'DATE'
p3611
sg10
Nsg24
NsbsS'montenegro'
p3612
g0
(g1
g2
Ntp3613
Rp3614
(dp3615
g6
Nsg8
S'LOCATION'
p3616
sg10
Nsg24
NsbsS'broadcast'
p3617
g0
(g1
g2
Ntp3618
Rp3619
(dp3620
g6
Nsg8
S'DATE'
p3621
sg10
Nsg24
NsbsS'flowers'
p3622
g0
(g1
g2
Ntp3623
Rp3624
(dp3625
g6
Nsg8
S'OTHER'
p3626
sg10
Nsg24
NsbsS'inventor'
p3627
g0
(g1
g2
Ntp3628
Rp3629
(dp3630
g6
Nsg8
S'PERSON'
p3631
sg10
Nsg24
NsbsS'television'
p3632
g0
(g1
g2
Ntp3633
Rp3634
(dp3635
g6
Nsg8
S'PERSON'
p3636
sg10
Nsg24
NsbsS'cards'
p3637
g0
(g1
g2
Ntp3638
Rp3639
(dp3640
g6
g16
sg8
S'NUMBER'
p3641
sg10
(dp3642
S'how'
p3643
g0
(g1
g2
Ntp3644
Rp3645
(dp3646
g6
Nsg8
S'NUMBER'
p3647
sg10
Nsg24
NsbsS'what'
p3648
g0
(g1
g2
Ntp3649
Rp3650
(dp3651
g6
Nsg8
S'OTHER'
p3652
sg10
Nsg24
Nsbssg24
NsbsS'outcome'
p3653
g0
(g1
g2
Ntp3654
Rp3655
(dp3656
g6
Nsg8
S'OTHER'
p3657
sg10
Nsg24
NsbsS'surname'
p3658
g0
(g1
g2
Ntp3659
Rp3660
(dp3661
g6
Nsg8
S'PERSON'
p3662
sg10
Nsg24
NsbsS'premier'
p3663
g0
(g1
g2
Ntp3664
Rp3665
(dp3666
g6
Nsg8
S'PERSON'
p3667
sg10
Nsg24
NsbsS'locations'
p3668
g0
(g1
g2
Ntp3669
Rp3670
(dp3671
g6
Nsg8
S'OTHER'
p3672
sg10
Nsg24
NsbsS'alley'
p3673
g0
(g1
g2
Ntp3674
Rp3675
(dp3676
g6
Nsg8
S'LOCATION'
p3677
sg10
Nsg24
NsbsS'voices'
p3678
g0
(g1
g2
Ntp3679
Rp3680
(dp3681
g6
Nsg8
S'PERSON'
p3682
sg10
Nsg24
NsbsS'tastes'
p3683
g0
(g1
g2
Ntp3684
Rp3685
(dp3686
g6
Nsg8
S'OTHER'
p3687
sg10
Nsg24
NsbsS'comedian'
p3688
g0
(g1
g2
Ntp3689
Rp3690
(dp3691
g6
Nsg8
S'PERSON'
p3692
sg10
Nsg24
NsbsS'spectacle'
p3693
g0
(g1
g2
Ntp3694
Rp3695
(dp3696
g6
Nsg8
S'OTHER'
p3697
sg10
Nsg24
NsbsS'horsepower'
p3698
g0
(g1
g2
Ntp3699
Rp3700
(dp3701
g6
Nsg8
S'NUMBER'
p3702
sg10
Nsg24
NsbsS'allen'
p3703
g0
(g1
g2
Ntp3704
Rp3705
(dp3706
g6
Nsg8
S'OTHER'
p3707
sg10
Nsg24
NsbsS'handicraft'
p3708
g0
(g1
g2
Ntp3709
Rp3710
(dp3711
g6
Nsg8
S'OTHER'
p3712
sg10
Nsg24
NsbsS'zoo'
p3713
g0
(g1
g2
Ntp3714
Rp3715
(dp3716
g6
Nsg8
S'LOCATION'
p3717
sg10
Nsg24
NsbsS'chefs'
p3718
g0
(g1
g2
Ntp3719
Rp3720
(dp3721
g6
Nsg8
S'OTHER'
p3722
sg10
Nsg24
NsbsS'grammys'
p3723
g0
(g1
g2
Ntp3724
Rp3725
(dp3726
g6
Nsg8
S'NUMBER'
p3727
sg10
Nsg24
NsbsS'price'
p3728
g0
(g1
g2
Ntp3729
Rp3730
(dp3731
g6
Nsg8
S'MONEY'
p3732
sg10
Nsg24
NsbsS'honecker'
p3733
g0
(g1
g2
Ntp3734
Rp3735
(dp3736
g6
Nsg8
S'LOCATION'
p3737
sg10
Nsg24
NsbsS'badu'
p3738
g0
(g1
g2
Ntp3739
Rp3740
(dp3741
g6
Nsg8
S'LOCATION'
p3742
sg10
Nsg24
NsbsS'synonym'
p3743
g0
(g1
g2
Ntp3744
Rp3745
(dp3746
g6
Nsg8
S'OTHER'
p3747
sg10
Nsg24
NsbsS'salt'
p3748
g0
(g1
g2
Ntp3749
Rp3750
(dp3751
g6
Nsg8
S'NUMBER'
p3752
sg10
Nsg24
NsbsS'quantity'
p3753
g0
(g1
g2
Ntp3754
Rp3755
(dp3756
g6
Nsg8
S'NUMBER'
p3757
sg10
Nsg24
NsbsS'detective'
p3758
g0
(g1
g2
Ntp3759
Rp3760
(dp3761
g6
Nsg8
S'PERSON'
p3762
sg10
Nsg24
NsbsS'rating'
p3763
g0
(g1
g2
Ntp3764
Rp3765
(dp3766
g6
Nsg8
S'PERCENT'
p3767
sg10
Nsg24
NsbsS'show'
p3768
g0
(g1
g2
Ntp3769
Rp3770
(dp3771
g6
g16
sg8
S'DATE'
p3772
sg10
(dp3773
S'what'
p3774
g0
(g1
g2
Ntp3775
Rp3776
(dp3777
g6
Nsg8
S'OTHER'
p3778
sg10
Nsg24
NsbsS'when'
p3779
g0
(g1
g2
Ntp3780
Rp3781
(dp3782
g6
Nsg8
g3772
sg10
Nsg24
Nsbssg24
NsbsS'recipe'
p3783
g0
(g1
g2
Ntp3784
Rp3785
(dp3786
g6
Nsg8
S'OTHER'
p3787
sg10
Nsg24
NsbsS'spaces'
p3788
g0
(g1
g2
Ntp3789
Rp3790
(dp3791
g6
Nsg8
S'NUMBER'
p3792
sg10
Nsg24
NsbsS'gulf'
p3793
g0
(g1
g2
Ntp3794
Rp3795
(dp3796
g6
Nsg8
S'LOCATION'
p3797
sg10
Nsg24
NsbsS'title'
p3798
g0
(g1
g2
Ntp3799
Rp3800
(dp3801
g6
Nsg8
S'PERSON'
p3802
sg10
Nsg24
NsbsS'hockey'
p3803
g0
(g1
g2
Ntp3804
Rp3805
(dp3806
g6
Nsg8
S'PERSON'
p3807
sg10
Nsg24
NsbsS'beatles'
p3808
g0
(g1
g2
Ntp3809
Rp3810
(dp3811
g6
Nsg8
S'NUMBER'
p3812
sg10
Nsg24
NsbsS'bocci'
p3813
g0
(g1
g2
Ntp3814
Rp3815
(dp3816
g6
Nsg8
S'LOCATION'
p3817
sg10
Nsg24
NsbsS'jong'
p3818
g0
(g1
g2
Ntp3819
Rp3820
(dp3821
g6
Nsg8
S'OTHER'
p3822
sg10
Nsg24
NsbsS'resource'
p3823
g0
(g1
g2
Ntp3824
Rp3825
(dp3826
g6
Nsg8
S'OTHER'
p3827
sg10
Nsg24
NsbsS'bestselling'
p3828
g0
(g1
g2
Ntp3829
Rp3830
(dp3831
g6
Nsg8
S'PERSON'
p3832
sg10
Nsg24
NsbsS'artist'
p3833
g0
(g1
g2
Ntp3834
Rp3835
(dp3836
g6
Nsg8
S'PERSON'
p3837
sg10
Nsg24
NsbsS'saliva'
p3838
g0
(g1
g2
Ntp3839
Rp3840
(dp3841
g6
Nsg8
S'OTHER'
p3842
sg10
Nsg24
NsbsS'penguins'
p3843
g0
(g1
g2
Ntp3844
Rp3845
(dp3846
g6
Nsg8
S'OTHER'
p3847
sg10
Nsg24
NsbsS'roger'
p3848
g0
(g1
g2
Ntp3849
Rp3850
(dp3851
g6
Nsg8
S'OTHER'
p3852
sg10
Nsg24
NsbsS'husband'
p3853
g0
(g1
g2
Ntp3854
Rp3855
(dp3856
g6
Nsg8
S'PERSON'
p3857
sg10
Nsg24
NsbsS'beethoven'
p3858
g0
(g1
g2
Ntp3859
Rp3860
(dp3861
g6
Nsg8
S'DATE'
p3862
sg10
Nsg24
NsbsS'osbourne'
p3863
g0
(g1
g2
Ntp3864
Rp3865
(dp3866
g6
Nsg8
S'DATE'
p3867
sg10
Nsg24
NsbsS'eriksen'
p3868
g0
(g1
g2
Ntp3869
Rp3870
(dp3871
g6
Nsg8
S'PERSON'
p3872
sg10
Nsg24
NsbsS'seas'
p3873
g0
(g1
g2
Ntp3874
Rp3875
(dp3876
g6
Nsg8
S'LOCATION'
p3877
sg10
Nsg24
NsbsS'cologne'
p3878
g0
(g1
g2
Ntp3879
Rp3880
(dp3881
g6
Nsg8
S'OTHER'
p3882
sg10
Nsg24
NsbsS'college'
p3883
g0
(g1
g2
Ntp3884
Rp3885
(dp3886
g6
g16
sg8
S'NUMBER'
p3887
sg10
(dp3888
S'how'
p3889
g0
(g1
g2
Ntp3890
Rp3891
(dp3892
g6
Nsg8
g3887
sg10
Nsg24
NsbsS'what'
p3893
g0
(g1
g2
Ntp3894
Rp3895
(dp3896
g6
Nsg8
S'PERSON'
p3897
sg10
Nsg24
NsbsS'where'
p3898
g0
(g1
g2
Ntp3899
Rp3900
(dp3901
g6
Nsg8
S'LOCATION'
p3902
sg10
Nsg24
NsbsS'which'
p3903
g0
(g1
g2
Ntp3904
Rp3905
(dp3906
g6
Nsg8
S'PERSON'
p3907
sg10
Nsg24
Nsbssg24
NsbsS'chiropodist'
p3908
g0
(g1
g2
Ntp3909
Rp3910
(dp3911
g6
Nsg8
S'OTHER'
p3912
sg10
Nsg24
NsbsS'seal'
p3913
g0
(g1
g2
Ntp3914
Rp3915
(dp3916
g6
Nsg8
S'OTHER'
p3917
sg10
Nsg24
NsbsS'sport'
p3918
g0
(g1
g2
Ntp3919
Rp3920
(dp3921
g6
g16
sg8
S'OTHER'
p3922
sg10
(dp3923
S'what'
p3924
g0
(g1
g2
Ntp3925
Rp3926
(dp3927
g6
Nsg8
S'OTHER'
p3928
sg10
Nsg24
NsbsS'where'
p3929
g0
(g1
g2
Ntp3930
Rp3931
(dp3932
g6
Nsg8
S'LOCATION'
p3933
sg10
Nsg24
NsbsS'in'
p3934
g0
(g1
g2
Ntp3935
Rp3936
(dp3937
g6
Nsg8
S'OTHER'
p3938
sg10
Nsg24
Nsbssg24
NsbsS'ability'
p3939
g0
(g1
g2
Ntp3940
Rp3941
(dp3942
g6
Nsg8
S'OTHER'
p3943
sg10
Nsg24
NsbsS'ways'
p3944
g0
(g1
g2
Ntp3945
Rp3946
(dp3947
g6
Nsg8
S'OTHER'
p3948
sg10
Nsg24
NsbsS'review'
p3949
g0
(g1
g2
Ntp3950
Rp3951
(dp3952
g6
Nsg8
S'OTHER'
p3953
sg10
Nsg24
NsbsS'sites'
p3954
g0
(g1
g2
Ntp3955
Rp3956
(dp3957
g6
Nsg8
S'LOCATION'
p3958
sg10
Nsg24
NsbsS'bureau'
p3959
g0
(g1
g2
Ntp3960
Rp3961
(dp3962
g6
Nsg8
S'PERSON'
p3963
sg10
Nsg24
NsbsS'diamonds'
p3964
g0
(g1
g2
Ntp3965
Rp3966
(dp3967
g6
Nsg8
S'LOCATION'
p3968
sg10
Nsg24
NsbsS'advertizing'
p3969
g0
(g1
g2
Ntp3970
Rp3971
(dp3972
g6
Nsg8
S'PERSON'
p3973
sg10
Nsg24
NsbsS'guitar'
p3974
g0
(g1
g2
Ntp3975
Rp3976
(dp3977
g6
Nsg8
S'PERSON'
p3978
sg10
Nsg24
NsbsS'awards'
p3979
g0
(g1
g2
Ntp3980
Rp3981
(dp3982
g6
Nsg8
S'DATE'
p3983
sg10
Nsg24
NsbsS'nationality'
p3984
g0
(g1
g2
Ntp3985
Rp3986
(dp3987
g6
Nsg8
S'LOCATION'
p3988
sg10
Nsg24
NsbsS'cities'
p3989
g0
(g1
g2
Ntp3990
Rp3991
(dp3992
g6
g16
sg8
S'LOCATION'
p3993
sg10
(dp3994
S'how'
p3995
g0
(g1
g2
Ntp3996
Rp3997
(dp3998
g6
Nsg8
S'NUMBER'
p3999
sg10
Nsg24
NsbsS'what'
p4000
g0
(g1
g2
Ntp4001
Rp4002
(dp4003
g6
Nsg8
S'LOCATION'
p4004
sg10
Nsg24
Nsbssg24
NsbsS'first-aid'
p4005
g0
(g1
g2
Ntp4006
Rp4007
(dp4008
g6
Nsg8
S'OTHER'
p4009
sg10
Nsg24
NsbsS'jfk'
p4010
g0
(g1
g2
Ntp4011
Rp4012
(dp4013
g6
Nsg8
S'PERSON'
p4014
sg10
Nsg24
NsbsS'dates'
p4015
g0
(g1
g2
Ntp4016
Rp4017
(dp4018
g6
Nsg8
S'DATE'
p4019
sg10
Nsg24
NsbsS'superstar'
p4020
g0
(g1
g2
Ntp4021
Rp4022
(dp4023
g6
Nsg8
S'PERSON'
p4024
sg10
Nsg24
NsbsS'residence'
p4025
g0
(g1
g2
Ntp4026
Rp4027
(dp4028
g6
Nsg8
S'LOCATION'
p4029
sg10
Nsg24
NsbsS'region'
p4030
g0
(g1
g2
Ntp4031
Rp4032
(dp4033
g6
Nsg8
S'LOCATION'
p4034
sg10
Nsg24
NsbsS'monk'
p4035
g0
(g1
g2
Ntp4036
Rp4037
(dp4038
g6
Nsg8
S'PERSON'
p4039
sg10
Nsg24
NsbsS'berry'
p4040
g0
(g1
g2
Ntp4041
Rp4042
(dp4043
g6
Nsg8
S'OTHER'
p4044
sg10
Nsg24
NsbsS'senator'
p4045
g0
(g1
g2
Ntp4046
Rp4047
(dp4048
g6
Nsg8
S'PERSON'
p4049
sg10
Nsg24
NsbsS'railway'
p4050
g0
(g1
g2
Ntp4051
Rp4052
(dp4053
g6
Nsg8
S'DATE'
p4054
sg10
Nsg24
NsbsS'concert'
p4055
g0
(g1
g2
Ntp4056
Rp4057
(dp4058
g6
Nsg8
S'DATE'
p4059
sg10
Nsg24
NsbsS'cancer'
p4060
g0
(g1
g2
Ntp4061
Rp4062
(dp4063
g6
Nsg8
S'OTHER'
p4064
sg10
Nsg24
NsbsS'color'
p4065
g0
(g1
g2
Ntp4066
Rp4067
(dp4068
g6
Nsg8
S'OTHER'
p4069
sg10
Nsg24
NsbsS'colony'
p4070
g0
(g1
g2
Ntp4071
Rp4072
(dp4073
g6
Nsg8
S'PERSON'
p4074
sg10
Nsg24
NsbsS'period'
p4075
g0
(g1
g2
Ntp4076
Rp4077
(dp4078
g6
g16
sg8
S'TIME'
p4079
sg10
(dp4080
S'what'
p4081
g0
(g1
g2
Ntp4082
Rp4083
(dp4084
g6
Nsg8
g4079
sg10
Nsg24
NsbsS'when'
p4085
g0
(g1
g2
Ntp4086
Rp4087
(dp4088
g6
Nsg8
S'DATE'
p4089
sg10
Nsg24
NsbsS'name'
p4090
g0
(g1
g2
Ntp4091
Rp4092
(dp4093
g6
Nsg8
S'OTHER'
p4094
sg10
Nsg24
Nsbssg24
NsbsS'mccain'
p4095
g0
(g1
g2
Ntp4096
Rp4097
(dp4098
g6
Nsg8
S'PERSON'
p4099
sg10
Nsg24
NsbsS'pole'
p4100
g0
(g1
g2
Ntp4101
Rp4102
(dp4103
g6
Nsg8
S'OTHER'
p4104
sg10
Nsg24
NsbsS'edberg'
p4105
g0
(g1
g2
Ntp4106
Rp4107
(dp4108
g6
Nsg8
S'LOCATION'
p4109
sg10
Nsg24
NsbsS'biographer'
p4110
g0
(g1
g2
Ntp4111
Rp4112
(dp4113
g6
Nsg8
S'PERSON'
p4114
sg10
Nsg24
NsbsS'poe'
p4115
g0
(g1
g2
Ntp4116
Rp4117
(dp4118
g6
Nsg8
S'LOCATION'
p4119
sg10
Nsg24
NsbsS'boat'
p4120
g0
(g1
g2
Ntp4121
Rp4122
(dp4123
g6
Nsg8
S'PERSON'
p4124
sg10
Nsg24
NsbsS'turkey'
p4125
g0
(g1
g2
Ntp4126
Rp4127
(dp4128
g6
Nsg8
S'PERSON'
p4129
sg10
Nsg24
NsbsS'mark'
p4130
g0
(g1
g2
Ntp4131
Rp4132
(dp4133
g6
Nsg8
S'OTHER'
p4134
sg10
Nsg24
NsbsS'dictator'
p4135
g0
(g1
g2
Ntp4136
Rp4137
(dp4138
g6
Nsg8
S'PERSON'
p4139
sg10
Nsg24
NsbsS'engine'
p4140
g0
(g1
g2
Ntp4141
Rp4142
(dp4143
g6
g16
sg8
S'DATE'
p4144
sg10
(dp4145
S'who'
p4146
g0
(g1
g2
Ntp4147
Rp4148
(dp4149
g6
Nsg8
S'PERSON'
p4150
sg10
Nsg24
NsbsS'when'
p4151
g0
(g1
g2
Ntp4152
Rp4153
(dp4154
g6
Nsg8
g4144
sg10
Nsg24
Nsbssg24
NsbsS'direction'
p4155
g0
(g1
g2
Ntp4156
Rp4157
(dp4158
g6
Nsg8
S'LOCATION'
p4159
sg10
Nsg24
NsbsS'cobain'
p4160
g0
(g1
g2
Ntp4161
Rp4162
(dp4163
g6
Nsg8
S'PERSON'
p4164
sg10
Nsg24
NsbsS'tiger'
p4165
g0
(g1
g2
Ntp4166
Rp4167
(dp4168
g6
Nsg8
S'OTHER'
p4169
sg10
Nsg24
NsbsS'minister'
p4170
g0
(g1
g2
Ntp4171
Rp4172
(dp4173
g6
Nsg8
S'PERSON'
p4174
sg10
Nsg24
NsbsS'ruby'
p4175
g0
(g1
g2
Ntp4176
Rp4177
(dp4178
g6
Nsg8
S'DATE'
p4179
sg10
Nsg24
NsbsS'sound'
p4180
g0
(g1
g2
Ntp4181
Rp4182
(dp4183
g6
Nsg8
S'OTHER'
p4184
sg10
Nsg24
NsbsS'hughes'
p4185
g0
(g1
g2
Ntp4186
Rp4187
(dp4188
g6
Nsg8
S'PERSON'
p4189
sg10
Nsg24
NsbsS'bar-code'
p4190
g0
(g1
g2
Ntp4191
Rp4192
(dp4193
g6
Nsg8
S'DATE'
p4194
sg10
Nsg24
NsbsS'newspaper'
p4195
g0
(g1
g2
Ntp4196
Rp4197
(dp4198
g6
Nsg8
S'OTHER'
p4199
sg10
Nsg24
NsbsS'strait'
p4200
g0
(g1
g2
Ntp4201
Rp4202
(dp4203
g6
Nsg8
S'LOCATION'
p4204
sg10
Nsg24
NsbsS'commander'
p4205
g0
(g1
g2
Ntp4206
Rp4207
(dp4208
g6
Nsg8
S'PERSON'
p4209
sg10
Nsg24
NsbsS'helium'
p4210
g0
(g1
g2
Ntp4211
Rp4212
(dp4213
g6
Nsg8
S'LOCATION'
p4214
sg10
Nsg24
NsbsS'par'
p4215
g0
(g1
g2
Ntp4216
Rp4217
(dp4218
g6
Nsg8
S'NUMBER'
p4219
sg10
Nsg24
NsbsS'revolutions'
p4220
g0
(g1
g2
Ntp4221
Rp4222
(dp4223
g6
Nsg8
S'NUMBER'
p4224
sg10
Nsg24
NsbsS'doctor'
p4225
g0
(g1
g2
Ntp4226
Rp4227
(dp4228
g6
Nsg8
S'PERSON'
p4229
sg10
Nsg24
NsbsS'alphabet'
p4230
g0
(g1
g2
Ntp4231
Rp4232
(dp4233
g6
Nsg8
S'OTHER'
p4234
sg10
Nsg24
NsbsS'bowl'
p4235
g0
(g1
g2
Ntp4236
Rp4237
(dp4238
g6
g16
sg8
S'LOCATION'
p4239
sg10
(dp4240
S'what'
p4241
g0
(g1
g2
Ntp4242
Rp4243
(dp4244
g6
Nsg8
S'OTHER'
p4245
sg10
Nsg24
NsbsS'where'
p4246
g0
(g1
g2
Ntp4247
Rp4248
(dp4249
g6
Nsg8
S'LOCATION'
p4250
sg10
Nsg24
Nsbssg24
NsbsS'speech'
p4251
g0
(g1
g2
Ntp4252
Rp4253
(dp4254
g6
Nsg8
S'PERSON'
p4255
sg10
Nsg24
NsbsS'document'
p4256
g0
(g1
g2
Ntp4257
Rp4258
(dp4259
g6
Nsg8
S'OTHER'
p4260
sg10
Nsg24
NsbsS'isle'
p4261
g0
(g1
g2
Ntp4262
Rp4263
(dp4264
g6
Nsg8
S'LOCATION'
p4265
sg10
Nsg24
NsbsS'week'
p4266
g0
(g1
g2
Ntp4267
Rp4268
(dp4269
g6
Nsg8
S'OTHER'
p4270
sg10
Nsg24
NsbsS'oil'
p4271
g0
(g1
g2
Ntp4272
Rp4273
(dp4274
g6
g16
sg8
S'OTHER'
p4275
sg10
(dp4276
S'what'
p4277
g0
(g1
g2
Ntp4278
Rp4279
(dp4280
g6
Nsg8
g4275
sg10
Nsg24
NsbsS'which'
p4281
g0
(g1
g2
Ntp4282
Rp4283
(dp4284
g6
Nsg8
S'PERSON'
p4285
sg10
Nsg24
Nsbssg24
NsbsS'director'
p4286
g0
(g1
g2
Ntp4287
Rp4288
(dp4289
g6
Nsg8
S'PERSON'
p4290
sg10
Nsg24
NsbsS'fruit'
p4291
g0
(g1
g2
Ntp4292
Rp4293
(dp4294
g6
Nsg8
S'OTHER'
p4295
sg10
Nsg24
NsbsS'vowel'
p4296
g0
(g1
g2
Ntp4297
Rp4298
(dp4299
g6
Nsg8
S'OTHER'
p4300
sg10
Nsg24
NsbsS'cartoon'
p4301
g0
(g1
g2
Ntp4302
Rp4303
(dp4304
g6
Nsg8
S'PERSON'
p4305
sg10
Nsg24
NsbsS'components'
p4306
g0
(g1
g2
Ntp4307
Rp4308
(dp4309
g6
Nsg8
S'OTHER'
p4310
sg10
Nsg24
NsbsS'genie'
p4311
g0
(g1
g2
Ntp4312
Rp4313
(dp4314
g6
Nsg8
S'PERSON'
p4315
sg10
Nsg24
NsbsS'model'
p4316
g0
(g1
g2
Ntp4317
Rp4318
(dp4319
g6
Nsg8
S'PERSON'
p4320
sg10
Nsg24
NsbsS'bodies'
p4321
g0
(g1
g2
Ntp4322
Rp4323
(dp4324
g6
Nsg8
S'LOCATION'
p4325
sg10
Nsg24
NsbsS'gates'
p4326
g0
(g1
g2
Ntp4327
Rp4328
(dp4329
g6
Nsg8
S'LOCATION'
p4330
sg10
Nsg24
NsbsS'monet'
p4331
g0
(g1
g2
Ntp4332
Rp4333
(dp4334
g6
Nsg8
S'PERSON'
p4335
sg10
Nsg24
NsbsS'livestock'
p4336
g0
(g1
g2
Ntp4337
Rp4338
(dp4339
g6
Nsg8
S'OTHER'
p4340
sg10
Nsg24
NsbsS'money'
p4341
g0
(g1
g2
Ntp4342
Rp4343
(dp4344
g6
g16
sg8
S'OTHER'
p4345
sg10
(dp4346
S'how'
p4347
g0
(g1
g2
Ntp4348
Rp4349
(dp4350
g6
Nsg8
S'MONEY'
p4351
sg10
Nsg24
NsbsS'what'
p4352
g0
(g1
g2
Ntp4353
Rp4354
(dp4355
g6
Nsg8
S'OTHER'
p4356
sg10
Nsg24
Nsbssg24
NsbsS'mccheese'
p4357
g0
(g1
g2
Ntp4358
Rp4359
(dp4360
g6
Nsg8
S'LOCATION'
p4361
sg10
Nsg24
NsbsS'actress'
p4362
g0
(g1
g2
Ntp4363
Rp4364
(dp4365
g6
Nsg8
S'PERSON'
p4366
sg10
Nsg24
NsbsS'harrison'
p4367
g0
(g1
g2
Ntp4368
Rp4369
(dp4370
g6
Nsg8
S'PERSON'
p4371
sg10
Nsg24
NsbsS'flavor'
p4372
g0
(g1
g2
Ntp4373
Rp4374
(dp4375
g6
Nsg8
S'OTHER'
p4376
sg10
Nsg24
NsbsS'speed'
p4377
g0
(g1
g2
Ntp4378
Rp4379
(dp4380
g6
Nsg8
S'NUMBER'
p4381
sg10
Nsg24
NsbsS'death'
p4382
g0
(g1
g2
Ntp4383
Rp4384
(dp4385
g6
Nsg8
S'PERSON'
p4386
sg10
Nsg24
NsbsS'feminist'
p4387
g0
(g1
g2
Ntp4388
Rp4389
(dp4390
g6
Nsg8
S'PERSON'
p4391
sg10
Nsg24
NsbsS'rose'
p4392
g0
(g1
g2
Ntp4393
Rp4394
(dp4395
g6
Nsg8
S'PERSON'
p4396
sg10
Nsg24
NsbsS'instrument'
p4397
g0
(g1
g2
Ntp4398
Rp4399
(dp4400
g6
Nsg8
S'OTHER'
p4401
sg10
Nsg24
NsbsS'treatment'
p4402
g0
(g1
g2
Ntp4403
Rp4404
(dp4405
g6
Nsg8
S'OTHER'
p4406
sg10
Nsg24
NsbsS'role'
p4407
g0
(g1
g2
Ntp4408
Rp4409
(dp4410
g6
Nsg8
S'PERSON'
p4411
sg10
Nsg24
NsbsS'visine'
p4412
g0
(g1
g2
Ntp4413
Rp4414
(dp4415
g6
Nsg8
S'OTHER'
p4416
sg10
Nsg24
NsbsS'metalious'
p4417
g0
(g1
g2
Ntp4418
Rp4419
(dp4420
g6
Nsg8
S'OTHER'
p4421
sg10
Nsg24
NsbsS'tenses'
p4422
g0
(g1
g2
Ntp4423
Rp4424
(dp4425
g6
Nsg8
S'OTHER'
p4426
sg10
Nsg24
NsbsS'world'
p4427
g0
(g1
g2
Ntp4428
Rp4429
(dp4430
g6
g16
sg8
S'LOCATION'
p4431
sg10
(dp4432
S'what'
p4433
g0
(g1
g2
Ntp4434
Rp4435
(dp4436
g6
Nsg8
S'OTHER'
p4437
sg10
Nsg24
NsbsS'who'
p4438
g0
(g1
g2
Ntp4439
Rp4440
(dp4441
g6
Nsg8
S'PERSON'
p4442
sg10
Nsg24
NsbsS'where'
p4443
g0
(g1
g2
Ntp4444
Rp4445
(dp4446
g6
Nsg8
g4431
sg10
Nsg24
Nsbssg24
NsbsS'railroad'
p4447
g0
(g1
g2
Ntp4448
Rp4449
(dp4450
g6
Nsg8
S'DATE'
p4451
sg10
Nsg24
NsbsS'lady'
p4452
g0
(g1
g2
Ntp4453
Rp4454
(dp4455
g6
Nsg8
S'PERSON'
p4456
sg10
Nsg24
NsbsS'martyrs'
p4457
g0
(g1
g2
Ntp4458
Rp4459
(dp4460
g6
Nsg8
S'PERSON'
p4461
sg10
Nsg24
NsbsS'pounds'
p4462
g0
(g1
g2
Ntp4463
Rp4464
(dp4465
g6
Nsg8
S'NUMBER'
p4466
sg10
Nsg24
NsbsS'clay'
p4467
g0
(g1
g2
Ntp4468
Rp4469
(dp4470
g6
Nsg8
S'OTHER'
p4471
sg10
Nsg24
NsbsS'pyramid-builders'
p4472
g0
(g1
g2
Ntp4473
Rp4474
(dp4475
g6
Nsg8
S'OTHER'
p4476
sg10
Nsg24
NsbsS'jews'
p4477
g0
(g1
g2
Ntp4478
Rp4479
(dp4480
g6
g16
sg8
S'OTHER'
p4481
sg10
(dp4482
S'how'
p4483
g0
(g1
g2
Ntp4484
Rp4485
(dp4486
g6
Nsg8
S'NUMBER'
p4487
sg10
Nsg24
NsbsS'what'
p4488
g0
(g1
g2
Ntp4489
Rp4490
(dp4491
g6
Nsg8
g4481
sg10
Nsg24
Nsbssg24
NsbsS'apartments'
p4492
g0
(g1
g2
Ntp4493
Rp4494
(dp4495
g6
Nsg8
S'LOCATION'
p4496
sg10
Nsg24
NsbsS'shillings'
p4497
g0
(g1
g2
Ntp4498
Rp4499
(dp4500
g6
Nsg8
S'NUMBER'
p4501
sg10
Nsg24
NsbsS'oscars'
p4502
g0
(g1
g2
Ntp4503
Rp4504
(dp4505
g6
Nsg8
S'PERSON'
p4506
sg10
Nsg24
NsbsS'brontosauruses'
p4507
g0
(g1
g2
Ntp4508
Rp4509
(dp4510
g6
Nsg8
S'OTHER'
p4511
sg10
Nsg24
NsbsS'danube'
p4512
g0
(g1
g2
Ntp4513
Rp4514
(dp4515
g6
Nsg8
S'LOCATION'
p4516
sg10
Nsg24
NsbsS'dimensions'
p4517
g0
(g1
g2
Ntp4518
Rp4519
(dp4520
g6
Nsg8
S'NUMBER'
p4521
sg10
Nsg24
NsbsS'stops'
p4522
g0
(g1
g2
Ntp4523
Rp4524
(dp4525
g6
Nsg8
S'LOCATION'
p4526
sg10
Nsg24
NsbsS'provider'
p4527
g0
(g1
g2
Ntp4528
Rp4529
(dp4530
g6
Nsg8
S'MONEY'
p4531
sg10
Nsg24
NsbsS'business'
p4532
g0
(g1
g2
Ntp4533
Rp4534
(dp4535
g6
Nsg8
S'PERSON'
p4536
sg10
Nsg24
NsbsS'liquid'
p4537
g0
(g1
g2
Ntp4538
Rp4539
(dp4540
g6
Nsg8
S'OTHER'
p4541
sg10
Nsg24
NsbsS'equivalent'
p4542
g0
(g1
g2
Ntp4543
Rp4544
(dp4545
g6
Nsg8
S'NUMBER'
p4546
sg10
Nsg24
NsbsS'seine'
p4547
g0
(g1
g2
Ntp4548
Rp4549
(dp4550
g6
Nsg8
S'LOCATION'
p4551
sg10
Nsg24
NsbsS'slaughter'
p4552
g0
(g1
g2
Ntp4553
Rp4554
(dp4555
g6
Nsg8
S'OTHER'
p4556
sg10
Nsg24
NsbsS'trials'
p4557
g0
(g1
g2
Ntp4558
Rp4559
(dp4560
g6
Nsg8
S'OTHER'
p4561
sg10
Nsg24
NsbsS'manufacturer'
p4562
g0
(g1
g2
Ntp4563
Rp4564
(dp4565
g6
Nsg8
S'PERSON'
p4566
sg10
Nsg24
NsbsS'son-in-law'
p4567
g0
(g1
g2
Ntp4568
Rp4569
(dp4570
g6
Nsg8
S'PERSON'
p4571
sg10
Nsg24
NsbsS'stations'
p4572
g0
(g1
g2
Ntp4573
Rp4574
(dp4575
g6
g16
sg8
S'LOCATION'
p4576
sg10
(dp4577
S'how'
p4578
g0
(g1
g2
Ntp4579
Rp4580
(dp4581
g6
Nsg8
S'NUMBER'
p4582
sg10
Nsg24
NsbsS'where'
p4583
g0
(g1
g2
Ntp4584
Rp4585
(dp4586
g6
Nsg8
g4576
sg10
Nsg24
Nsbssg24
NsbsS'resurrectionist'
p4587
g0
(g1
g2
Ntp4588
Rp4589
(dp4590
g6
Nsg8
S'OTHER'
p4591
sg10
Nsg24
NsbsS'island'
p4592
g0
(g1
g2
Ntp4593
Rp4594
(dp4595
g6
Nsg8
S'LOCATION'
p4596
sg10
Nsg24
NsbsS'chop'
p4597
g0
(g1
g2
Ntp4598
Rp4599
(dp4600
g6
Nsg8
S'LOCATION'
p4601
sg10
Nsg24
NsbsS'cartier'
p4602
g0
(g1
g2
Ntp4603
Rp4604
(dp4605
g6
Nsg8
S'OTHER'
p4606
sg10
Nsg24
NsbsS'tribe'
p4607
g0
(g1
g2
Ntp4608
Rp4609
(dp4610
g6
Nsg8
S'PERSON'
p4611
sg10
Nsg24
NsbsS'revolutionaries'
p4612
g0
(g1
g2
Ntp4613
Rp4614
(dp4615
g6
Nsg8
S'DATE'
p4616
sg10
Nsg24
NsbsS'newtons'
p4617
g0
(g1
g2
Ntp4618
Rp4619
(dp4620
g6
Nsg8
S'NUMBER'
p4621
sg10
Nsg24
NsbsS'strip'
p4622
g0
(g1
g2
Ntp4623
Rp4624
(dp4625
g6
Nsg8
S'OTHER'
p4626
sg10
Nsg24
NsbsS'snakes'
p4627
g0
(g1
g2
Ntp4628
Rp4629
(dp4630
g6
Nsg8
S'OTHER'
p4631
sg10
Nsg24
NsbsS'area'
p4632
g0
(g1
g2
Ntp4633
Rp4634
(dp4635
g6
Nsg8
S'LOCATION'
p4636
sg10
Nsg24
NsbsS'desert'
p4637
g0
(g1
g2
Ntp4638
Rp4639
(dp4640
g6
Nsg8
S'LOCATION'
p4641
sg10
Nsg24
NsbsS'grange'
p4642
g0
(g1
g2
Ntp4643
Rp4644
(dp4645
g6
Nsg8
S'PERSON'
p4646
sg10
Nsg24
NsbsS'cats'
p4647
g0
(g1
g2
Ntp4648
Rp4649
(dp4650
g6
Nsg8
S'OTHER'
p4651
sg10
Nsg24
NsbsS'stars'
p4652
g0
(g1
g2
Ntp4653
Rp4654
(dp4655
g6
g16
sg8
S'OTHER'
p4656
sg10
(dp4657
S'how'
p4658
g0
(g1
g2
Ntp4659
Rp4660
(dp4661
g6
Nsg8
S'NUMBER'
p4662
sg10
Nsg24
NsbsS'what'
p4663
g0
(g1
g2
Ntp4664
Rp4665
(dp4666
g6
Nsg8
g4656
sg10
Nsg24
Nsbssg24
NsbsS'series'
p4667
g0
(g1
g2
Ntp4668
Rp4669
(dp4670
g6
g16
sg8
S'PERSON'
p4671
sg10
(dp4672
S'what'
p4673
g0
(g1
g2
Ntp4674
Rp4675
(dp4676
g6
Nsg8
S'OTHER'
p4677
sg10
Nsg24
NsbsS'who'
p4678
g0
(g1
g2
Ntp4679
Rp4680
(dp4681
g6
Nsg8
g4671
sg10
Nsg24
Nsbssg24
NsbsS'valley'
p4682
g0
(g1
g2
Ntp4683
Rp4684
(dp4685
g6
Nsg8
S'LOCATION'
p4686
sg10
Nsg24
NsbsS'fish'
p4687
g0
(g1
g2
Ntp4688
Rp4689
(dp4690
g6
g16
sg8
S'OTHER'
p4691
sg10
(dp4692
S'what'
p4693
g0
(g1
g2
Ntp4694
Rp4695
(dp4696
g6
Nsg8
g4691
sg10
Nsg24
NsbsS'when'
p4697
g0
(g1
g2
Ntp4698
Rp4699
(dp4700
g6
Nsg8
S'DATE'
p4701
sg10
Nsg24
Nsbssg24
NsbsS'continents'
p4702
g0
(g1
g2
Ntp4703
Rp4704
(dp4705
g6
Nsg8
S'NUMBER'
p4706
sg10
Nsg24
NsbsS'pitcher'
p4707
g0
(g1
g2
Ntp4708
Rp4709
(dp4710
g6
Nsg8
S'PERSON'
p4711
sg10
Nsg24
NsbsS'pitches'
p4712
g0
(g1
g2
Ntp4713
Rp4714
(dp4715
g6
Nsg8
S'NUMBER'
p4716
sg10
Nsg24
NsbsS'principles'
p4717
g0
(g1
g2
Ntp4718
Rp4719
(dp4720
g6
Nsg8
S'OTHER'
p4721
sg10
Nsg24
NsbsS'spice'
p4722
g0
(g1
g2
Ntp4723
Rp4724
(dp4725
g6
Nsg8
S'OTHER'
p4726
sg10
Nsg24
NsbsS'waste'
p4727
g0
(g1
g2
Ntp4728
Rp4729
(dp4730
g6
Nsg8
S'NUMBER'
p4731
sg10
Nsg24
NsbsS'natick'
p4732
g0
(g1
g2
Ntp4733
Rp4734
(dp4735
g6
Nsg8
S'LOCATION'
p4736
sg10
Nsg24
NsbsS'toilet'
p4737
g0
(g1
g2
Ntp4738
Rp4739
(dp4740
g6
Nsg8
S'DATE'
p4741
sg10
Nsg24
NsbsS'palate'
p4742
g0
(g1
g2
Ntp4743
Rp4744
(dp4745
g6
Nsg8
S'OTHER'
p4746
sg10
Nsg24
NsbsS'taste'
p4747
g0
(g1
g2
Ntp4748
Rp4749
(dp4750
g6
Nsg8
S'OTHER'
p4751
sg10
Nsg24
NsbsS'general'
p4752
g0
(g1
g2
Ntp4753
Rp4754
(dp4755
g6
Nsg8
S'PERSON'
p4756
sg10
Nsg24
NsbsS'mormons'
p4757
g0
(g1
g2
Ntp4758
Rp4759
(dp4760
g6
Nsg8
S'DATE'
p4761
sg10
Nsg24
NsbsS'laboratory'
p4762
g0
(g1
g2
Ntp4763
Rp4764
(dp4765
g6
Nsg8
S'PERSON'
p4766
sg10
Nsg24
NsbsS'cables'
p4767
g0
(g1
g2
Ntp4768
Rp4769
(dp4770
g6
Nsg8
S'NUMBER'
p4771
sg10
Nsg24
NsbsS'film'
p4772
g0
(g1
g2
Ntp4773
Rp4774
(dp4775
g6
Nsg8
S'OTHER'
p4776
sg10
Nsg24
NsbsS'angelica'
p4777
g0
(g1
g2
Ntp4778
Rp4779
(dp4780
g6
Nsg8
S'LOCATION'
p4781
sg10
Nsg24
NsbsS'innings'
p4782
g0
(g1
g2
Ntp4783
Rp4784
(dp4785
g6
Nsg8
S'NUMBER'
p4786
sg10
Nsg24
NsbsS'bremer'
p4787
g0
(g1
g2
Ntp4788
Rp4789
(dp4790
g6
Nsg8
S'PERSON'
p4791
sg10
Nsg24
NsbsS'astronaut'
p4792
g0
(g1
g2
Ntp4793
Rp4794
(dp4795
g6
Nsg8
S'PERSON'
p4796
sg10
Nsg24
NsbsS'pastorius'
p4797
g0
(g1
g2
Ntp4798
Rp4799
(dp4800
g6
Nsg8
S'DATE'
p4801
sg10
Nsg24
NsbsS'congress'
p4802
g0
(g1
g2
Ntp4803
Rp4804
(dp4805
g6
g16
sg8
S'DATE'
p4806
sg10
(dp4807
S'what'
p4808
g0
(g1
g2
Ntp4809
Rp4810
(dp4811
g6
Nsg8
S'OTHER'
p4812
sg10
Nsg24
NsbsS'when'
p4813
g0
(g1
g2
Ntp4814
Rp4815
(dp4816
g6
Nsg8
g4806
sg10
Nsg24
Nsbssg24
NsbsS'students'
p4817
g0
(g1
g2
Ntp4818
Rp4819
(dp4820
g6
Nsg8
S'NUMBER'
p4821
sg10
Nsg24
NsbsS'symbol'
p4822
g0
(g1
g2
Ntp4823
Rp4824
(dp4825
g6
Nsg8
S'OTHER'
p4826
sg10
Nsg24
NsbsS'gutenberg'
p4827
g0
(g1
g2
Ntp4828
Rp4829
(dp4830
g6
Nsg8
S'NUMBER'
p4831
sg10
Nsg24
NsbsS'peak'
p4832
g0
(g1
g2
Ntp4833
Rp4834
(dp4835
g6
Nsg8
S'LOCATION'
p4836
sg10
Nsg24
NsbsS'stocks'
p4837
g0
(g1
g2
Ntp4838
Rp4839
(dp4840
g6
Nsg8
S'LOCATION'
p4841
sg10
Nsg24
NsbsS'brandt'
p4842
g0
(g1
g2
Ntp4843
Rp4844
(dp4845
g6
Nsg8
S'PERSON'
p4846
sg10
Nsg24
NsbsS'building'
p4847
g0
(g1
g2
Ntp4848
Rp4849
(dp4850
g6
Nsg8
S'LOCATION'
p4851
sg10
Nsg24
NsbsS'wife'
p4852
g0
(g1
g2
Ntp4853
Rp4854
(dp4855
g6
Nsg8
S'PERSON'
p4856
sg10
Nsg24
NsbsS'odds'
p4857
g0
(g1
g2
Ntp4858
Rp4859
(dp4860
g6
Nsg8
S'PERCENT'
p4861
sg10
Nsg24
NsbsS'websites'
p4862
g0
(g1
g2
Ntp4863
Rp4864
(dp4865
g6
Nsg8
S'LOCATION'
p4866
sg10
Nsg24
NsbsS'callosum'
p4867
g0
(g1
g2
Ntp4868
Rp4869
(dp4870
g6
Nsg8
S'LOCATION'
p4871
sg10
Nsg24
NsbsS'colleges'
p4872
g0
(g1
g2
Ntp4873
Rp4874
(dp4875
g6
g16
sg8
S'PERSON'
p4876
sg10
(dp4877
S'how'
p4878
g0
(g1
g2
Ntp4879
Rp4880
(dp4881
g6
Nsg8
S'NUMBER'
p4882
sg10
Nsg24
NsbsS'what'
p4883
g0
(g1
g2
Ntp4884
Rp4885
(dp4886
g6
Nsg8
g4876
sg10
Nsg24
Nsbssg24
NsbsS'founder'
p4887
g0
(g1
g2
Ntp4888
Rp4889
(dp4890
g6
Nsg8
S'PERSON'
p4891
sg10
Nsg24
NsbsS'ali'
p4892
g0
(g1
g2
Ntp4893
Rp4894
(dp4895
g6
Nsg8
S'PERSON'
p4896
sg10
Nsg24
NsbsS'lack'
p4897
g0
(g1
g2
Ntp4898
Rp4899
(dp4900
g6
Nsg8
S'OTHER'
p4901
sg10
Nsg24
NsbsS'month'
p4902
g0
(g1
g2
Ntp4903
Rp4904
(dp4905
g6
Nsg8
S'DATE'
p4906
sg10
Nsg24
NsbsS'tours'
p4907
g0
(g1
g2
Ntp4908
Rp4909
(dp4910
g6
Nsg8
S'LOCATION'
p4911
sg10
Nsg24
NsbsS'dish'
p4912
g0
(g1
g2
Ntp4913
Rp4914
(dp4915
g6
Nsg8
S'OTHER'
p4916
sg10
Nsg24
NsbsS'children'
p4917
g0
(g1
g2
Ntp4918
Rp4919
(dp4920
g6
g16
sg8
S'PERSON'
p4921
sg10
(dp4922
S'how'
p4923
g0
(g1
g2
Ntp4924
Rp4925
(dp4926
g6
Nsg8
S'NUMBER'
p4927
sg10
Nsg24
NsbsS'what'
p4928
g0
(g1
g2
Ntp4929
Rp4930
(dp4931
g6
Nsg8
S'OTHER'
p4932
sg10
Nsg24
NsbsS'name'
p4933
g0
(g1
g2
Ntp4934
Rp4935
(dp4936
g6
Nsg8
g4921
sg10
Nsg24
Nsbssg24
NsbsS'gymnast'
p4937
g0
(g1
g2
Ntp4938
Rp4939
(dp4940
g6
Nsg8
S'PERSON'
p4941
sg10
Nsg24
NsbsS'tail'
p4942
g0
(g1
g2
Ntp4943
Rp4944
(dp4945
g6
Nsg8
S'OTHER'
p4946
sg10
Nsg24
NsbsS'program'
p4947
g0
(g1
g2
Ntp4948
Rp4949
(dp4950
g6
Nsg8
S'OTHER'
p4951
sg10
Nsg24
NsbsS'woman'
p4952
g0
(g1
g2
Ntp4953
Rp4954
(dp4955
g6
g16
sg8
S'PERSON'
p4956
sg10
(dp4957
S'what'
p4958
g0
(g1
g2
Ntp4959
Rp4960
(dp4961
g6
Nsg8
S'PERSON'
p4962
sg10
Nsg24
NsbsS'who'
p4963
g0
(g1
g2
Ntp4964
Rp4965
(dp4966
g6
Nsg8
S'PERSON'
p4967
sg10
Nsg24
NsbsS'when'
p4968
g0
(g1
g2
Ntp4969
Rp4970
(dp4971
g6
Nsg8
S'DATE'
p4972
sg10
Nsg24
Nsbssg24
NsbsS'song'
p4973
g0
(g1
g2
Ntp4974
Rp4975
(dp4976
g6
g16
sg8
S'OTHER'
p4977
sg10
(dp4978
S'what'
p4979
g0
(g1
g2
Ntp4980
Rp4981
(dp4982
g6
Nsg8
S'OTHER'
p4983
sg10
Nsg24
NsbsS'who'
p4984
g0
(g1
g2
Ntp4985
Rp4986
(dp4987
g6
Nsg8
S'PERSON'
p4988
sg10
Nsg24
Nsbssg24
NsbsS'spumante'
p4989
g0
(g1
g2
Ntp4990
Rp4991
(dp4992
g6
Nsg8
S'PERSON'
p4993
sg10
Nsg24
NsbsS'translations'
p4994
g0
(g1
g2
Ntp4995
Rp4996
(dp4997
g6
Nsg8
S'OTHER'
p4998
sg10
Nsg24
NsbsS'sons'
p4999
g0
(g1
g2
Ntp5000
Rp5001
(dp5002
g6
Nsg8
S'PERSON'
p5003
sg10
Nsg24
NsbsS'diary'
p5004
g0
(g1
g2
Ntp5005
Rp5006
(dp5007
g6
Nsg8
S'PERSON'
p5008
sg10
Nsg24
NsbsS'ticker'
p5009
g0
(g1
g2
Ntp5010
Rp5011
(dp5012
g6
Nsg8
S'PERSON'
p5013
sg10
Nsg24
NsbsS'lawnmower'
p5014
g0
(g1
g2
Ntp5015
Rp5016
(dp5017
g6
Nsg8
S'PERSON'
p5018
sg10
Nsg24
NsbsS'celebrity'
p5019
g0
(g1
g2
Ntp5020
Rp5021
(dp5022
g6
Nsg8
S'PERSON'
p5023
sg10
Nsg24
NsbsS'grandfather'
p5024
g0
(g1
g2
Ntp5025
Rp5026
(dp5027
g6
Nsg8
S'PERSON'
p5028
sg10
Nsg24
NsbsS'mammal'
p5029
g0
(g1
g2
Ntp5030
Rp5031
(dp5032
g6
Nsg8
S'OTHER'
p5033
sg10
Nsg24
NsbsS'kemper'
p5034
g0
(g1
g2
Ntp5035
Rp5036
(dp5037
g6
Nsg8
S'PERSON'
p5038
sg10
Nsg24
NsbsS'maggio'
p5039
g0
(g1
g2
Ntp5040
Rp5041
(dp5042
g6
Nsg8
S'PERSON'
p5043
sg10
Nsg24
NsbsS'orinoco'
p5044
g0
(g1
g2
Ntp5045
Rp5046
(dp5047
g6
Nsg8
S'LOCATION'
p5048
sg10
Nsg24
NsbsS'zero'
p5049
g0
(g1
g2
Ntp5050
Rp5051
(dp5052
g6
Nsg8
S'LOCATION'
p5053
sg10
Nsg24
NsbsS'titles'
p5054
g0
(g1
g2
Ntp5055
Rp5056
(dp5057
g6
Nsg8
S'OTHER'
p5058
sg10
Nsg24
NsbsS'lawyer'
p5059
g0
(g1
g2
Ntp5060
Rp5061
(dp5062
g6
Nsg8
S'PERSON'
p5063
sg10
Nsg24
NsbsS'nba'
p5064
g0
(g1
g2
Ntp5065
Rp5066
(dp5067
g6
Nsg8
S'PERSON'
p5068
sg10
Nsg24
NsbsS'chair'
p5069
g0
(g1
g2
Ntp5070
Rp5071
(dp5072
g6
Nsg8
S'PERSON'
p5073
sg10
Nsg24
NsbsS'swampy'
p5074
g0
(g1
g2
Ntp5075
Rp5076
(dp5077
g6
Nsg8
S'PERSON'
p5078
sg10
Nsg24
NsbsS'clock'
p5079
g0
(g1
g2
Ntp5080
Rp5081
(dp5082
g6
Nsg8
S'OTHER'
p5083
sg10
Nsg24
NsbsS'mutombo'
p5084
g0
(g1
g2
Ntp5085
Rp5086
(dp5087
g6
Nsg8
S'LOCATION'
p5088
sg10
Nsg24
NsbsS'sun'
p5089
g0
(g1
g2
Ntp5090
Rp5091
(dp5092
g6
Nsg8
S'DATE'
p5093
sg10
Nsg24
NsbsS'caffeine'
p5094
g0
(g1
g2
Ntp5095
Rp5096
(dp5097
g6
Nsg8
S'NUMBER'
p5098
sg10
Nsg24
NsbsS'method'
p5099
g0
(g1
g2
Ntp5100
Rp5101
(dp5102
g6
Nsg8
S'OTHER'
p5103
sg10
Nsg24
NsbsS'stockyards'
p5104
g0
(g1
g2
Ntp5105
Rp5106
(dp5107
g6
Nsg8
S'LOCATION'
p5108
sg10
Nsg24
NsbsS'theresa'
p5109
g0
(g1
g2
Ntp5110
Rp5111
(dp5112
g6
Nsg8
S'PERSON'
p5113
sg10
Nsg24
NsbsS'answers'
p5114
g0
(g1
g2
Ntp5115
Rp5116
(dp5117
g6
Nsg8
S'NUMBER'
p5118
sg10
Nsg24
NsbsS'hours'
p5119
g0
(g1
g2
Ntp5120
Rp5121
(dp5122
g6
Nsg8
S'NUMBER'
p5123
sg10
Nsg24
NsbsS'ranger'
p5124
g0
(g1
g2
Ntp5125
Rp5126
(dp5127
g6
Nsg8
S'PERSON'
p5128
sg10
Nsg24
NsbsS'operating'
p5129
g0
(g1
g2
Ntp5130
Rp5131
(dp5132
g6
Nsg8
S'OTHER'
p5133
sg10
Nsg24
NsbsS'andrews'
p5134
g0
(g1
g2
Ntp5135
Rp5136
(dp5137
g6
Nsg8
S'PERSON'
p5138
sg10
Nsg24
NsbsS'belize'
p5139
g0
(g1
g2
Ntp5140
Rp5141
(dp5142
g6
Nsg8
S'LOCATION'
p5143
sg10
Nsg24
NsbsS'tragedy'
p5144
g0
(g1
g2
Ntp5145
Rp5146
(dp5147
g6
Nsg8
S'OTHER'
p5148
sg10
Nsg24
NsbsS'hass'
p5149
g0
(g1
g2
Ntp5150
Rp5151
(dp5152
g6
Nsg8
S'OTHER'
p5153
sg10
Nsg24
NsbsS'bible'
p5154
g0
(g1
g2
Ntp5155
Rp5156
(dp5157
g6
g16
sg8
S'DATE'
p5158
sg10
(dp5159
S'what'
p5160
g0
(g1
g2
Ntp5161
Rp5162
(dp5163
g6
Nsg8
S'OTHER'
p5164
sg10
Nsg24
NsbsS'who'
p5165
g0
(g1
g2
Ntp5166
Rp5167
(dp5168
g6
Nsg8
S'PERSON'
p5169
sg10
Nsg24
NsbsS'when'
p5170
g0
(g1
g2
Ntp5171
Rp5172
(dp5173
g6
Nsg8
g5158
sg10
Nsg24
Nsbssg24
NsbsS'soldier'
p5174
g0
(g1
g2
Ntp5175
Rp5176
(dp5177
g6
Nsg8
S'PERSON'
p5178
sg10
Nsg24
NsbsS'amount'
p5179
g0
(g1
g2
Ntp5180
Rp5181
(dp5182
g6
Nsg8
S'MONEY'
p5183
sg10
Nsg24
NsbsS'advertising'
p5184
g0
(g1
g2
Ntp5185
Rp5186
(dp5187
g6
Nsg8
S'DATE'
p5188
sg10
Nsg24
NsbsS'megawatts'
p5189
g0
(g1
g2
Ntp5190
Rp5191
(dp5192
g6
Nsg8
S'NUMBER'
p5193
sg10
Nsg24
NsbsS'spermologer'
p5194
g0
(g1
g2
Ntp5195
Rp5196
(dp5197
g6
Nsg8
S'OTHER'
p5198
sg10
Nsg24
NsbsS'thatcher'
p5199
g0
(g1
g2
Ntp5200
Rp5201
(dp5202
g6
Nsg8
S'DATE'
p5203
sg10
Nsg24
NsbsS'fatman'
p5204
g0
(g1
g2
Ntp5205
Rp5206
(dp5207
g6
Nsg8
S'PERSON'
p5208
sg10
Nsg24
NsbsS'ladybugs'
p5209
g0
(g1
g2
Ntp5210
Rp5211
(dp5212
g6
Nsg8
S'OTHER'
p5213
sg10
Nsg24
NsbsS'ballad'
p5214
g0
(g1
g2
Ntp5215
Rp5216
(dp5217
g6
Nsg8
S'OTHER'
p5218
sg10
Nsg24
NsbsS'horses'
p5219
g0
(g1
g2
Ntp5220
Rp5221
(dp5222
g6
Nsg8
S'NUMBER'
p5223
sg10
Nsg24
NsbsS'israel'
p5224
g0
(g1
g2
Ntp5225
Rp5226
(dp5227
g6
Nsg8
S'DATE'
p5228
sg10
Nsg24
NsbsS'fellow'
p5229
g0
(g1
g2
Ntp5230
Rp5231
(dp5232
g6
Nsg8
S'PERSON'
p5233
sg10
Nsg24
NsbsS'company'
p5234
g0
(g1
g2
Ntp5235
Rp5236
(dp5237
g6
Nsg8
S'PERSON'
p5238
sg10
Nsg24
NsbsS'waterways'
p5239
g0
(g1
g2
Ntp5240
Rp5241
(dp5242
g6
Nsg8
S'LOCATION'
p5243
sg10
Nsg24
NsbsS'flag'
p5244
g0
(g1
g2
Ntp5245
Rp5246
(dp5247
g6
Nsg8
S'OTHER'
p5248
sg10
Nsg24
NsbsS'stethoscope'
p5249
g0
(g1
g2
Ntp5250
Rp5251
(dp5252
g6
Nsg8
S'PERSON'
p5253
sg10
Nsg24
NsbsS'coyote'
p5254
g0
(g1
g2
Ntp5255
Rp5256
(dp5257
g6
Nsg8
S'LOCATION'
p5258
sg10
Nsg24
NsbsS'gogh'
p5259
g0
(g1
g2
Ntp5260
Rp5261
(dp5262
g6
Nsg8
S'PERSON'
p5263
sg10
Nsg24
NsbsS'town'
p5264
g0
(g1
g2
Ntp5265
Rp5266
(dp5267
g6
Nsg8
S'LOCATION'
p5268
sg10
Nsg24
NsbsS'hour'
p5269
g0
(g1
g2
Ntp5270
Rp5271
(dp5272
g6
Nsg8
S'LOCATION'
p5273
sg10
Nsg24
NsbsS'primate'
p5274
g0
(g1
g2
Ntp5275
Rp5276
(dp5277
g6
Nsg8
S'OTHER'
p5278
sg10
Nsg24
NsbsS'barroom'
p5279
g0
(g1
g2
Ntp5280
Rp5281
(dp5282
g6
Nsg8
S'PERSON'
p5283
sg10
Nsg24
NsbsS'roosevelt'
p5284
g0
(g1
g2
Ntp5285
Rp5286
(dp5287
g6
Nsg8
S'DATE'
p5288
sg10
Nsg24
NsbsS'dew'
p5289
g0
(g1
g2
Ntp5290
Rp5291
(dp5292
g6
Nsg8
S'LOCATION'
p5293
sg10
Nsg24
NsbsS'mall'
p5294
g0
(g1
g2
Ntp5295
Rp5296
(dp5297
g6
Nsg8
S'LOCATION'
p5298
sg10
Nsg24
NsbsS'morgan'
p5299
g0
(g1
g2
Ntp5300
Rp5301
(dp5302
g6
Nsg8
S'PERSON'
p5303
sg10
Nsg24
NsbsS'seagull'
p5304
g0
(g1
g2
Ntp5305
Rp5306
(dp5307
g6
Nsg8
S'OTHER'
p5308
sg10
Nsg24
NsbsS'yemen'
p5309
g0
(g1
g2
Ntp5310
Rp5311
(dp5312
g6
Nsg8
S'DATE'
p5313
sg10
Nsg24
NsbsS'nino'
p5314
g0
(g1
g2
Ntp5315
Rp5316
(dp5317
g6
g16
sg8
S'OTHER'
p5318
sg10
(dp5319
S'what'
p5320
g0
(g1
g2
Ntp5321
Rp5322
(dp5323
g6
Nsg8
g5318
sg10
Nsg24
NsbsS'who'
p5324
g0
(g1
g2
Ntp5325
Rp5326
(dp5327
g6
Nsg8
S'PERSON'
p5328
sg10
Nsg24
Nsbssg24
NsbsS'states'
p5329
g0
(g1
g2
Ntp5330
Rp5331
(dp5332
g6
g16
sg8
S'LOCATION'
p5333
sg10
(dp5334
S'how'
p5335
g0
(g1
g2
Ntp5336
Rp5337
(dp5338
g6
Nsg8
S'NUMBER'
p5339
sg10
Nsg24
NsbsS'what'
p5340
g0
(g1
g2
Ntp5341
Rp5342
(dp5343
g6
Nsg8
S'LOCATION'
p5344
sg10
Nsg24
NsbsS'which'
p5345
g0
(g1
g2
Ntp5346
Rp5347
(dp5348
g6
Nsg8
S'LOCATION'
p5349
sg10
Nsg24
Nsbssg24
NsbsS'numbers'
p5350
g0
(g1
g2
Ntp5351
Rp5352
(dp5353
g6
g16
sg8
S'PERSON'
p5354
sg10
(dp5355
S'what'
p5356
g0
(g1
g2
Ntp5357
Rp5358
(dp5359
g6
Nsg8
S'NUMBER'
p5360
sg10
Nsg24
NsbsS'who'
p5361
g0
(g1
g2
Ntp5362
Rp5363
(dp5364
g6
Nsg8
g5354
sg10
Nsg24
Nsbssg24
NsbsS'airplane'
p5365
g0
(g1
g2
Ntp5366
Rp5367
(dp5368
g6
g16
sg8
S'OTHER'
p5369
sg10
(dp5370
S'who'
p5371
g0
(g1
g2
Ntp5372
Rp5373
(dp5374
g6
Nsg8
S'PERSON'
p5375
sg10
Nsg24
NsbsS'which'
p5376
g0
(g1
g2
Ntp5377
Rp5378
(dp5379
g6
Nsg8
S'OTHER'
p5380
sg10
Nsg24
Nsbssg24
NsbsS'species'
p5381
g0
(g1
g2
Ntp5382
Rp5383
(dp5384
g6
g16
sg8
S'OTHER'
p5385
sg10
(dp5386
S'how'
p5387
g0
(g1
g2
Ntp5388
Rp5389
(dp5390
g6
Nsg8
S'NUMBER'
p5391
sg10
Nsg24
NsbsS'what'
p5392
g0
(g1
g2
Ntp5393
Rp5394
(dp5395
g6
Nsg8
S'OTHER'
p5396
sg10
Nsg24
Nsbssg24
NsbsS'freleng'
p5397
g0
(g1
g2
Ntp5398
Rp5399
(dp5400
g6
Nsg8
S'PERSON'
p5401
sg10
Nsg24
NsbsS'information'
p5402
g0
(g1
g2
Ntp5403
Rp5404
(dp5405
g6
g16
sg8
S'LOCATION'
p5406
sg10
(dp5407
S'what'
p5408
g0
(g1
g2
Ntp5409
Rp5410
(dp5411
g6
Nsg8
S'PERSON'
p5412
sg10
Nsg24
NsbsS'where'
p5413
g0
(g1
g2
Ntp5414
Rp5415
(dp5416
g6
Nsg8
g5406
sg10
Nsg24
Nsbssg24
NsbsS'court'
p5417
g0
(g1
g2
Ntp5418
Rp5419
(dp5420
g6
Nsg8
S'PERSON'
p5421
sg10
Nsg24
NsbsS'hugo'
p5422
g0
(g1
g2
Ntp5423
Rp5424
(dp5425
g6
g16
sg8
S'LOCATION'
p5426
sg10
(dp5427
S'when'
p5428
g0
(g1
g2
Ntp5429
Rp5430
(dp5431
g6
Nsg8
S'DATE'
p5432
sg10
Nsg24
NsbsS'where'
p5433
g0
(g1
g2
Ntp5434
Rp5435
(dp5436
g6
Nsg8
g5426
sg10
Nsg24
Nsbssg24
NsbsS'creature'
p5437
g0
(g1
g2
Ntp5438
Rp5439
(dp5440
g6
Nsg8
S'OTHER'
p5441
sg10
Nsg24
NsbsS'plant'
p5442
g0
(g1
g2
Ntp5443
Rp5444
(dp5445
g6
Nsg8
S'OTHER'
p5446
sg10
Nsg24
NsbsS'bacall'
p5447
g0
(g1
g2
Ntp5448
Rp5449
(dp5450
g6
Nsg8
S'PERSON'
p5451
sg10
Nsg24
NsbsS'soundtrack'
p5452
g0
(g1
g2
Ntp5453
Rp5454
(dp5455
g6
Nsg8
S'OTHER'
p5456
sg10
Nsg24
NsbsS'softball'
p5457
g0
(g1
g2
Ntp5458
Rp5459
(dp5460
g6
Nsg8
S'OTHER'
p5461
sg10
Nsg24
NsbsS'pangaea'
p5462
g0
(g1
g2
Ntp5463
Rp5464
(dp5465
g6
Nsg8
S'DATE'
p5466
sg10
Nsg24
NsbsS'author'
p5467
g0
(g1
g2
Ntp5468
Rp5469
(dp5470
g6
Nsg8
S'PERSON'
p5471
sg10
Nsg24
NsbsS'volleyball'
p5472
g0
(g1
g2
Ntp5473
Rp5474
(dp5475
g6
Nsg8
S'PERSON'
p5476
sg10
Nsg24
NsbsS'shorn'
p5477
g0
(g1
g2
Ntp5478
Rp5479
(dp5480
g6
Nsg8
S'DATE'
p5481
sg10
Nsg24
NsbsS'photoshop'
p5482
g0
(g1
g2
Ntp5483
Rp5484
(dp5485
g6
Nsg8
S'PERSON'
p5486
sg10
Nsg24
NsbsS'mission'
p5487
g0
(g1
g2
Ntp5488
Rp5489
(dp5490
g6
Nsg8
S'OTHER'
p5491
sg10
Nsg24
NsbsS'trade'
p5492
g0
(g1
g2
Ntp5493
Rp5494
(dp5495
g6
Nsg8
S'OTHER'
p5496
sg10
Nsg24
NsbsS'paper'
p5497
g0
(g1
g2
Ntp5498
Rp5499
(dp5500
g6
Nsg8
S'OTHER'
p5501
sg10
Nsg24
NsbsS'signs'
p5502
g0
(g1
g2
Ntp5503
Rp5504
(dp5505
g6
Nsg8
S'OTHER'
p5506
sg10
Nsg24
NsbsS'schoolhouse'
p5507
g0
(g1
g2
Ntp5508
Rp5509
(dp5510
g6
Nsg8
S'LOCATION'
p5511
sg10
Nsg24
NsbsS'avenue'
p5512
g0
(g1
g2
Ntp5513
Rp5514
(dp5515
g6
Nsg8
S'LOCATION'
p5516
sg10
Nsg24
NsbsS'golfing'
p5517
g0
(g1
g2
Ntp5518
Rp5519
(dp5520
g6
Nsg8
S'OTHER'
p5521
sg10
Nsg24
NsbsS'shortstop'
p5522
g0
(g1
g2
Ntp5523
Rp5524
(dp5525
g6
Nsg8
S'PERSON'
p5526
sg10
Nsg24
NsbsS'founders'
p5527
g0
(g1
g2
Ntp5528
Rp5529
(dp5530
g6
Nsg8
S'PERSON'
p5531
sg10
Nsg24
NsbsS'wingspan'
p5532
g0
(g1
g2
Ntp5533
Rp5534
(dp5535
g6
Nsg8
S'NUMBER'
p5536
sg10
Nsg24
NsbsS'fool'
p5537
g0
(g1
g2
Ntp5538
Rp5539
(dp5540
g6
Nsg8
S'PERSON'
p5541
sg10
Nsg24
NsbsS'food'
p5542
g0
(g1
g2
Ntp5543
Rp5544
(dp5545
g6
Nsg8
S'OTHER'
p5546
sg10
Nsg24
NsbsS'hunter'
p5547
g0
(g1
g2
Ntp5548
Rp5549
(dp5550
g6
Nsg8
S'PERSON'
p5551
sg10
Nsg24
NsbsS'compound'
p5552
g0
(g1
g2
Ntp5553
Rp5554
(dp5555
g6
Nsg8
S'OTHER'
p5556
sg10
Nsg24
NsbsS'mystery'
p5557
g0
(g1
g2
Ntp5558
Rp5559
(dp5560
g6
Nsg8
S'PERSON'
p5561
sg10
Nsg24
NsbsS'mathematician'
p5562
g0
(g1
g2
Ntp5563
Rp5564
(dp5565
g6
Nsg8
S'PERSON'
p5566
sg10
Nsg24
NsbsS'policeman'
p5567
g0
(g1
g2
Ntp5568
Rp5569
(dp5570
g6
Nsg8
S'OTHER'
p5571
sg10
Nsg24
NsbsS'drake'
p5572
g0
(g1
g2
Ntp5573
Rp5574
(dp5575
g6
Nsg8
S'OTHER'
p5576
sg10
Nsg24
NsbsS'events'
p5577
g0
(g1
g2
Ntp5578
Rp5579
(dp5580
g6
g16
sg8
S'NUMBER'
p5581
sg10
(dp5582
S'how'
p5583
g0
(g1
g2
Ntp5584
Rp5585
(dp5586
g6
Nsg8
g5581
sg10
Nsg24
NsbsS'what'
p5587
g0
(g1
g2
Ntp5588
Rp5589
(dp5590
g6
Nsg8
S'OTHER'
p5591
sg10
Nsg24
Nsbssg24
NsbsS'habits'
p5592
g0
(g1
g2
Ntp5593
Rp5594
(dp5595
g6
Nsg8
S'OTHER'
p5596
sg10
Nsg24
NsbsS'predators'
p5597
g0
(g1
g2
Ntp5598
Rp5599
(dp5600
g6
Nsg8
S'OTHER'
p5601
sg10
Nsg24
NsbsS'positions'
p5602
g0
(g1
g2
Ntp5603
Rp5604
(dp5605
g6
Nsg8
S'PERSON'
p5606
sg10
Nsg24
NsbsS'paganini'
p5607
g0
(g1
g2
Ntp5608
Rp5609
(dp5610
g6
Nsg8
S'PERSON'
p5611
sg10
Nsg24
NsbsS'ports'
p5612
g0
(g1
g2
Ntp5613
Rp5614
(dp5615
g6
Nsg8
S'LOCATION'
p5616
sg10
Nsg24
NsbsS'bends'
p5617
g0
(g1
g2
Ntp5618
Rp5619
(dp5620
g6
Nsg8
S'NUMBER'
p5621
sg10
Nsg24
NsbsS'weight'
p5622
g0
(g1
g2
Ntp5623
Rp5624
(dp5625
g6
Nsg8
S'NUMBER'
p5626
sg10
Nsg24
NsbsS'generation'
p5627
g0
(g1
g2
Ntp5628
Rp5629
(dp5630
g6
Nsg8
S'OTHER'
p5631
sg10
Nsg24
NsbsS'jaws'
p5632
g0
(g1
g2
Ntp5633
Rp5634
(dp5635
g6
Nsg8
S'PERSON'
p5636
sg10
Nsg24
NsbsS'energy'
p5637
g0
(g1
g2
Ntp5638
Rp5639
(dp5640
g6
Nsg8
S'NUMBER'
p5641
sg10
Nsg24
NsbsS'hawaii'
p5642
g0
(g1
g2
Ntp5643
Rp5644
(dp5645
g6
Nsg8
S'PERSON'
p5646
sg10
Nsg24
NsbsS'event'
p5647
g0
(g1
g2
Ntp5648
Rp5649
(dp5650
g6
Nsg8
S'OTHER'
p5651
sg10
Nsg24
NsbsS'aldrin'
p5652
g0
(g1
g2
Ntp5653
Rp5654
(dp5655
g6
Nsg8
S'LOCATION'
p5656
sg10
Nsg24
NsbsS'flower'
p5657
g0
(g1
g2
Ntp5658
Rp5659
(dp5660
g6
Nsg8
S'OTHER'
p5661
sg10
Nsg24
NsbsS'seaport'
p5662
g0
(g1
g2
Ntp5663
Rp5664
(dp5665
g6
Nsg8
S'LOCATION'
p5666
sg10
Nsg24
NsbsS'fountain'
p5667
g0
(g1
g2
Ntp5668
Rp5669
(dp5670
g6
Nsg8
S'PERSON'
p5671
sg10
Nsg24
NsbsS'paine'
p5672
g0
(g1
g2
Ntp5673
Rp5674
(dp5675
g6
Nsg8
S'OTHER'
p5676
sg10
Nsg24
NsbsS'pythagoras'
p5677
g0
(g1
g2
Ntp5678
Rp5679
(dp5680
g6
Nsg8
S'LOCATION'
p5681
sg10
Nsg24
NsbsS'horse'
p5682
g0
(g1
g2
Ntp5683
Rp5684
(dp5685
g6
Nsg8
S'OTHER'
p5686
sg10
Nsg24
NsbsS'pub'
p5687
g0
(g1
g2
Ntp5688
Rp5689
(dp5690
g6
Nsg8
S'PERSON'
p5691
sg10
Nsg24
NsbsS'isps'
p5692
g0
(g1
g2
Ntp5693
Rp5694
(dp5695
g6
Nsg8
S'PERSON'
p5696
sg10
Nsg24
NsbsS'darius'
p5697
g0
(g1
g2
Ntp5698
Rp5699
(dp5700
g6
Nsg8
S'PERSON'
p5701
sg10
Nsg24
NsbsS'basketball'
p5702
g0
(g1
g2
Ntp5703
Rp5704
(dp5705
g6
Nsg8
S'PERSON'
p5706
sg10
Nsg24
NsbsS'cookie'
p5707
g0
(g1
g2
Ntp5708
Rp5709
(dp5710
g6
Nsg8
S'OTHER'
p5711
sg10
Nsg24
NsbsS'members'
p5712
g0
(g1
g2
Ntp5713
Rp5714
(dp5715
g6
g16
sg8
S'NUMBER'
p5716
sg10
(dp5717
S'how'
p5718
g0
(g1
g2
Ntp5719
Rp5720
(dp5721
g6
Nsg8
g5716
sg10
Nsg24
NsbsS'name'
p5722
g0
(g1
g2
Ntp5723
Rp5724
(dp5725
g6
Nsg8
S'PERSON'
p5726
sg10
Nsg24
Nsbssg24
NsbsS'bulls'
p5727
g0
(g1
g2
Ntp5728
Rp5729
(dp5730
g6
Nsg8
S'PERSON'
p5731
sg10
Nsg24
NsbsS'revolutionary'
p5732
g0
(g1
g2
Ntp5733
Rp5734
(dp5735
g6
Nsg8
S'PERSON'
p5736
sg10
Nsg24
NsbsS'prophet'
p5737
g0
(g1
g2
Ntp5738
Rp5739
(dp5740
g6
Nsg8
S'PERSON'
p5741
sg10
Nsg24
NsbsS'american'
p5742
g0
(g1
g2
Ntp5743
Rp5744
(dp5745
g6
Nsg8
S'PERSON'
p5746
sg10
Nsg24
NsbsS'castle'
p5747
g0
(g1
g2
Ntp5748
Rp5749
(dp5750
g6
Nsg8
S'LOCATION'
p5751
sg10
Nsg24
NsbsS'superbowl'
p5752
g0
(g1
g2
Ntp5753
Rp5754
(dp5755
g6
Nsg8
S'PERSON'
p5756
sg10
Nsg24
NsbsS'fischer'
p5757
g0
(g1
g2
Ntp5758
Rp5759
(dp5760
g6
Nsg8
S'PERSON'
p5761
sg10
Nsg24
NsbsS'probability'
p5762
g0
(g1
g2
Ntp5763
Rp5764
(dp5765
g6
Nsg8
S'PERCENT'
p5766
sg10
Nsg24
NsbsS'guam'
p5767
g0
(g1
g2
Ntp5768
Rp5769
(dp5770
g6
Nsg8
S'LOCATION'
p5771
sg10
Nsg24
NsbsS'number'
p5772
g0
(g1
g2
Ntp5773
Rp5774
(dp5775
g6
Nsg8
S'NUMBER'
p5776
sg10
Nsg24
NsbsS'feet'
p5777
g0
(g1
g2
Ntp5778
Rp5779
(dp5780
g6
g16
sg8
S'NUMBER'
p5781
sg10
(dp5782
S'how'
p5783
g0
(g1
g2
Ntp5784
Rp5785
(dp5786
g6
Nsg8
S'NUMBER'
p5787
sg10
Nsg24
NsbsS'what'
p5788
g0
(g1
g2
Ntp5789
Rp5790
(dp5791
g6
Nsg8
S'OTHER'
p5792
sg10
Nsg24
NsbsS'who'
p5793
g0
(g1
g2
Ntp5794
Rp5795
(dp5796
g6
Nsg8
S'PERSON'
p5797
sg10
Nsg24
Nsbssg24
NsbsS'sailor'
p5798
g0
(g1
g2
Ntp5799
Rp5800
(dp5801
g6
Nsg8
S'PERSON'
p5802
sg10
Nsg24
NsbsS'overalls'
p5803
g0
(g1
g2
Ntp5804
Rp5805
(dp5806
g6
Nsg8
S'OTHER'
p5807
sg10
Nsg24
NsbsS'earthworms'
p5808
g0
(g1
g2
Ntp5809
Rp5810
(dp5811
g6
Nsg8
S'NUMBER'
p5812
sg10
Nsg24
NsbsS'corporal'
p5813
g0
(g1
g2
Ntp5814
Rp5815
(dp5816
g6
Nsg8
S'PERSON'
p5817
sg10
Nsg24
NsbsS'razor'
p5818
g0
(g1
g2
Ntp5819
Rp5820
(dp5821
g6
Nsg8
S'OTHER'
p5822
sg10
Nsg24
NsbsS'story'
p5823
g0
(g1
g2
Ntp5824
Rp5825
(dp5826
g6
Nsg8
S'PERSON'
p5827
sg10
Nsg24
NsbsS'temperature'
p5828
g0
(g1
g2
Ntp5829
Rp5830
(dp5831
g6
Nsg8
S'NUMBER'
p5832
sg10
Nsg24
NsbsS'automobile'
p5833
g0
(g1
g2
Ntp5834
Rp5835
(dp5836
g6
g16
sg8
S'PERSON'
p5837
sg10
(dp5838
S'what'
p5839
g0
(g1
g2
Ntp5840
Rp5841
(dp5842
g6
Nsg8
S'OTHER'
p5843
sg10
Nsg24
NsbsS'who'
p5844
g0
(g1
g2
Ntp5845
Rp5846
(dp5847
g6
Nsg8
g5837
sg10
Nsg24
Nsbssg24
NsbsS'vocalist'
p5848
g0
(g1
g2
Ntp5849
Rp5850
(dp5851
g6
Nsg8
S'PERSON'
p5852
sg10
Nsg24
NsbsS'master'
p5853
g0
(g1
g2
Ntp5854
Rp5855
(dp5856
g6
Nsg8
S'PERSON'
p5857
sg10
Nsg24
NsbsS'syllables'
p5858
g0
(g1
g2
Ntp5859
Rp5860
(dp5861
g6
Nsg8
S'NUMBER'
p5862
sg10
Nsg24
NsbsS'syrup'
p5863
g0
(g1
g2
Ntp5864
Rp5865
(dp5866
g6
Nsg8
S'OTHER'
p5867
sg10
Nsg24
NsbsS'store'
p5868
g0
(g1
g2
Ntp5869
Rp5870
(dp5871
g6
g16
sg8
S'PERSON'
p5872
sg10
(dp5873
S'what'
p5874
g0
(g1
g2
Ntp5875
Rp5876
(dp5877
g6
Nsg8
S'PERSON'
p5878
sg10
Nsg24
NsbsS'where'
p5879
g0
(g1
g2
Ntp5880
Rp5881
(dp5882
g6
Nsg8
S'LOCATION'
p5883
sg10
Nsg24
Nsbssg24
NsbsS'muscles'
p5884
g0
(g1
g2
Ntp5885
Rp5886
(dp5887
g6
Nsg8
S'NUMBER'
p5888
sg10
Nsg24
NsbsS'circumnavigator'
p5889
g0
(g1
g2
Ntp5890
Rp5891
(dp5892
g6
Nsg8
S'PERSON'
p5893
sg10
Nsg24
NsbsS'hotel'
p5894
g0
(g1
g2
Ntp5895
Rp5896
(dp5897
g6
Nsg8
S'LOCATION'
p5898
sg10
Nsg24
NsbsS'park'
p5899
g0
(g1
g2
Ntp5900
Rp5901
(dp5902
g6
Nsg8
S'LOCATION'
p5903
sg10
Nsg24
NsbsS'part'
p5904
g0
(g1
g2
Ntp5905
Rp5906
(dp5907
g6
g16
sg8
S'PERSON'
p5908
sg10
(dp5909
S'the'
p5910
g0
(g1
g2
Ntp5911
Rp5912
(dp5913
g6
Nsg8
S'OTHER'
p5914
sg10
Nsg24
NsbsS'who'
p5915
g0
(g1
g2
Ntp5916
Rp5917
(dp5918
g6
Nsg8
S'PERSON'
p5919
sg10
Nsg24
NsbsS'what'
p5920
g0
(g1
g2
Ntp5921
Rp5922
(dp5923
g6
Nsg8
S'OTHER'
p5924
sg10
Nsg24
Nsbssg24
NsbsS'jordan'
p5925
g0
(g1
g2
Ntp5926
Rp5927
(dp5928
g6
Nsg8
S'PERSON'
p5929
sg10
Nsg24
NsbsS'cotrubas'
p5930
g0
(g1
g2
Ntp5931
Rp5932
(dp5933
g6
Nsg8
S'LOCATION'
p5934
sg10
Nsg24
NsbsS'translation'
p5935
g0
(g1
g2
Ntp5936
Rp5937
(dp5938
g6
Nsg8
S'OTHER'
p5939
sg10
Nsg24
NsbsS'surfboard'
p5940
g0
(g1
g2
Ntp5941
Rp5942
(dp5943
g6
Nsg8
S'PERSON'
p5944
sg10
Nsg24
NsbsS'king'
p5945
g0
(g1
g2
Ntp5946
Rp5947
(dp5948
g6
Nsg8
S'PERSON'
p5949
sg10
Nsg24
NsbsS'kind'
p5950
g0
(g1
g2
Ntp5951
Rp5952
(dp5953
g6
Nsg8
S'OTHER'
p5954
sg10
Nsg24
NsbsS'mahal'
p5955
g0
(g1
g2
Ntp5956
Rp5957
(dp5958
g6
Nsg8
S'LOCATION'
p5959
sg10
Nsg24
NsbsS'dogs'
p5960
g0
(g1
g2
Ntp5961
Rp5962
(dp5963
g6
g16
sg8
S'OTHER'
p5964
sg10
(dp5965
S'how'
p5966
g0
(g1
g2
Ntp5967
Rp5968
(dp5969
g6
Nsg8
S'NUMBER'
p5970
sg10
Nsg24
NsbsS'who'
p5971
g0
(g1
g2
Ntp5972
Rp5973
(dp5974
g6
Nsg8
g5964
sg10
Nsg24
Nsbssg24
NsbsS'architect'
p5975
g0
(g1
g2
Ntp5976
Rp5977
(dp5978
g6
Nsg8
S'PERSON'
p5979
sg10
Nsg24
NsbsS'nominee'
p5980
g0
(g1
g2
Ntp5981
Rp5982
(dp5983
g6
Nsg8
S'PERSON'
p5984
sg10
Nsg24
NsbsS'ages'
p5985
g0
(g1
g2
Ntp5986
Rp5987
(dp5988
g6
Nsg8
S'OTHER'
p5989
sg10
Nsg24
NsbsS'pedometer'
p5990
g0
(g1
g2
Ntp5991
Rp5992
(dp5993
g6
Nsg8
S'OTHER'
p5994
sg10
Nsg24
NsbsS'garfield'
p5995
g0
(g1
g2
Ntp5996
Rp5997
(dp5998
g6
Nsg8
S'PERSON'
p5999
sg10
Nsg24
NsbsS'showers'
p6000
g0
(g1
g2
Ntp6001
Rp6002
(dp6003
g6
Nsg8
S'LOCATION'
p6004
sg10
Nsg24
NsbsS'mountain'
p6005
g0
(g1
g2
Ntp6006
Rp6007
(dp6008
g6
Nsg8
S'LOCATION'
p6009
sg10
Nsg24
NsbsS'cherokee'
p6010
g0
(g1
g2
Ntp6011
Rp6012
(dp6013
g6
Nsg8
S'PERSON'
p6014
sg10
Nsg24
NsbsS'caesar'
p6015
g0
(g1
g2
Ntp6016
Rp6017
(dp6018
g6
Nsg8
S'PERSON'
p6019
sg10
Nsg24
NsbsS'chairman'
p6020
g0
(g1
g2
Ntp6021
Rp6022
(dp6023
g6
Nsg8
S'PERSON'
p6024
sg10
Nsg24
NsbsS'province'
p6025
g0
(g1
g2
Ntp6026
Rp6027
(dp6028
g6
Nsg8
S'LOCATION'
p6029
sg10
Nsg24
NsbsS'play'
p6030
g0
(g1
g2
Ntp6031
Rp6032
(dp6033
g6
Nsg8
S'OTHER'
p6034
sg10
Nsg24
NsbsS'godfather'
p6035
g0
(g1
g2
Ntp6036
Rp6037
(dp6038
g6
Nsg8
S'PERSON'
p6039
sg10
Nsg24
NsbsS'measures'
p6040
g0
(g1
g2
Ntp6041
Rp6042
(dp6043
g6
Nsg8
S'OTHER'
p6044
sg10
Nsg24
NsbsS'eruption'
p6045
g0
(g1
g2
Ntp6046
Rp6047
(dp6048
g6
Nsg8
S'DATE'
p6049
sg10
Nsg24
NsbsS'cigarette'
p6050
g0
(g1
g2
Ntp6051
Rp6052
(dp6053
g6
Nsg8
S'OTHER'
p6054
sg10
Nsg24
NsbsS'nothing'
p6055
g0
(g1
g2
Ntp6056
Rp6057
(dp6058
g6
Nsg8
S'PERSON'
p6059
sg10
Nsg24
NsbsS'salary'
p6060
g0
(g1
g2
Ntp6061
Rp6062
(dp6063
g6
Nsg8
S'MONEY'
p6064
sg10
Nsg24
NsbsS'cover'
p6065
g0
(g1
g2
Ntp6066
Rp6067
(dp6068
g6
g16
sg8
S'OTHER'
p6069
sg10
(dp6070
S'whose'
p6071
g0
(g1
g2
Ntp6072
Rp6073
(dp6074
g6
Nsg8
S'PERSON'
p6075
sg10
Nsg24
NsbsS'which'
p6076
g0
(g1
g2
Ntp6077
Rp6078
(dp6079
g6
Nsg8
g6069
sg10
Nsg24
Nsbssg24
NsbsS'rockefeller'
p6080
g0
(g1
g2
Ntp6081
Rp6082
(dp6083
g6
g16
sg8
S'DATE'
p6084
sg10
(dp6085
S'when'
p6086
g0
(g1
g2
Ntp6087
Rp6088
(dp6089
g6
Nsg8
g6084
sg10
Nsg24
NsbsS'which'
p6090
g0
(g1
g2
Ntp6091
Rp6092
(dp6093
g6
Nsg8
S'PERSON'
p6094
sg10
Nsg24
Nsbssg24
NsbsS'transplant'
p6095
g0
(g1
g2
Ntp6096
Rp6097
(dp6098
g6
Nsg8
S'DATE'
p6099
sg10
Nsg24
NsbsS'microsoft'
p6100
g0
(g1
g2
Ntp6101
Rp6102
(dp6103
g6
Nsg8
S'DATE'
p6104
sg10
Nsg24
NsbsS'thomas'
p6105
g0
(g1
g2
Ntp6106
Rp6107
(dp6108
g6
Nsg8
S'LOCATION'
p6109
sg10
Nsg24
NsbsS'golf'
p6110
g0
(g1
g2
Ntp6111
Rp6112
(dp6113
g6
Nsg8
S'OTHER'
p6114
sg10
Nsg24
NsbsS'phenomenon'
p6115
g0
(g1
g2
Ntp6116
Rp6117
(dp6118
g6
Nsg8
S'OTHER'
p6119
sg10
Nsg24
NsbsS'businesses'
p6120
g0
(g1
g2
Ntp6121
Rp6122
(dp6123
g6
g16
sg8
S'NUMBER'
p6124
sg10
(dp6125
S'how'
p6126
g0
(g1
g2
Ntp6127
Rp6128
(dp6129
g6
Nsg8
g6124
sg10
Nsg24
NsbsS'what'
p6130
g0
(g1
g2
Ntp6131
Rp6132
(dp6133
g6
Nsg8
S'PERSON'
p6134
sg10
Nsg24
Nsbssg24
NsbsS'finn'
p6135
g0
(g1
g2
Ntp6136
Rp6137
(dp6138
g6
Nsg8
S'PERSON'
p6139
sg10
Nsg24
NsbsS'fine'
p6140
g0
(g1
g2
Ntp6141
Rp6142
(dp6143
g6
Nsg8
S'MONEY'
p6144
sg10
Nsg24
NsbsS'albums'
p6145
g0
(g1
g2
Ntp6146
Rp6147
(dp6148
g6
Nsg8
S'OTHER'
p6149
sg10
Nsg24
NsbsS'occupation'
p6150
g0
(g1
g2
Ntp6151
Rp6152
(dp6153
g6
Nsg8
S'PERSON'
p6154
sg10
Nsg24
NsbsS'deserts'
p6155
g0
(g1
g2
Ntp6156
Rp6157
(dp6158
g6
Nsg8
S'LOCATION'
p6159
sg10
Nsg24
NsbsS'ruin'
p6160
g0
(g1
g2
Ntp6161
Rp6162
(dp6163
g6
Nsg8
S'OTHER'
p6164
sg10
Nsg24
NsbsS'writer'
p6165
g0
(g1
g2
Ntp6166
Rp6167
(dp6168
g6
Nsg8
S'PERSON'
p6169
sg10
Nsg24
NsbsS'penalty'
p6170
g0
(g1
g2
Ntp6171
Rp6172
(dp6173
g6
Nsg8
S'OTHER'
p6174
sg10
Nsg24
NsbsS'viagra'
p6175
g0
(g1
g2
Ntp6176
Rp6177
(dp6178
g6
Nsg8
S'PERSON'
p6179
sg10
Nsg24
NsbsS'circle'
p6180
g0
(g1
g2
Ntp6181
Rp6182
(dp6183
g6
Nsg8
S'OTHER'
p6184
sg10
Nsg24
NsbsS'bernstein'
p6185
g0
(g1
g2
Ntp6186
Rp6187
(dp6188
g6
Nsg8
S'PERSON'
p6189
sg10
Nsg24
NsbsS'racehorse'
p6190
g0
(g1
g2
Ntp6191
Rp6192
(dp6193
g6
Nsg8
S'OTHER'
p6194
sg10
Nsg24
NsbsS'hit'
p6195
g0
(g1
g2
Ntp6196
Rp6197
(dp6198
g6
Nsg8
S'PERSON'
p6199
sg10
Nsg24
NsbsS'renaud'
p6200
g0
(g1
g2
Ntp6201
Rp6202
(dp6203
g6
Nsg8
S'PERSON'
p6204
sg10
Nsg24
NsbsS'referees'
p6205
g0
(g1
g2
Ntp6206
Rp6207
(dp6208
g6
Nsg8
S'NUMBER'
p6209
sg10
Nsg24
NsbsS'penny-farthings'
p6210
g0
(g1
g2
Ntp6211
Rp6212
(dp6213
g6
Nsg8
S'NUMBER'
p6214
sg10
Nsg24
NsbsS'banner'
p6215
g0
(g1
g2
Ntp6216
Rp6217
(dp6218
g6
Nsg8
S'DATE'
p6219
sg10
Nsg24
NsbsS'nicholas'
p6220
g0
(g1
g2
Ntp6221
Rp6222
(dp6223
g6
Nsg8
S'LOCATION'
p6224
sg10
Nsg24
NsbsS'clinic'
p6225
g0
(g1
g2
Ntp6226
Rp6227
(dp6228
g6
Nsg8
S'LOCATION'
p6229
sg10
Nsg24
NsbsS'abolitionists'
p6230
g0
(g1
g2
Ntp6231
Rp6232
(dp6233
g6
Nsg8
S'OTHER'
p6234
sg10
Nsg24
NsbsS'river'
p6235
g0
(g1
g2
Ntp6236
Rp6237
(dp6238
g6
Nsg8
S'LOCATION'
p6239
sg10
Nsg24
NsbsS'art'
p6240
g0
(g1
g2
Ntp6241
Rp6242
(dp6243
g6
Nsg8
S'DATE'
p6244
sg10
Nsg24
NsbsS'creator'
p6245
g0
(g1
g2
Ntp6246
Rp6247
(dp6248
g6
Nsg8
S'PERSON'
p6249
sg10
Nsg24
NsbsS'farrier'
p6250
g0
(g1
g2
Ntp6251
Rp6252
(dp6253
g6
Nsg8
S'OTHER'
p6254
sg10
Nsg24
NsbsS'sex'
p6255
g0
(g1
g2
Ntp6256
Rp6257
(dp6258
g6
Nsg8
S'OTHER'
p6259
sg10
Nsg24
NsbsS'culture'
p6260
g0
(g1
g2
Ntp6261
Rp6262
(dp6263
g6
Nsg8
S'PERSON'
p6264
sg10
Nsg24
NsbsS'lion'
p6265
g0
(g1
g2
Ntp6266
Rp6267
(dp6268
g6
Nsg8
S'PERSON'
p6269
sg10
Nsg24
NsbsS'individual'
p6270
g0
(g1
g2
Ntp6271
Rp6272
(dp6273
g6
Nsg8
S'LOCATION'
p6274
sg10
Nsg24
NsbsS'sea'
p6275
g0
(g1
g2
Ntp6276
Rp6277
(dp6278
g6
Nsg8
S'LOCATION'
p6279
sg10
Nsg24
NsbsS'constellation'
p6280
g0
(g1
g2
Ntp6281
Rp6282
(dp6283
g6
Nsg8
S'LOCATION'
p6284
sg10
Nsg24
NsbsS'movie'
p6285
g0
(g1
g2
Ntp6286
Rp6287
(dp6288
g6
Nsg8
S'OTHER'
p6289
sg10
Nsg24
NsbsS'libraries'
p6290
g0
(g1
g2
Ntp6291
Rp6292
(dp6293
g6
Nsg8
S'LOCATION'
p6294
sg10
Nsg24
NsbsS'fans'
p6295
g0
(g1
g2
Ntp6296
Rp6297
(dp6298
g6
Nsg8
S'PERSON'
p6299
sg10
Nsg24
NsbsS'latin'
p6300
g0
(g1
g2
Ntp6301
Rp6302
(dp6303
g6
Nsg8
S'OTHER'
p6304
sg10
Nsg24
NsbsS'tristan'
p6305
g0
(g1
g2
Ntp6306
Rp6307
(dp6308
g6
Nsg8
S'OTHER'
p6309
sg10
Nsg24
NsbsS'conservationist'
p6310
g0
(g1
g2
Ntp6311
Rp6312
(dp6313
g6
Nsg8
S'PERSON'
p6314
sg10
Nsg24
NsbsS'league'
p6315
g0
(g1
g2
Ntp6316
Rp6317
(dp6318
g6
Nsg8
S'PERSON'
p6319
sg10
Nsg24
NsbsS'restaurant'
p6320
g0
(g1
g2
Ntp6321
Rp6322
(dp6323
g6
Nsg8
S'LOCATION'
p6324
sg10
Nsg24
NsbsS'thor'
p6325
g0
(g1
g2
Ntp6326
Rp6327
(dp6328
g6
Nsg8
S'PERSON'
p6329
sg10
Nsg24
NsbsS'connection'
p6330
g0
(g1
g2
Ntp6331
Rp6332
(dp6333
g6
Nsg8
S'OTHER'
p6334
sg10
Nsg24
NsbsS'canadians'
p6335
g0
(g1
g2
Ntp6336
Rp6337
(dp6338
g6
Nsg8
S'NUMBER'
p6339
sg10
Nsg24
NsbsS'baseball'
p6340
g0
(g1
g2
Ntp6341
Rp6342
(dp6343
g6
g16
sg8
S'PERSON'
p6344
sg10
(dp6345
S'how'
p6346
g0
(g1
g2
Ntp6347
Rp6348
(dp6349
g6
Nsg8
S'NUMBER'
p6350
sg10
Nsg24
NsbsS'what'
p6351
g0
(g1
g2
Ntp6352
Rp6353
(dp6354
g6
Nsg8
S'PERSON'
p6355
sg10
Nsg24
NsbsS'who'
p6356
g0
(g1
g2
Ntp6357
Rp6358
(dp6359
g6
Nsg8
S'PERSON'
p6360
sg10
Nsg24
Nsbssg24
NsbsS'yards'
p6361
g0
(g1
g2
Ntp6362
Rp6363
(dp6364
g6
g16
sg8
S'NUMBER'
p6365
sg10
(dp6366
S'how'
p6367
g0
(g1
g2
Ntp6368
Rp6369
(dp6370
g6
Nsg8
g6365
sg10
Nsg24
NsbsS'what'
p6371
g0
(g1
g2
Ntp6372
Rp6373
(dp6374
g6
Nsg8
S'OTHER'
p6375
sg10
Nsg24
Nsbssg24
NsbsS'pendulum'
p6376
g0
(g1
g2
Ntp6377
Rp6378
(dp6379
g6
Nsg8
S'PERSON'
p6380
sg10
Nsg24
NsbsS'point'
p6381
g0
(g1
g2
Ntp6382
Rp6383
(dp6384
g6
Nsg8
S'LOCATION'
p6385
sg10
Nsg24
NsbsS'battery'
p6386
g0
(g1
g2
Ntp6387
Rp6388
(dp6389
g6
Nsg8
S'PERSON'
p6390
sg10
Nsg24
NsbsS'community'
p6391
g0
(g1
g2
Ntp6392
Rp6393
(dp6394
g6
Nsg8
S'NUMBER'
p6395
sg10
Nsg24
NsbsS'leos'
p6396
g0
(g1
g2
Ntp6397
Rp6398
(dp6399
g6
Nsg8
S'NUMBER'
p6400
sg10
Nsg24
NsbsS'church'
p6401
g0
(g1
g2
Ntp6402
Rp6403
(dp6404
g6
Nsg8
S'PERSON'
p6405
sg10
Nsg24
NsbsS'vessel'
p6406
g0
(g1
g2
Ntp6407
Rp6408
(dp6409
g6
Nsg8
S'OTHER'
p6410
sg10
Nsg24
NsbsS'belt'
p6411
g0
(g1
g2
Ntp6412
Rp6413
(dp6414
g6
Nsg8
S'OTHER'
p6415
sg10
Nsg24
NsbsS'milton'
p6416
g0
(g1
g2
Ntp6417
Rp6418
(dp6419
g6
Nsg8
S'OTHER'
p6420
sg10
Nsg24
NsbsS'trilogy'
p6421
g0
(g1
g2
Ntp6422
Rp6423
(dp6424
g6
Nsg8
S'OTHER'
p6425
sg10
Nsg24
NsbsS'mutiny'
p6426
g0
(g1
g2
Ntp6427
Rp6428
(dp6429
g6
g16
sg8
S'PERSON'
p6430
sg10
(dp6431
S'who'
p6432
g0
(g1
g2
Ntp6433
Rp6434
(dp6435
g6
Nsg8
g6430
sg10
Nsg24
NsbsS'when'
p6436
g0
(g1
g2
Ntp6437
Rp6438
(dp6439
g6
Nsg8
S'DATE'
p6440
sg10
Nsg24
Nsbssg24
NsbsS'make-up'
p6441
g0
(g1
g2
Ntp6442
Rp6443
(dp6444
g6
Nsg8
S'PERSON'
p6445
sg10
Nsg24
NsbsS'meeting'
p6446
g0
(g1
g2
Ntp6447
Rp6448
(dp6449
g6
Nsg8
S'LOCATION'
p6450
sg10
Nsg24
NsbsS'flight'
p6451
g0
(g1
g2
Ntp6452
Rp6453
(dp6454
g6
Nsg8
S'OTHER'
p6455
sg10
Nsg24
NsbsS'champion'
p6456
g0
(g1
g2
Ntp6457
Rp6458
(dp6459
g6
Nsg8
S'PERSON'
p6460
sg10
Nsg24
NsbsS'fire'
p6461
g0
(g1
g2
Ntp6462
Rp6463
(dp6464
g6
Nsg8
S'DATE'
p6465
sg10
Nsg24
NsbsS'crack'
p6466
g0
(g1
g2
Ntp6467
Rp6468
(dp6469
g6
Nsg8
S'OTHER'
p6470
sg10
Nsg24
NsbsS'races'
p6471
g0
(g1
g2
Ntp6472
Rp6473
(dp6474
g6
Nsg8
S'PERSON'
p6475
sg10
Nsg24
NsbsS'jell-o'
p6476
g0
(g1
g2
Ntp6477
Rp6478
(dp6479
g6
Nsg8
S'OTHER'
p6480
sg10
Nsg24
NsbsS'plants'
p6481
g0
(g1
g2
Ntp6482
Rp6483
(dp6484
g6
Nsg8
S'OTHER'
p6485
sg10
Nsg24
NsbsS'look'
p6486
g0
(g1
g2
Ntp6487
Rp6488
(dp6489
g6
Nsg8
S'PERSON'
p6490
sg10
Nsg24
NsbsS'bill'
p6491
g0
(g1
g2
Ntp6492
Rp6493
(dp6494
g6
g16
sg8
S'PERSON'
p6495
sg10
(dp6496
S'who'
p6497
g0
(g1
g2
Ntp6498
Rp6499
(dp6500
g6
Nsg8
g6495
sg10
Nsg24
NsbsS'when'
p6501
g0
(g1
g2
Ntp6502
Rp6503
(dp6504
g6
Nsg8
S'DATE'
p6505
sg10
Nsg24
Nsbssg24
NsbsS'governor'
p6506
g0
(g1
g2
Ntp6507
Rp6508
(dp6509
g6
Nsg8
S'PERSON'
p6510
sg10
Nsg24
NsbsS'loop'
p6511
g0
(g1
g2
Ntp6512
Rp6513
(dp6514
g6
Nsg8
S'LOCATION'
p6515
sg10
Nsg24
NsbsS'potlatch'
p6516
g0
(g1
g2
Ntp6517
Rp6518
(dp6519
g6
Nsg8
S'PERSON'
p6520
sg10
Nsg24
NsbsS'century'
p6521
g0
(g1
g2
Ntp6522
Rp6523
(dp6524
g6
Nsg8
S'DATE'
p6525
sg10
Nsg24
NsbsS'calculator'
p6526
g0
(g1
g2
Ntp6527
Rp6528
(dp6529
g6
Nsg8
S'OTHER'
p6530
sg10
Nsg24
NsbsS'lengths'
p6531
g0
(g1
g2
Ntp6532
Rp6533
(dp6534
g6
Nsg8
S'NUMBER'
p6535
sg10
Nsg24
NsbsS'fraze'
p6536
g0
(g1
g2
Ntp6537
Rp6538
(dp6539
g6
Nsg8
S'DATE'
p6540
sg10
Nsg24
NsbsS'liston'
p6541
g0
(g1
g2
Ntp6542
Rp6543
(dp6544
g6
Nsg8
S'PERSON'
p6545
sg10
Nsg24
NsbsS'kennedy'
p6546
g0
(g1
g2
Ntp6547
Rp6548
(dp6549
g6
g16
sg8
S'OTHER'
p6550
sg10
(dp6551
S'what'
p6552
g0
(g1
g2
Ntp6553
Rp6554
(dp6555
g6
Nsg8
g6550
sg10
Nsg24
NsbsS'who'
p6556
g0
(g1
g2
Ntp6557
Rp6558
(dp6559
g6
Nsg8
S'PERSON'
p6560
sg10
Nsg24
Nsbssg24
NsbsS'ruth'
p6561
g0
(g1
g2
Ntp6562
Rp6563
(dp6564
g6
Nsg8
S'DATE'
p6565
sg10
Nsg24
NsbsS'composition'
p6566
g0
(g1
g2
Ntp6567
Rp6568
(dp6569
g6
Nsg8
S'OTHER'
p6570
sg10
Nsg24
NsbsS'daughters'
p6571
g0
(g1
g2
Ntp6572
Rp6573
(dp6574
g6
Nsg8
S'PERSON'
p6575
sg10
Nsg24
NsbsS'commune'
p6576
g0
(g1
g2
Ntp6577
Rp6578
(dp6579
g6
Nsg8
S'PERSON'
p6580
sg10
Nsg24
NsbsS'strips'
p6581
g0
(g1
g2
Ntp6582
Rp6583
(dp6584
g6
Nsg8
S'OTHER'
p6585
sg10
Nsg24
NsbsS'lawyers'
p6586
g0
(g1
g2
Ntp6587
Rp6588
(dp6589
g6
Nsg8
S'NUMBER'
p6590
sg10
Nsg24
NsbsS'huston'
p6591
g0
(g1
g2
Ntp6592
Rp6593
(dp6594
g6
Nsg8
S'OTHER'
p6595
sg10
Nsg24
NsbsS'holidays'
p6596
g0
(g1
g2
Ntp6597
Rp6598
(dp6599
g6
Nsg8
S'OTHER'
p6600
sg10
Nsg24
NsbsS'husbands'
p6601
g0
(g1
g2
Ntp6602
Rp6603
(dp6604
g6
Nsg8
S'PERSON'
p6605
sg10
Nsg24
NsbsS'nickname'
p6606
g0
(g1
g2
Ntp6607
Rp6608
(dp6609
g6
Nsg8
S'PERSON'
p6610
sg10
Nsg24
NsbsS'beanie'
p6611
g0
(g1
g2
Ntp6612
Rp6613
(dp6614
g6
Nsg8
S'NUMBER'
p6615
sg10
Nsg24
NsbsS'task'
p6616
g0
(g1
g2
Ntp6617
Rp6618
(dp6619
g6
Nsg8
S'PERSON'
p6620
sg10
Nsg24
NsbsS'person'
p6621
g0
(g1
g2
Ntp6622
Rp6623
(dp6624
g6
Nsg8
S'PERSON'
p6625
sg10
Nsg24
NsbsS'chronicles'
p6626
g0
(g1
g2
Ntp6627
Rp6628
(dp6629
g6
Nsg8
S'LOCATION'
p6630
sg10
Nsg24
NsbsS'landmark'
p6631
g0
(g1
g2
Ntp6632
Rp6633
(dp6634
g6
Nsg8
S'LOCATION'
p6635
sg10
Nsg24
NsbsS'organization'
p6636
g0
(g1
g2
Ntp6637
Rp6638
(dp6639
g6
Nsg8
S'PERSON'
p6640
sg10
Nsg24
NsbsS'ambassador'
p6641
g0
(g1
g2
Ntp6642
Rp6643
(dp6644
g6
g16
sg8
S'DATE'
p6645
sg10
(dp6646
S'who'
p6647
g0
(g1
g2
Ntp6648
Rp6649
(dp6650
g6
Nsg8
S'PERSON'
p6651
sg10
Nsg24
NsbsS'when'
p6652
g0
(g1
g2
Ntp6653
Rp6654
(dp6655
g6
Nsg8
g6645
sg10
Nsg24
Nsbssg24
NsbsS'lobsters'
p6656
g0
(g1
g2
Ntp6657
Rp6658
(dp6659
g6
Nsg8
S'LOCATION'
p6660
sg10
Nsg24
NsbsS'quarters'
p6661
g0
(g1
g2
Ntp6662
Rp6663
(dp6664
g6
Nsg8
S'NUMBER'
p6665
sg10
Nsg24
NsbsS'shape'
p6666
g0
(g1
g2
Ntp6667
Rp6668
(dp6669
g6
g16
sg8
S'OTHER'
p6670
sg10
(dp6671
S'what'
p6672
g0
(g1
g2
Ntp6673
Rp6674
(dp6675
g6
Nsg8
S'OTHER'
p6676
sg10
Nsg24
NsbsS'where'
p6677
g0
(g1
g2
Ntp6678
Rp6679
(dp6680
g6
Nsg8
S'LOCATION'
p6681
sg10
Nsg24
Nsbssg24
NsbsS'questions'
p6682
g0
(g1
g2
Ntp6683
Rp6684
(dp6685
g6
Nsg8
S'NUMBER'
p6686
sg10
Nsg24
NsbsS'continent'
p6687
g0
(g1
g2
Ntp6688
Rp6689
(dp6690
g6
Nsg8
S'LOCATION'
p6691
sg10
Nsg24
NsbsS'superbowls'
p6692
g0
(g1
g2
Ntp6693
Rp6694
(dp6695
g6
Nsg8
S'NUMBER'
p6696
sg10
Nsg24
NsbsS'wage'
p6697
g0
(g1
g2
Ntp6698
Rp6699
(dp6700
g6
Nsg8
S'MONEY'
p6701
sg10
Nsg24
NsbsS'cup'
p6702
g0
(g1
g2
Ntp6703
Rp6704
(dp6705
g6
Nsg8
S'PERSON'
p6706
sg10
Nsg24
NsbsS'alternate'
p6707
g0
(g1
g2
Ntp6708
Rp6709
(dp6710
g6
Nsg8
S'OTHER'
p6711
sg10
Nsg24
NsbsS'source'
p6712
g0
(g1
g2
Ntp6713
Rp6714
(dp6715
g6
Nsg8
S'OTHER'
p6716
sg10
Nsg24
NsbsS'location'
p6717
g0
(g1
g2
Ntp6718
Rp6719
(dp6720
g6
Nsg8
S'LOCATION'
p6721
sg10
Nsg24
NsbsS'format'
p6722
g0
(g1
g2
Ntp6723
Rp6724
(dp6725
g6
Nsg8
S'OTHER'
p6726
sg10
Nsg24
NsbsS'couple'
p6727
g0
(g1
g2
Ntp6728
Rp6729
(dp6730
g6
Nsg8
S'PERSON'
p6731
sg10
Nsg24
NsbsS'advocate'
p6732
g0
(g1
g2
Ntp6733
Rp6734
(dp6735
g6
Nsg8
S'PERSON'
p6736
sg10
Nsg24
NsbsS'wives'
p6737
g0
(g1
g2
Ntp6738
Rp6739
(dp6740
g6
Nsg8
S'NUMBER'
p6741
sg10
Nsg24
NsbsS'game'
p6742
g0
(g1
g2
Ntp6743
Rp6744
(dp6745
g6
g16
sg8
S'OTHER'
p6746
sg10
(dp6747
S'what'
p6748
g0
(g1
g2
Ntp6749
Rp6750
(dp6751
g6
Nsg8
S'OTHER'
p6752
sg10
Nsg24
NsbsS'who'
p6753
g0
(g1
g2
Ntp6754
Rp6755
(dp6756
g6
Nsg8
S'PERSON'
p6757
sg10
Nsg24
Nsbssg24
NsbsS'gama'
p6758
g0
(g1
g2
Ntp6759
Rp6760
(dp6761
g6
Nsg8
S'OTHER'
p6762
sg10
Nsg24
NsbsS'wings'
p6763
g0
(g1
g2
Ntp6764
Rp6765
(dp6766
g6
Nsg8
S'NUMBER'
p6767
sg10
Nsg24
NsbsS'pillar'
p6768
g0
(g1
g2
Ntp6769
Rp6770
(dp6771
g6
Nsg8
S'PERSON'
p6772
sg10
Nsg24
NsbsS'disks'
p6773
g0
(g1
g2
Ntp6774
Rp6775
(dp6776
g6
Nsg8
S'NUMBER'
p6777
sg10
Nsg24
NsbsS'eidologist'
p6778
g0
(g1
g2
Ntp6779
Rp6780
(dp6781
g6
Nsg8
S'OTHER'
p6782
sg10
Nsg24
NsbsS'judson'
p6783
g0
(g1
g2
Ntp6784
Rp6785
(dp6786
g6
Nsg8
S'PERSON'
p6787
sg10
Nsg24
NsbsS'methods'
p6788
g0
(g1
g2
Ntp6789
Rp6790
(dp6791
g6
Nsg8
S'OTHER'
p6792
sg10
Nsg24
NsbsS'qatar'
p6793
g0
(g1
g2
Ntp6794
Rp6795
(dp6796
g6
Nsg8
S'LOCATION'
p6797
sg10
Nsg24
NsbsS'singing'
p6798
g0
(g1
g2
Ntp6799
Rp6800
(dp6801
g6
Nsg8
S'PERSON'
p6802
sg10
Nsg24
NsbsS'religion'
p6803
g0
(g1
g2
Ntp6804
Rp6805
(dp6806
g6
Nsg8
S'OTHER'
p6807
sg10
Nsg24
NsbsS'civilization'
p6808
g0
(g1
g2
Ntp6809
Rp6810
(dp6811
g6
Nsg8
S'PERSON'
p6812
sg10
Nsg24
NsbsS'epic'
p6813
g0
(g1
g2
Ntp6814
Rp6815
(dp6816
g6
Nsg8
S'OTHER'
p6817
sg10
Nsg24
NsbsS'rum'
p6818
g0
(g1
g2
Ntp6819
Rp6820
(dp6821
g6
Nsg8
S'OTHER'
p6822
sg10
Nsg24
NsbsS'weir'
p6823
g0
(g1
g2
Ntp6824
Rp6825
(dp6826
g6
Nsg8
S'PERSON'
p6827
sg10
Nsg24
NsbsS'hostages'
p6828
g0
(g1
g2
Ntp6829
Rp6830
(dp6831
g6
Nsg8
S'NUMBER'
p6832
sg10
Nsg24
NsbsS'pitchers'
p6833
g0
(g1
g2
Ntp6834
Rp6835
(dp6836
g6
Nsg8
S'NUMBER'
p6837
sg10
Nsg24
NsbsS'vaccine'
p6838
g0
(g1
g2
Ntp6839
Rp6840
(dp6841
g6
g16
sg8
S'OTHER'
p6842
sg10
(dp6843
S'what'
p6844
g0
(g1
g2
Ntp6845
Rp6846
(dp6847
g6
Nsg8
g6842
sg10
Nsg24
NsbsS'who'
p6848
g0
(g1
g2
Ntp6849
Rp6850
(dp6851
g6
Nsg8
S'PERSON'
p6852
sg10
Nsg24
Nsbssg24
NsbsS'faith'
p6853
g0
(g1
g2
Ntp6854
Rp6855
(dp6856
g6
Nsg8
S'PERSON'
p6857
sg10
Nsg24
NsbsS'melbourne'
p6858
g0
(g1
g2
Ntp6859
Rp6860
(dp6861
g6
Nsg8
S'LOCATION'
p6862
sg10
Nsg24
NsbsS'congressman'
p6863
g0
(g1
g2
Ntp6864
Rp6865
(dp6866
g6
Nsg8
S'PERSON'
p6867
sg10
Nsg24
NsbsS'block'
p6868
g0
(g1
g2
Ntp6869
Rp6870
(dp6871
g6
Nsg8
S'LOCATION'
p6872
sg10
Nsg24
NsbsS'clinton'
p6873
g0
(g1
g2
Ntp6874
Rp6875
(dp6876
g6
Nsg8
S'LOCATION'
p6877
sg10
Nsg24
NsbsS'comedienne'
p6878
g0
(g1
g2
Ntp6879
Rp6880
(dp6881
g6
Nsg8
S'PERSON'
p6882
sg10
Nsg24
NsbsS'frames'
p6883
g0
(g1
g2
Ntp6884
Rp6885
(dp6886
g6
Nsg8
S'NUMBER'
p6887
sg10
Nsg24
NsbsS'canal'
p6888
g0
(g1
g2
Ntp6889
Rp6890
(dp6891
g6
Nsg8
S'LOCATION'
p6892
sg10
Nsg24
NsbsS'jockey'
p6893
g0
(g1
g2
Ntp6894
Rp6895
(dp6896
g6
Nsg8
S'PERSON'
p6897
sg10
Nsg24
NsbsS'span'
p6898
g0
(g1
g2
Ntp6899
Rp6900
(dp6901
g6
Nsg8
S'TIME'
p6902
sg10
Nsg24
NsbsS'question'
p6903
g0
(g1
g2
Ntp6904
Rp6905
(dp6906
g6
Nsg8
S'PERSON'
p6907
sg10
Nsg24
NsbsS'suit'
p6908
g0
(g1
g2
Ntp6909
Rp6910
(dp6911
g6
Nsg8
S'OTHER'
p6912
sg10
Nsg24
NsbsS'warlock'
p6913
g0
(g1
g2
Ntp6914
Rp6915
(dp6916
g6
Nsg8
S'OTHER'
p6917
sg10
Nsg24
NsbsS'mountains'
p6918
g0
(g1
g2
Ntp6919
Rp6920
(dp6921
g6
g16
sg8
S'NUMBER'
p6922
sg10
(dp6923
S'how'
p6924
g0
(g1
g2
Ntp6925
Rp6926
(dp6927
g6
Nsg8
g6922
sg10
Nsg24
NsbsS'what'
p6928
g0
(g1
g2
Ntp6929
Rp6930
(dp6931
g6
Nsg8
S'LOCATION'
p6932
sg10
Nsg24
Nsbssg24
NsbsS'quetzalcoatl'
p6933
g0
(g1
g2
Ntp6934
Rp6935
(dp6936
g6
Nsg8
S'PERSON'
p6937
sg10
Nsg24
NsbsS'inches'
p6938
g0
(g1
g2
Ntp6939
Rp6940
(dp6941
g6
Nsg8
S'NUMBER'
p6942
sg10
Nsg24
NsbsS'boys'
p6943
g0
(g1
g2
Ntp6944
Rp6945
(dp6946
g6
Nsg8
S'NUMBER'
p6947
sg10
Nsg24
NsbsS'line'
p6948
g0
(g1
g2
Ntp6949
Rp6950
(dp6951
g6
Nsg8
S'PERSON'
p6952
sg10
Nsg24
NsbsS'us'
p6953
g0
(g1
g2
Ntp6954
Rp6955
(dp6956
g6
Nsg8
S'PERSON'
p6957
sg10
Nsg24
NsbsS'planet'
p6958
g0
(g1
g2
Ntp6959
Rp6960
(dp6961
g6
Nsg8
S'LOCATION'
p6962
sg10
Nsg24
NsbsS'mozambique'
p6963
g0
(g1
g2
Ntp6964
Rp6965
(dp6966
g6
Nsg8
S'LOCATION'
p6967
sg10
Nsg24
NsbsS'sort'
p6968
g0
(g1
g2
Ntp6969
Rp6970
(dp6971
g6
Nsg8
S'OTHER'
p6972
sg10
Nsg24
NsbsS'duckling'
p6973
g0
(g1
g2
Ntp6974
Rp6975
(dp6976
g6
Nsg8
S'PERSON'
p6977
sg10
Nsg24
NsbsS'expedition'
p6978
g0
(g1
g2
Ntp6979
Rp6980
(dp6981
g6
Nsg8
S'OTHER'
p6982
sg10
Nsg24
NsbsS'unsafe'
p6983
g0
(g1
g2
Ntp6984
Rp6985
(dp6986
g6
Nsg8
S'PERSON'
p6987
sg10
Nsg24
NsbsS'majal'
p6988
g0
(g1
g2
Ntp6989
Rp6990
(dp6991
g6
Nsg8
S'OTHER'
p6992
sg10
Nsg24
NsbsS'nostradamus'
p6993
g0
(g1
g2
Ntp6994
Rp6995
(dp6996
g6
Nsg8
S'DATE'
p6997
sg10
Nsg24
NsbsS'camcorders'
p6998
g0
(g1
g2
Ntp6999
Rp7000
(dp7001
g6
Nsg8
S'DATE'
p7002
sg10
Nsg24
NsbsS'corners'
p7003
g0
(g1
g2
Ntp7004
Rp7005
(dp7006
g6
Nsg8
S'NUMBER'
p7007
sg10
Nsg24
NsbsS'actors'
p7008
g0
(g1
g2
Ntp7009
Rp7010
(dp7011
g6
Nsg8
S'NUMBER'
p7012
sg10
Nsg24
NsbsS'income'
p7013
g0
(g1
g2
Ntp7014
Rp7015
(dp7016
g6
Nsg8
S'MONEY'
p7017
sg10
Nsg24
NsbsS'department'
p7018
g0
(g1
g2
Ntp7019
Rp7020
(dp7021
g6
Nsg8
S'PERSON'
p7022
sg10
Nsg24
NsbsS'mayonnaise'
p7023
g0
(g1
g2
Ntp7024
Rp7025
(dp7026
g6
Nsg8
S'OTHER'
p7027
sg10
Nsg24
NsbsS'elements'
p7028
g0
(g1
g2
Ntp7029
Rp7030
(dp7031
g6
g16
sg8
S'OTHER'
p7032
sg10
(dp7033
S'how'
p7034
g0
(g1
g2
Ntp7035
Rp7036
(dp7037
g6
Nsg8
S'NUMBER'
p7038
sg10
Nsg24
NsbsS'what'
p7039
g0
(g1
g2
Ntp7040
Rp7041
(dp7042
g6
Nsg8
S'OTHER'
p7043
sg10
Nsg24
Nsbssg24
NsbsS'lucia'
p7044
g0
(g1
g2
Ntp7045
Rp7046
(dp7047
g6
Nsg8
S'LOCATION'
p7048
sg10
Nsg24
NsbsS'lens'
p7049
g0
(g1
g2
Ntp7050
Rp7051
(dp7052
g6
Nsg8
S'OTHER'
p7053
sg10
Nsg24
NsbsS'sides'
p7054
g0
(g1
g2
Ntp7055
Rp7056
(dp7057
g6
Nsg8
S'NUMBER'
p7058
sg10
Nsg24
NsbsS'structure'
p7059
g0
(g1
g2
Ntp7060
Rp7061
(dp7062
g6
Nsg8
S'OTHER'
p7063
sg10
Nsg24
NsbsS'miles'
p7064
g0
(g1
g2
Ntp7065
Rp7066
(dp7067
g6
Nsg8
S'NUMBER'
p7068
sg10
Nsg24
NsbsS'age'
p7069
g0
(g1
g2
Ntp7070
Rp7071
(dp7072
g6
Nsg8
S'TIME'
p7073
sg10
Nsg24
NsbsS'vehicles'
p7074
g0
(g1
g2
Ntp7075
Rp7076
(dp7077
g6
Nsg8
S'OTHER'
p7078
sg10
Nsg24
NsbsS'holes'
p7079
g0
(g1
g2
Ntp7080
Rp7081
(dp7082
g6
Nsg8
S'NUMBER'
p7083
sg10
Nsg24
NsbsS'feud'
p7084
g0
(g1
g2
Ntp7085
Rp7086
(dp7087
g6
Nsg8
S'OTHER'
p7088
sg10
Nsg24
NsbsS'walker'
p7089
g0
(g1
g2
Ntp7090
Rp7091
(dp7092
g6
Nsg8
S'LOCATION'
p7093
sg10
Nsg24
NsbsS'menace'
p7094
g0
(g1
g2
Ntp7095
Rp7096
(dp7097
g6
Nsg8
S'OTHER'
p7098
sg10
Nsg24
NsbsS'code'
p7099
g0
(g1
g2
Ntp7100
Rp7101
(dp7102
g6
Nsg8
S'NUMBER'
p7103
sg10
Nsg24
NsbsS'astronauts'
p7104
g0
(g1
g2
Ntp7105
Rp7106
(dp7107
g6
Nsg8
S'NUMBER'
p7108
sg10
Nsg24
NsbsS'gang'
p7109
g0
(g1
g2
Ntp7110
Rp7111
(dp7112
g6
Nsg8
S'OTHER'
p7113
sg10
Nsg24
NsbsS'super-teams'
p7114
g0
(g1
g2
Ntp7115
Rp7116
(dp7117
g6
Nsg8
S'PERSON'
p7118
sg10
Nsg24
NsbsS'birthplace'
p7119
g0
(g1
g2
Ntp7120
Rp7121
(dp7122
g6
Nsg8
S'LOCATION'
p7123
sg10
Nsg24
NsbsS'simon'
p7124
g0
(g1
g2
Ntp7125
Rp7126
(dp7127
g6
Nsg8
S'OTHER'
p7128
sg10
Nsg24
NsbsS'vesuvius'
p7129
g0
(g1
g2
Ntp7130
Rp7131
(dp7132
g6
Nsg8
S'DATE'
p7133
sg10
Nsg24
NsbsS'lyrics'
p7134
g0
(g1
g2
Ntp7135
Rp7136
(dp7137
g6
Nsg8
S'PERSON'
p7138
sg10
Nsg24
NsbsS'vietnamese'
p7139
g0
(g1
g2
Ntp7140
Rp7141
(dp7142
g6
Nsg8
S'NUMBER'
p7143
sg10
Nsg24
NsbsS'languages'
p7144
g0
(g1
g2
Ntp7145
Rp7146
(dp7147
g6
g16
sg8
S'NUMBER'
p7148
sg10
(dp7149
S'how'
p7150
g0
(g1
g2
Ntp7151
Rp7152
(dp7153
g6
Nsg8
S'NUMBER'
p7154
sg10
Nsg24
NsbsS'what'
p7155
g0
(g1
g2
Ntp7156
Rp7157
(dp7158
g6
Nsg8
S'OTHER'
p7159
sg10
Nsg24
Nsbssg24
NsbsS'resources'
p7160
g0
(g1
g2
Ntp7161
Rp7162
(dp7163
g6
Nsg8
S'LOCATION'
p7164
sg10
Nsg24
NsbsS'ingredient'
p7165
g0
(g1
g2
Ntp7166
Rp7167
(dp7168
g6
Nsg8
S'OTHER'
p7169
sg10
Nsg24
NsbsS'stonehenge'
p7170
g0
(g1
g2
Ntp7171
Rp7172
(dp7173
g6
Nsg8
S'PERSON'
p7174
sg10
Nsg24
NsbsS'droppings'
p7175
g0
(g1
g2
Ntp7176
Rp7177
(dp7178
g6
Nsg8
S'OTHER'
p7179
sg10
Nsg24
NsbsS'ukulele'
p7180
g0
(g1
g2
Ntp7181
Rp7182
(dp7183
g6
Nsg8
S'LOCATION'
p7184
sg10
Nsg24
NsbsS'acreage'
p7185
g0
(g1
g2
Ntp7186
Rp7187
(dp7188
g6
Nsg8
S'NUMBER'
p7189
sg10
Nsg24
NsbsS'surgeon'
p7190
g0
(g1
g2
Ntp7191
Rp7192
(dp7193
g6
Nsg8
S'PERSON'
p7194
sg10
Nsg24
NsbsS'tutu'
p7195
g0
(g1
g2
Ntp7196
Rp7197
(dp7198
g6
Nsg8
S'PERSON'
p7199
sg10
Nsg24
NsbsS'magic'
p7200
g0
(g1
g2
Ntp7201
Rp7202
(dp7203
g6
Nsg8
S'OTHER'
p7204
sg10
Nsg24
NsbsS'gender'
p7205
g0
(g1
g2
Ntp7206
Rp7207
(dp7208
g6
Nsg8
S'OTHER'
p7209
sg10
Nsg24
NsbsS'notes'
p7210
g0
(g1
g2
Ntp7211
Rp7212
(dp7213
g6
Nsg8
S'OTHER'
p7214
sg10
Nsg24
NsbsS'race'
p7215
g0
(g1
g2
Ntp7216
Rp7217
(dp7218
g6
g16
sg8
S'OTHER'
p7219
sg10
(dp7220
S'what'
p7221
g0
(g1
g2
Ntp7222
Rp7223
(dp7224
g6
Nsg8
S'OTHER'
p7225
sg10
Nsg24
NsbsS'where'
p7226
g0
(g1
g2
Ntp7227
Rp7228
(dp7229
g6
Nsg8
S'LOCATION'
p7230
sg10
Nsg24
Nsbssg24
NsbsS'malick'
p7231
g0
(g1
g2
Ntp7232
Rp7233
(dp7234
g6
Nsg8
S'PERSON'
p7235
sg10
Nsg24
NsbsS'carter'
p7236
g0
(g1
g2
Ntp7237
Rp7238
(dp7239
g6
Nsg8
S'OTHER'
p7240
sg10
Nsg24
NsbsS'cds'
p7241
g0
(g1
g2
Ntp7242
Rp7243
(dp7244
g6
Nsg8
S'NUMBER'
p7245
sg10
Nsg24
NsbsS'wrestling'
p7246
g0
(g1
g2
Ntp7247
Rp7248
(dp7249
g6
Nsg8
S'PERSON'
p7250
sg10
Nsg24
NsbsS'crop'
p7251
g0
(g1
g2
Ntp7252
Rp7253
(dp7254
g6
Nsg8
S'OTHER'
p7255
sg10
Nsg24
NsbsS'rivers'
p7256
g0
(g1
g2
Ntp7257
Rp7258
(dp7259
g6
Nsg8
S'LOCATION'
p7260
sg10
Nsg24
NsbsS'scrabble'
p7261
g0
(g1
g2
Ntp7262
Rp7263
(dp7264
g6
Nsg8
S'PERSON'
p7265
sg10
Nsg24
NsbsS'video'
p7266
g0
(g1
g2
Ntp7267
Rp7268
(dp7269
g6
g16
sg8
S'OTHER'
p7270
sg10
(dp7271
S'whose'
p7272
g0
(g1
g2
Ntp7273
Rp7274
(dp7275
g6
Nsg8
S'PERSON'
p7276
sg10
Nsg24
NsbsS'what'
p7277
g0
(g1
g2
Ntp7278
Rp7279
(dp7280
g6
Nsg8
S'OTHER'
p7281
sg10
Nsg24
Nsbssg24
NsbsS'grooves'
p7282
g0
(g1
g2
Ntp7283
Rp7284
(dp7285
g6
Nsg8
S'NUMBER'
p7286
sg10
Nsg24
NsbsS'acid'
p7287
g0
(g1
g2
Ntp7288
Rp7289
(dp7290
g6
Nsg8
S'NUMBER'
p7291
sg10
Nsg24
NsbsS'depression'
p7292
g0
(g1
g2
Ntp7293
Rp7294
(dp7295
g6
Nsg8
S'DATE'
p7296
sg10
Nsg24
NsbsS'power'
p7297
g0
(g1
g2
Ntp7298
Rp7299
(dp7300
g6
Nsg8
S'PERSON'
p7301
sg10
Nsg24
NsbsS'capital'
p7302
g0
(g1
g2
Ntp7303
Rp7304
(dp7305
g6
Nsg8
S'LOCATION'
p7306
sg10
Nsg24
NsbsS'tournaments'
p7307
g0
(g1
g2
Ntp7308
Rp7309
(dp7310
g6
Nsg8
S'OTHER'
p7311
sg10
Nsg24
NsbsS'bird'
p7312
g0
(g1
g2
Ntp7313
Rp7314
(dp7315
g6
Nsg8
S'OTHER'
p7316
sg10
Nsg24
NsbsS'body'
p7317
g0
(g1
g2
Ntp7318
Rp7319
(dp7320
g6
Nsg8
S'OTHER'
p7321
sg10
Nsg24
NsbsS'leg'
p7322
g0
(g1
g2
Ntp7323
Rp7324
(dp7325
g6
Nsg8
S'OTHER'
p7326
sg10
Nsg24
NsbsS'napolean'
p7327
g0
(g1
g2
Ntp7328
Rp7329
(dp7330
g6
Nsg8
S'PERSON'
p7331
sg10
Nsg24
NsbsS'canals'
p7332
g0
(g1
g2
Ntp7333
Rp7334
(dp7335
g6
Nsg8
S'LOCATION'
p7336
sg10
Nsg24
NsbsS'survivor'
p7337
g0
(g1
g2
Ntp7338
Rp7339
(dp7340
g6
Nsg8
S'PERSON'
p7341
sg10
Nsg24
NsbsS'jinnah'
p7342
g0
(g1
g2
Ntp7343
Rp7344
(dp7345
g6
Nsg8
S'PERSON'
p7346
sg10
Nsg24
NsbsS'products'
p7347
g0
(g1
g2
Ntp7348
Rp7349
(dp7350
g6
Nsg8
S'OTHER'
p7351
sg10
Nsg24
NsbsS'residents'
p7352
g0
(g1
g2
Ntp7353
Rp7354
(dp7355
g6
Nsg8
S'PERSON'
p7356
sg10
Nsg24
NsbsS'patents'
p7357
g0
(g1
g2
Ntp7358
Rp7359
(dp7360
g6
Nsg8
S'PERSON'
p7361
sg10
Nsg24
NsbsS'holmes'
p7362
g0
(g1
g2
Ntp7363
Rp7364
(dp7365
g6
Nsg8
S'PERSON'
p7366
sg10
Nsg24
NsbsS'clark'
p7367
g0
(g1
g2
Ntp7368
Rp7369
(dp7370
g6
Nsg8
S'DATE'
p7371
sg10
Nsg24
NsbsS'scales'
p7372
g0
(g1
g2
Ntp7373
Rp7374
(dp7375
g6
Nsg8
S'NUMBER'
p7376
sg10
Nsg24
NsbsS'presidents'
p7377
g0
(g1
g2
Ntp7378
Rp7379
(dp7380
g6
g16
sg8
S'PERSON'
p7381
sg10
(dp7382
S'how'
p7383
g0
(g1
g2
Ntp7384
Rp7385
(dp7386
g6
Nsg8
S'NUMBER'
p7387
sg10
Nsg24
NsbsS'who'
p7388
g0
(g1
g2
Ntp7389
Rp7390
(dp7391
g6
Nsg8
S'PERSON'
p7392
sg10
Nsg24
Nsbssg24
NsbsS'respirator'
p7393
g0
(g1
g2
Ntp7394
Rp7395
(dp7396
g6
Nsg8
S'OTHER'
p7397
sg10
Nsg24
NsbsS'names'
p7398
g0
(g1
g2
Ntp7399
Rp7400
(dp7401
g6
g16
sg8
S'PERSON'
p7402
sg10
(dp7403
S'how'
p7404
g0
(g1
g2
Ntp7405
Rp7406
(dp7407
g6
Nsg8
S'NUMBER'
p7408
sg10
Nsg24
NsbsS'what'
p7409
g0
(g1
g2
Ntp7410
Rp7411
(dp7412
g6
Nsg8
S'PERSON'
p7413
sg10
Nsg24
Nsbssg24
NsbsS'composer'
p7414
g0
(g1
g2
Ntp7415
Rp7416
(dp7417
g6
Nsg8
S'PERSON'
p7418
sg10
Nsg24
NsbsS'tools'
p7419
g0
(g1
g2
Ntp7420
Rp7421
(dp7422
g6
Nsg8
S'PERSON'
p7423
sg10
Nsg24
NsbsS'lime'
p7424
g0
(g1
g2
Ntp7425
Rp7426
(dp7427
g6
Nsg8
S'PERSON'
p7428
sg10
Nsg24
NsbsS'use'
p7429
g0
(g1
g2
Ntp7430
Rp7431
(dp7432
g6
Nsg8
S'DATE'
p7433
sg10
Nsg24
NsbsS'zip'
p7434
g0
(g1
g2
Ntp7435
Rp7436
(dp7437
g6
Nsg8
S'NUMBER'
p7438
sg10
Nsg24
NsbsS'remains'
p7439
g0
(g1
g2
Ntp7440
Rp7441
(dp7442
g6
Nsg8
S'LOCATION'
p7443
sg10
Nsg24
NsbsS'butler'
p7444
g0
(g1
g2
Ntp7445
Rp7446
(dp7447
g6
Nsg8
S'PERSON'
p7448
sg10
Nsg24
NsbsS'possession'
p7449
g0
(g1
g2
Ntp7450
Rp7451
(dp7452
g6
Nsg8
S'LOCATION'
p7453
sg10
Nsg24
NsbsS'shipwreck'
p7454
g0
(g1
g2
Ntp7455
Rp7456
(dp7457
g6
Nsg8
S'OTHER'
p7458
sg10
Nsg24
NsbsS'tax'
p7459
g0
(g1
g2
Ntp7460
Rp7461
(dp7462
g6
Nsg8
S'MONEY'
p7463
sg10
Nsg24
NsbsS'trail'
p7464
g0
(g1
g2
Ntp7465
Rp7466
(dp7467
g6
Nsg8
S'LOCATION'
p7468
sg10
Nsg24
NsbsS'rabbit'
p7469
g0
(g1
g2
Ntp7470
Rp7471
(dp7472
g6
Nsg8
S'OTHER'
p7473
sg10
Nsg24
NsbsS'baby'
p7474
g0
(g1
g2
Ntp7475
Rp7476
(dp7477
g6
Nsg8
S'PERSON'
p7478
sg10
Nsg24
NsbsS'antichrist'
p7479
g0
(g1
g2
Ntp7480
Rp7481
(dp7482
g6
Nsg8
S'PERSON'
p7483
sg10
Nsg24
NsbsS'shostakovich'
p7484
g0
(g1
g2
Ntp7485
Rp7486
(dp7487
g6
Nsg8
S'OTHER'
p7488
sg10
Nsg24
NsbsS'iii'
p7489
g0
(g1
g2
Ntp7490
Rp7491
(dp7492
g6
Nsg8
S'PERSON'
p7493
sg10
Nsg24
NsbsS'huxley'
p7494
g0
(g1
g2
Ntp7495
Rp7496
(dp7497
g6
Nsg8
S'DATE'
p7498
sg10
Nsg24
NsbsS'women'
p7499
g0
(g1
g2
Ntp7500
Rp7501
(dp7502
g6
Nsg8
S'PERSON'
p7503
sg10
Nsg24
NsbsS'account'
p7504
g0
(g1
g2
Ntp7505
Rp7506
(dp7507
g6
Nsg8
S'PERCENT'
p7508
sg10
Nsg24
NsbsS'balls'
p7509
g0
(g1
g2
Ntp7510
Rp7511
(dp7512
g6
Nsg8
S'OTHER'
p7513
sg10
Nsg24
NsbsS'animals'
p7514
g0
(g1
g2
Ntp7515
Rp7516
(dp7517
g6
Nsg8
S'OTHER'
p7518
sg10
Nsg24
NsbsS'athlete'
p7519
g0
(g1
g2
Ntp7520
Rp7521
(dp7522
g6
Nsg8
S'PERSON'
p7523
sg10
Nsg24
NsbsS'control'
p7524
g0
(g1
g2
Ntp7525
Rp7526
(dp7527
g6
Nsg8
S'DATE'
p7528
sg10
Nsg24
NsbsS'process'
p7529
g0
(g1
g2
Ntp7530
Rp7531
(dp7532
g6
Nsg8
S'PERSON'
p7533
sg10
Nsg24
NsbsS'tootsie'
p7534
g0
(g1
g2
Ntp7535
Rp7536
(dp7537
g6
Nsg8
S'PERSON'
p7538
sg10
Nsg24
NsbsS'high'
p7539
g0
(g1
g2
Ntp7540
Rp7541
(dp7542
g6
Nsg8
S'NUMBER'
p7543
sg10
Nsg24
NsbsS'villain'
p7544
g0
(g1
g2
Ntp7545
Rp7546
(dp7547
g6
Nsg8
S'PERSON'
p7548
sg10
Nsg24
NsbsS'bend'
p7549
g0
(g1
g2
Ntp7550
Rp7551
(dp7552
g6
Nsg8
S'LOCATION'
p7553
sg10
Nsg24
NsbsS'bones'
p7554
g0
(g1
g2
Ntp7555
Rp7556
(dp7557
g6
Nsg8
S'NUMBER'
p7558
sg10
Nsg24
NsbsS'native'
p7559
g0
(g1
g2
Ntp7560
Rp7561
(dp7562
g6
Nsg8
S'LOCATION'
p7563
sg10
Nsg24
NsbsS'autobiography'
p7564
g0
(g1
g2
Ntp7565
Rp7566
(dp7567
g6
Nsg8
S'PERSON'
p7568
sg10
Nsg24
NsbsS'hampshire'
p7569
g0
(g1
g2
Ntp7570
Rp7571
(dp7572
g6
Nsg8
S'LOCATION'
p7573
sg10
Nsg24
NsbsS'winners'
p7574
g0
(g1
g2
Ntp7575
Rp7576
(dp7577
g6
Nsg8
S'PERSON'
p7578
sg10
Nsg24
NsbsS'forest'
p7579
g0
(g1
g2
Ntp7580
Rp7581
(dp7582
g6
Nsg8
S'LOCATION'
p7583
sg10
Nsg24
NsbsS'animal'
p7584
g0
(g1
g2
Ntp7585
Rp7586
(dp7587
g6
Nsg8
S'OTHER'
p7588
sg10
Nsg24
NsbsS'rousseau'
p7589
g0
(g1
g2
Ntp7590
Rp7591
(dp7592
g6
Nsg8
S'DATE'
p7593
sg10
Nsg24
NsbsS'fare'
p7594
g0
(g1
g2
Ntp7595
Rp7596
(dp7597
g6
Nsg8
S'MONEY'
p7598
sg10
Nsg24
NsbsS'buildings'
p7599
g0
(g1
g2
Ntp7600
Rp7601
(dp7602
g6
Nsg8
S'LOCATION'
p7603
sg10
Nsg24
NsbsS'cupboard'
p7604
g0
(g1
g2
Ntp7605
Rp7606
(dp7607
g6
Nsg8
S'PERSON'
p7608
sg10
Nsg24
NsbsS'singular'
p7609
g0
(g1
g2
Ntp7610
Rp7611
(dp7612
g6
Nsg8
S'OTHER'
p7613
sg10
Nsg24
NsbsS'collection'
p7614
g0
(g1
g2
Ntp7615
Rp7616
(dp7617
g6
Nsg8
S'PERSON'
p7618
sg10
Nsg24
NsbsS'pigs'
p7619
g0
(g1
g2
Ntp7620
Rp7621
(dp7622
g6
Nsg8
S'LOCATION'
p7623
sg10
Nsg24
NsbsS'muppets'
p7624
g0
(g1
g2
Ntp7625
Rp7626
(dp7627
g6
Nsg8
S'PERSON'
p7628
sg10
Nsg24
NsbsS'liner'
p7629
g0
(g1
g2
Ntp7630
Rp7631
(dp7632
g6
Nsg8
S'OTHER'
p7633
sg10
Nsg24
NsbsS'element'
p7634
g0
(g1
g2
Ntp7635
Rp7636
(dp7637
g6
Nsg8
S'OTHER'
p7638
sg10
Nsg24
NsbsS'bakery'
p7639
g0
(g1
g2
Ntp7640
Rp7641
(dp7642
g6
Nsg8
S'OTHER'
p7643
sg10
Nsg24
NsbsS'encyclopedia'
p7644
g0
(g1
g2
Ntp7645
Rp7646
(dp7647
g6
Nsg8
S'DATE'
p7648
sg10
Nsg24
NsbsS'alloy'
p7649
g0
(g1
g2
Ntp7650
Rp7651
(dp7652
g6
Nsg8
S'OTHER'
p7653
sg10
Nsg24
NsbsS'software'
p7654
g0
(g1
g2
Ntp7655
Rp7656
(dp7657
g6
Nsg8
S'OTHER'
p7658
sg10
Nsg24
NsbsS'marlowe'
p7659
g0
(g1
g2
Ntp7660
Rp7661
(dp7662
g6
Nsg8
S'PERSON'
p7663
sg10
Nsg24
NsbsS'producer'
p7664
g0
(g1
g2
Ntp7665
Rp7666
(dp7667
g6
g16
sg8
S'PERSON'
p7668
sg10
(dp7669
S'what'
p7670
g0
(g1
g2
Ntp7671
Rp7672
(dp7673
g6
Nsg8
S'PERSON'
p7674
sg10
Nsg24
NsbsS'italy'
p7675
g0
(g1
g2
Ntp7676
Rp7677
(dp7678
g6
Nsg8
S'OTHER'
p7679
sg10
Nsg24
NsbsS'which'
p7680
g0
(g1
g2
Ntp7681
Rp7682
(dp7683
g6
Nsg8
g7668
sg10
Nsg24
Nsbssg24
NsbsS'move'
p7684
g0
(g1
g2
Ntp7685
Rp7686
(dp7687
g6
Nsg8
S'OTHER'
p7688
sg10
Nsg24
NsbsS'meter'
p7689
g0
(g1
g2
Ntp7690
Rp7691
(dp7692
g6
Nsg8
S'OTHER'
p7693
sg10
Nsg24
NsbsS'sperm'
p7694
g0
(g1
g2
Ntp7695
Rp7696
(dp7697
g6
g16
sg8
S'OTHER'
p7698
sg10
(dp7699
S'how'
p7700
g0
(g1
g2
Ntp7701
Rp7702
(dp7703
g6
Nsg8
S'NUMBER'
p7704
sg10
Nsg24
NsbsS'what'
p7705
g0
(g1
g2
Ntp7706
Rp7707
(dp7708
g6
Nsg8
g7698
sg10
Nsg24
NsbsS'which'
p7709
g0
(g1
g2
Ntp7710
Rp7711
(dp7712
g6
Nsg8
S'OTHER'
p7713
sg10
Nsg24
Nsbssg24
NsbsS'costume'
p7714
g0
(g1
g2
Ntp7715
Rp7716
(dp7717
g6
Nsg8
S'PERSON'
p7718
sg10
Nsg24
NsbsS'bunch'
p7719
g0
(g1
g2
Ntp7720
Rp7721
(dp7722
g6
Nsg8
S'PERSON'
p7723
sg10
Nsg24
NsbsS'labor'
p7724
g0
(g1
g2
Ntp7725
Rp7726
(dp7727
g6
Nsg8
S'DATE'
p7728
sg10
Nsg24
NsbsS'degrees'
p7729
g0
(g1
g2
Ntp7730
Rp7731
(dp7732
g6
Nsg8
S'NUMBER'
p7733
sg10
Nsg24
NsbsS'holiday'
p7734
g0
(g1
g2
Ntp7735
Rp7736
(dp7737
g6
Nsg8
S'OTHER'
p7738
sg10
Nsg24
NsbsS'image'
p7739
g0
(g1
g2
Ntp7740
Rp7741
(dp7742
g6
Nsg8
S'PERSON'
p7743
sg10
Nsg24
NsbsS'dam'
p7744
g0
(g1
g2
Ntp7745
Rp7746
(dp7747
g6
g16
sg8
S'DATE'
p7748
sg10
(dp7749
S'where'
p7750
g0
(g1
g2
Ntp7751
Rp7752
(dp7753
g6
Nsg8
S'LOCATION'
p7754
sg10
Nsg24
NsbsS'when'
p7755
g0
(g1
g2
Ntp7756
Rp7757
(dp7758
g6
Nsg8
g7748
sg10
Nsg24
Nsbssg24
NsbsS'snake'
p7759
g0
(g1
g2
Ntp7760
Rp7761
(dp7762
g6
Nsg8
S'OTHER'
p7763
sg10
Nsg24
NsbsS'hands'
p7764
g0
(g1
g2
Ntp7765
Rp7766
(dp7767
g6
Nsg8
S'NUMBER'
p7768
sg10
Nsg24
NsbsS'satellites'
p7769
g0
(g1
g2
Ntp7770
Rp7771
(dp7772
g6
Nsg8
S'OTHER'
p7773
sg10
Nsg24
NsbsS'cage'
p7774
g0
(g1
g2
Ntp7775
Rp7776
(dp7777
g6
Nsg8
S'PERSON'
p7778
sg10
Nsg24
NsbsS'day'
p7779
g0
(g1
g2
Ntp7780
Rp7781
(dp7782
g6
g16
sg8
S'DATE'
p7783
sg10
(dp7784
S'how'
p7785
g0
(g1
g2
Ntp7786
Rp7787
(dp7788
g6
Nsg8
S'NUMBER'
p7789
sg10
Nsg24
NsbsS'what'
p7790
g0
(g1
g2
Ntp7791
Rp7792
(dp7793
g6
Nsg8
S'DATE'
p7794
sg10
Nsg24
NsbsS'who'
p7795
g0
(g1
g2
Ntp7796
Rp7797
(dp7798
g6
Nsg8
S'PERSON'
p7799
sg10
Nsg24
NsbsS'when'
p7800
g0
(g1
g2
Ntp7801
Rp7802
(dp7803
g6
Nsg8
S'DATE'
p7804
sg10
Nsg24
NsbsS'on'
p7805
g0
(g1
g2
Ntp7806
Rp7807
(dp7808
g6
Nsg8
S'DATE'
p7809
sg10
Nsg24
Nsbssg24
NsbsS'd.a.'
p7810
g0
(g1
g2
Ntp7811
Rp7812
(dp7813
g6
Nsg8
S'PERSON'
p7814
sg10
Nsg24
NsbsS'articles'
p7815
g0
(g1
g2
Ntp7816
Rp7817
(dp7818
g6
Nsg8
S'OTHER'
p7819
sg10
Nsg24
NsbsS'airports'
p7820
g0
(g1
g2
Ntp7821
Rp7822
(dp7823
g6
Nsg8
S'LOCATION'
p7824
sg10
Nsg24
NsbsS'university'
p7825
g0
(g1
g2
Ntp7826
Rp7827
(dp7828
g6
g16
sg8
S'LOCATION'
p7829
sg10
(dp7830
S'what'
p7831
g0
(g1
g2
Ntp7832
Rp7833
(dp7834
g6
Nsg8
S'PERSON'
p7835
sg10
Nsg24
NsbsS'where'
p7836
g0
(g1
g2
Ntp7837
Rp7838
(dp7839
g6
Nsg8
S'LOCATION'
p7840
sg10
Nsg24
NsbsS'name'
p7841
g0
(g1
g2
Ntp7842
Rp7843
(dp7844
g6
Nsg8
S'PERSON'
p7845
sg10
Nsg24
Nsbssg24
NsbsS'nfl'
p7846
g0
(g1
g2
Ntp7847
Rp7848
(dp7849
g6
Nsg8
S'DATE'
p7850
sg10
Nsg24
NsbsS'typewriter'
p7851
g0
(g1
g2
Ntp7852
Rp7853
(dp7854
g6
Nsg8
S'DATE'
p7855
sg10
Nsg24
NsbsS'normans'
p7856
g0
(g1
g2
Ntp7857
Rp7858
(dp7859
g6
Nsg8
S'PERSON'
p7860
sg10
Nsg24
NsbsS'product'
p7861
g0
(g1
g2
Ntp7862
Rp7863
(dp7864
g6
Nsg8
S'OTHER'
p7865
sg10
Nsg24
NsbsS'society'
p7866
g0
(g1
g2
Ntp7867
Rp7868
(dp7869
g6
Nsg8
S'PERSON'
p7870
sg10
Nsg24
NsbsS'books'
p7871
g0
(g1
g2
Ntp7872
Rp7873
(dp7874
g6
Nsg8
S'OTHER'
p7875
sg10
Nsg24
NsbsS'salesman'
p7876
g0
(g1
g2
Ntp7877
Rp7878
(dp7879
g6
Nsg8
S'PERSON'
p7880
sg10
Nsg24
NsbsS'witness'
p7881
g0
(g1
g2
Ntp7882
Rp7883
(dp7884
g6
Nsg8
S'PERSON'
p7885
sg10
Nsg24
NsbsS'house'
p7886
g0
(g1
g2
Ntp7887
Rp7888
(dp7889
g6
g16
sg8
S'DATE'
p7890
sg10
(dp7891
S'what'
p7892
g0
(g1
g2
Ntp7893
Rp7894
(dp7895
g6
Nsg8
S'LOCATION'
p7896
sg10
Nsg24
NsbsS'when'
p7897
g0
(g1
g2
Ntp7898
Rp7899
(dp7900
g6
Nsg8
g7890
sg10
Nsg24
Nsbssg24
NsbsS'www.questions.com'
p7901
g0
(g1
g2
Ntp7902
Rp7903
(dp7904
g6
Nsg8
S'DATE'
p7905
sg10
Nsg24
NsbsS'strokes'
p7906
g0
(g1
g2
Ntp7907
Rp7908
(dp7909
g6
Nsg8
S'OTHER'
p7910
sg10
Nsg24
NsbsS'plural'
p7911
g0
(g1
g2
Ntp7912
Rp7913
(dp7914
g6
Nsg8
S'OTHER'
p7915
sg10
Nsg24
NsbsS'achievements'
p7916
g0
(g1
g2
Ntp7917
Rp7918
(dp7919
g6
Nsg8
S'OTHER'
p7920
sg10
Nsg24
NsbsS'approaches'
p7921
g0
(g1
g2
Ntp7922
Rp7923
(dp7924
g6
Nsg8
S'OTHER'
p7925
sg10
Nsg24
NsbsS'florida'
p7926
g0
(g1
g2
Ntp7927
Rp7928
(dp7929
g6
g16
sg8
S'PERSON'
p7930
sg10
(dp7931
S'who'
p7932
g0
(g1
g2
Ntp7933
Rp7934
(dp7935
g6
Nsg8
g7930
sg10
Nsg24
NsbsS'when'
p7936
g0
(g1
g2
Ntp7937
Rp7938
(dp7939
g6
Nsg8
S'DATE'
p7940
sg10
Nsg24
Nsbssg24
NsbsS'david'
p7941
g0
(g1
g2
Ntp7942
Rp7943
(dp7944
g6
Nsg8
S'PERSON'
p7945
sg10
Nsg24
NsbsS'counterpart'
p7946
g0
(g1
g2
Ntp7947
Rp7948
(dp7949
g6
Nsg8
S'OTHER'
p7950
sg10
Nsg24
NsbsS'length'
p7951
g0
(g1
g2
Ntp7952
Rp7953
(dp7954
g6
Nsg8
S'NUMBER'
p7955
sg10
Nsg24
NsbsS'museum'
p7956
g0
(g1
g2
Ntp7957
Rp7958
(dp7959
g6
Nsg8
S'LOCATION'
p7960
sg10
Nsg24
NsbsS'pines'
p7961
g0
(g1
g2
Ntp7962
Rp7963
(dp7964
g6
Nsg8
S'PERSON'
p7965
sg10
Nsg24
NsbsS'muhammad'
p7966
g0
(g1
g2
Ntp7967
Rp7968
(dp7969
g6
Nsg8
S'DATE'
p7970
sg10
Nsg24
NsbsS'ybarra'
p7971
g0
(g1
g2
Ntp7972
Rp7973
(dp7974
g6
Nsg8
S'PERSON'
p7975
sg10
Nsg24
NsbsS'owner'
p7976
g0
(g1
g2
Ntp7977
Rp7978
(dp7979
g6
g16
sg8
S'PERSON'
p7980
sg10
(dp7981
S'what'
p7982
g0
(g1
g2
Ntp7983
Rp7984
(dp7985
g6
Nsg8
S'OTHER'
p7986
sg10
Nsg24
NsbsS'who'
p7987
g0
(g1
g2
Ntp7988
Rp7989
(dp7990
g6
Nsg8
g7980
sg10
Nsg24
Nsbssg24
NsbsS'lacan'
p7991
g0
(g1
g2
Ntp7992
Rp7993
(dp7994
g6
Nsg8
S'PERSON'
p7995
sg10
Nsg24
NsbsS'cohan'
p7996
g0
(g1
g2
Ntp7997
Rp7998
(dp7999
g6
Nsg8
S'PERSON'
p8000
sg10
Nsg24
NsbsS'festival'
p8001
g0
(g1
g2
Ntp8002
Rp8003
(dp8004
g6
Nsg8
S'DATE'
p8005
sg10
Nsg24
NsbsS'system'
p8006
g0
(g1
g2
Ntp8007
Rp8008
(dp8009
g6
Nsg8
S'OTHER'
p8010
sg10
Nsg24
NsbsS'attack'
p8011
g0
(g1
g2
Ntp8012
Rp8013
(dp8014
g6
Nsg8
S'DATE'
p8015
sg10
Nsg24
NsbsS'sergeant'
p8016
g0
(g1
g2
Ntp8017
Rp8018
(dp8019
g6
Nsg8
S'PERSON'
p8020
sg10
Nsg24
NsbsS'tourists'
p8021
g0
(g1
g2
Ntp8022
Rp8023
(dp8024
g6
Nsg8
S'LOCATION'
p8025
sg10
Nsg24
NsbsS'beard'
p8026
g0
(g1
g2
Ntp8027
Rp8028
(dp8029
g6
Nsg8
S'PERSON'
p8030
sg10
Nsg24
NsbsS'inuits'
p8031
g0
(g1
g2
Ntp8032
Rp8033
(dp8034
g6
Nsg8
S'LOCATION'
p8035
sg10
Nsg24
NsbsS'chemicals'
p8036
g0
(g1
g2
Ntp8037
Rp8038
(dp8039
g6
Nsg8
S'OTHER'
p8040
sg10
Nsg24
NsbsS'mules'
p8041
g0
(g1
g2
Ntp8042
Rp8043
(dp8044
g6
Nsg8
S'PERSON'
p8045
sg10
Nsg24
NsbsS'steel'
p8046
g0
(g1
g2
Ntp8047
Rp8048
(dp8049
g6
Nsg8
S'LOCATION'
p8050
sg10
Nsg24
NsbsS'ben'
p8051
g0
(g1
g2
Ntp8052
Rp8053
(dp8054
g6
Nsg8
S'PERSON'
p8055
sg10
Nsg24
NsbsS'johnson'
p8056
g0
(g1
g2
Ntp8057
Rp8058
(dp8059
g6
Nsg8
S'OTHER'
p8060
sg10
Nsg24
NsbsS'shampoo'
p8061
g0
(g1
g2
Ntp8062
Rp8063
(dp8064
g6
Nsg8
S'OTHER'
p8065
sg10
Nsg24
NsbsS'listeners'
p8066
g0
(g1
g2
Ntp8067
Rp8068
(dp8069
g6
Nsg8
S'PERSON'
p8070
sg10
Nsg24
NsbsS'sculpture'
p8071
g0
(g1
g2
Ntp8072
Rp8073
(dp8074
g6
Nsg8
S'OTHER'
p8075
sg10
Nsg24
NsbsS'clip'
p8076
g0
(g1
g2
Ntp8077
Rp8078
(dp8079
g6
Nsg8
S'PERSON'
p8080
sg10
Nsg24
NsbsS'fowl'
p8081
g0
(g1
g2
Ntp8082
Rp8083
(dp8084
g6
Nsg8
S'OTHER'
p8085
sg10
Nsg24
NsbsS'deodorant'
p8086
g0
(g1
g2
Ntp8087
Rp8088
(dp8089
g6
g16
sg8
S'PERSON'
p8090
sg10
(dp8091
S'who'
p8092
g0
(g1
g2
Ntp8093
Rp8094
(dp8095
g6
Nsg8
g8090
sg10
Nsg24
NsbsS'in'
p8096
g0
(g1
g2
Ntp8097
Rp8098
(dp8099
g6
Nsg8
S'OTHER'
p8100
sg10
Nsg24
Nsbssg24
NsbsS'russians'
p8101
g0
(g1
g2
Ntp8102
Rp8103
(dp8104
g6
Nsg8
S'NUMBER'
p8105
sg10
Nsg24
NsbsS'agency'
p8106
g0
(g1
g2
Ntp8107
Rp8108
(dp8109
g6
Nsg8
S'PERSON'
p8110
sg10
Nsg24
NsbsS'parks'
p8111
g0
(g1
g2
Ntp8112
Rp8113
(dp8114
g6
Nsg8
S'PERSON'
p8115
sg10
Nsg24
NsbsS'soap'
p8116
g0
(g1
g2
Ntp8117
Rp8118
(dp8119
g6
Nsg8
S'OTHER'
p8120
sg10
Nsg24
NsbsS'medals'
p8121
g0
(g1
g2
Ntp8122
Rp8123
(dp8124
g6
Nsg8
S'PERSON'
p8125
sg10
Nsg24
NsbsS'device'
p8126
g0
(g1
g2
Ntp8127
Rp8128
(dp8129
g6
Nsg8
S'OTHER'
p8130
sg10
Nsg24
NsbsS'gallery'
p8131
g0
(g1
g2
Ntp8132
Rp8133
(dp8134
g6
Nsg8
S'LOCATION'
p8135
sg10
Nsg24
NsbsS'ishmael'
p8136
g0
(g1
g2
Ntp8137
Rp8138
(dp8139
g6
Nsg8
S'PERSON'
p8140
sg10
Nsg24
NsbsS'stereo'
p8141
g0
(g1
g2
Ntp8142
Rp8143
(dp8144
g6
Nsg8
S'PERSON'
p8145
sg10
Nsg24
NsbsS'url'
p8146
g0
(g1
g2
Ntp8147
Rp8148
(dp8149
g6
Nsg8
S'NUMBER'
p8150
sg10
Nsg24
NsbsS'disease'
p8151
g0
(g1
g2
Ntp8152
Rp8153
(dp8154
g6
Nsg8
S'OTHER'
p8155
sg10
Nsg24
NsbsS'charley'
p8156
g0
(g1
g2
Ntp8157
Rp8158
(dp8159
g6
Nsg8
S'OTHER'
p8160
sg10
Nsg24
NsbsS'chances'
p8161
g0
(g1
g2
Ntp8162
Rp8163
(dp8164
g6
Nsg8
S'PERCENT'
p8165
sg10
Nsg24
NsbsS'charles'
p8166
g0
(g1
g2
Ntp8167
Rp8168
(dp8169
g6
Nsg8
S'DATE'
p8170
sg10
Nsg24
NsbsS'hamlet'
p8171
g0
(g1
g2
Ntp8172
Rp8173
(dp8174
g6
Nsg8
S'PERSON'
p8175
sg10
Nsg24
NsbsS'soldiers'
p8176
g0
(g1
g2
Ntp8177
Rp8178
(dp8179
g6
Nsg8
S'NUMBER'
p8180
sg10
Nsg24
NsbsS'fear'
p8181
g0
(g1
g2
Ntp8182
Rp8183
(dp8184
g6
Nsg8
S'OTHER'
p8185
sg10
Nsg24
NsbsS'debate'
p8186
g0
(g1
g2
Ntp8187
Rp8188
(dp8189
g6
Nsg8
S'PERSON'
p8190
sg10
Nsg24
NsbsS'winner'
p8191
g0
(g1
g2
Ntp8192
Rp8193
(dp8194
g6
Nsg8
S'OTHER'
p8195
sg10
Nsg24
NsbsS'molecules'
p8196
g0
(g1
g2
Ntp8197
Rp8198
(dp8199
g6
Nsg8
S'OTHER'
p8200
sg10
Nsg24
NsbsS'fuel'
p8201
g0
(g1
g2
Ntp8202
Rp8203
(dp8204
g6
Nsg8
S'OTHER'
p8205
sg10
Nsg24
NsbsS'piano'
p8206
g0
(g1
g2
Ntp8207
Rp8208
(dp8209
g6
Nsg8
S'PERSON'
p8210
sg10
Nsg24
NsbsS'thousands'
p8211
g0
(g1
g2
Ntp8212
Rp8213
(dp8214
g6
Nsg8
S'NUMBER'
p8215
sg10
Nsg24
NsbsS'bear'
p8216
g0
(g1
g2
Ntp8217
Rp8218
(dp8219
g6
Nsg8
S'OTHER'
p8220
sg10
Nsg24
NsbsS'words'
p8221
g0
(g1
g2
Ntp8222
Rp8223
(dp8224
g6
g16
sg8
S'NUMBER'
p8225
sg10
(dp8226
S'how'
p8227
g0
(g1
g2
Ntp8228
Rp8229
(dp8230
g6
Nsg8
g8225
sg10
Nsg24
NsbsS'what'
p8231
g0
(g1
g2
Ntp8232
Rp8233
(dp8234
g6
Nsg8
S'OTHER'
p8235
sg10
Nsg24
NsbsS'name'
p8236
g0
(g1
g2
Ntp8237
Rp8238
(dp8239
g6
Nsg8
S'OTHER'
p8240
sg10
Nsg24
Nsbssg24
NsbsS'abby'
p8241
g0
(g1
g2
Ntp8242
Rp8243
(dp8244
g6
Nsg8
S'PERSON'
p8245
sg10
Nsg24
NsbsS'organ'
p8246
g0
(g1
g2
Ntp8247
Rp8248
(dp8249
g6
Nsg8
S'OTHER'
p8250
sg10
Nsg24
NsbsS'humans'
p8251
g0
(g1
g2
Ntp8252
Rp8253
(dp8254
g6
g16
sg8
S'OTHER'
p8255
sg10
(dp8256
S'what'
p8257
g0
(g1
g2
Ntp8258
Rp8259
(dp8260
g6
Nsg8
g8255
sg10
Nsg24
NsbsS'when'
p8261
g0
(g1
g2
Ntp8262
Rp8263
(dp8264
g6
Nsg8
S'DATE'
p8265
sg10
Nsg24
Nsbssg24
NsbsS'computer'
p8266
g0
(g1
g2
Ntp8267
Rp8268
(dp8269
g6
Nsg8
S'OTHER'
p8270
sg10
Nsg24
NsbsS'aeul'
p8271
g0
(g1
g2
Ntp8272
Rp8273
(dp8274
g6
Nsg8
S'DATE'
p8275
sg10
Nsg24
NsbsS'amtrak'
p8276
g0
(g1
g2
Ntp8277
Rp8278
(dp8279
g6
Nsg8
S'DATE'
p8280
sg10
Nsg24
NsbsS'laureate'
p8281
g0
(g1
g2
Ntp8282
Rp8283
(dp8284
g6
Nsg8
S'PERSON'
p8285
sg10
Nsg24
NsbsS'genius'
p8286
g0
(g1
g2
Ntp8287
Rp8288
(dp8289
g6
Nsg8
S'PERSON'
p8290
sg10
Nsg24
NsbsS'state'
p8291
g0
(g1
g2
Ntp8292
Rp8293
(dp8294
g6
Nsg8
S'LOCATION'
p8295
sg10
Nsg24
NsbsS'limit'
p8296
g0
(g1
g2
Ntp8297
Rp8298
(dp8299
g6
Nsg8
S'OTHER'
p8300
sg10
Nsg24
NsbsS'gemstone'
p8301
g0
(g1
g2
Ntp8302
Rp8303
(dp8304
g6
Nsg8
S'OTHER'
p8305
sg10
Nsg24
NsbsS'explosive'
p8306
g0
(g1
g2
Ntp8307
Rp8308
(dp8309
g6
Nsg8
S'OTHER'
p8310
sg10
Nsg24
NsbsS'astroturf'
p8311
g0
(g1
g2
Ntp8312
Rp8313
(dp8314
g6
Nsg8
S'PERSON'
p8315
sg10
Nsg24
NsbsS't.v.'
p8316
g0
(g1
g2
Ntp8317
Rp8318
(dp8319
g6
Nsg8
S'OTHER'
p8320
sg10
Nsg24
NsbsS'monarchy'
p8321
g0
(g1
g2
Ntp8322
Rp8323
(dp8324
g6
Nsg8
S'LOCATION'
p8325
sg10
Nsg24
NsbsS'agencies'
p8326
g0
(g1
g2
Ntp8327
Rp8328
(dp8329
g6
Nsg8
S'PERSON'
p8330
sg10
Nsg24
NsbsS'job'
p8331
g0
(g1
g2
Ntp8332
Rp8333
(dp8334
g6
Nsg8
S'PERSON'
p8335
sg10
Nsg24
NsbsS'police'
p8336
g0
(g1
g2
Ntp8337
Rp8338
(dp8339
g6
Nsg8
S'PERSON'
p8340
sg10
Nsg24
NsbsS'career'
p8341
g0
(g1
g2
Ntp8342
Rp8343
(dp8344
g6
Nsg8
S'PERSON'
p8345
sg10
Nsg24
NsbsS'challengers'
p8346
g0
(g1
g2
Ntp8347
Rp8348
(dp8349
g6
Nsg8
S'PERSON'
p8350
sg10
Nsg24
NsbsS'drug'
p8351
g0
(g1
g2
Ntp8352
Rp8353
(dp8354
g6
Nsg8
S'OTHER'
p8355
sg10
Nsg24
NsbsS'rams'
p8356
g0
(g1
g2
Ntp8357
Rp8358
(dp8359
g6
Nsg8
S'PERSON'
p8360
sg10
Nsg24
NsbsS'kinds'
p8361
g0
(g1
g2
Ntp8362
Rp8363
(dp8364
g6
Nsg8
S'OTHER'
p8365
sg10
Nsg24
NsbsS'heliologist'
p8366
g0
(g1
g2
Ntp8367
Rp8368
(dp8369
g6
Nsg8
S'OTHER'
p8370
sg10
Nsg24
NsbsS'statues'
p8371
g0
(g1
g2
Ntp8372
Rp8373
(dp8374
g6
Nsg8
S'OTHER'
p8375
sg10
Nsg24
NsbsS'opposition'
p8376
g0
(g1
g2
Ntp8377
Rp8378
(dp8379
g6
Nsg8
S'PERSON'
p8380
sg10
Nsg24
NsbsS'wall'
p8381
g0
(g1
g2
Ntp8382
Rp8383
(dp8384
g6
g16
sg8
S'LOCATION'
p8385
sg10
(dp8386
S'what'
p8387
g0
(g1
g2
Ntp8388
Rp8389
(dp8390
g6
Nsg8
g8385
sg10
Nsg24
NsbsS'when'
p8391
g0
(g1
g2
Ntp8392
Rp8393
(dp8394
g6
Nsg8
S'DATE'
p8395
sg10
Nsg24
Nsbssg24
NsbsS'lyricist'
p8396
g0
(g1
g2
Ntp8397
Rp8398
(dp8399
g6
Nsg8
S'PERSON'
p8400
sg10
Nsg24
NsbsS'table'
p8401
g0
(g1
g2
Ntp8402
Rp8403
(dp8404
g6
Nsg8
S'PERSON'
p8405
sg10
Nsg24
NsbsS'poem'
p8406
g0
(g1
g2
Ntp8407
Rp8408
(dp8409
g6
Nsg8
S'PERSON'
p8410
sg10
Nsg24
NsbsS'hawkins'
p8411
g0
(g1
g2
Ntp8412
Rp8413
(dp8414
g6
Nsg8
S'OTHER'
p8415
sg10
Nsg24
NsbsS'swimmer'
p8416
g0
(g1
g2
Ntp8417
Rp8418
(dp8419
g6
Nsg8
S'PERSON'
p8420
sg10
Nsg24
NsbsS'trademark'
p8421
g0
(g1
g2
Ntp8422
Rp8423
(dp8424
g6
Nsg8
S'OTHER'
p8425
sg10
Nsg24
NsbsS'newscast'
p8426
g0
(g1
g2
Ntp8427
Rp8428
(dp8429
g6
Nsg8
S'PERSON'
p8430
sg10
Nsg24
NsbsS'treat'
p8431
g0
(g1
g2
Ntp8432
Rp8433
(dp8434
g6
Nsg8
S'OTHER'
p8435
sg10
Nsg24
NsbsS'hawking'
p8436
g0
(g1
g2
Ntp8437
Rp8438
(dp8439
g6
Nsg8
S'PERSON'
p8440
sg10
Nsg24
NsbsS'tv'
p8441
g0
(g1
g2
Ntp8442
Rp8443
(dp8444
g6
Nsg8
S'OTHER'
p8445
sg10
Nsg24
NsbsS'poet'
p8446
g0
(g1
g2
Ntp8447
Rp8448
(dp8449
g6
Nsg8
S'PERSON'
p8450
sg10
Nsg24
NsbsS'nicolet'
p8451
g0
(g1
g2
Ntp8452
Rp8453
(dp8454
g6
Nsg8
S'PERSON'
p8455
sg10
Nsg24
NsbsS'louisiana'
p8456
g0
(g1
g2
Ntp8457
Rp8458
(dp8459
g6
Nsg8
S'LOCATION'
p8460
sg10
Nsg24
NsbsS'naples'
p8461
g0
(g1
g2
Ntp8462
Rp8463
(dp8464
g6
Nsg8
S'PERSON'
p8465
sg10
Nsg24
NsbsS'cop'
p8466
g0
(g1
g2
Ntp8467
Rp8468
(dp8469
g6
Nsg8
S'PERSON'
p8470
sg10
Nsg24
NsbsS'ridder'
p8471
g0
(g1
g2
Ntp8472
Rp8473
(dp8474
g6
Nsg8
S'OTHER'
p8475
sg10
Nsg24
NsbsS'angles'
p8476
g0
(g1
g2
Ntp8477
Rp8478
(dp8479
g6
Nsg8
S'NUMBER'
p8480
sg10
Nsg24
NsbsS'ravens'
p8481
g0
(g1
g2
Ntp8482
Rp8483
(dp8484
g6
Nsg8
S'OTHER'
p8485
sg10
Nsg24
NsbsS'painter'
p8486
g0
(g1
g2
Ntp8487
Rp8488
(dp8489
g6
Nsg8
S'PERSON'
p8490
sg10
Nsg24
NsbsS'quotation'
p8491
g0
(g1
g2
Ntp8492
Rp8493
(dp8494
g6
Nsg8
S'PERSON'
p8495
sg10
Nsg24
NsbsS'novel'
p8496
g0
(g1
g2
Ntp8497
Rp8498
(dp8499
g6
Nsg8
S'OTHER'
p8500
sg10
Nsg24
NsbsS'value'
p8501
g0
(g1
g2
Ntp8502
Rp8503
(dp8504
g6
Nsg8
S'OTHER'
p8505
sg10
Nsg24
NsbsS'stalin'
p8506
g0
(g1
g2
Ntp8507
Rp8508
(dp8509
g6
Nsg8
S'PERSON'
p8510
sg10
Nsg24
NsbsS'santos-dumont'
p8511
g0
(g1
g2
Ntp8512
Rp8513
(dp8514
g6
Nsg8
S'PERSON'
p8515
sg10
Nsg24
NsbsS'thrillers'
p8516
g0
(g1
g2
Ntp8517
Rp8518
(dp8519
g6
Nsg8
S'PERSON'
p8520
sg10
Nsg24
NsbsS'layer'
p8521
g0
(g1
g2
Ntp8522
Rp8523
(dp8524
g6
Nsg8
S'OTHER'
p8525
sg10
Nsg24
NsbsS'resident'
p8526
g0
(g1
g2
Ntp8527
Rp8528
(dp8529
g6
Nsg8
S'PERSON'
p8530
sg10
Nsg24
NsbsS'site'
p8531
g0
(g1
g2
Ntp8532
Rp8533
(dp8534
g6
Nsg8
S'LOCATION'
p8535
sg10
Nsg24
NsbsS'partner'
p8536
g0
(g1
g2
Ntp8537
Rp8538
(dp8539
g6
Nsg8
S'PERSON'
p8540
sg10
Nsg24
NsbsS'terrorist'
p8541
g0
(g1
g2
Ntp8542
Rp8543
(dp8544
g6
Nsg8
S'PERSON'
p8545
sg10
Nsg24
NsbsS'wordsworth'
p8546
g0
(g1
g2
Ntp8547
Rp8548
(dp8549
g6
Nsg8
S'PERSON'
p8550
sg10
Nsg24
NsbsS'administration'
p8551
g0
(g1
g2
Ntp8552
Rp8553
(dp8554
g6
Nsg8
S'PERSON'
p8555
sg10
Nsg24
NsbsS'member'
p8556
g0
(g1
g2
Ntp8557
Rp8558
(dp8559
g6
Nsg8
S'PERSON'
p8560
sg10
Nsg24
NsbsS'strange'
p8561
g0
(g1
g2
Ntp8562
Rp8563
(dp8564
g6
Nsg8
S'PERSON'
p8565
sg10
Nsg24
NsbsS'speaker'
p8566
g0
(g1
g2
Ntp8567
Rp8568
(dp8569
g6
Nsg8
S'PERSON'
p8570
sg10
Nsg24
NsbsS'auto'
p8571
g0
(g1
g2
Ntp8572
Rp8573
(dp8574
g6
Nsg8
S'OTHER'
p8575
sg10
Nsg24
NsbsS'party'
p8576
g0
(g1
g2
Ntp8577
Rp8578
(dp8579
g6
Nsg8
S'PERSON'
p8580
sg10
Nsg24
NsbsS'powell'
p8581
g0
(g1
g2
Ntp8582
Rp8583
(dp8584
g6
Nsg8
S'PERSON'
p8585
sg10
Nsg24
NsbsS'parthenon'
p8586
g0
(g1
g2
Ntp8587
Rp8588
(dp8589
g6
Nsg8
S'DATE'
p8590
sg10
Nsg24
NsbsS'ball'
p8591
g0
(g1
g2
Ntp8592
Rp8593
(dp8594
g6
Nsg8
S'OTHER'
p8595
sg10
Nsg24
NsbsS'appearances'
p8596
g0
(g1
g2
Ntp8597
Rp8598
(dp8599
g6
Nsg8
S'PERSON'
p8600
sg10
Nsg24
NsbsS'drink'
p8601
g0
(g1
g2
Ntp8602
Rp8603
(dp8604
g6
Nsg8
S'OTHER'
p8605
sg10
Nsg24
NsbsS'whale'
p8606
g0
(g1
g2
Ntp8607
Rp8608
(dp8609
g6
Nsg8
S'OTHER'
p8610
sg10
Nsg24
NsbsS'identity'
p8611
g0
(g1
g2
Ntp8612
Rp8613
(dp8614
g6
Nsg8
S'PERSON'
p8615
sg10
Nsg24
NsbsS'center'
p8616
g0
(g1
g2
Ntp8617
Rp8618
(dp8619
g6
Nsg8
S'LOCATION'
p8620
sg10
Nsg24
NsbsS'i'
p8621
g0
(g1
g2
Ntp8622
Rp8623
(dp8624
g6
g16
sg8
S'LOCATION'
p8625
sg10
(dp8626
S'when'
p8627
g0
(g1
g2
Ntp8628
Rp8629
(dp8630
g6
Nsg8
S'DATE'
p8631
sg10
Nsg24
NsbsS'where'
p8632
g0
(g1
g2
Ntp8633
Rp8634
(dp8635
g6
Nsg8
g8625
sg10
Nsg24
Nsbssg24
NsbsS'weapon'
p8636
g0
(g1
g2
Ntp8637
Rp8638
(dp8639
g6
Nsg8
S'OTHER'
p8640
sg10
Nsg24
NsbsS'variety'
p8641
g0
(g1
g2
Ntp8642
Rp8643
(dp8644
g6
Nsg8
S'OTHER'
p8645
sg10
Nsg24
NsbsS'antonio'
p8646
g0
(g1
g2
Ntp8647
Rp8648
(dp8649
g6
Nsg8
S'PERSON'
p8650
sg10
Nsg24
NsbsS'corporation'
p8651
g0
(g1
g2
Ntp8652
Rp8653
(dp8654
g6
Nsg8
S'PERSON'
p8655
sg10
Nsg24
NsbsS'deltiologist'
p8656
g0
(g1
g2
Ntp8657
Rp8658
(dp8659
g6
Nsg8
S'OTHER'
p8660
sg10
Nsg24
NsbsS'khrushchev'
p8661
g0
(g1
g2
Ntp8662
Rp8663
(dp8664
g6
Nsg8
S'PERSON'
p8665
sg10
Nsg24
NsbsS'dose'
p8666
g0
(g1
g2
Ntp8667
Rp8668
(dp8669
g6
Nsg8
S'PERSON'
p8670
sg10
Nsg24
NsbsS'batteries'
p8671
g0
(g1
g2
Ntp8672
Rp8673
(dp8674
g6
Nsg8
S'PERSON'
p8675
sg10
Nsg24
NsbsS'seats'
p8676
g0
(g1
g2
Ntp8677
Rp8678
(dp8679
g6
Nsg8
S'NUMBER'
p8680
sg10
Nsg24
NsbsS'web'
p8681
g0
(g1
g2
Ntp8682
Rp8683
(dp8684
g6
g16
sg8
S'LOCATION'
p8685
sg10
(dp8686
S'how'
p8687
g0
(g1
g2
Ntp8688
Rp8689
(dp8690
g6
Nsg8
S'NUMBER'
p8691
sg10
Nsg24
NsbsS'what'
p8692
g0
(g1
g2
Ntp8693
Rp8694
(dp8695
g6
Nsg8
g8685
sg10
Nsg24
Nsbssg24
NsbsS'ads'
p8696
g0
(g1
g2
Ntp8697
Rp8698
(dp8699
g6
Nsg8
S'OTHER'
p8700
sg10
Nsg24
NsbsS'field'
p8701
g0
(g1
g2
Ntp8702
Rp8703
(dp8704
g6
Nsg8
S'OTHER'
p8705
sg10
Nsg24
NsbsS'bell'
p8706
g0
(g1
g2
Ntp8707
Rp8708
(dp8709
g6
Nsg8
S'LOCATION'
p8710
sg10
Nsg24
NsbsS'lake'
p8711
g0
(g1
g2
Ntp8712
Rp8713
(dp8714
g6
Nsg8
S'LOCATION'
p8715
sg10
Nsg24
NsbsS'citizen'
p8716
g0
(g1
g2
Ntp8717
Rp8718
(dp8719
g6
Nsg8
S'PERSON'
p8720
sg10
Nsg24
NsbsS'scoundrel'
p8721
g0
(g1
g2
Ntp8722
Rp8723
(dp8724
g6
Nsg8
S'PERSON'
p8725
sg10
Nsg24
NsbsS'earthquakes'
p8726
g0
(g1
g2
Ntp8727
Rp8728
(dp8729
g6
Nsg8
S'OTHER'
p8730
sg10
Nsg24
NsbsS'gestapo'
p8731
g0
(g1
g2
Ntp8732
Rp8733
(dp8734
g6
Nsg8
S'PERSON'
p8735
sg10
Nsg24
NsbsS'myth'
p8736
g0
(g1
g2
Ntp8737
Rp8738
(dp8739
g6
Nsg8
S'LOCATION'
p8740
sg10
Nsg24
NsbsS'government'
p8741
g0
(g1
g2
Ntp8742
Rp8743
(dp8744
g6
Nsg8
S'PERSON'
p8745
sg10
Nsg24
NsbsS'press'
p8746
g0
(g1
g2
Ntp8747
Rp8748
(dp8749
g6
Nsg8
S'PERSON'
p8750
sg10
Nsg24
NsbsS'knox'
p8751
g0
(g1
g2
Ntp8752
Rp8753
(dp8754
g6
Nsg8
S'OTHER'
p8755
sg10
Nsg24
NsbsS'lincoln'
p8756
g0
(g1
g2
Ntp8757
Rp8758
(dp8759
g6
Nsg8
S'LOCATION'
p8760
sg10
Nsg24
NsbsS'sizes'
p8761
g0
(g1
g2
Ntp8762
Rp8763
(dp8764
g6
Nsg8
S'NUMBER'
p8765
sg10
Nsg24
NsbsS'chairs'
p8766
g0
(g1
g2
Ntp8767
Rp8768
(dp8769
g6
Nsg8
S'NUMBER'
p8770
sg10
Nsg24
NsbsS'clown'
p8771
g0
(g1
g2
Ntp8772
Rp8773
(dp8774
g6
Nsg8
S'PERSON'
p8775
sg10
Nsg24
NsbsS'journalist'
p8776
g0
(g1
g2
Ntp8777
Rp8778
(dp8779
g6
Nsg8
S'PERSON'
p8780
sg10
Nsg24
NsbsS'james'
p8781
g0
(g1
g2
Ntp8782
Rp8783
(dp8784
g6
Nsg8
S'NUMBER'
p8785
sg10
Nsg24
NsbsS'page'
p8786
g0
(g1
g2
Ntp8787
Rp8788
(dp8789
g6
Nsg8
S'LOCATION'
p8790
sg10
Nsg24
NsbsS'x-man'
p8791
g0
(g1
g2
Ntp8792
Rp8793
(dp8794
g6
Nsg8
S'PERSON'
p8795
sg10
Nsg24
NsbsS'wonders'
p8796
g0
(g1
g2
Ntp8797
Rp8798
(dp8799
g6
Nsg8
S'OTHER'
p8800
sg10
Nsg24
NsbsS'amendment'
p8801
g0
(g1
g2
Ntp8802
Rp8803
(dp8804
g6
Nsg8
S'DATE'
p8805
sg10
Nsg24
NsbsS'habitat'
p8806
g0
(g1
g2
Ntp8807
Rp8808
(dp8809
g6
Nsg8
S'LOCATION'
p8810
sg10
Nsg24
NsbsS'elevators'
p8811
g0
(g1
g2
Ntp8812
Rp8813
(dp8814
g6
Nsg8
S'NUMBER'
p8815
sg10
Nsg24
NsbsS'library'
p8816
g0
(g1
g2
Ntp8817
Rp8818
(dp8819
g6
Nsg8
S'LOCATION'
p8820
sg10
Nsg24
NsbsS'hair'
p8821
g0
(g1
g2
Ntp8822
Rp8823
(dp8824
g6
Nsg8
S'OTHER'
p8825
sg10
Nsg24
NsbsS'export'
p8826
g0
(g1
g2
Ntp8827
Rp8828
(dp8829
g6
Nsg8
S'OTHER'
p8830
sg10
Nsg24
NsbsS'archenemy'
p8831
g0
(g1
g2
Ntp8832
Rp8833
(dp8834
g6
Nsg8
S'PERSON'
p8835
sg10
Nsg24
NsbsS'home'
p8836
g0
(g1
g2
Ntp8837
Rp8838
(dp8839
g6
Nsg8
S'LOCATION'
p8840
sg10
Nsg24
NsbsS'novelist'
p8841
g0
(g1
g2
Ntp8842
Rp8843
(dp8844
g6
Nsg8
S'PERSON'
p8845
sg10
Nsg24
NsbsS'competitor'
p8846
g0
(g1
g2
Ntp8847
Rp8848
(dp8849
g6
Nsg8
S'PERSON'
p8850
sg10
Nsg24
NsbsS'arch-enemy'
p8851
g0
(g1
g2
Ntp8852
Rp8853
(dp8854
g6
Nsg8
S'PERSON'
p8855
sg10
Nsg24
NsbsS'hurricane'
p8856
g0
(g1
g2
Ntp8857
Rp8858
(dp8859
g6
Nsg8
S'OTHER'
p8860
sg10
Nsg24
NsbsS'mines'
p8861
g0
(g1
g2
Ntp8862
Rp8863
(dp8864
g6
Nsg8
S'NUMBER'
p8865
sg10
Nsg24
NsbsS'leader'
p8866
g0
(g1
g2
Ntp8867
Rp8868
(dp8869
g6
Nsg8
S'PERSON'
p8870
sg10
Nsg24
NsbsS'journal'
p8871
g0
(g1
g2
Ntp8872
Rp8873
(dp8874
g6
Nsg8
S'DATE'
p8875
sg10
Nsg24
NsbsS'rock'
p8876
g0
(g1
g2
Ntp8877
Rp8878
(dp8879
g6
Nsg8
S'LOCATION'
p8880
sg10
Nsg24
NsbsS'host'
p8881
g0
(g1
g2
Ntp8882
Rp8883
(dp8884
g6
Nsg8
S'PERSON'
p8885
sg10
Nsg24
NsbsS'counties'
p8886
g0
(g1
g2
Ntp8887
Rp8888
(dp8889
g6
Nsg8
S'NUMBER'
p8890
sg10
Nsg24
NsbsS'science'
p8891
g0
(g1
g2
Ntp8892
Rp8893
(dp8894
g6
Nsg8
S'OTHER'
p8895
sg10
Nsg24
NsbsS'pike'
p8896
g0
(g1
g2
Ntp8897
Rp8898
(dp8899
g6
Nsg8
S'PERSON'
p8900
sg10
Nsg24
NsbsS'sister'
p8901
g0
(g1
g2
Ntp8902
Rp8903
(dp8904
g6
Nsg8
S'PERSON'
p8905
sg10
Nsg24
NsbsS'gandhi'
p8906
g0
(g1
g2
Ntp8907
Rp8908
(dp8909
g6
Nsg8
S'PERSON'
p8910
sg10
Nsg24
NsbsS'camels'
p8911
g0
(g1
g2
Ntp8912
Rp8913
(dp8914
g6
Nsg8
S'OTHER'
p8915
sg10
Nsg24
NsbsS'emperor'
p8916
g0
(g1
g2
Ntp8917
Rp8918
(dp8919
g6
g16
sg8
S'OTHER'
p8920
sg10
(dp8921
S'what'
p8922
g0
(g1
g2
Ntp8923
Rp8924
(dp8925
g6
Nsg8
g8920
sg10
Nsg24
NsbsS'who'
p8926
g0
(g1
g2
Ntp8927
Rp8928
(dp8929
g6
Nsg8
S'PERSON'
p8930
sg10
Nsg24
Nsbssg24
NsbsS'swimming'
p8931
g0
(g1
g2
Ntp8932
Rp8933
(dp8934
g6
Nsg8
S'DATE'
p8935
sg10
Nsg24
NsbsS'burma'
p8936
g0
(g1
g2
Ntp8937
Rp8938
(dp8939
g6
Nsg8
S'LOCATION'
p8940
sg10
Nsg24
NsbsS'letters'
p8941
g0
(g1
g2
Ntp8942
Rp8943
(dp8944
g6
Nsg8
S'OTHER'
p8945
sg10
Nsg24
NsbsS'washington'
p8946
g0
(g1
g2
Ntp8947
Rp8948
(dp8949
g6
g16
sg8
S'LOCATION'
p8950
sg10
(dp8951
S'what'
p8952
g0
(g1
g2
Ntp8953
Rp8954
(dp8955
g6
Nsg8
S'OTHER'
p8956
sg10
Nsg24
NsbsS'where'
p8957
g0
(g1
g2
Ntp8958
Rp8959
(dp8960
g6
Nsg8
S'LOCATION'
p8961
sg10
Nsg24
Nsbssg24
NsbsS'weather'
p8962
g0
(g1
g2
Ntp8963
Rp8964
(dp8965
g6
Nsg8
S'PERSON'
p8966
sg10
Nsg24
NsbsS'brush'
p8967
g0
(g1
g2
Ntp8968
Rp8969
(dp8970
g6
Nsg8
S'OTHER'
p8971
sg10
Nsg24
NsbsS'yankee'
p8972
g0
(g1
g2
Ntp8973
Rp8974
(dp8975
g6
Nsg8
S'PERSON'
p8976
sg10
Nsg24
NsbsS'vegetables'
p8977
g0
(g1
g2
Ntp8978
Rp8979
(dp8980
g6
Nsg8
S'OTHER'
p8981
sg10
Nsg24
NsbsS'elephants'
p8982
g0
(g1
g2
Ntp8983
Rp8984
(dp8985
g6
Nsg8
S'NUMBER'
p8986
sg10
Nsg24
NsbsS'synthesizer'
p8987
g0
(g1
g2
Ntp8988
Rp8989
(dp8990
g6
Nsg8
S'PERSON'
p8991
sg10
Nsg24
NsbsS'airline'
p8992
g0
(g1
g2
Ntp8993
Rp8994
(dp8995
g6
Nsg8
S'PERSON'
p8996
sg10
Nsg24
NsbsS'bros.'
p8997
g0
(g1
g2
Ntp8998
Rp8999
(dp9000
g6
Nsg8
S'OTHER'
p9001
sg10
Nsg24
NsbsS'prewett'
p9002
g0
(g1
g2
Ntp9003
Rp9004
(dp9005
g6
Nsg8
S'PERSON'
p9006
sg10
Nsg24
NsbsS'brand'
p9007
g0
(g1
g2
Ntp9008
Rp9009
(dp9010
g6
Nsg8
S'OTHER'
p9011
sg10
Nsg24
NsbsS'sequel'
p9012
g0
(g1
g2
Ntp9013
Rp9014
(dp9015
g6
Nsg8
S'OTHER'
p9016
sg10
Nsg24
NsbsS'ear'
p9017
g0
(g1
g2
Ntp9018
Rp9019
(dp9020
g6
Nsg8
S'OTHER'
p9021
sg10
Nsg24
NsbsS'count'
p9022
g0
(g1
g2
Ntp9023
Rp9024
(dp9025
g6
Nsg8
S'PERSON'
p9026
sg10
Nsg24
NsbsS'breweries'
p9027
g0
(g1
g2
Ntp9028
Rp9029
(dp9030
g6
Nsg8
S'LOCATION'
p9031
sg10
Nsg24
NsbsS'birthdate'
p9032
g0
(g1
g2
Ntp9033
Rp9034
(dp9035
g6
Nsg8
S'DATE'
p9036
sg10
Nsg24
NsbsS'record'
p9037
g0
(g1
g2
Ntp9038
Rp9039
(dp9040
g6
Nsg8
S'PERSON'
p9041
sg10
Nsg24
NsbsS'frequency'
p9042
g0
(g1
g2
Ntp9043
Rp9044
(dp9045
g6
Nsg8
S'NUMBER'
p9046
sg10
Nsg24
NsbsS'stories'
p9047
g0
(g1
g2
Ntp9048
Rp9049
(dp9050
g6
Nsg8
S'OTHER'
p9051
sg10
Nsg24
NsbsS'piece'
p9052
g0
(g1
g2
Ntp9053
Rp9054
(dp9055
g6
Nsg8
S'OTHER'
p9056
sg10
Nsg24
NsbsS'minutes'
p9057
g0
(g1
g2
Ntp9058
Rp9059
(dp9060
g6
Nsg8
S'NUMBER'
p9061
sg10
Nsg24
NsbsS'menstruation'
p9062
g0
(g1
g2
Ntp9063
Rp9064
(dp9065
g6
Nsg8
S'DATE'
p9066
sg10
Nsg24
NsbsS'gulliver'
p9067
g0
(g1
g2
Ntp9068
Rp9069
(dp9070
g6
Nsg8
S'LOCATION'
p9071
sg10
Nsg24
NsbsS'condiment'
p9072
g0
(g1
g2
Ntp9073
Rp9074
(dp9075
g6
Nsg8
S'OTHER'
p9076
sg10
Nsg24
NsbsS'rubble'
p9077
g0
(g1
g2
Ntp9078
Rp9079
(dp9080
g6
Nsg8
S'LOCATION'
p9081
sg10
Nsg24
NsbsS'fiddlers'
p9082
g0
(g1
g2
Ntp9083
Rp9084
(dp9085
g6
Nsg8
S'NUMBER'
p9086
sg10
Nsg24
NsbsS'ingredients'
p9087
g0
(g1
g2
Ntp9088
Rp9089
(dp9090
g6
Nsg8
S'OTHER'
p9091
sg10
Nsg24
NsbsS'marley'
p9092
g0
(g1
g2
Ntp9093
Rp9094
(dp9095
g6
Nsg8
S'OTHER'
p9096
sg10
Nsg24
NsbsS'guitarist'
p9097
g0
(g1
g2
Ntp9098
Rp9099
(dp9100
g6
Nsg8
S'PERSON'
p9101
sg10
Nsg24
NsbsS'percent'
p9102
g0
(g1
g2
Ntp9103
Rp9104
(dp9105
g6
Nsg8
S'PERCENT'
p9106
sg10
Nsg24
NsbsS'book'
p9107
g0
(g1
g2
Ntp9108
Rp9109
(dp9110
g6
g16
sg8
S'OTHER'
p9111
sg10
(dp9112
S'what'
p9113
g0
(g1
g2
Ntp9114
Rp9115
(dp9116
g6
Nsg8
S'OTHER'
p9117
sg10
Nsg24
NsbsS'who'
p9118
g0
(g1
g2
Ntp9119
Rp9120
(dp9121
g6
Nsg8
S'PERSON'
p9122
sg10
Nsg24
NsbsS'which'
p9123
g0
(g1
g2
Ntp9124
Rp9125
(dp9126
g6
Nsg8
S'OTHER'
p9127
sg10
Nsg24
NsbsS'in'
p9128
g0
(g1
g2
Ntp9129
Rp9130
(dp9131
g6
Nsg8
S'OTHER'
p9132
sg10
Nsg24
Nsbssg24
NsbsS'boob'
p9133
g0
(g1
g2
Ntp9134
Rp9135
(dp9136
g6
Nsg8
S'OTHER'
p9137
sg10
Nsg24
NsbsS'star'
p9138
g0
(g1
g2
Ntp9139
Rp9140
(dp9141
g6
g16
sg8
S'PERSON'
p9142
sg10
(dp9143
S'what'
p9144
g0
(g1
g2
Ntp9145
Rp9146
(dp9147
g6
Nsg8
S'LOCATION'
p9148
sg10
Nsg24
NsbsS'who'
p9149
g0
(g1
g2
Ntp9150
Rp9151
(dp9152
g6
Nsg8
S'PERSON'
p9153
sg10
Nsg24
Nsbssg24
NsbsS'chance'
p9154
g0
(g1
g2
Ntp9155
Rp9156
(dp9157
g6
Nsg8
S'PERCENT'
p9158
sg10
Nsg24
NsbsS'golfer'
p9159
g0
(g1
g2
Ntp9160
Rp9161
(dp9162
g6
Nsg8
S'PERSON'
p9163
sg10
Nsg24
NsbsS'ghost'
p9164
g0
(g1
g2
Ntp9165
Rp9166
(dp9167
g6
Nsg8
S'PERSON'
p9168
sg10
Nsg24
NsbsS'flatfish'
p9169
g0
(g1
g2
Ntp9170
Rp9171
(dp9172
g6
Nsg8
S'OTHER'
p9173
sg10
Nsg24
NsbsS'craft'
p9174
g0
(g1
g2
Ntp9175
Rp9176
(dp9177
g6
Nsg8
S'OTHER'
p9178
sg10
Nsg24
Nsbssg24
Nsb.