ccopy_reg
_reconstructor
p0
(cnltk.classify.maxent
MaxentClassifier
p1
c__builtin__
object
p2
Ntp3
Rp4
(dp5
S'_logarithmic'
p6
I01
sS'_encoding'
p7
g0
(cnltk.classify.maxent
BinaryMaxentFeatureEncoding
p8
g2
Ntp9
Rp10
(dp11
S'_length'
p12
I1796
sS'_labels'
p13
(lp14
S'MONEY'
p15
aS'PERCENT'
p16
aS'NUMBER'
p17
aS'PERSON'
p18
aS'OTHER'
p19
aS'LOCATION'
p20
aS'TIME'
p21
aS'DATE'
p22
aS'ORGANIZATION'
p23
asS'_unseen'
p24
NsS'_alwayson'
p25
NsS'_mapping'
p26
(dp27
(S'head'
p28
S'members'
p29
S'NUMBER'
p30
tp31
I1156
s(g28
S'guitar'
p32
S'PERSON'
p33
tp34
I1702
s(g28
S'cardinal'
p35
S'PERSON'
p36
tp37
I1072
s(g28
S'percentage'
p38
S'PERCENT'
p39
tp40
I987
s(g28
S'delicacy'
p41
S'OTHER'
p42
tp43
I1629
s(g28
S'franklin'
p44
S'OTHER'
p45
tp46
I1189
s(g28
S'superbowl'
p47
S'PERSON'
p48
tp49
I1070
s(g28
S'vegetable'
p50
S'OTHER'
p51
tp52
I1039
s(g28
S'quantity'
p53
S'NUMBER'
p54
tp55
I252
s(g28
S'continents'
p56
S'NUMBER'
p57
tp58
I1417
s(g28
S'stewart'
p59
S'OTHER'
p60
tp61
I553
s(g28
S'oven'
p62
S'OTHER'
p63
tp64
I754
s(g28
S'make-up'
p65
S'PERSON'
p66
tp67
I77
s(g28
S'sonnets'
p68
S'NUMBER'
p69
tp70
I229
s(g28
S'islands'
p71
S'LOCATION'
p72
tp73
I884
s(g28
S'percent'
p74
S'PERCENT'
p75
tp76
I416
s(g28
S'normans'
p77
S'PERSON'
p78
tp79
I1621
s(g28
S'events'
p80
S'NUMBER'
p81
tp82
I1601
s(g28
S'chapel'
p83
S'PERSON'
p84
tp85
I463
s(g28
S'dipsomaniac'
p86
S'OTHER'
p87
tp88
I706
s(g28
S'bible'
p89
S'DATE'
p90
tp91
I1701
s(g28
S'shipwreck'
p92
S'OTHER'
p93
tp94
I748
s(g28
S'words'
p95
S'OTHER'
p96
tp97
I886
s(g28
S'ranger'
p98
S'PERSON'
p99
tp100
I308
s(g28
S'population'
p101
S'NUMBER'
p102
tp103
I210
s(g28
S'rating'
p104
S'PERCENT'
p105
tp106
I576
s(S'first'
p107
S'silly'
p108
S'PERSON'
p109
tp110
I753
s(g107
S'independent'
p111
S'PERCENT'
p112
tp113
I1358
s(g28
S'conservationist'
p114
S'PERSON'
p115
tp116
I949
s(g28
S'wall'
p117
S'LOCATION'
p118
tp119
I1594
s(g28
S'fastener'
p120
S'OTHER'
p121
tp122
I337
s(g28
S'times'
p123
S'NUMBER'
p124
tp125
I415
s(g28
S'name'
p126
S'PERSON'
p127
tp128
I134
s(g107
S'jude'
p129
S'OTHER'
p130
tp131
I590
s(g28
S'college'
p132
S'ORGANIZATION'
p133
tp134
I329
s(g28
S'pub'
p135
S'PERSON'
p136
tp137
I882
s(g28
S'dot'
p138
S'OTHER'
p139
tp140
I893
s(g28
S'superstar'
p141
S'PERSON'
p142
tp143
I310
s(g28
S'abby'
p144
S'PERSON'
p145
tp146
I555
s(g28
S'cohan'
p147
S'PERSON'
p148
tp149
I1709
s(g28
S'lack'
p150
S'OTHER'
p151
tp152
I1231
s(g28
S'picts'
p153
S'PERSON'
p154
tp155
I746
s(g28
S'awards'
p156
S'DATE'
p157
tp158
I1652
s(g28
S'runs'
p159
S'NUMBER'
p160
tp161
I488
s(g28
S'bar'
p162
S'OTHER'
p163
tp164
I741
s(g28
S'breweries'
p165
S'LOCATION'
p166
tp167
I615
s(g28
S'bowl'
p168
S'OTHER'
p169
tp170
I883
s(g28
S'collector'
p171
S'PERSON'
p172
tp173
I1676
s(g28
S'nun'
p174
S'PERSON'
p175
tp176
I60
s(g28
S'gulliver'
p177
S'LOCATION'
p178
tp179
I1667
s(g28
S'monk'
p180
S'PERSON'
p181
tp182
I1146
s(g28
S'beard'
p183
S'PERSON'
p184
tp185
I659
s(g28
S'helens'
p186
S'DATE'
p187
tp188
I1370
s(g28
S'house'
p189
S'DATE'
p190
tp191
I1653
s(g28
S'crop'
p192
S'OTHER'
p193
tp194
I248
s(g28
S''
p195
S'MONEY'
p196
tp197
I102
s(g28
S'enemies'
p198
S'ORGANIZATION'
p199
tp200
I724
s(g28
S'killer'
p201
S'OTHER'
p202
tp203
I630
s(g28
S'hunter'
p204
S'PERSON'
p205
tp206
I8
s(g28
S'referees'
p207
S'NUMBER'
p208
tp209
I291
s(g28
S'carson'
p210
S'PERSON'
p211
tp212
I993
s(g28
S'flower'
p213
S'OTHER'
p214
tp215
I575
s(g28
S'rate'
p216
S'MONEY'
p217
tp218
I734
s(g28
S'angelica'
p219
S'LOCATION'
p220
tp221
I826
s(g28
S'pyramid-builders'
p222
S'OTHER'
p223
tp224
I1549
s(g28
S'message'
p225
S'PERSON'
p226
tp227
I1116
s(g28
S'bill'
p228
S'PERSON'
p229
tp230
I1793
s(g28
S'chain'
p231
S'PERSON'
p232
tp233
I828
s(g107
S'saddam'
p234
S'PERSON'
p235
tp236
I972
s(g28
S'brothers'
p237
S'PERSON'
p238
tp239
I69
s(g28
S'spermologer'
p240
S'OTHER'
p241
tp242
I31
s(g28
S'emperor'
p243
S'PERSON'
p244
tp245
I365
s(g28
S'odds'
p246
S'PERCENT'
p247
tp248
I700
s(g28
S'birthstone'
p249
S'OTHER'
p250
tp251
I447
s(g28
S'fish'
p252
S'OTHER'
p253
tp254
I863
s(g28
S'electricity'
p255
S'PERSON'
p256
tp257
I114
s(g28
S'show'
p258
S'DATE'
p259
tp260
I1660
s(g28
S'bra'
p261
S'PERSON'
p262
tp263
I1560
s(g28
S'studio'
p264
S'PERSON'
p265
tp266
I1672
s(g28
S'hospital'
p267
S'LOCATION'
p268
tp269
I744
s(g107
S'how'
p270
g17
tp271
I19
s(g28
S'code'
p272
S'NUMBER'
p273
tp274
I1517
s(g28
S'order'
p275
S'PERSON'
p276
tp277
I318
s(g28
S'money'
p278
S'OTHER'
p279
tp280
I1011
s(g28
S'eidologist'
p281
S'OTHER'
p282
tp283
I1707
s(g28
S'ocean'
p284
S'OTHER'
p285
tp286
I1008
s(g28
S'synthesizer'
p287
S'PERSON'
p288
tp289
I1491
s(g28
S'cup'
p290
S'PERSON'
p291
tp292
I1474
s(g28
S'ravens'
p293
S'OTHER'
p294
tp295
I702
s(g28
S'trials'
p296
S'OTHER'
p297
tp298
I739
s(g28
S'huston'
p299
S'OTHER'
p300
tp301
I940
s(g28
S'super'
p302
S'ORGANIZATION'
p303
tp304
I1712
s(g28
S'may'
p305
S'OTHER'
p306
tp307
I1204
s(g107
S'what'
p308
S'NUMBER'
p309
tp310
I157
s(g28
S'heliologist'
p311
S'OTHER'
p312
tp313
I1138
s(g28
S'game'
p314
S'PERSON'
p315
tp316
I324
s(g28
S'president'
p317
S'ORGANIZATION'
p318
tp319
I394
s(g28
S'swampy'
p320
S'PERSON'
p321
tp322
I747
s(g28
S'actors'
p323
S'NUMBER'
p324
tp325
I1496
s(g28
S'novelist'
p326
S'PERSON'
p327
tp328
I846
s(g28
S'humans'
p329
S'DATE'
p330
tp331
I796
s(g28
S'boss'
p332
S'PERSON'
p333
tp334
I1755
s(g28
S'story'
p335
S'PERSON'
p336
tp337
I1419
s(g28
S'translation'
p338
S'OTHER'
p339
tp340
I725
s(g28
S'penalty'
p341
S'OTHER'
p342
tp343
I681
s(g28
S'constitution'
p344
S'OTHER'
p345
tp346
I421
s(g28
S'composer'
p347
S'PERSON'
p348
tp349
I159
s(g28
S'age'
p350
S'TIME'
p351
tp352
I548
s(g28
S'achievements'
p353
S'OTHER'
p354
tp355
I970
s(g28
S'commune'
p356
S'PERSON'
p357
tp358
I111
s(g28
S'arch-enemy'
p359
S'PERSON'
p360
tp361
I49
s(g28
S'adult'
p362
S'OTHER'
p363
tp364
I838
s(g28
S'brand'
p365
S'NUMBER'
p366
tp367
I740
s(g28
S'mammal'
p368
S'OTHER'
p369
tp370
I665
s(g28
S'pike'
p371
S'PERSON'
p372
tp373
I1785
s(g28
S'phone'
p374
S'NUMBER'
p375
tp376
I583
s(g28
S'building'
p377
S'LOCATION'
p378
tp379
I377
s(g28
S'ingredients'
p380
S'OTHER'
p381
tp382
I1710
s(g28
S'organ'
p383
S'OTHER'
p384
tp385
I1544
s(g28
S'states'
p386
S'NUMBER'
p387
tp388
I718
s(g28
S'cancer'
p389
S'OTHER'
p390
tp391
I595
s(g28
S'hughes'
p392
S'PERSON'
p393
tp394
I969
s(g28
S'months'
p395
S'NUMBER'
p396
tp397
I124
s(g28
S'battery'
p398
S'PERSON'
p399
tp400
I1492
s(g28
S'israel'
p401
S'DATE'
p402
tp403
I611
s(g28
S'book'
p404
S'PERSON'
p405
tp406
I973
s(g107
S'the'
p407
S'ORGANIZATION'
p408
tp409
I847
s(g28
S'sculpture'
p410
S'OTHER'
p411
tp412
I961
s(g28
S'piece'
p413
S'OTHER'
p414
tp415
I216
s(g28
S'hands'
p416
S'NUMBER'
p417
tp418
I455
s(g28
S'king'
p419
S'PERSON'
p420
tp421
I604
s(g28
S'writers'
p422
S'PERSON'
p423
tp424
I1536
s(g28
S'camcorders'
p425
S'DATE'
p426
tp427
I728
s(g28
S'way'
p428
S'LOCATION'
p429
tp430
I384
s(g28
S'frequency'
p431
S'NUMBER'
p432
tp433
I858
s(g28
S'fraction'
p434
g16
tp435
I313
s(g28
S'gogh'
p436
S'PERSON'
p437
tp438
I837
s(g28
S'conjugations'
p439
S'OTHER'
p440
tp441
I1062
s(g28
S'tours'
p442
S'LOCATION'
p443
tp444
I1718
s(g28
S'roger'
p445
S'OTHER'
p446
tp447
I875
s(g28
S'schools'
p448
S'NUMBER'
p449
tp450
I1224
s(g28
S'razor'
p451
S'OTHER'
p452
tp453
I393
s(g28
S'letters'
p454
S'OTHER'
p455
tp456
I1659
s(g28
S'score'
p457
S'NUMBER'
p458
tp459
I892
s(g28
S'volleyball'
p460
S'PERSON'
p461
tp462
I1620
s(g28
S'pride'
p463
S'PERSON'
p464
tp465
I12
s(g28
S'fuel'
p466
S'OTHER'
p467
tp468
I547
s(g28
S'fire'
p469
S'DATE'
p470
tp471
I470
s(g28
S'aldrin'
p472
S'LOCATION'
p473
tp474
I417
s(g28
S'nostradamus'
p475
S'DATE'
p476
tp477
I1033
s(g28
S'city'
p478
S'LOCATION'
p479
tp480
I55
s(g28
S'race'
p481
S'LOCATION'
p482
tp483
I1105
s(g28
S'cage'
p484
S'PERSON'
p485
tp486
I1591
s(g28
S'four'
p487
S'OTHER'
p488
tp489
I1350
s(g28
S'elements'
p490
S'NUMBER'
p491
tp492
I1209
s(g28
S'buxom'
p493
S'PERSON'
p494
tp495
I1098
s(g28
S'card'
p496
S'ORGANIZATION'
p497
tp498
I1093
s(g28
S'animal'
p499
S'OTHER'
p500
tp501
I186
s(g28
S'manufacturer'
p502
S'ORGANIZATION'
p503
tp504
I532
s(g28
S'santos-dumont'
p505
S'PERSON'
p506
tp507
I1296
s(g28
g195
S'LOCATION'
p508
tp509
I57
s(g28
S'tools'
p510
S'OTHER'
p511
tp512
I977
s(g28
S'sport'
p513
S'OTHER'
p514
tp515
I366
s(g107
S'kosovo'
p516
S'LOCATION'
p517
tp518
I1423
s(g107
S'whom'
p519
S'PERSON'
p520
tp521
I757
s(g28
S'holidays'
p522
S'OTHER'
p523
tp524
I506
s(g28
S'loop'
p525
S'LOCATION'
p526
tp527
I52
s(g28
S'holiday'
p528
S'OTHER'
p529
tp530
I234
s(g28
S'fountain'
p531
S'PERSON'
p532
tp533
I1457
s(g28
S'acreage'
p534
g309
tp535
I156
s(g28
S'corporation'
p536
S'ORGANIZATION'
p537
tp538
I1717
s(g28
S'glasgow'
p539
S'LOCATION'
p540
tp541
I1647
s(g28
S'control'
p542
S'DATE'
p543
tp544
I1787
s(g28
S'newscast'
p545
S'PERSON'
p546
tp547
I414
s(g107
S'name'
p548
S'LOCATION'
p549
tp550
I481
s(g28
S'rams'
p551
S'PERSON'
p552
tp553
I1040
s(g28
S'information'
p554
S'LOCATION'
p555
tp556
I1674
s(g28
S'citizen'
p557
S'PERSON'
p558
tp559
I605
s(g28
S'lap'
p560
S'PERSON'
p561
tp562
I1013
s(g28
S'name'
p563
S'ORGANIZATION'
p564
tp565
I354
s(g28
S'cats'
p566
S'OTHER'
p567
tp568
I631
s(g28
S'tastes'
p569
S'OTHER'
p570
tp571
I1329
s(g28
S'playboy'
p572
S'OTHER'
p573
tp574
I1454
s(g28
S'rock'
p575
S'LOCATION'
p576
tp577
I1756
s(g28
S'helium'
p578
S'LOCATION'
p579
tp580
I805
s(g28
S'explorer'
p581
S'PERSON'
p582
tp583
I145
s(g28
S'treatment'
p584
S'OTHER'
p585
tp586
I578
s(g28
S'adventures'
p587
S'LOCATION'
p588
tp589
I39
s(g28
S'jfk'
p590
S'PERSON'
p591
tp592
I1734
s(g28
S'forest'
p593
S'LOCATION'
p594
tp595
I461
s(g28
S'canals'
p596
S'LOCATION'
p597
tp598
I1426
s(g28
S'group'
p599
S'ORGANIZATION'
p600
tp601
I517
s(g28
S'drake'
p602
S'OTHER'
p603
tp604
I41
s(g28
S'county'
p605
S'LOCATION'
p606
tp607
I407
s(g28
S'telescope'
p608
S'LOCATION'
p609
tp610
I1313
s(g28
S'store'
p611
S'ORGANIZATION'
p612
tp613
I918
s(g28
S'drinks'
p614
S'LOCATION'
p615
tp616
I1504
s(g28
S'battle'
p617
S'OTHER'
p618
tp619
I650
s(g28
S'maneuver'
p620
S'OTHER'
p621
tp622
I1753
s(g28
S'blackhawks'
p623
S'LOCATION'
p624
tp625
I922
s(g28
S'increase'
p626
S'MONEY'
p627
tp628
I1452
s(g28
S'golf'
p629
S'OTHER'
p630
tp631
I1715
s(g28
S'men'
p632
S'OTHER'
p633
tp634
I951
s(g28
S'types'
p635
S'OTHER'
p636
tp637
I254
s(g107
S'on'
p638
S'DATE'
p639
tp640
I898
s(g28
S'tourists'
p641
S'LOCATION'
p642
tp643
I335
s(g28
S'wonders'
p644
S'OTHER'
p645
tp646
I836
s(g28
S'names'
p647
S'OTHER'
p648
tp649
I528
s(g28
S'circle'
p650
S'OTHER'
p651
tp652
I490
s(g28
S'sex'
p653
S'OTHER'
p654
tp655
I765
s(g28
S'stingers'
p656
S'OTHER'
p657
tp658
I1345
s(g28
S'no.'
p659
S'PERSON'
p660
tp661
I552
s(g28
S'romania'
p662
S'LOCATION'
p663
tp664
I1056
s(g28
S'architect'
p665
S'PERSON'
p666
tp667
I719
s(g28
S'strips'
p668
S'OTHER'
p669
tp670
I1523
s(g28
S'u.s.'
p671
S'LOCATION'
p672
tp673
I845
s(g28
S'pitchers'
p674
S'NUMBER'
p675
tp676
I1221
s(g28
S'paine'
p677
S'OTHER'
p678
tp679
I1234
s(g28
S'company'
p680
S'PERSON'
p681
tp682
I1235
s(g107
S'dialing'
p683
S'MONEY'
p684
tp685
I1134
s(g28
S'opposition'
p686
S'PERSON'
p687
tp688
I1210
s(g28
S'waterways'
p689
S'LOCATION'
p690
tp691
I1363
s(g28
S'dwarfs'
p692
S'PERSON'
p693
tp694
I1171
s(g28
S'meat'
p695
S'OTHER'
p696
tp697
I1501
s(g28
S'dimensions'
p698
S'NUMBER'
p699
tp700
I721
s(g28
S'business'
p701
S'ORGANIZATION'
p702
tp703
I613
s(g28
S'mascot'
p704
S'OTHER'
p705
tp706
I173
s(g28
S'game'
p707
S'OTHER'
p708
tp709
I336
s(g28
S'stereo'
p710
S'ORGANIZATION'
p711
tp712
I297
s(g28
S'street'
p713
S'LOCATION'
p714
tp715
I526
s(g28
S'lawnmower'
p716
S'PERSON'
p717
tp718
I1269
s(g28
S'fatman'
p719
S'PERSON'
p720
tp721
I1595
s(g28
S'amendment'
p722
S'DATE'
p723
tp724
I258
s(g28
S'bacall'
p725
g520
tp726
I756
s(g107
S'what'
p727
g18
tp728
I4
s(g28
S'airline'
p729
S'ORGANIZATION'
p730
tp731
I1562
s(g28
S'member'
p732
S'OTHER'
p733
tp734
I1389
s(g28
S'physician'
p735
S'PERSON'
p736
tp737
I1191
s(g28
S'pendulum'
p738
S'PERSON'
p739
tp740
I1315
s(g28
S'caesar'
p741
S'PERSON'
p742
tp743
I214
s(g28
S'constellation'
p744
S'LOCATION'
p745
tp746
I822
s(g28
S'jones'
p747
S'PERSON'
p748
tp749
I636
s(g28
S'cocktail'
p750
S'OTHER'
p751
tp752
I44
s(g28
S'ancients'
p753
S'OTHER'
p754
tp755
I1425
s(g28
S'principles'
p756
S'OTHER'
p757
tp758
I1396
s(g28
S'palace'
p759
S'LOCATION'
p760
tp761
I1018
s(g28
S'tree'
p762
S'OTHER'
p763
tp764
I1646
s(g28
S'line'
p765
S'ORGANIZATION'
p766
tp767
I1685
s(g28
S'habits'
p768
S'OTHER'
p769
tp770
I1625
s(g28
S'square'
p771
S'LOCATION'
p772
tp773
I1220
s(g28
S'gamble'
p774
S'LOCATION'
p775
tp776
I269
s(g28
S'approaches'
p777
S'OTHER'
p778
tp779
I223
s(g28
S'harper'
p780
S'OTHER'
p781
tp782
I1339
s(g28
S'caps'
p783
S'MONEY'
p784
tp785
I1694
s(g28
S'drink'
p786
S'OTHER'
p787
tp788
I341
s(g28
S'cities'
p789
S'LOCATION'
p790
tp791
I405
s(g28
S'radio'
p792
S'PERSON'
p793
tp794
I221
s(g28
S'golfer'
p795
S'PERSON'
p796
tp797
I215
s(g28
S'country'
p798
S'LOCATION'
p799
tp800
I47
s(g28
S'daughter'
p801
S'PERSON'
p802
tp803
I434
s(g28
S'head'
p804
S'NUMBER'
p805
tp806
I1586
s(g28
S'terrorist'
p807
S'PERSON'
p808
tp809
I711
s(g28
S'school'
p810
S'NUMBER'
p811
tp812
I1441
s(g28
S'artist'
p813
S'PERSON'
p814
tp815
I302
s(g28
S'wheel'
p816
S'OTHER'
p817
tp818
I770
s(g28
S'period'
p819
S'TIME'
p820
tp821
I1681
s(g28
S'web'
p822
S'NUMBER'
p823
tp824
I1087
s(g28
S'magic'
p825
S'OTHER'
p826
tp827
I317
s(g28
S'leos'
p828
S'NUMBER'
p829
tp830
I877
s(g28
S'stethoscope'
p831
S'PERSON'
p832
tp833
I1152
s(g28
S'source'
p834
S'OTHER'
p835
tp836
I1311
s(g107
S'about'
p837
S'NUMBER'
p838
tp839
I1297
s(g107
S'which'
p840
S'LOCATION'
p841
tp842
I30
s(g28
S'countries'
p843
S'NUMBER'
p844
tp845
I165
s(g28
S'species'
p846
S'OTHER'
p847
tp848
I451
s(g28
S'lacan'
p849
S'PERSON'
p850
tp851
I585
s(g28
S'wives'
p852
S'NUMBER'
p853
tp854
I323
s(g28
S'horsemen'
p855
S'PERSON'
p856
tp857
I1687
s(g28
S'us'
p858
S'PERSON'
p859
tp860
I1305
s(g28
S'weir'
p861
S'PERSON'
p862
tp863
I1351
s(g28
S'monet'
p864
S'PERSON'
p865
tp866
I558
s(g28
S'bremer'
p867
S'PERSON'
p868
tp869
I1192
s(g28
S'grange'
p870
S'PERSON'
p871
tp872
I1291
s(g28
S'army'
p873
S'ORGANIZATION'
p874
tp875
I339
s(g28
S'comedian'
p876
S'PERSON'
p877
tp878
I601
s(g28
S'eels'
p879
S'LOCATION'
p880
tp881
I762
s(g28
S'answers'
p882
S'NUMBER'
p883
tp884
I1150
s(g28
S'crooner'
p885
S'PERSON'
p886
tp887
I95
s(g28
S'exercises'
p888
S'OTHER'
p889
tp890
I1064
s(g107
S'mccarren'
p891
S'LOCATION'
p892
tp893
I311
s(g28
S'rockefeller'
p894
S'DATE'
p895
tp896
I1232
s(g28
S'opener'
p897
S'PERSON'
p898
tp899
I1392
s(g28
S'molecules'
p900
S'OTHER'
p901
tp902
I732
s(g28
S'poe'
p903
S'LOCATION'
p904
tp905
I1089
s(g28
S'pitches'
p906
S'NUMBER'
p907
tp908
I1090
s(g28
S'substance'
p909
S'OTHER'
p910
tp911
I361
s(g28
S'year'
p912
S'DATE'
p913
tp914
I70
s(g28
S'alternate'
p915
S'OTHER'
p916
tp917
I1106
s(g28
S'equivalent'
p918
S'NUMBER'
p919
tp920
I222
s(g28
S'stops'
p921
S'LOCATION'
p922
tp923
I1340
s(g28
S'harrison'
p924
S'PERSON'
p925
tp926
I862
s(g28
S'flood'
p927
S'DATE'
p928
tp929
I1626
s(g28
S'damocles'
p930
S'PERSON'
p931
tp932
I1255
s(g28
S'gemstone'
p933
S'OTHER'
p934
tp935
I1250
s(g107
S'in'
p936
S'PERSON'
p937
tp938
I1260
s(g28
S'steamboat'
p939
S'PERSON'
p940
tp941
I1229
s(g28
S'clock'
p942
S'OTHER'
p943
tp944
I484
s(g28
S'disks'
p945
S'NUMBER'
p946
tp947
I801
s(g28
S'element'
p948
S'OTHER'
p949
tp950
I643
s(g28
S'letter'
p951
S'PERSON'
p952
tp953
I1547
s(g28
S'jews'
p954
g17
tp955
I18
s(g28
S'louisiana'
p956
S'LOCATION'
p957
tp958
I1284
s(g28
S'saliva'
p959
S'OTHER'
p960
tp961
I1436
s(g28
S'races'
p962
S'ORGANIZATION'
p963
tp964
I1182
s(g28
S'salt'
p965
S'NUMBER'
p966
tp967
I941
s(g28
S'palpatine'
p968
S'PERSON'
p969
tp970
I1326
s(g28
S'ali'
p971
S'PERSON'
p972
tp973
I857
s(g28
S'world'
p974
S'PERSON'
p975
tp976
I1236
s(g28
S'hit'
p977
S'OTHER'
p978
tp979
I915
s(g28
S'dummy'
p980
S'PERSON'
p981
tp982
I141
s(g28
S'nominee'
p983
S'PERSON'
p984
tp985
I420
s(g28
S'condiment'
p986
S'OTHER'
p987
tp988
I485
s(g28
S'line'
p989
S'OTHER'
p990
tp991
I1619
s(g107
S'rotary'
p992
S'ORGANIZATION'
p993
tp994
I1391
s(g28
S'films'
p995
S'NUMBER'
p996
tp997
I899
s(g28
S'nationality'
p998
S'LOCATION'
p999
tp1000
I777
s(g28
S'plant'
p1001
S'OTHER'
p1002
tp1003
I346
s(g28
S'signs'
p1004
S'OTHER'
p1005
tp1006
I723
s(g28
S'type'
p1007
S'OTHER'
p1008
tp1009
I1460
s(g28
S'competitor'
p1010
S'ORGANIZATION'
p1011
tp1012
I219
s(g28
S'darius'
p1013
S'PERSON'
p1014
tp1015
I658
s(g28
S'poem'
p1016
S'PERSON'
p1017
tp1018
I1295
s(g28
S'mountains'
p1019
S'LOCATION'
p1020
tp1021
I242
s(g28
g195
S'NUMBER'
p1022
tp1023
I42
s(g28
S'computer'
p1024
S'OTHER'
p1025
tp1026
I652
s(g28
S'lyricist'
p1027
S'PERSON'
p1028
tp1029
I1543
s(g28
S'handicraft'
p1030
S'OTHER'
p1031
tp1032
I726
s(g28
S'rate'
p1033
S'PERCENT'
p1034
tp1035
I609
s(g28
S'pedometer'
p1036
S'OTHER'
p1037
tp1038
I1648
s(g28
S'procedure'
p1039
S'OTHER'
p1040
tp1041
I1241
s(g28
S'prankster'
p1042
S'PERSON'
p1043
tp1044
I1510
s(g28
S'administration'
p1045
S'ORGANIZATION'
p1046
tp1047
I1178
s(g28
S'cartoon'
p1048
S'PERSON'
p1049
tp1050
I580
s(g28
S'tuberculosis'
p1051
S'LOCATION'
p1052
tp1053
I1268
s(g28
S'company'
p1054
S'OTHER'
p1055
tp1056
I1416
s(g28
S'seaport'
p1057
S'LOCATION'
p1058
tp1059
I326
s(g28
S'calories'
p1060
S'NUMBER'
p1061
tp1062
I211
s(g28
S'leader'
p1063
S'PERSON'
p1064
tp1065
I238
s(g28
S'gates'
p1066
S'LOCATION'
p1067
tp1068
I360
s(g28
S'scoundrel'
p1069
g18
tp1070
I3
s(g28
S'soldier'
p1071
S'PERSON'
p1072
tp1073
I819
s(g28
S'alloy'
p1074
S'OTHER'
p1075
tp1076
I1572
s(g28
S'businesses'
p1077
S'ORGANIZATION'
p1078
tp1079
I1420
s(g28
S'olympics'
p1080
S'LOCATION'
p1081
tp1082
I1323
s(g28
S'side'
p1083
S'OTHER'
p1084
tp1085
I1195
s(g28
S'daniel'
p1086
S'LOCATION'
p1087
tp1088
I1682
s(g28
S'baseball'
p1089
S'ORGANIZATION'
p1090
tp1091
I610
s(g28
S'series'
p1092
S'PERSON'
p1093
tp1094
I773
s(g28
S'shorn'
p1095
S'DATE'
p1096
tp1097
I493
s(g28
S'hampshire'
p1098
S'LOCATION'
p1099
tp1100
I1099
s(g28
S'beanie'
p1101
S'NUMBER'
p1102
tp1103
I1557
s(g28
S'verses'
p1104
S'NUMBER'
p1105
tp1106
I1352
s(g28
S'cigarette'
p1107
S'ORGANIZATION'
p1108
tp1109
I989
s(g28
S'meter'
p1110
S'OTHER'
p1111
tp1112
I640
s(g28
S'master'
p1113
S'PERSON'
p1114
tp1115
I841
s(g28
S'guam'
p1116
S'LOCATION'
p1117
tp1118
I560
s(g107
S'which'
p1119
S'ORGANIZATION'
p1120
tp1121
I34
s(g28
S'mules'
p1122
S'PERSON'
p1123
tp1124
I1612
s(g28
S'first-aid'
p1125
S'OTHER'
p1126
tp1127
I991
s(g28
S'parthenon'
p1128
S'DATE'
p1129
tp1130
I1697
s(g28
S'statistics'
p1131
S'NUMBER'
p1132
tp1133
I785
s(g28
S'cards'
p1134
S'NUMBER'
p1135
tp1136
I1108
s(g28
S'bowl'
p1137
S'LOCATION'
p1138
tp1139
I120
s(g28
S'format'
p1140
S'OTHER'
p1141
tp1142
I529
s(g28
S'value'
p1143
S'OTHER'
p1144
tp1145
I873
s(g28
S'money'
p1146
g15
tp1147
I88
s(g28
S'prewett'
p1148
S'PERSON'
p1149
tp1150
I1537
s(g28
S'scotch'
p1151
S'OTHER'
p1152
tp1153
I1197
s(g28
S'antichrist'
p1154
S'PERSON'
p1155
tp1156
I1140
s(g28
S'thomas'
p1157
S'LOCATION'
p1158
tp1159
I1091
s(g28
S'university'
p1160
S'ORGANIZATION'
p1161
tp1162
I660
s(g28
S'wonderbra'
p1163
S'PERSON'
p1164
tp1165
I1038
s(g28
S'science'
p1166
S'OTHER'
p1167
tp1168
I1719
s(g28
S'river'
p1169
S'LOCATION'
p1170
tp1171
I472
s(g28
S'zero'
p1172
S'LOCATION'
p1173
tp1174
I1493
s(g28
S'mark'
p1175
S'OTHER'
p1176
tp1177
I714
s(g28
S'cupboard'
p1178
S'PERSON'
p1179
tp1180
I686
s(g107
S'how'
p1181
S'OTHER'
p1182
tp1183
I292
s(g28
S'clay'
p1184
S'OTHER'
p1185
tp1186
I1063
s(g28
S'general'
p1187
S'LOCATION'
p1188
tp1189
I1346
s(g28
S'weather'
p1190
S'PERSON'
p1191
tp1192
I1115
s(g28
S'astronauts'
p1193
S'NUMBER'
p1194
tp1195
I495
s(g28
S'snake'
p1196
S'OTHER'
p1197
tp1198
I86
s(g28
S'director'
p1199
S'PERSON'
p1200
tp1201
I1281
s(g28
S'commander'
p1202
S'PERSON'
p1203
tp1204
I1239
s(g28
S'flag'
p1205
S'OTHER'
p1206
tp1207
I1732
s(g28
S'chances'
p1208
S'PERCENT'
p1209
tp1210
I1128
s(g28
S'lake'
p1211
S'LOCATION'
p1212
tp1213
I701
s(g107
S'where'
p1214
S'NUMBER'
p1215
tp1216
I608
s(g28
S'costume'
p1217
S'PERSON'
p1218
tp1219
I639
s(g28
S'tesla'
p1220
S'LOCATION'
p1221
tp1222
I1570
s(g28
S'ladybugs'
p1223
S'OTHER'
p1224
tp1225
I1431
s(g28
S'wine'
p1226
S'OTHER'
p1227
tp1228
I1397
s(g28
S'champion'
p1229
S'PERSON'
p1230
tp1231
I1440
s(g28
S'radio'
p1232
S'ORGANIZATION'
p1233
tp1234
I691
s(g28
S'fingers'
p1235
S'NUMBER'
p1236
tp1237
I424
s(g28
S'bid'
p1238
S'OTHER'
p1239
tp1240
I1307
s(g28
S'policeman'
p1241
S'OTHER'
p1242
tp1243
I859
s(g28
S'christ'
p1244
S'DATE'
p1245
tp1246
I1503
s(g28
S'angels'
p1247
S'PERSON'
p1248
tp1249
I279
s(g28
S'chemical'
p1250
S'OTHER'
p1251
tp1252
I1168
s(g28
S'inches'
p1253
S'NUMBER'
p1254
tp1255
I1331
s(g28
S'pizza'
p1256
S'NUMBER'
p1257
tp1258
I695
s(g28
S'document'
p1259
S'OTHER'
p1260
tp1261
I769
s(g28
S'ingredient'
p1262
S'OTHER'
p1263
tp1264
I1050
s(g28
S'hockey'
p1265
S'PERSON'
p1266
tp1267
I1584
s(g28
S'stations'
p1268
S'NUMBER'
p1269
tp1270
I927
s(g28
S'gallery'
p1271
S'LOCATION'
p1272
tp1273
I656
s(g28
S'gate'
p1274
S'LOCATION'
p1275
tp1276
I1165
s(g28
S'system'
p1277
S'OTHER'
p1278
tp1279
I151
s(g28
S'swimming'
p1280
S'DATE'
p1281
tp1282
I1729
s(g28
S'center'
p1283
S'LOCATION'
p1284
tp1285
I260
s(g28
S'ussr'
p1286
S'DATE'
p1287
tp1288
I1611
s(g28
S'tune'
p1289
S'OTHER'
p1290
tp1291
I1746
s(g28
S'thatcher'
p1292
S'DATE'
p1293
tp1294
I1443
s(g28
S'films'
p1295
g19
tp1296
I0
s(g107
S'with'
p1297
S'PERSON'
p1298
tp1299
I1174
s(g28
S'languages'
p1300
S'NUMBER'
p1301
tp1302
I521
s(g28
S'birthplace'
p1303
S'LOCATION'
p1304
tp1305
I990
s(g28
S'deodorant'
p1306
S'PERSON'
p1307
tp1308
I1767
s(g28
S'class'
p1309
S'OTHER'
p1310
tp1311
I1489
s(g28
S'sign'
p1312
S'OTHER'
p1313
tp1314
I357
s(g28
S'painter'
p1315
S'PERSON'
p1316
tp1317
I61
s(g28
S'toy'
p1318
S'ORGANIZATION'
p1319
tp1320
I196
s(g28
S'naples'
p1321
S'PERSON'
p1322
tp1323
I1364
s(g28
S'rousseau'
p1324
S'DATE'
p1325
tp1326
I1068
s(g28
S'gland'
p1327
S'OTHER'
p1328
tp1329
I479
s(g28
S'nothing'
p1330
S'PERSON'
p1331
tp1332
I1631
s(g28
S'troops'
p1333
S'DATE'
p1334
tp1335
I514
s(g28
S'shostakovich'
p1336
S'OTHER'
p1337
tp1338
I359
s(g28
S'burma'
p1339
S'LOCATION'
p1340
tp1341
I1675
s(g28
S'record'
p1342
S'PERSON'
p1343
tp1344
I929
s(g28
S'domestica'
p1345
S'OTHER'
p1346
tp1347
I59
s(g28
S'mission'
p1348
S'OTHER'
p1349
tp1350
I1031
s(g28
S'letter'
p1351
S'OTHER'
p1352
tp1353
I402
s(g28
S'syrup'
p1354
S'OTHER'
p1355
tp1356
I959
s(g28
S'toothbrush'
p1357
S'PERSON'
p1358
tp1359
I342
s(g28
S'rios'
p1360
S'LOCATION'
p1361
tp1362
I649
s(g28
S'fine'
p1363
S'MONEY'
p1364
tp1365
I1151
s(g28
S'team'
p1366
S'LOCATION'
p1367
tp1368
I1198
s(g28
S'grooves'
p1369
S'NUMBER'
p1370
tp1371
I981
s(g28
S'member'
p1372
S'PERSON'
p1373
tp1374
I190
s(g28
S'self-portrait'
p1375
S'PERSON'
p1376
tp1377
I1001
s(g28
S'chair'
p1378
S'PERSON'
p1379
tp1380
I1368
s(g107
S'to'
p1381
S'OTHER'
p1382
tp1383
I178
s(g28
S'colonies'
p1384
S'NUMBER'
p1385
tp1386
I131
s(g28
S'admiral'
p1387
S'PERSON'
p1388
tp1389
I409
s(g28
S'liner'
p1390
S'OTHER'
p1391
tp1392
I440
s(g28
S'crocodile'
p1393
S'OTHER'
p1394
tp1395
I1142
s(g28
S'bros.'
p1396
S'OTHER'
p1397
tp1398
I1465
s(g28
S'marley'
p1399
S'OTHER'
p1400
tp1401
I264
s(g28
S'inventor'
p1402
S'PERSON'
p1403
tp1404
I25
s(g28
S'airman'
p1405
S'PERSON'
p1406
tp1407
I666
s(g28
S'trademark'
p1408
S'OTHER'
p1409
tp1410
I950
s(g28
S'night'
p1411
S'PERSON'
p1412
tp1413
I282
s(g28
S'digits'
p1414
S'NUMBER'
p1415
tp1416
I1355
s(g107
S'winnie'
p1417
S'OTHER'
p1418
tp1419
I577
s(g28
S'cover'
p1420
S'PERSON'
p1421
tp1422
I433
s(g28
S'gymnast'
p1423
S'PERSON'
p1424
tp1425
I169
s(g28
S'airwaves'
p1426
S'PERSON'
p1427
tp1428
I370
s(g28
S'ottawa'
p1429
S'PERSON'
p1430
tp1431
I556
s(g28
S'allen'
p1432
S'OTHER'
p1433
tp1434
I1448
s(g28
S'lucia'
p1435
S'LOCATION'
p1436
tp1437
I786
s(g28
S'hulk'
p1438
S'PERSON'
p1439
tp1440
I1319
s(g28
S'holmes'
p1441
S'PERSON'
p1442
tp1443
I1122
s(g28
S'cherubs'
p1444
S'NUMBER'
p1445
tp1446
I1788
s(g28
S'woman'
p1447
S'DATE'
p1448
tp1449
I1169
s(g28
S'hymn'
p1450
S'OTHER'
p1451
tp1452
I1633
s(g28
S'toilet'
p1453
S'DATE'
p1454
tp1455
I800
s(g107
S'the'
p1456
S'LOCATION'
p1457
tp1458
I876
s(g28
S'athlete'
p1459
S'PERSON'
p1460
tp1461
I112
s(g28
S'waterfall'
p1462
S'LOCATION'
p1463
tp1464
I26
s(g28
S'knox'
p1465
S'OTHER'
p1466
tp1467
I1535
s(g28
S'fowl'
p1468
S'OTHER'
p1469
tp1470
I2
s(g28
S'snowman'
p1471
S'LOCATION'
p1472
tp1473
I343
s(g28
S'attractions'
p1474
S'LOCATION'
p1475
tp1476
I565
s(g28
S'orinoco'
p1477
S'LOCATION'
p1478
tp1479
I105
s(g28
S'rogers'
p1480
S'PERSON'
p1481
tp1482
I1176
s(g28
S'colleges'
p1483
S'ORGANIZATION'
p1484
tp1485
I1409
s(g28
S'salesman'
p1486
S'PERSON'
p1487
tp1488
I561
s(g28
S'genius'
p1489
S'PERSON'
p1490
tp1491
I1750
s(g28
S'fool'
p1492
S'PERSON'
p1493
tp1494
I1713
s(g28
S'sea'
p1495
S'LOCATION'
p1496
tp1497
I193
s(g28
S'trophy'
p1498
S'OTHER'
p1499
tp1500
I906
s(g28
S'megawatts'
p1501
S'NUMBER'
p1502
tp1503
I1059
s(g28
S'resources'
p1504
S'LOCATION'
p1505
tp1506
I1196
s(g28
S'esquire'
p1507
S'OTHER'
p1508
tp1509
I1691
s(g28
S'dogs'
p1510
S'OTHER'
p1511
tp1512
I1596
s(g28
S'symptom'
p1513
S'OTHER'
p1514
tp1515
I750
s(g28
S'genesis'
p1516
S'OTHER'
p1517
tp1518
I1102
s(g28
S'trade'
p1519
S'OTHER'
p1520
tp1521
I1477
s(g28
S'price'
p1522
S'MONEY'
p1523
tp1524
I428
s(g28
S'mines'
p1525
S'NUMBER'
p1526
tp1527
I1539
s(g28
S'zeros'
p1528
S'NUMBER'
p1529
tp1530
I1266
s(g28
S'comic'
p1531
S'PERSON'
p1532
tp1533
I888
s(g28
S'ishmael'
p1534
S'PERSON'
p1535
tp1536
I945
s(g28
S'press'
p1537
S'PERSON'
p1538
tp1539
I682
s(g28
S'revolutionary'
p1540
S'PERSON'
p1541
tp1542
I1783
s(g28
S'faces'
p1543
S'OTHER'
p1544
tp1545
I1422
s(g28
S'athlete'
p1546
S'OTHER'
p1547
tp1548
I789
s(g28
S'napolean'
p1549
S'PERSON'
p1550
tp1551
I1613
s(g28
S'dew'
p1552
S'LOCATION'
p1553
tp1554
I1388
s(g28
S'habitat'
p1555
S'LOCATION'
p1556
tp1557
I1579
s(g28
S'brother'
p1558
S'PERSON'
p1559
tp1560
I544
s(g28
S'thing'
p1561
S'LOCATION'
p1562
tp1563
I1511
s(g28
S'today'
p1564
S'NUMBER'
p1565
tp1566
I1794
s(g28
S'banner'
p1567
S'DATE'
p1568
tp1569
I584
s(g28
S'prophet'
p1570
S'PERSON'
p1571
tp1572
I48
s(g28
S'structure'
p1573
S'OTHER'
p1574
tp1575
I1185
s(g28
S'listeners'
p1576
S'PERSON'
p1577
tp1578
I623
s(g28
S'term'
p1579
S'OTHER'
p1580
tp1581
I51
s(g107
S'in'
p1582
g913
tp1583
I71
s(g28
S'amsterdam'
p1584
S'LOCATION'
p1585
tp1586
I834
s(g28
S'connection'
p1587
S'OTHER'
p1588
tp1589
I778
s(g28
S'companies'
p1590
S'OTHER'
p1591
tp1592
I537
s(g28
S'amount'
p1593
S'MONEY'
p1594
tp1595
I1658
s(g28
S'ads'
p1596
S'OTHER'
p1597
tp1598
I1671
s(g28
S'elevators'
p1599
S'NUMBER'
p1600
tp1601
I671
s(g28
S'celebrity'
p1602
S'PERSON'
p1603
tp1604
I1564
s(g28
S'names'
p1605
S'NUMBER'
p1606
tp1607
I1723
s(g28
S'fans'
p1608
S'PERSON'
p1609
tp1610
I1158
s(g28
S'daughters'
p1611
S'PERSON'
p1612
tp1613
I1162
s(g107
S'what'
p1614
g16
tp1615
I314
s(g28
S'engine'
p1616
S'PERSON'
p1617
tp1618
I648
s(g28
S'bend'
p1619
S'LOCATION'
p1620
tp1621
I1781
s(g107
S'how'
p1622
g21
tp1623
I94
s(g28
S'suit'
p1624
S'OTHER'
p1625
tp1626
I1635
s(g28
S'cnn'
p1627
S'DATE'
p1628
tp1629
I72
s(g28
S'sequel'
p1630
S'OTHER'
p1631
tp1632
I733
s(g28
S'bill'
p1633
S'DATE'
p1634
tp1635
I920
s(g28
S'titles'
p1636
S'OTHER'
p1637
tp1638
I1271
s(g28
S'chiropodist'
p1639
S'OTHER'
p1640
tp1641
I1164
s(g28
S'beer'
p1642
S'OTHER'
p1643
tp1644
I251
s(g28
S'antonio'
p1645
S'PERSON'
p1646
tp1647
I688
s(g28
S'stardust'
p1648
S'PERSON'
p1649
tp1650
I239
s(g28
S'dwarf'
p1651
S'LOCATION'
p1652
tp1653
I244
s(g28
S'food'
p1654
S'OTHER'
p1655
tp1656
I1079
s(g28
S'singular'
p1657
S'OTHER'
p1658
tp1659
I1589
s(g28
S'maggio'
p1660
S'PERSON'
p1661
tp1662
I1654
s(g28
S'flavors'
p1663
S'NUMBER'
p1664
tp1665
I1563
s(g28
S'airplane'
p1666
S'ORGANIZATION'
p1667
tp1668
I1343
s(g28
S'castle'
p1669
S'LOCATION'
p1670
tp1671
I457
s(g28
S'george'
p1672
S'LOCATION'
p1673
tp1674
I1132
s(g107
S'in'
p1675
S'NUMBER'
p1676
tp1677
I1135
s(g28
S'explosive'
p1678
S'OTHER'
p1679
tp1680
I594
s(g28
S'winners'
p1681
S'PERSON'
p1682
tp1683
I1639
s(g28
S'inoco'
p1684
S'LOCATION'
p1685
tp1686
I925
s(g28
S'agency'
p1687
S'ORGANIZATION'
p1688
tp1689
I1583
s(g28
S'cars'
p1690
S'LOCATION'
p1691
tp1692
I842
s(g28
S'strokes'
p1693
S'OTHER'
p1694
tp1695
I1736
s(g28
S'record'
p1696
S'ORGANIZATION'
p1697
tp1698
I598
s(g28
S'team'
p1699
S'PERSON'
p1700
tp1701
I80
s(g28
S'singing'
p1702
S'PERSON'
p1703
tp1704
I518
s(g28
S'race'
p1705
S'OTHER'
p1706
tp1707
I1468
s(g28
S'government'
p1708
S'ORGANIZATION'
p1709
tp1710
I1354
s(g107
S'hitler'
p1711
S'DATE'
p1712
tp1713
I1424
s(g28
S'object'
p1714
S'OTHER'
p1715
tp1716
I1244
s(g28
S'nnp'
p1717
S'PERSON'
p1718
tp1719
I167
s(g28
S'force'
p1720
S'PERSON'
p1721
tp1722
I1117
s(g28
S'advertising'
p1723
S'DATE'
p1724
tp1725
I1759
s(g28
S'review'
p1726
S'OTHER'
p1727
tp1728
I530
s(g28
S'machine'
p1729
S'PERSON'
p1730
tp1731
I1293
s(g28
S'williams'
p1732
S'PERSON'
p1733
tp1734
I1299
s(g28
S'fish'
p1735
S'DATE'
p1736
tp1737
I669
s(g107
S'when'
p1738
S'OTHER'
p1739
tp1740
I820
s(g28
S'i'
p1741
S'LOCATION'
p1742
tp1743
I1692
s(g28
S'phobophobe'
p1744
S'OTHER'
p1745
tp1746
I1398
s(g28
S'latin'
p1747
S'OTHER'
p1748
tp1749
I194
s(g28
S'move'
p1750
S'OTHER'
p1751
tp1752
I1430
s(g28
S'squares'
p1753
S'NUMBER'
p1754
tp1755
I832
s(g28
S'sport'
p1756
S'LOCATION'
p1757
tp1758
I935
s(g28
S'performer'
p1759
S'PERSON'
p1760
tp1761
I867
s(g28
S'forces'
p1762
S'LOCATION'
p1763
tp1764
I1670
s(g28
S'new'
p1765
S'PERSON'
p1766
tp1767
I1498
s(g28
S'advertizing'
p1768
S'PERSON'
p1769
tp1770
I218
s(g28
S'newtons'
p1771
S'NUMBER'
p1772
tp1773
I1095
s(g28
S'rate'
p1774
S'NUMBER'
p1775
tp1776
I209
s(g28
S'sizes'
p1777
S'NUMBER'
p1778
tp1779
I1264
s(g28
S'aeul'
p1780
S'DATE'
p1781
tp1782
I818
s(g28
S'dna'
p1783
S'PERSON'
p1784
tp1785
I289
s(g28
S'volcano'
p1786
S'LOCATION'
p1787
tp1788
I1751
s(g28
S'strip'
p1789
S'OTHER'
p1790
tp1791
I1044
s(g28
S'shores'
p1792
S'PERSON'
p1793
tp1794
I1218
s(g28
S'barroom'
p1795
S'PERSON'
p1796
tp1797
I486
s(g28
S'hamed'
p1798
S'PERSON'
p1799
tp1800
I1444
s(g28
S'engineer'
p1801
S'PERSON'
p1802
tp1803
I1025
s(g28
S'businesses'
p1804
S'NUMBER'
p1805
tp1806
I1754
s(g28
S'livestock'
p1807
S'OTHER'
p1808
tp1809
I1092
s(g28
S'thor'
p1810
S'PERSON'
p1811
tp1812
I761
s(g28
S'zebras'
p1813
S'LOCATION'
p1814
tp1815
I1655
s(g28
S'cologne'
p1816
S'OTHER'
p1817
tp1818
I1593
s(g107
S'for'
p1819
S'OTHER'
p1820
tp1821
I1665
s(g28
S'jockey'
p1822
S'PERSON'
p1823
tp1824
I974
s(g28
S'lindbergh'
p1825
S'DATE'
p1826
tp1827
I1790
s(g28
S'board'
p1828
S'OTHER'
p1829
tp1830
I133
s(g28
S'film'
p1831
S'OTHER'
p1832
tp1833
I99
s(g28
S'comedienne'
p1834
S'PERSON'
p1835
tp1836
I634
s(g28
S'regular'
p1837
S'OTHER'
p1838
tp1839
I772
s(g107
S'names'
p1840
S'OTHER'
p1841
tp1842
I1726
s(g28
S'world'
p1843
S'LOCATION'
p1844
tp1845
I1394
s(g28
S'department'
p1846
S'PERSON'
p1847
tp1848
I764
s(g28
S'winner'
p1849
S'OTHER'
p1850
tp1851
I1643
s(g28
S'thousands'
p1852
S'NUMBER'
p1853
tp1854
I1649
s(g28
S'mayonnaise'
p1855
S'OTHER'
p1856
tp1857
I1418
s(g28
S'roosevelt'
p1858
S'DATE'
p1859
tp1860
I1277
s(g28
S'singer'
p1861
S'PERSON'
p1862
tp1863
I513
s(g28
S'hotel'
p1864
S'LOCATION'
p1865
tp1866
I174
s(g28
S'glass'
p1867
S'OTHER'
p1868
tp1869
I848
s(g28
S'cone'
p1870
S'PERSON'
p1871
tp1872
I1014
s(g28
S'phonograph'
p1873
S'PERSON'
p1874
tp1875
I443
s(g28
S'vocalist'
p1876
S'PERSON'
p1877
tp1878
I1114
s(g28
S'magazine'
p1879
S'OTHER'
p1880
tp1881
I637
s(g28
S'fischer'
p1882
S'PERSON'
p1883
tp1884
I588
s(g28
S'satellites'
p1885
S'OTHER'
p1886
tp1887
I1094
s(g28
S'rubble'
p1888
S'LOCATION'
p1889
tp1890
I83
s(g28
S'question'
p1891
S'PERSON'
p1892
tp1893
I1035
s(g28
S'bands'
p1894
S'OTHER'
p1895
tp1896
I967
s(g28
S'award'
p1897
S'OTHER'
p1898
tp1899
I916
s(g28
S'oil'
p1900
S'OTHER'
p1901
tp1902
I1342
s(g107
S'the'
p1903
S'DATE'
p1904
tp1905
I677
s(g28
S'bridge'
p1906
S'LOCATION'
p1907
tp1908
I817
s(g28
S'limit'
p1909
S'OTHER'
p1910
tp1911
I1446
s(g28
S'money'
p1912
S'ORGANIZATION'
p1913
tp1914
I1261
s(g28
S'benson'
p1915
S'PERSON'
p1916
tp1917
I1432
s(g28
S'cobb'
p1918
S'LOCATION'
p1919
tp1920
I1341
s(g28
S'vowel'
p1921
S'OTHER'
p1922
tp1923
I24
s(g28
S'muhammad'
p1924
S'DATE'
p1925
tp1926
I328
s(g28
S'expedition'
p1927
S'OTHER'
p1928
tp1929
I907
s(g28
S'teaspoon'
p1930
S'NUMBER'
p1931
tp1932
I536
s(g28
S'ballad'
p1933
S'OTHER'
p1934
tp1935
I979
s(g28
S'boys'
p1936
S'NUMBER'
p1937
tp1938
I492
s(g28
S'materials'
p1939
S'OTHER'
p1940
tp1941
I1774
s(g28
S'song'
p1942
S'PERSON'
p1943
tp1944
I383
s(g28
S'auh2o'
p1945
S'PERSON'
p1946
tp1947
I1769
s(g28
S'luther'
p1948
S'OTHER'
p1949
tp1950
I1303
s(g28
S'suffering'
p1951
S'OTHER'
p1952
tp1953
I1739
s(g28
S'hass'
p1954
S'OTHER'
p1955
tp1956
I774
s(g28
S'software'
p1957
S'OTHER'
p1958
tp1959
I1551
s(g28
S'tax'
p1960
S'MONEY'
p1961
tp1962
I1287
s(g28
S'ambassador'
p1963
S'PERSON'
p1964
tp1965
I928
s(g28
S'tarantula'
p1966
S'OTHER'
p1967
tp1968
I737
s(g28
S'forces'
p1969
S'PERSON'
p1970
tp1971
I1205
s(g28
S'death'
p1972
S'PERSON'
p1973
tp1974
I1763
s(g28
S'compound'
p1975
S'OTHER'
p1976
tp1977
I1764
s(g28
S'waste'
p1978
S'NUMBER'
p1979
tp1980
I626
s(g28
S'commanders'
p1981
S'PERSON'
p1982
tp1983
I692
s(g28
S'feet'
p1984
S'PERSON'
p1985
tp1986
I356
s(g28
S'landmark'
p1987
S'LOCATION'
p1988
tp1989
I771
s(g28
S'deodorant'
p1990
S'OTHER'
p1991
tp1992
I620
s(g28
S'ghost'
p1993
S'PERSON'
p1994
tp1995
I1405
s(g28
S'earthworms'
p1996
S'NUMBER'
p1997
tp1998
I813
s(g28
S'frickett'
p1999
S'PERSON'
p2000
tp2001
I1360
s(g28
S'friend'
p2002
S'PERSON'
p2003
tp2004
I1298
s(g28
S'synonym'
p2005
S'OTHER'
p2006
tp2007
I1273
s(g28
S'jews'
p2008
S'OTHER'
p2009
tp2010
I1772
s(g28
S'trilogy'
p2011
S'OTHER'
p2012
tp2013
I496
s(g107
S'by'
p2014
S'MONEY'
p2015
tp2016
I1385
s(g28
S'language'
p2017
S'OTHER'
p2018
tp2019
I288
s(g28
S'seal'
p2020
S'OTHER'
p2021
tp2022
I672
s(g28
S'art'
p2023
S'DATE'
p2024
tp2025
I1782
s(g28
S'melbourne'
p2026
S'LOCATION'
p2027
tp2028
I1173
s(g28
S'variety'
p2029
S'OTHER'
p2030
tp2031
I1055
s(g28
S'hour'
p2032
S'LOCATION'
p2033
tp2034
I1157
s(g28
S'war'
p2035
S'DATE'
p2036
tp2037
I1482
s(g28
S'residence'
p2038
S'LOCATION'
p2039
tp2040
I1141
s(g28
S'surfing'
p2041
S'LOCATION'
p2042
tp2043
I1415
s(g28
S'service'
p2044
S'ORGANIZATION'
p2045
tp2046
I568
s(g28
S'hugo'
p2047
S'LOCATION'
p2048
tp2049
I1223
s(g28
S'url'
p2050
S'NUMBER'
p2051
tp2052
I760
s(g28
S'gate'
p2053
S'DATE'
p2054
tp2055
I473
s(g28
S'dates'
p2056
S'DATE'
p2057
tp2058
I1216
s(g28
S'rosanna-dana'
p2059
S'PERSON'
p2060
tp2061
I512
s(g107
S'shea'
p2062
S'TIME'
p2063
tp2064
I759
s(g28
S'casinos'
p2065
S'NUMBER'
p2066
tp2067
I471
s(g28
S'iq'
p2068
S'NUMBER'
p2069
tp2070
I202
s(g28
S'longitude'
p2071
S'NUMBER'
p2072
tp2073
I206
s(g28
S'charcter'
p2074
S'PERSON'
p2075
tp2076
I1505
s(g28
S'bends'
p2077
S'NUMBER'
p2078
tp2079
I113
s(g28
S'instrument'
p2080
S'OTHER'
p2081
tp2082
I172
s(g28
S'founders'
p2083
S'PERSON'
p2084
tp2085
I390
s(g28
S'jack'
p2086
S'OTHER'
p2087
tp2088
I1792
s(g28
S'camels'
p2089
S'OTHER'
p2090
tp2091
I743
s(g28
S'writer'
p2092
S'PERSON'
p2093
tp2094
I406
s(g28
S'lakes'
p2095
S'NUMBER'
p2096
tp2097
I1308
s(g28
S'observances'
p2098
S'OTHER'
p2099
tp2100
I1367
s(g28
S'pole'
p2101
S'OTHER'
p2102
tp2103
I1155
s(g107
S'when'
p2104
S'PERSON'
p2105
tp2106
I799
s(g28
S'flag'
p2107
S'LOCATION'
p2108
tp2109
I1253
s(g28
S'scales'
p2110
S'NUMBER'
p2111
tp2112
I1445
s(g28
S'doctor'
p2113
S'PERSON'
p2114
tp2115
I1230
s(g28
S'revolutions'
p2116
S'NUMBER'
p2117
tp2118
I161
s(g107
S'cnn'
p2119
S'PERSON'
p2120
tp2121
I1145
s(g28
S'senator'
p2122
S'PERSON'
p2123
tp2124
I1270
s(g28
S'hyenas'
p2125
S'LOCATION'
p2126
tp2127
I287
s(g28
S'cover'
p2128
S'OTHER'
p2129
tp2130
I1007
s(g28
S'vehicles'
p2131
S'OTHER'
p2132
tp2133
I1404
s(g28
S'hair'
p2134
S'OTHER'
p2135
tp2136
I283
s(g28
S'host'
p2137
S'PERSON'
p2138
tp2139
I307
s(g28
S'device'
p2140
S'OTHER'
p2141
tp2142
I1045
s(g28
S'isps'
p2143
S'ORGANIZATION'
p2144
tp2145
I45
s(g28
S'slaughter'
p2146
S'OTHER'
p2147
tp2148
I1222
s(g28
S'block'
p2149
S'LOCATION'
p2150
tp2151
I1212
s(g28
S'pope'
p2152
S'PERSON'
p2153
tp2154
I851
s(g28
S'distributions'
p2155
S'LOCATION'
p2156
tp2157
I396
s(g28
S'godfather'
p2158
S'PERSON'
p2159
tp2160
I1616
s(g28
S'world'
p2161
S'OTHER'
p2162
tp2163
I1309
s(g28
S'therapy'
p2164
S'OTHER'
p2165
tp2166
I137
s(g28
S'party'
p2167
S'ORGANIZATION'
p2168
tp2169
I459
s(g28
S'wrestling'
p2170
S'PERSON'
p2171
tp2172
I334
s(g28
S'metalious'
p2173
S'OTHER'
p2174
tp2175
I1181
s(g28
S'engine'
p2176
S'DATE'
p2177
tp2178
I1000
s(g28
S'worth'
p2179
S'MONEY'
p2180
tp2181
I1386
s(g28
S'depression'
p2182
S'DATE'
p2183
tp2184
I429
s(g28
S'airport'
p2185
S'LOCATION'
p2186
tp2187
I497
s(g28
S'manager'
p2188
S'PERSON'
p2189
tp2190
I690
s(g28
S'games'
p2191
S'NUMBER'
p2192
tp2193
I646
s(g28
S'renaud'
p2194
S'PERSON'
p2195
tp2196
I1574
s(g28
S'rommel'
p2197
S'PERSON'
p2198
tp2199
I1556
s(g28
S'son'
p2200
S'PERSON'
p2201
tp2202
I982
s(g28
S'bureau'
p2203
S'ORGANIZATION'
p2204
tp2205
I1118
s(g28
S'descendents'
p2206
S'OTHER'
p2207
tp2208
I793
s(g28
S'tale'
p2209
S'OTHER'
p2210
tp2211
I998
s(g28
S'disaster'
p2212
S'OTHER'
p2213
tp2214
I15
s(g28
S'week'
p2215
S'OTHER'
p2216
tp2217
I864
s(g28
S'putty'
p2218
S'PERSON'
p2219
tp2220
I441
s(g28
S'collection'
p2221
S'PERSON'
p2222
tp2223
I389
s(g28
S'girl'
p2224
S'PERSON'
p2225
tp2226
I1749
s(g28
S'jolson'
p2227
S'PERSON'
p2228
tp2229
I1322
s(g28
S'picasso'
p2230
S'PERSON'
p2231
tp2232
I1661
s(g28
S'syllables'
p2233
S'NUMBER'
p2234
tp2235
I550
s(g28
S'resurrectionist'
p2236
S'OTHER'
p2237
tp2238
I1317
s(g28
S'marvel'
p2239
S'LOCATION'
p2240
tp2241
I1784
s(g28
S'dots'
p2242
S'NUMBER'
p2243
tp2244
I344
s(g28
S'dam'
p2245
S'LOCATION'
p2246
tp2247
I1356
s(g28
S'musical'
p2248
S'OTHER'
p2249
tp2250
I106
s(g28
S'location'
p2251
S'LOCATION'
p2252
tp2253
I685
s(g28
S'railroad'
p2254
S'DATE'
p2255
tp2256
I1748
s(g28
S'peacocks'
p2257
S'OTHER'
p2258
tp2259
I975
s(g28
S'income'
p2260
S'MONEY'
p2261
tp2262
I545
s(g28
S'cyberspace'
p2263
S'PERSON'
p2264
tp2265
I452
s(g28
S'hurricane'
p2266
S'OTHER'
p2267
tp2268
I1533
s(g28
S'rockefeller'
p2269
S'PERSON'
p2270
tp2271
I1199
s(g28
S'product'
p2272
S'OTHER'
p2273
tp2274
I220
s(g28
S'muppets'
p2275
S'PERSON'
p2276
tp2277
I1300
s(g28
S'montenegro'
p2278
S'LOCATION'
p2279
tp2280
I1645
s(g28
S'point'
p2281
S'LOCATION'
p2282
tp2283
I82
s(g28
S'showers'
p2284
S'LOCATION'
p2285
tp2286
I1464
s(g28
S'band'
p2287
S'ORGANIZATION'
p2288
tp2289
I808
s(g28
S'garment'
p2290
S'OTHER'
p2291
tp2292
I1100
s(g28
S'window'
p2293
S'DATE'
p2294
tp2295
I1727
s(g28
S'children'
p2296
S'NUMBER'
p2297
tp2298
I939
s(g28
S'deserts'
p2299
S'LOCATION'
p2300
tp2301
I1471
s(g28
S'record'
p2302
S'NUMBER'
p2303
tp2304
I1509
s(g28
S'occupation'
p2305
S'PERSON'
p2306
tp2307
I135
s(g28
S'americans'
p2308
S'NUMBER'
p2309
tp2310
I410
s(g28
S'ybarra'
p2311
S'PERSON'
p2312
tp2313
I431
s(g28
S'oil'
p2314
S'ORGANIZATION'
p2315
tp2316
I304
s(g28
S'vietnamese'
p2317
S'NUMBER'
p2318
tp2319
I446
s(g28
S'player'
p2320
S'PERSON'
p2321
tp2322
I1149
s(g28
S'i'
p2323
S'DATE'
p2324
tp2325
I176
s(g28
S'outcome'
p2326
S'OTHER'
p2327
tp2328
I1502
s(g28
S'vaccine'
p2329
S'PERSON'
p2330
tp2331
I647
s(g107
S'president'
p2332
S'PERSON'
p2333
tp2334
I1668
s(g107
S'who'
p2335
S'OTHER'
p2336
tp2337
I1580
s(g28
S'strange'
p2338
S'PERSON'
p2339
tp2340
I1407
s(g28
S'monster'
p2341
S'PERSON'
p2342
tp2343
I1167
s(g28
S'basophobic'
p2344
S'OTHER'
p2345
tp2346
I333
s(g28
S'concerts'
p2347
S'OTHER'
p2348
tp2349
I1258
s(g28
S'ports'
p2350
S'LOCATION'
p2351
tp2352
I1366
s(g28
S'electricity'
p2353
S'NUMBER'
p2354
tp2355
I543
s(g28
S'field'
p2356
S'OTHER'
p2357
tp2358
I274
s(g28
S'tennis'
p2359
S'OTHER'
p2360
tp2361
I1083
s(g28
S'gaming'
p2362
S'OTHER'
p2363
tp2364
I232
s(g28
S'nephew'
p2365
S'PERSON'
p2366
tp2367
I1359
s(g28
S'bay'
p2368
S'LOCATION'
p2369
tp2370
I1148
s(g28
S'seine'
p2371
S'LOCATION'
p2372
tp2373
I1777
s(g28
S'dose'
p2374
S'PERSON'
p2375
tp2376
I1170
s(g28
S'translations'
p2377
S'OTHER'
p2378
tp2379
I1609
s(g28
S'milligrams'
p2380
S'NUMBER'
p2381
tp2382
I825
s(g28
S'magoo'
p2383
S'OTHER'
p2384
tp2385
I661
s(g28
S'elephants'
p2386
S'NUMBER'
p2387
tp2388
I1410
s(g28
S'railways'
p2389
S'ORGANIZATION'
p2390
tp2391
I1532
s(g28
S'time'
p2392
S'TIME'
p2393
tp2394
I629
s(g28
S'members'
p2395
S'PERSON'
p2396
tp2397
I947
s(g28
S'woman'
p2398
S'PERSON'
p2399
tp2400
I511
s(g28
S'swimmer'
p2401
S'PERSON'
p2402
tp2403
I267
s(g28
S'gang'
p2404
S'OTHER'
p2405
tp2406
I599
s(g28
S'weekend'
p2407
S'DATE'
p2408
tp2409
I1228
s(g28
S'zip'
p2410
S'NUMBER'
p2411
tp2412
I1552
s(g28
S'labor'
p2413
S'DATE'
p2414
tp2415
I1371
s(g28
S'words'
p2416
S'NUMBER'
p2417
tp2418
I1673
s(g28
S'goodall'
p2419
S'PERSON'
p2420
tp2421
I707
s(g28
S'microsoft'
p2422
S'DATE'
p2423
tp2424
I1775
s(g28
S'part'
p2425
S'OTHER'
p2426
tp2427
I62
s(g28
S'equivalent'
p2428
S'OTHER'
p2429
tp2430
I1745
s(g28
S'profession'
p2431
S'PERSON'
p2432
tp2433
I7
s(g28
S'time'
p2434
S'NUMBER'
p2435
tp2436
I1743
s(g28
S'war'
p2437
S'OTHER'
p2438
tp2439
I118
s(g28
S'provider'
p2440
S'MONEY'
p2441
tp2442
I352
s(g28
S'motto'
p2443
S'ORGANIZATION'
p2444
tp2445
I696
s(g28
S'days'
p2446
S'NUMBER'
p2447
tp2448
I1437
s(g28
S'seizure'
p2449
S'ORGANIZATION'
p2450
tp2451
I1362
s(g28
S'bible'
p2452
S'PERSON'
p2453
tp2454
I1335
s(g28
S'people'
p2455
S'LOCATION'
p2456
tp2457
I257
s(g28
S'cotrubas'
p2458
S'LOCATION'
p2459
tp2460
I971
s(g28
S'typewriter'
p2461
S'DATE'
p2462
tp2463
I1413
s(g28
S'panties'
p2464
S'PERSON'
p2465
tp2466
I1740
s(g28
S'theresa'
p2467
S'PERSON'
p2468
tp2469
I1711
s(g28
S'thucydides'
p2470
S'PERSON'
p2471
tp2472
I731
s(g28
S'place'
p2473
S'LOCATION'
p2474
tp2475
I1656
s(g28
S'day'
p2476
S'PERSON'
p2477
tp2478
I1412
s(g28
S'head'
p2479
S'PERSON'
p2480
tp2481
I1254
s(g28
S'patents'
p2482
S'PERSON'
p2483
tp2484
I1779
s(g28
S'brothers'
p2485
S'LOCATION'
p2486
tp2487
I1019
s(g28
S'boob'
p2488
S'OTHER'
p2489
tp2490
I503
s(g28
S'chef'
p2491
S'OTHER'
p2492
tp2493
I1604
s(g28
S'day'
p2494
S'DATE'
p2495
tp2496
I183
s(g28
S'bar-code'
p2497
S'DATE'
p2498
tp2499
I1530
s(g28
S'dam'
p2500
S'DATE'
p2501
tp2502
I1376
s(g28
S'forms'
p2503
S'OTHER'
p2504
tp2505
I155
s(g28
S'washington'
p2506
S'OTHER'
p2507
tp2508
I1334
s(g28
S'women'
p2509
S'PERSON'
p2510
tp2511
I1060
s(g28
S'superbowls'
p2512
S'NUMBER'
p2513
tp2514
I891
s(g28
S'cities'
p2515
S'NUMBER'
p2516
tp2517
I1246
s(g28
S'pangaea'
p2518
S'DATE'
p2519
tp2520
I1487
s(g28
S'man'
p2521
S'DATE'
p2522
tp2523
I36
s(g28
S'congress'
p2524
S'DATE'
p2525
tp2526
I1257
s(g28
S'soldiers'
p2527
S'NUMBER'
p2528
tp2529
I968
s(g28
S'reference'
p2530
S'LOCATION'
p2531
tp2532
I1408
s(g28
S'vatican'
p2533
S'PERSON'
p2534
tp2535
I1722
s(g28
S'chance'
p2536
S'PERCENT'
p2537
tp2538
I729
s(g28
S'johnson'
p2539
S'OTHER'
p2540
tp2541
I515
s(g28
S'spectacle'
p2542
S'OTHER'
p2543
tp2544
I1187
s(g28
S'eruption'
p2545
S'DATE'
p2546
tp2547
I1582
s(g28
S'oceans'
p2548
S'LOCATION'
p2549
tp2550
I84
s(g28
S'james'
p2551
S'NUMBER'
p2552
tp2553
I542
s(g28
S'revolutionaries'
p2554
S'DATE'
p2555
tp2556
I1766
s(g28
S'school'
p2557
S'ORGANIZATION'
p2558
tp2559
I442
s(g28
S'abolitionists'
p2560
S'OTHER'
p2561
tp2562
I1575
s(g28
S'corporal'
p2563
S'PERSON'
p2564
tp2565
I475
s(g107
S'when'
p2566
S'ORGANIZATION'
p2567
tp2568
I794
s(g28
S'paper'
p2569
S'OTHER'
p2570
tp2571
I861
s(g28
S'labianca'
p2572
S'PERSON'
p2573
tp2574
I499
s(g28
S'methods'
p2575
S'OTHER'
p2576
tp2577
I1683
s(g28
S'yemen'
p2578
S'DATE'
p2579
tp2580
I781
s(g28
S'gutenberg'
p2581
S'NUMBER'
p2582
tp2583
I480
s(g28
S'web'
p2584
S'LOCATION'
p2585
tp2586
I1553
s(g28
S'day'
p2587
S'OTHER'
p2588
tp2589
I1294
s(g28
S'institute'
p2590
S'LOCATION'
p2591
tp2592
I978
s(g28
S'auto'
p2593
S'OTHER'
p2594
tp2595
I507
s(g28
S'millions'
p2596
S'OTHER'
p2597
tp2598
I1569
s(g28
S'passenger'
p2599
S'LOCATION'
p2600
tp2601
I76
s(g28
S'court'
p2602
S'LOCATION'
p2603
tp2604
I824
s(g28
S'bulls'
p2605
S'ORGANIZATION'
p2606
tp2607
I374
s(g28
S'macdowell'
p2608
g937
tp2609
I1259
s(g28
S'body'
p2610
S'OTHER'
p2611
tp2612
I1048
s(g107
S'at'
p2613
S'TIME'
p2614
tp2615
I1161
s(g28
S'presidents'
p2616
S'PERSON'
p2617
tp2618
I1321
s(g28
S'trinidad'
p2619
S'LOCATION'
p2620
tp2621
I367
s(g28
S'teenager'
p2622
S'PERSON'
p2623
tp2624
I614
s(g28
S'laboratory'
p2625
S'PERSON'
p2626
tp2627
I1383
s(g28
S'ocean'
p2628
S'LOCATION'
p2629
tp2630
I227
s(g28
S'television'
p2631
S'PERSON'
p2632
tp2633
I1628
s(g28
S'oswald'
p2634
S'PERSON'
p2635
tp2636
I1290
s(g28
S'lyrics'
p2637
S'PERSON'
p2638
tp2639
I1494
s(g28
S'qatar'
p2640
S'LOCATION'
p2641
tp2642
I1472
s(g28
S'chocolate'
p2643
S'LOCATION'
p2644
tp2645
I236
s(g28
S'chronicles'
p2646
S'LOCATION'
p2647
tp2648
I712
s(g28
S'program'
p2649
S'OTHER'
p2650
tp2651
I1003
s(g28
S'hyatt'
p2652
S'PERSON'
p2653
tp2654
I371
s(g28
S'points'
p2655
S'NUMBER'
p2656
tp2657
I32
s(g28
S'sister'
p2658
S'PERSON'
p2659
tp2660
I1476
s(g28
S'sides'
p2661
S'NUMBER'
p2662
tp2663
I997
s(g28
S'astroturf'
p2664
S'PERSON'
p2665
tp2666
I1507
s(g28
S'coach'
p2667
S'PERSON'
p2668
tp2669
I233
s(g28
S'stadium'
p2670
S'LOCATION'
p2671
tp2672
I200
s(g28
S'gender'
p2673
S'OTHER'
p2674
tp2675
I697
s(g28
S'generation'
p2676
S'OTHER'
p2677
tp2678
I554
s(g28
S'lens'
p2679
S'OTHER'
p2680
tp2681
I1054
s(g28
S'pseudonym'
p2682
S'PERSON'
p2683
tp2684
I524
s(g28
S'realm'
p2685
S'PERSON'
p2686
tp2687
I1483
s(g28
S'calculator'
p2688
S'OTHER'
p2689
tp2690
I372
s(g28
S'man'
p2691
S'OTHER'
p2692
tp2693
I698
s(g28
S'statues'
p2694
S'OTHER'
p2695
tp2696
I391
s(g28
S'dictator'
p2697
S'PERSON'
p2698
tp2699
I296
s(g28
S'sculptress'
p2700
S'PERSON'
p2701
tp2702
I642
s(g28
S'child'
p2703
S'PERSON'
p2704
tp2705
I285
s(g28
S'fear'
p2706
S'OTHER'
p2707
tp2708
I68
s(g28
S'vaccine'
p2709
S'OTHER'
p2710
tp2711
I965
s(g28
S'website'
p2712
S'LOCATION'
p2713
tp2714
I465
s(g28
S'mathematician'
p2715
S'PERSON'
p2716
tp2717
I1180
s(g28
S'crack'
p2718
S'OTHER'
p2719
tp2720
I878
s(g28
S'engines'
p2721
S'NUMBER'
p2722
tp2723
I534
s(g28
S'kane'
p2724
S'PERSON'
p2725
tp2726
I1074
s(g28
S'jell-o'
p2727
S'OTHER'
p2728
tp2729
I557
s(g107
S'which'
p2730
S'OTHER'
p2731
tp2732
I92
s(g28
S'song'
p2733
S'OTHER'
p2734
tp2735
I273
s(g28
S'ukulele'
p2736
S'LOCATION'
p2737
tp2738
I1566
s(g28
S'tutu'
p2739
S'PERSON'
p2740
tp2741
I378
s(g28
S'pythagoras'
p2742
S'LOCATION'
p2743
tp2744
I1534
s(g28
S'peak'
p2745
S'LOCATION'
p2746
tp2747
I268
s(g28
S'eyes'
p2748
S'NUMBER'
p2749
tp2750
I1520
s(g28
S'symbol'
p2751
S'OTHER'
p2752
tp2753
I843
s(g28
S'chain'
p2754
S'ORGANIZATION'
p2755
tp2756
I1380
s(g28
S'miles'
p2757
S'NUMBER'
p2758
tp2759
I271
s(g28
S'cop'
p2760
S'PERSON'
p2761
tp2762
I1636
s(g28
S'fare'
p2763
S'MONEY'
p2764
tp2765
I502
s(g28
S'humans'
p2766
S'OTHER'
p2767
tp2768
I1664
s(g28
S'craft'
p2769
S'OTHER'
p2770
tp2771
I1207
s(g28
S'ribavirin'
p2772
S'OTHER'
p2773
tp2774
I340
s(g28
S'creature'
p2775
S'OTHER'
p2776
tp2777
I212
s(g28
S'body'
p2778
S'LOCATION'
p2779
tp2780
I1301
s(g28
S'mother'
p2781
S'PERSON'
p2782
tp2783
I160
s(g28
S'encyclopedia'
p2784
S'DATE'
p2785
tp2786
I376
s(g28
S'logo'
p2787
S'ORGANIZATION'
p2788
tp2789
I74
s(g28
S'festival'
p2790
S'DATE'
p2791
tp2792
I293
s(g28
S'court'
p2793
S'ORGANIZATION'
p2794
tp2795
I896
s(g28
S'partner'
p2796
S'PERSON'
p2797
tp2798
I1110
s(g28
S'chemicals'
p2799
S'OTHER'
p2800
tp2801
I195
s(g28
S'power'
p2802
S'PERSON'
p2803
tp2804
I976
s(g28
S'pastorius'
p2805
S'DATE'
p2806
tp2807
I1571
s(g28
S'designer'
p2808
S'PERSON'
p2809
tp2810
I807
s(g28
S'phenomenon'
p2811
S'OTHER'
p2812
tp2813
I482
s(g28
S'david'
p2814
S'PERSON'
p2815
tp2816
I768
s(g28
S'explorer'
p2817
S'LOCATION'
p2818
tp2819
I868
s(g28
S'part'
p2820
S'PERSON'
p2821
tp2822
I213
s(g28
S'layers'
p2823
S'NUMBER'
p2824
tp2825
I924
s(g28
S'secretary'
p2826
S'PERSON'
p2827
tp2828
I587
s(g28
S'oscars'
p2829
S'PERSON'
p2830
tp2831
I1006
s(g28
S'washington'
p2832
S'LOCATION'
p2833
tp2834
I166
s(g28
S'hostages'
p2835
S'NUMBER'
p2836
tp2837
I107
s(g28
S'stroke'
p2838
S'OTHER'
p2839
tp2840
I162
s(g28
S'respirator'
p2841
S'OTHER'
p2842
tp2843
I522
s(g28
S'boyfriend'
p2844
S'PERSON'
p2845
tp2846
I468
s(g28
S'person'
p2847
S'PERSON'
p2848
tp2849
I498
s(g28
S'playwright'
p2850
S'PERSON'
p2851
tp2852
I1700
s(g28
S'tv'
p2853
S'PERSON'
p2854
tp2855
I298
s(g28
S'wife'
p2856
S'PERSON'
p2857
tp2858
I910
s(g28
S'table'
p2859
S'PERSON'
p2860
tp2861
I1546
s(g28
S'man'
p2862
S'PERSON'
p2863
tp2864
I224
s(g28
S'camp'
p2865
S'LOCATION'
p2866
tp2867
I1600
s(g28
S'religion'
p2868
S'OTHER'
p2869
tp2870
I37
s(g28
S'rabbit'
p2871
S'OTHER'
p2872
tp2873
I81
s(g107
S'where'
p2874
g2135
tp2875
I284
s(g28
S'concert'
p2876
S'DATE'
p2877
tp2878
I1608
s(g28
S'u.s.'
p2879
g1215
tp2880
I607
s(g28
S'net'
p2881
S'OTHER'
p2882
tp2883
I535
s(g28
S'finger'
p2884
S'PERSON'
p2885
tp2886
I1540
s(g28
S'boat'
p2887
S'PERSON'
p2888
tp2889
I207
s(g28
S'guitarist'
p2890
S'PERSON'
p2891
tp2892
I742
s(g28
S'college'
p2893
S'LOCATION'
p2894
tp2895
I621
s(g28
S'sites'
p2896
S'LOCATION'
p2897
tp2898
I1316
s(g107
S'where'
p2899
g588
tp2900
I40
s(g28
S'trail'
p2901
S'LOCATION'
p2902
tp2903
I703
s(g28
S'carter'
p2904
S'OTHER'
p2905
tp2906
I1721
s(g28
S'look'
p2907
S'PERSON'
p2908
tp2909
I751
s(g28
S'president-to-be'
p2910
S'PERSON'
p2911
tp2912
I427
s(g28
S'bocci'
p2913
S'LOCATION'
p2914
tp2915
I856
s(g28
S'war'
p2916
S'PERSON'
p2917
tp2918
I505
s(g28
S'baseball'
p2919
S'OTHER'
p2920
tp2921
I839
s(g28
S'currency'
p2922
S'OTHER'
p2923
tp2924
I1795
s(g28
S'horses'
p2925
S'NUMBER'
p2926
tp2927
I625
s(g28
S'civilization'
p2928
S'ORGANIZATION'
p2929
tp2930
I1016
s(g28
S'newspaper'
p2931
S'OTHER'
p2932
tp2933
I999
s(g28
S'soap'
p2934
S'OTHER'
p2935
tp2936
I246
s(g28
S'statue'
p2937
S'OTHER'
p2938
tp2939
I309
s(g28
S'classic'
p2940
S'OTHER'
p2941
tp2942
I589
s(g28
S'garfield'
p2943
S'PERSON'
p2944
tp2945
I710
s(g28
S'area'
p2946
S'LOCATION'
p2947
tp2948
I204
s(g28
S'prize'
p2949
S'OTHER'
p2950
tp2951
I885
s(g28
S'strait'
p2952
S'LOCATION'
p2953
tp2954
I1720
s(g28
S'name'
p2955
S'LOCATION'
p2956
tp2957
I132
s(g28
S'nickname'
p2958
S'OTHER'
p2959
tp2960
I1384
s(g107
S'on'
p2961
S'OTHER'
p2962
tp2963
I129
s(g28
S'florida'
p2964
S'DATE'
p2965
tp2966
I1450
s(g107
S'madonna'
p2967
S'OTHER'
p2968
tp2969
I1076
s(g28
S'architecture'
p2970
S'DATE'
p2971
tp2972
I75
s(g28
S'author'
p2973
S'PERSON'
p2974
tp2975
I189
s(g28
S'isle'
p2976
S'LOCATION'
p2977
tp2978
I708
s(g28
S'indians'
p2979
S'LOCATION'
p2980
tp2981
I1088
s(g28
S'award'
p2982
S'PERSON'
p2983
tp2984
I243
s(g28
S'nino'
p2985
S'OTHER'
p2986
tp2987
I926
s(g28
S'tragedy'
p2988
S'OTHER'
p2989
tp2990
I527
s(g28
S'ben'
p2991
S'PERSON'
p2992
tp2993
I788
s(g28
S'skater'
p2994
S'PERSON'
p2995
tp2996
I1130
s(g28
S'overalls'
p2997
S'OTHER'
p2998
tp2999
I776
s(g107
S'cnn'
p3000
S'DATE'
p3001
tp3002
I147
s(g28
S'president'
p3003
S'PERSON'
p3004
tp3005
I179
s(g28
S'tristan'
p3006
S'OTHER'
p3007
tp3008
I1219
s(g28
S'dog'
p3009
S'OTHER'
p3010
tp3011
I100
s(g28
S'games'
p3012
S'PERSON'
p3013
tp3014
I1061
s(g28
S'norway'
p3015
S'PERSON'
p3016
tp3017
I745
s(g28
S'toy'
p3018
S'OTHER'
p3019
tp3020
I1716
s(g28
S'shape'
p3021
S'LOCATION'
p3022
tp3023
I938
s(g28
S'pins'
p3024
S'NUMBER'
p3025
tp3026
I1475
s(g28
S'cowboy'
p3027
S'PERSON'
p3028
tp3029
I43
s(g28
S'unsafe'
p3030
S'PERSON'
p3031
tp3032
I1237
s(g28
S'7847'
p3033
S'NUMBER'
p3034
tp3035
I994
s(g28
S'january'
p3036
S'OTHER'
p3037
tp3038
I1752
s(g28
S'japanese'
p3039
S'OTHER'
p3040
tp3041
I1034
s(g28
S'address'
p3042
S'LOCATION'
p3043
tp3044
I217
s(g28
S'sperm'
p3045
S'NUMBER'
p3046
tp3047
I392
s(g28
S'cobain'
p3048
S'PERSON'
p3049
tp3050
I1166
s(g28
S'flavor'
p3051
S'OTHER'
p3052
tp3053
I299
s(g28
S'people'
p3054
S'NUMBER'
p3055
tp3056
I152
s(g28
S'spielberg'
p3057
S'DATE'
p3058
tp3059
I187
s(g28
S'bird'
p3060
S'OTHER'
p3061
tp3062
I66
s(g28
S'month'
p3063
S'DATE'
p3064
tp3065
I1082
s(g28
S'test'
p3066
S'DATE'
p3067
tp3068
I1525
s(g28
S'worth'
p3069
S'LOCATION'
p3070
tp3071
I780
s(g28
S'explorers'
p3072
S'PERSON'
p3073
tp3074
I467
s(g28
S'bakery'
p3075
S'OTHER'
p3076
tp3077
I1786
s(g28
S'bridge'
p3078
S'PERSON'
p3079
tp3080
I1598
s(g28
S'bestselling'
p3081
S'PERSON'
p3082
tp3083
I1680
s(g28
S'mormons'
p3084
S'DATE'
p3085
tp3086
I1042
s(g28
S'natick'
p3087
S'LOCATION'
p3088
tp3089
I932
s(g28
S'olympic'
p3090
S'OTHER'
p3091
tp3092
I388
s(g28
S'hawking'
p3093
S'PERSON'
p3094
tp3095
I1023
s(g28
S'charley'
p3096
S'OTHER'
p3097
tp3098
I1538
s(g28
S'producer'
p3099
S'ORGANIZATION'
p3100
tp3101
I1086
s(g28
S'duckling'
p3102
S'PERSON'
p3103
tp3104
I1597
s(g28
S'golfing'
p3105
S'OTHER'
p3106
tp3107
I253
s(g28
S'faith'
p3108
S'PERSON'
p3109
tp3110
I1689
s(g28
S'generals'
p3111
S'NUMBER'
p3112
tp3113
I1153
s(g107
S'what'
p3114
g20
tp3115
I17
s(g28
S'tail'
p3116
S'OTHER'
p3117
tp3118
I1427
s(g28
S'couple'
p3119
S'PERSON'
p3120
tp3121
I1605
s(g28
S'actress'
p3122
S'PERSON'
p3123
tp3124
I103
s(g28
S'hand'
p3125
S'OTHER'
p3126
tp3127
I1129
s(g28
S'woodstock'
p3128
S'LOCATION'
p3129
tp3130
I1400
s(g28
S'governor'
p3131
S'PERSON'
p3132
tp3133
I816
s(g28
S'length'
p3134
S'NUMBER'
p3135
tp3136
I1365
s(g28
S'traditions'
p3137
S'OTHER'
p3138
tp3139
I1227
s(g28
S'deltiologist'
p3140
S'OTHER'
p3141
tp3142
I900
s(g28
S'chairs'
p3143
S'NUMBER'
p3144
tp3145
I1312
s(g28
S'clark'
p3146
S'DATE'
p3147
tp3148
I582
s(g28
S'rum'
p3149
S'OTHER'
p3150
tp3151
I164
s(g28
S'astaire'
p3152
S'PERSON'
p3153
tp3154
I265
s(g28
S'eyes'
p3155
S'PERSON'
p3156
tp3157
I911
s(g28
S'holes'
p3158
S'NUMBER'
p3159
tp3160
I348
s(g28
S'vesuvius'
p3161
S'DATE'
p3162
tp3163
I1486
s(g28
S'crops'
p3164
S'OTHER'
p3165
tp3166
I1463
s(g28
S'finn'
p3167
S'PERSON'
p3168
tp3169
I1641
s(g28
S'god'
p3170
S'PERSON'
p3171
tp3172
I901
s(g28
S'mountains'
p3173
S'NUMBER'
p3174
tp3175
I1698
s(g28
S'quotation'
p3176
S'PERSON'
p3177
tp3178
I670
s(g28
S'bells'
p3179
S'NUMBER'
p3180
tp3181
I1272
s(g28
S'appearances'
p3182
S'PERSON'
p3183
tp3184
I1052
s(g28
S'model'
p3185
S'OTHER'
p3186
tp3187
I1381
s(g28
S'batteries'
p3188
S'PERSON'
p3189
tp3190
I523
s(g28
S'steel'
p3191
S'LOCATION'
p3192
tp3193
I281
s(g28
S'plural'
p3194
S'OTHER'
p3195
tp3196
I403
s(g28
S'feet'
p3197
S'NUMBER'
p3198
tp3199
I177
s(g28
S'desert'
p3200
S'LOCATION'
p3201
tp3202
I138
s(g28
S'plants'
p3203
S'OTHER'
p3204
tp3205
I425
s(g28
S'nations'
p3206
S'LOCATION'
p3207
tp3208
I330
s(g28
S'mozambique'
p3209
S'LOCATION'
p3210
tp3211
I438
s(g28
S'bomb'
p3212
S'OTHER'
p3213
tp3214
I880
s(g28
S'mccain'
p3215
S'PERSON'
p3216
tp3217
I1770
s(g28
S'species'
p3218
S'NUMBER'
p3219
tp3220
I1581
s(g28
S'ailment'
p3221
S'OTHER'
p3222
tp3223
I840
s(g28
S'ear'
p3224
S'OTHER'
p3225
tp3226
I955
s(g28
S'slinky'
p3227
S'DATE'
p3228
tp3229
I571
s(g28
S'grandfather'
p3230
S'PERSON'
p3231
tp3232
I1256
s(g28
S'dubliners'
p3233
S'PERSON'
p3234
tp3235
I1382
s(g28
S'dracula'
p3236
S'PERSON'
p3237
tp3238
I668
s(g28
S'star'
p3239
S'LOCATION'
p3240
tp3241
I286
s(g107
S'what'
p3242
g23
tp3243
I6
s(g28
S'countries'
p3244
S'LOCATION'
p3245
tp3246
I116
s(g28
S'mentor'
p3247
S'PERSON'
p3248
tp3249
I1438
s(g28
S'nba'
p3250
S'PERSON'
p3251
tp3252
I830
s(g28
S'period'
p3253
S'DATE'
p3254
tp3255
I912
s(g28
S'badge'
p3256
S'PERSON'
p3257
tp3258
I1010
s(g28
S'fraze'
p3259
S'DATE'
p3260
tp3261
I645
s(g28
S'mutiny'
p3262
S'DATE'
p3263
tp3264
I97
s(g28
S'malick'
p3265
S'PERSON'
p3266
tp3267
I171
s(g28
S'office'
p3268
S'NUMBER'
p3269
tp3270
I853
s(g28
S'age'
p3271
S'OTHER'
p3272
tp3273
I453
s(g28
S'americans'
p3274
S'DATE'
p3275
tp3276
I1576
s(g28
S'spaces'
p3277
S'NUMBER'
p3278
tp3279
I474
s(g28
S'wage'
p3280
S'MONEY'
p3281
tp3282
I783
s(g28
S'community'
p3283
S'NUMBER'
p3284
tp3285
I35
s(g28
S'games'
p3286
S'DATE'
p3287
tp3288
I635
s(g28
S'vegetation'
p3289
S'NUMBER'
p3290
tp3291
I919
s(g28
S'speaker'
p3292
S'PERSON'
p3293
tp3294
I1650
s(g28
S'car'
p3295
S'ORGANIZATION'
p3296
tp3297
I121
s(g28
S'moore'
p3298
S'PERSON'
p3299
tp3300
I1548
s(g28
S'bunch'
p3301
S'PERSON'
p3302
tp3303
I874
s(g28
S'books'
p3304
S'OTHER'
p3305
tp3306
I1336
s(g28
S'noriega'
p3307
S'DATE'
p3308
tp3309
I1429
s(g28
S'pitcher'
p3310
S'PERSON'
p3311
tp3312
I1282
s(g28
S'coin'
p3313
S'OTHER'
p3314
tp3315
I386
s(g28
S'penny-farthings'
p3316
S'NUMBER'
p3317
tp3318
I679
s(g28
S'super-teams'
p3319
S'ORGANIZATION'
p3320
tp3321
I541
s(g107
S'jackson'
p3322
S'LOCATION'
p3323
tp3324
I1274
s(g28
S'stradivarius'
p3325
S'NUMBER'
p3326
tp3327
I1332
s(g28
S'plagues'
p3328
S'OTHER'
p3329
tp3330
I1499
s(g28
S'stockyards'
p3331
S'LOCATION'
p3332
tp3333
I937
s(g28
S'brand'
p3334
S'OTHER'
p3335
tp3336
I1283
s(g28
S'league'
p3337
S'ORGANIZATION'
p3338
tp3339
I844
s(g28
S'automobile'
p3340
S'ORGANIZATION'
p3341
tp3342
I1738
s(g28
S'maclaine'
p3343
S'PERSON'
p3344
tp3345
I933
s(g28
S'recipe'
p3346
S'OTHER'
p3347
tp3348
I1051
s(g28
S'schoolhouse'
p3349
S'LOCATION'
p3350
tp3351
I1462
s(g28
S'horse'
p3352
S'OTHER'
p3353
tp3354
I418
s(g28
S'accident'
p3355
S'DATE'
p3356
tp3357
I1421
s(g28
S'notes'
p3358
S'OTHER'
p3359
tp3360
I1262
s(g28
S'coyote'
p3361
S'LOCATION'
p3362
tp3363
I1203
s(g28
S'battle'
p3364
S'DATE'
p3365
tp3366
I185
s(g28
S'cnn'
p3367
S'PERSON'
p3368
tp3369
I1651
s(g28
S'series'
p3370
S'OTHER'
p3371
tp3372
I249
s(g28
S'chip'
p3373
S'OTHER'
p3374
tp3375
I985
s(g28
S'photoshop'
p3376
S'ORGANIZATION'
p3377
tp3378
I1519
s(g28
S'seats'
p3379
S'NUMBER'
p3380
tp3381
I1107
s(g107
S'woodrow'
p3382
g318
tp3383
I395
s(g28
S'music'
p3384
S'PERSON'
p3385
tp3386
I902
s(g28
S'challengers'
p3387
S'ORGANIZATION'
p3388
tp3389
I231
s(g28
S'sweeter'
p3390
S'OTHER'
p3391
tp3392
I1558
s(g28
S'nixon'
p3393
S'LOCATION'
p3394
tp3395
I606
s(g28
S'card'
p3396
S'OTHER'
p3397
tp3398
I247
s(g28
S'possession'
p3399
S'LOCATION'
p3400
tp3401
I551
s(g107
S'on'
p3402
S'LOCATION'
p3403
tp3404
I579
s(g28
S'brothers'
p3405
S'NUMBER'
p3406
tp3407
I1554
s(g28
S'nickname'
p3408
S'ORGANIZATION'
p3409
tp3410
I632
s(g28
S'potlatch'
p3411
S'PERSON'
p3412
tp3413
I1160
s(g28
S'iron'
p3414
S'NUMBER'
p3415
tp3416
I1442
s(g28
S'frames'
p3417
S'NUMBER'
p3418
tp3419
I1067
s(g28
S'character'
p3420
S'PERSON'
p3421
tp3422
I197
s(g28
S'debts'
p3423
S'MONEY'
p3424
tp3425
I1338
s(g28
S'queen'
p3426
S'OTHER'
p3427
tp3428
I1348
s(g28
S'www.questions.com'
p3429
S'DATE'
p3430
tp3431
I358
s(g28
S'probability'
p3432
S'PERCENT'
p3433
tp3434
I519
s(g28
S'colony'
p3435
S'PERSON'
p3436
tp3437
I713
s(g28
S'clouds'
p3438
S'OTHER'
p3439
tp3440
I616
s(g28
S'officer'
p3441
S'PERSON'
p3442
tp3443
I1704
s(g28
S'hours'
p3444
S'NUMBER'
p3445
tp3446
I1201
s(g28
S'network'
p3447
S'ORGANIZATION'
p3448
tp3449
I1077
s(g107
S'in'
p3450
S'ORGANIZATION'
p3451
tp3452
I791
s(g28
S'example'
p3453
S'ORGANIZATION'
p3454
tp3455
I1017
s(g28
S'career'
p3456
S'PERSON'
p3457
tp3458
I936
s(g28
S'hockey'
p3459
S'ORGANIZATION'
p3460
tp3461
I1292
s(g28
S'voices'
p3462
S'PERSON'
p3463
tp3464
I1515
s(g28
S'project'
p3465
S'LOCATION'
p3466
tp3467
I1666
s(g28
S'mill'
p3468
S'DATE'
p3469
tp3470
I168
s(g28
S'barrier'
p3471
S'PERSON'
p3472
tp3473
I1101
s(g28
S'weight'
p3474
S'NUMBER'
p3475
tp3476
I953
s(g28
S'menstruation'
p3477
S'DATE'
p3478
tp3479
I1730
s(g28
S'teaspoons'
p3480
S'NUMBER'
p3481
tp3482
I1542
s(g28
S'medicine'
p3483
S'OTHER'
p3484
tp3485
I1590
s(g28
S'apartments'
p3486
S'LOCATION'
p3487
tp3488
I1314
s(g28
S'home'
p3489
S'LOCATION'
p3490
tp3491
I694
s(g28
S'leg'
p3492
S'OTHER'
p3493
tp3494
I903
s(g28
S'minutes'
p3495
S'NUMBER'
p3496
tp3497
I628
s(g28
S'symphony'
p3498
S'OTHER'
p3499
tp3500
I591
s(g28
S'zoo'
p3501
S'LOCATION'
p3502
tp3503
I1249
s(g28
S'kinds'
p3504
S'OTHER'
p3505
tp3506
I829
s(g28
S'jinnah'
p3507
S'PERSON'
p3508
tp3509
I1690
s(g28
S'count'
p3510
S'PERSON'
p3511
tp3512
I699
s(g28
S'sailors'
p3513
S'OTHER'
p3514
tp3515
I1399
s(g28
S'fruit'
p3516
S'OTHER'
p3517
tp3518
I1742
s(g28
S'diseases'
p3519
S'OTHER'
p3520
tp3521
I1741
s(g28
S'car'
p3522
S'OTHER'
p3523
tp3524
I516
s(g28
S'brandt'
p3525
S'PERSON'
p3526
tp3527
I1765
s(g28
S'www'
p3528
S'PERSON'
p3529
tp3530
I1240
s(g28
S'locations'
p3531
g1841
tp3532
I1725
s(g28
S'bible'
p3533
S'OTHER'
p3534
tp3535
I303
s(g28
S'taste'
p3536
S'OTHER'
p3537
tp3538
I1449
s(g28
S'sound'
p3539
S'LOCATION'
p3540
tp3541
I678
s(g28
S'pines'
p3542
S'PERSON'
p3543
tp3544
I934
s(g28
S'manatees'
p3545
S'OTHER'
p3546
tp3547
I445
s(g107
S'italy'
p3548
S'OTHER'
p3549
tp3550
I436
s(g28
S'students'
p3551
S'NUMBER'
p3552
tp3553
I504
s(g28
S'autobiography'
p3554
S'PERSON'
p3555
tp3556
I276
s(g28
S'ways'
p3557
S'OTHER'
p3558
tp3559
I180
s(g28
S'nicolet'
p3560
S'PERSON'
p3561
tp3562
I683
s(g28
S'articles'
p3563
S'OTHER'
p3564
tp3565
I198
s(g28
S'meters'
p3566
S'NUMBER'
p3567
tp3568
I823
s(g28
S'span'
p3569
S'TIME'
p3570
tp3571
I717
s(g28
S'cost'
p3572
S'MONEY'
p3573
tp3574
I500
s(g28
S'detective'
p3575
S'PERSON'
p3576
tp3577
I1565
s(g28
S't.v.'
p3578
g2962
tp3579
I128
s(g28
S'elements'
p3580
S'OTHER'
p3581
tp3582
I101
s(g28
S'player'
p3583
S'OTHER'
p3584
tp3585
I1757
s(g28
S'languages'
p3586
S'OTHER'
p3587
tp3588
I411
s(g28
S'months'
p3589
S'DATE'
p3590
tp3591
I136
s(g28
S'mystery'
p3592
S'PERSON'
p3593
tp3594
I674
s(g28
S'stalin'
p3595
S'PERSON'
p3596
tp3597
I664
s(g28
S'entertainer'
p3598
S'OTHER'
p3599
tp3600
I1278
s(g28
S'form'
p3601
S'OTHER'
p3602
tp3603
I600
s(g28
S'monster'
p3604
S'OTHER'
p3605
tp3606
I574
s(g28
S'monarch'
p3607
S'PERSON'
p3608
tp3609
I385
s(g28
S'pyramid'
p3610
S'ORGANIZATION'
p3611
tp3612
I1243
s(g107
S'whom'
p3613
g2606
tp3614
I375
s(g28
S'philatelist'
p3615
S'OTHER'
p3616
tp3617
I716
s(g28
S'hitler'
p3618
S'DATE'
p3619
tp3620
I962
s(g28
S'wings'
p3621
S'NUMBER'
p3622
tp3623
I946
s(g28
S'park'
p3624
S'LOCATION'
p3625
tp3626
I387
s(g28
S'presidents'
p3627
S'NUMBER'
p3628
tp3629
I835
s(g28
S'buildings'
p3630
S'LOCATION'
p3631
tp3632
I1573
s(g28
S'tennis'
p3633
S'PERSON'
p3634
tp3635
I1372
s(g28
S'milton'
p3636
S'OTHER'
p3637
tp3638
I1513
s(g28
S'astronaut'
p3639
S'PERSON'
p3640
tp3641
I809
s(g28
S'battle'
p3642
S'PERSON'
p3643
tp3644
I1020
s(g28
S'cartier'
p3645
S'OTHER'
p3646
tp3647
I1286
s(g28
S'airplane'
p3648
S'OTHER'
p3649
tp3650
I1263
s(g28
S'clown'
p3651
S'PERSON'
p3652
tp3653
I1577
s(g28
S'commodity'
p3654
S'OTHER'
p3655
tp3656
I1679
s(g28
S'seas'
p3657
S'LOCATION'
p3658
tp3659
I687
s(g28
S'judson'
p3660
S'PERSON'
p3661
tp3662
I952
s(g28
S'theory'
p3663
S'PERSON'
p3664
tp3665
I1375
s(g28
S'feminist'
p3666
S'PERSON'
p3667
tp3668
I1439
s(g28
S'honecker'
p3669
S'LOCATION'
p3670
tp3671
I715
s(g28
S'huxley'
p3672
S'DATE'
p3673
tp3674
I790
s(g28
S'goldfish'
p3675
S'OTHER'
p3676
tp3677
I1126
s(g28
S'gandhi'
p3678
S'PERSON'
p3679
tp3680
I14
s(g28
S'dumpty'
p3681
S'PERSON'
p3682
tp3683
I597
s(g107
S'the'
p3684
g3269
tp3685
I854
s(g28
S'treat'
p3686
S'OTHER'
p3687
tp3688
I1630
s(g28
S'callosum'
p3689
S'LOCATION'
p3690
tp3691
I1121
s(g28
S'headquarters'
p3692
S'LOCATION'
p3693
tp3694
I675
s(g107
S'what'
p3695
S'DATE'
p3696
tp3697
I21
s(g28
S'speed'
p3698
S'NUMBER'
p3699
tp3700
I225
s(g28
S'viagra'
p3701
S'PERSON'
p3702
tp3703
I657
s(g28
S'cinzano'
p3704
S'PERSON'
p3705
tp3706
I1005
s(g28
S'credit'
p3707
S'PERSON'
p3708
tp3709
I1159
s(g28
S'lawyer'
p3710
S'PERSON'
p3711
tp3712
I305
s(g28
S'baseball'
p3713
S'NUMBER'
p3714
tp3715
I983
s(g28
S'show'
p3716
S'OTHER'
p3717
tp3718
I1406
s(g28
S'jaws'
p3719
S'PERSON'
p3720
tp3721
I127
s(g28
S'almanac'
p3722
S'PERSON'
p3723
tp3724
I1144
s(g28
S'helen'
p3725
S'DATE'
p3726
tp3727
I175
s(g28
S'chairman'
p3728
S'PERSON'
p3729
tp3730
I487
s(g28
S'horoscope'
p3731
S'PERSON'
p3732
tp3733
I1622
s(g28
S'general'
p3734
S'PERSON'
p3735
tp3736
I567
s(g28
S'jeroboams'
p3737
S'OTHER'
p3738
tp3739
I1473
s(g28
S'counterpart'
p3740
S'OTHER'
p3741
tp3742
I1662
s(g28
S'bernstein'
p3743
S'PERSON'
p3744
tp3745
I1136
s(g28
S'police'
p3746
S'ORGANIZATION'
p3747
tp3748
I1705
s(g28
S'plea'
p3749
S'PERSON'
p3750
tp3751
I806
s(g28
S'election'
p3752
S'PERSON'
p3753
tp3754
I1780
s(g28
S'goalie'
p3755
S'LOCATION'
p3756
tp3757
I261
s(g28
S'actor'
p3758
S'OTHER'
p3759
tp3760
I430
s(g28
S'prize'
p3761
S'PERSON'
p3762
tp3763
I230
s(g28
S'myth'
p3764
S'LOCATION'
p3765
tp3766
I332
s(g28
S'lady'
p3767
S'PERSON'
p3768
tp3769
I803
s(g28
S'word'
p3770
S'OTHER'
p3771
tp3772
I280
s(g28
S'nixon'
p3773
S'PERSON'
p3774
tp3775
I730
s(g28
S'size'
p3776
S'NUMBER'
p3777
tp3778
I188
s(g28
S'chocolate'
p3779
S'ORGANIZATION'
p3780
tp3781
I831
s(g28
S'father'
p3782
S'PERSON'
p3783
tp3784
I705
s(g28
S'menace'
p3785
S'OTHER'
p3786
tp3787
I1724
s(g28
S'mccheese'
p3788
S'LOCATION'
p3789
tp3790
I1104
s(g28
S'day'
p3791
S'NUMBER'
p3792
tp3793
I689
s(g107
S'what'
p3794
g19
tp3795
I1
s(g28
S'pyramid'
p3796
S'PERSON'
p3797
tp3798
I1747
s(g28
S'kennedy'
p3799
S'PERSON'
p3800
tp3801
I562
s(g28
S'reactivity'
p3802
S'NUMBER'
p3803
tp3804
I533
s(g28
S'lime'
p3805
S'PERSON'
p3806
tp3807
I1488
s(g28
S'jordan'
p3808
S'PERSON'
p3809
tp3810
I419
s(g28
S'color'
p3811
S'OTHER'
p3812
tp3813
I50
s(g28
S'games'
p3814
S'OTHER'
p3815
tp3816
I1057
s(g28
S'process'
p3817
S'PERSON'
p3818
tp3819
I1480
s(g28
S'editor'
p3820
S'PERSON'
p3821
tp3822
I815
s(g28
S'mutombo'
p3823
S'LOCATION'
p3824
tp3825
I1522
s(g28
S'attack'
p3826
g1904
tp3827
I676
s(g28
S'makeup'
p3828
S'LOCATION'
p3829
tp3830
I1731
s(g28
S'leaders'
p3831
S'PERSON'
p3832
tp3833
I1242
s(g107
S'which'
p3834
S'PERSON'
p3835
tp3836
I79
s(g28
S'congressman'
p3837
S'PERSON'
p3838
tp3839
I456
s(g28
S'queen'
p3840
S'PERSON'
p3841
tp3842
I653
s(g28
S'automobile'
p3843
S'OTHER'
p3844
tp3845
I199
s(g28
S'personas'
p3846
S'PERSON'
p3847
tp3848
I464
s(g28
S'nickname'
p3849
S'PERSON'
p3850
tp3851
I397
s(g28
S'circumnavigator'
p3852
S'PERSON'
p3853
tp3854
I1361
s(g28
S'beatles'
p3855
S'NUMBER'
p3856
tp3857
I240
s(g28
S'caffeine'
p3858
S'NUMBER'
p3859
tp3860
I870
s(g28
S'basketball'
p3861
S'PERSON'
p3862
tp3863
I644
s(g28
S'juices'
p3864
S'NUMBER'
p3865
tp3866
I1065
s(g28
S'french'
p3867
S'OTHER'
p3868
tp3869
I852
s(g28
S'years'
p3870
S'NUMBER'
p3871
tp3872
I104
s(g28
S'level'
p3873
S'OTHER'
p3874
tp3875
I184
s(g28
S'canyon'
p3876
S'LOCATION'
p3877
tp3878
I1002
s(g28
S'primary'
p3879
S'PERSON'
p3880
tp3881
I1378
s(g28
S'watts'
p3882
S'NUMBER'
p3883
tp3884
I1688
s(g28
S'soda'
p3885
S'OTHER'
p3886
tp3887
I1369
s(g28
S'lincoln'
p3888
S'LOCATION'
p3889
tp3890
I399
s(g28
S'cds'
p3891
S'NUMBER'
p3892
tp3893
I476
s(g28
S'technique'
p3894
S'OTHER'
p3895
tp3896
I638
s(g28
S'team'
p3897
g23
tp3898
I5
s(g28
S'beethoven'
p3899
S'DATE'
p3900
tp3901
I158
s(g28
S'edberg'
p3902
S'LOCATION'
p3903
tp3904
I1078
s(g28
S'farrier'
p3905
S'OTHER'
p3906
tp3907
I1435
s(g28
S'palate'
p3908
S'OTHER'
p3909
tp3910
I140
s(g28
S'groups'
p3911
S'ORGANIZATION'
p3912
tp3913
I1585
s(g28
S'aids'
p3914
S'OTHER'
p3915
tp3916
I586
s(g28
S'composition'
p3917
S'OTHER'
p3918
tp3919
I1053
s(g28
S'erected'
p3920
S'DATE'
p3921
tp3922
I1758
s(g28
S'characters'
p3923
S'PERSON'
p3924
tp3925
I349
s(g28
S'bell'
p3926
S'LOCATION'
p3927
tp3928
I1143
s(g28
S'numbers'
p3929
S'PERSON'
p3930
tp3931
I1514
s(g28
S'title'
p3932
S'PERSON'
p3933
tp3934
I398
s(g28
S'premier'
p3935
S'PERSON'
p3936
tp3937
I1096
s(g28
S'luther'
p3938
S'LOCATION'
p3939
tp3940
I948
s(g28
S'salary'
p3941
S'MONEY'
p3942
tp3943
I1043
s(g28
S'iii'
p3944
S'PERSON'
p3945
tp3946
I235
s(g28
S'energy'
p3947
S'NUMBER'
p3948
tp3949
I612
s(g28
S'debate'
p3950
S'PERSON'
p3951
tp3952
I1708
s(g28
S'chefs'
p3953
S'OTHER'
p3954
tp3955
I792
s(g28
S'angles'
p3956
S'NUMBER'
p3957
tp3958
I245
s(g28
S'avenue'
p3959
S'LOCATION'
p3960
tp3961
I1247
s(g28
S'gulf'
p3962
S'LOCATION'
p3963
tp3964
I1527
s(g28
S'shakespeare'
p3965
S'OTHER'
p3966
tp3967
I1669
s(g107
S'musician'
p3968
S'OTHER'
p3969
tp3970
I827
s(g28
S'operating'
p3971
S'OTHER'
p3972
tp3973
I720
s(g28
S'hero'
p3974
S'PERSON'
p3975
tp3976
I483
s(g28
S'hole'
p3977
S'LOCATION'
p3978
tp3979
I278
s(g28
S'wall'
p3980
S'DATE'
p3981
tp3982
I170
s(g28
S'corners'
p3983
S'NUMBER'
p3984
tp3985
I1029
s(g28
S'ability'
p3986
S'OTHER'
p3987
tp3988
I1377
s(g28
S'canadians'
p3989
S'NUMBER'
p3990
tp3991
I520
s(g28
S'children'
p3992
S'PERSON'
p3993
tp3994
I1545
s(g28
S'survivor'
p3995
S'PERSON'
p3996
tp3997
I1638
s(g28
S'number'
p3998
S'NUMBER'
p3999
tp4000
I321
s(g28
S'villain'
p4001
S'PERSON'
p4002
tp4003
I573
s(g28
S'terror'
p4004
S'OTHER'
p4005
tp4006
I1211
s(g28
S'play'
p4007
S'OTHER'
p4008
tp4009
I811
s(g28
S'colleges'
p4010
S'NUMBER'
p4011
tp4012
I325
s(g28
S'rites'
p4013
S'OTHER'
p4014
tp4015
I150
s(g28
S'individual'
p4016
S'LOCATION'
p4017
tp4018
I1206
s(g28
S'fields'
p4019
S'PERSON'
p4020
tp4021
I1226
s(g28
S'mahal'
p4022
S'LOCATION'
p4023
tp4024
I1592
s(g28
S'calcium'
p4025
S'NUMBER'
p4026
tp4027
I1706
s(g28
S'alley'
p4028
S'LOCATION'
p4029
tp4030
I462
s(g28
S'dogs'
p4031
S'NUMBER'
p4032
tp4033
I1214
s(g28
S'sons'
p4034
S'PERSON'
p4035
tp4036
I182
s(g28
S'son-in-law'
p4037
S'PERSON'
p4038
tp4039
I1561
s(g28
S'osbourne'
p4040
g22
tp4041
I10
s(g28
S'best-seller'
p4042
S'OTHER'
p4043
tp4044
I1119
s(g28
S'tips'
p4045
S'OTHER'
p4046
tp4047
I444
s(g28
S'charles'
p4048
S'DATE'
p4049
tp4050
I872
s(g28
S'word'
p4051
S'PERSON'
p4052
tp4053
I1379
s(g28
S'stations'
p4054
S'LOCATION'
p4055
tp4056
I1599
s(g28
S'degrees'
p4057
S'NUMBER'
p4058
tp4059
I301
s(g28
S'season'
p4060
S'DATE'
p4061
tp4062
I119
s(g28
S'pickering'
p4063
S'PERSON'
p4064
tp4065
I775
s(g28
S'primate'
p4066
S'OTHER'
p4067
tp4068
I996
s(g28
S'vice-president'
p4069
S'PERSON'
p4070
tp4071
I1009
s(g28
S'whale'
p4072
S'OTHER'
p4073
tp4074
I460
s(g28
S'hit'
p4075
S'PERSON'
p4076
tp4077
I1526
s(g28
S'funeral'
p4078
S'PERSON'
p4079
tp4080
I988
s(g28
S'oceans'
p4081
S'NUMBER'
p4082
tp4083
I412
s(g28
S'indians'
p4084
S'OTHER'
p4085
tp4086
I1678
s(g107
S'boxing'
p4087
S'DATE'
p4088
tp4089
I602
s(g28
S'worm'
p4090
S'PERSON'
p4091
tp4092
I1453
s(g28
S'vessel'
p4093
S'OTHER'
p4094
tp4095
I477
s(g28
S'albums'
p4096
S'OTHER'
p4097
tp4098
I1125
s(g28
S'laureate'
p4099
S'PERSON'
p4100
tp4101
I627
s(g28
S'speech'
p4102
S'PERSON'
p4103
tp4104
I1393
s(g28
S'piano'
p4105
S'ORGANIZATION'
p4106
tp4107
I96
s(g28
S'belize'
p4108
S'LOCATION'
p4109
tp4110
I1233
s(g28
S'biographer'
p4111
S'PERSON'
p4112
tp4113
I1677
s(g28
S'nino'
p4114
S'PERSON'
p4115
tp4116
I294
s(g28
S'spy'
p4117
S'PERSON'
p4118
tp4119
I277
s(g28
S'date'
p4120
g3696
tp4121
I20
s(g28
S'shampoo'
p4122
S'OTHER'
p4123
tp4124
I1139
s(g28
S'ticker'
p4125
S'PERSON'
p4126
tp4127
I1333
s(g28
S'rights'
p4128
S'PERSON'
p4129
tp4130
I1506
s(g28
S'berry'
p4131
S'OTHER'
p4132
tp4133
I1773
s(g28
S'lobsters'
p4134
S'LOCATION'
p4135
tp4136
I1624
s(g28
S'eriksen'
p4137
S'PERSON'
p4138
tp4139
I266
s(g28
S'baseball'
p4140
S'PERSON'
p4141
tp4142
I322
s(g28
S'battlefield'
p4143
S'LOCATION'
p4144
tp4145
I1026
s(g28
S'confucius'
p4146
S'PERSON'
p4147
tp4148
I1578
s(g107
S'name'
p4149
S'OTHER'
p4150
tp4151
I28
s(g28
S'tenses'
p4152
S'OTHER'
p4153
tp4154
I1550
s(g107
S'a'
p4155
S'OTHER'
p4156
tp4157
I797
s(g28
S'resource'
p4158
S'OTHER'
p4159
tp4160
I64
s(g28
S'foundation'
p4161
S'PERSON'
p4162
tp4163
I1627
s(g28
S'yards'
p4164
S'OTHER'
p4165
tp4166
I1081
s(g28
S'freleng'
p4167
S'PERSON'
p4168
tp4169
I1202
s(g28
S'fellow'
p4170
S'PERSON'
p4171
tp4172
I923
s(g28
S'planet'
p4173
S'LOCATION'
p4174
tp4175
I931
s(g28
S'airports'
p4176
S'LOCATION'
p4177
tp4178
I849
s(g28
S'province'
p4179
S'LOCATION'
p4180
tp4181
I538
s(g28
S'hawaii'
p4182
S'PERSON'
p4183
tp4184
I1481
s(g28
S'vegetables'
p4185
S'OTHER'
p4186
tp4187
I1318
s(g28
S'genie'
p4188
S'PERSON'
p4189
tp4190
I1657
s(g28
g195
S'OTHER'
p4191
tp4192
I22
s(g28
S'toll'
p4193
S'NUMBER'
p4194
tp4195
I400
s(g28
S'cathedral'
p4196
S'LOCATION'
p4197
tp4198
I812
s(g28
g195
g21
tp4199
I93
s(g28
S'transplant'
p4200
S'DATE'
p4201
tp4202
I1686
s(g28
S'club'
p4203
S'OTHER'
p4204
tp4205
I509
s(g107
S'when'
p4206
g22
tp4207
I11
s(g28
S'music'
p4208
S'OTHER'
p4209
tp4210
I881
s(g107
S'the'
p4211
g2426
tp4212
I63
s(g28
S'korea'
p4213
S'DATE'
p4214
tp4215
I1124
s(g28
S'foods'
p4216
S'OTHER'
p4217
tp4218
I887
s(g28
S'medium'
p4219
S'OTHER'
p4220
tp4221
I87
s(g28
S'founder'
p4222
S'PERSON'
p4223
tp4224
I58
s(g28
S'vegas'
p4225
S'LOCATION'
p4226
tp4227
I1324
s(g28
S'florida'
p4228
S'PERSON'
p4229
tp4230
I1695
s(g28
S'gestapo'
p4231
S'PERSON'
p4232
tp4233
I804
s(g107
S'mississippi'
p4234
S'LOCATION'
p4235
tp4236
I1058
s(g107
S'ray'
p4237
S'OTHER'
p4238
tp4239
I617
s(g28
S'witch'
p4240
S'PERSON'
p4241
tp4242
I810
s(g107
S'aspartame'
p4243
S'OTHER'
p4244
tp4245
I684
s(g28
S'birds'
p4246
S'OTHER'
p4247
tp4248
I508
s(g28
S'town'
p4249
S'LOCATION'
p4250
tp4251
I766
s(g28
S'martyrs'
p4252
S'PERSON'
p4253
tp4254
I23
s(g28
S'remains'
p4255
S'LOCATION'
p4256
tp4257
I956
s(g28
S'birthdate'
p4258
S'DATE'
p4259
tp4260
I1610
s(g28
S'rings'
p4261
S'NUMBER'
p4262
tp4263
I1193
s(g28
S'groups'
p4264
S'LOCATION'
p4265
tp4266
I478
s(g28
S'classification'
p4267
S'OTHER'
p4268
tp4269
I1071
s(g28
g195
g3001
tp4270
I146
s(g28
S'vessels'
p4271
S'OTHER'
p4272
tp4273
I1330
s(g28
S'ranges'
p4274
S'LOCATION'
p4275
tp4276
I1030
s(g28
S'brush'
p4277
S'OTHER'
p4278
tp4279
I957
s(g28
S'feet'
p4280
S'OTHER'
p4281
tp4282
I1304
s(g28
g195
g3835
tp4283
I78
s(g28
S'liston'
p4284
S'PERSON'
p4285
tp4286
I539
s(g28
S'valley'
p4287
S'LOCATION'
p4288
tp4289
I123
s(g28
S'culture'
p4290
S'ORGANIZATION'
p4291
tp4292
I821
s(g28
S'belt'
p4293
S'OTHER'
p4294
tp4295
I373
s(g28
S'shillings'
p4296
S'NUMBER'
p4297
tp4298
I736
s(g28
S'amtrak'
p4299
S'DATE'
p4300
tp4301
I1208
s(g28
S'hearts'
p4302
S'NUMBER'
p4303
tp4304
I345
s(g28
S'turkey'
p4305
S'PERSON'
p4306
tp4307
I1588
s(g28
S'model'
p4308
S'PERSON'
p4309
tp4310
I263
s(g28
S'video'
p4311
S'OTHER'
p4312
tp4313
I1172
s(g28
S'weapon'
p4314
S'OTHER'
p4315
tp4316
I46
s(g28
S'rivers'
p4317
S'LOCATION'
p4318
tp4319
I954
s(g107
S'at'
p4320
S'OTHER'
p4321
tp4322
I1186
s(g28
S'mayor'
p4323
S'PERSON'
p4324
tp4325
I122
s(g28
S'balls'
p4326
S'OTHER'
p4327
tp4328
I1466
s(g28
S'butler'
p4329
S'PERSON'
p4330
tp4331
I1337
s(g28
S'tiger'
p4332
S'OTHER'
p4333
tp4334
I379
s(g28
S'task'
p4335
S'PERSON'
p4336
tp4337
I1401
s(g28
S'high'
p4338
S'NUMBER'
p4339
tp4340
I958
s(g28
S'fiddlers'
p4341
S'NUMBER'
p4342
tp4343
I879
s(g28
S'spice'
p4344
S'OTHER'
p4345
tp4346
I1073
s(g28
S'store'
p4347
S'LOCATION'
p4348
tp4349
I992
s(g28
S'damage'
p4350
S'OTHER'
p4351
tp4352
I865
s(g28
S'cigarette'
p4353
S'OTHER'
p4354
tp4355
I763
s(g28
S'arch'
p4356
S'LOCATION'
p4357
tp4358
I382
s(g28
S'acid'
p4359
S'NUMBER'
p4360
tp4361
I869
s(g28
S'ruin'
p4362
S'OTHER'
p4363
tp4364
I1693
s(g28
S'sun'
p4365
S'DATE'
p4366
tp4367
I1200
s(g28
S'way'
p4368
S'OTHER'
p4369
tp4370
I203
s(g28
S'stonehenge'
p4371
S'PERSON'
p4372
tp4373
I814
s(g28
S'shrubs'
p4374
S'OTHER'
p4375
tp4376
I153
s(g107
S'how'
p4377
g15
tp4378
I89
s(g28
S'muscles'
p4379
S'NUMBER'
p4380
tp4381
I1614
s(g28
S'bridge'
p4382
S'OTHER'
p4383
tp4384
I315
s(g28
S'nicholas'
p4385
S'LOCATION'
p4386
tp4387
I1518
s(g28
S'stages'
p4388
S'OTHER'
p4389
tp4390
I226
s(g28
S'disease'
p4391
S'OTHER'
p4392
tp4393
I163
s(g28
S'woman'
p4394
S'OTHER'
p4395
tp4396
I1028
s(g28
S'course'
p4397
g4150
tp4398
I27
s(g28
S'baby'
p4399
S'PERSON'
p4400
tp4401
I1188
s(g28
S'church'
p4402
S'PERSON'
p4403
tp4404
I1265
s(g28
S'clinic'
p4405
S'LOCATION'
p4406
tp4407
I833
s(g28
S'd.a.'
p4408
S'PERSON'
p4409
tp4410
I1402
s(g28
S'players'
p4411
S'PERSON'
p4412
tp4413
I1267
s(g28
S'congress'
p4414
S'OTHER'
p4415
tp4416
I1131
s(g28
S'teenager'
p4417
S'DATE'
p4418
tp4419
I275
s(g28
S'page'
p4420
S'LOCATION'
p4421
tp4422
I593
s(g28
S'warlock'
p4423
S'OTHER'
p4424
tp4425
I1617
s(g28
S'innings'
p4426
S'NUMBER'
p4427
tp4428
I320
s(g28
S'noun'
p4429
S'OTHER'
p4430
tp4431
I1632
s(g28
S'colors'
p4432
S'NUMBER'
p4433
tp4434
I1217
s(g28
S'story'
p4435
S'OTHER'
p4436
tp4437
I850
s(g28
S'gama'
p4438
S'OTHER'
p4439
tp4440
I1644
s(g28
S'inuits'
p4441
S'LOCATION'
p4442
tp4443
I1012
s(g28
S'soundtrack'
p4444
S'OTHER'
p4445
tp4446
I1374
s(g28
S'native'
p4447
S'LOCATION'
p4448
tp4449
I1615
s(g28
S'belushi'
p4450
S'OTHER'
p4451
tp4452
I439
s(g28
S'year'
p4453
S'OTHER'
p4454
tp4455
I1103
s(g28
S'agencies'
p4456
S'ORGANIZATION'
p4457
tp4458
I1479
s(g28
S'measures'
p4459
S'OTHER'
p4460
tp4461
I1344
s(g28
S'method'
p4462
S'OTHER'
p4463
tp4464
I871
s(g28
S'kind'
p4465
S'OTHER'
p4466
tp4467
I423
s(g28
S'tootsie'
p4468
S'PERSON'
p4469
tp4470
I54
s(g28
S'office'
p4471
g2063
tp4472
I758
s(g28
S'music'
p4473
S'DATE'
p4474
tp4475
I960
s(g28
S'region'
p4476
S'LOCATION'
p4477
tp4478
I1771
s(g107
S'tell'
p4479
S'LOCATION'
p4480
tp4481
I651
s(g28
S'queen'
p4482
S'NUMBER'
p4483
tp4484
I1500
s(g28
S'work'
p4485
S'OTHER'
p4486
tp4487
I85
s(g28
S'mutiny'
p4488
S'PERSON'
p4489
tp4490
I1120
s(g28
S'clone'
p4491
S'OTHER'
p4492
tp4493
I1495
s(g28
S'album'
p4494
S'OTHER'
p4495
tp4496
I117
s(g28
S'schools'
p4497
S'ORGANIZATION'
p4498
tp4499
I984
s(g28
S'spider'
p4500
S'OTHER'
p4501
tp4502
I1403
s(g28
S'county'
p4503
S'ORGANIZATION'
p4504
tp4505
I139
s(g28
S'voice'
p4506
S'PERSON'
p4507
tp4508
I489
s(g28
S'brothers'
p4509
S'OTHER'
p4510
tp4511
I581
s(g28
S'century'
p4512
S'DATE'
p4513
tp4514
I494
s(g28
S'emperor'
p4515
S'OTHER'
p4516
tp4517
I1252
s(g28
S'period'
p4518
S'OTHER'
p4519
tp4520
I1245
s(g28
S'seagull'
p4521
S'OTHER'
p4522
tp4523
I1467
s(g28
S'pounds'
p4524
S'NUMBER'
p4525
tp4526
I1310
s(g28
S'products'
p4527
g2731
tp4528
I91
s(g28
S'resident'
p4529
S'PERSON'
p4530
tp4531
I208
s(g28
S'sergeant'
p4532
S'PERSON'
p4533
tp4534
I1456
s(g28
S'questions'
p4535
S'NUMBER'
p4536
tp4537
I596
s(g28
S'monarchy'
p4538
S'LOCATION'
p4539
tp4540
I1789
s(g28
S'capital'
p4541
S'LOCATION'
p4542
tp4543
I53
s(g28
S'nfl'
p4544
S'DATE'
p4545
tp4546
I1183
s(g28
S'nebbish'
p4547
S'PERSON'
p4548
tp4549
I1251
s(g28
S'votes'
p4550
S'NUMBER'
p4551
tp4552
I860
s(g28
S'force'
p4553
S'ORGANIZATION'
p4554
tp4555
I1762
s(g28
S'nation'
p4556
S'LOCATION'
p4557
tp4558
I1353
s(g28
S'thrillers'
p4559
S'PERSON'
p4560
tp4561
I1696
s(g107
S'of'
p4562
S'PERCENT'
p4563
tp4564
I655
s(g28
S'bone'
p4565
S'OTHER'
p4566
tp4567
I943
s(g28
S'job'
p4568
S'PERSON'
p4569
tp4570
I572
s(g28
S'attorneys'
p4571
S'PERSON'
p4572
tp4573
I995
s(g28
S'identity'
p4574
S'PERSON'
p4575
tp4576
I895
s(g28
S'themes'
p4577
S'PERSON'
p4578
tp4579
I126
s(g28
S'powell'
p4580
S'PERSON'
p4581
tp4582
I450
s(g28
S'quarters'
p4583
S'NUMBER'
p4584
tp4585
I380
s(g28
S'company'
p4586
S'DATE'
p4587
tp4588
I866
s(g28
S'time'
p4589
S'DATE'
p4590
tp4591
I1004
s(g28
S'wingspan'
p4592
S'NUMBER'
p4593
tp4594
I408
s(g28
S'actor'
p4595
S'PERSON'
p4596
tp4597
I144
s(g107
S'mississippi'
p4598
S'OTHER'
p4599
tp4600
I784
s(g28
S'guy'
p4601
S'PERSON'
p4602
tp4603
I1761
s(g28
S'cookie'
p4604
S'OTHER'
p4605
tp4606
I1714
s(g28
S'cereal'
p4607
S'OTHER'
p4608
tp4609
I592
s(g28
S'use'
p4610
S'DATE'
p4611
tp4612
I1744
s(g28
S'companies'
p4613
S'ORGANIZATION'
p4614
tp4615
I1607
s(g28
S'dish'
p4616
S'OTHER'
p4617
tp4618
I559
s(g28
S'smokey'
p4619
S'OTHER'
p4620
tp4621
I525
s(g28
S'epic'
p4622
S'OTHER'
p4623
tp4624
I1485
s(g28
S'sound'
p4625
S'OTHER'
p4626
tp4627
I1521
s(g28
S'manufacturers'
p4628
S'ORGANIZATION'
p4629
tp4630
I1320
s(g28
S'chop'
p4631
S'LOCATION'
p4632
tp4633
I1387
s(g28
S'goes'
p4634
S'LOCATION'
p4635
tp4636
I1248
s(g107
S'approximately'
p4637
S'NUMBER'
p4638
tp4639
I966
s(g28
S'feud'
p4640
S'OTHER'
p4641
tp4642
I782
s(g28
S'flatfish'
p4643
S'OTHER'
p4644
tp4645
I364
s(g28
S'surname'
p4646
S'PERSON'
p4647
tp4648
I855
s(g28
S'snakes'
p4649
S'OTHER'
p4650
tp4651
I890
s(g107
S'who'
p4652
g464
tp4653
I13
s(g28
S'expectancy'
p4654
S'TIME'
p4655
tp4656
I798
s(g28
S'thrilled'
p4657
S'OTHER'
p4658
tp4659
I1276
s(g28
S'thing'
p4660
S'OTHER'
p4661
tp4662
I913
s(g28
S'image'
p4663
S'PERSON'
p4664
tp4665
I964
s(g28
S'drug'
p4666
S'OTHER'
p4667
tp4668
I563
s(g28
S'jong'
p4669
S'OTHER'
p4670
tp4671
I1109
s(g28
S'layer'
p4672
S'OTHER'
p4673
tp4674
I1516
s(g28
S'softball'
p4675
S'OTHER'
p4676
tp4677
I1411
s(g28
S'shots'
p4678
S'NUMBER'
p4679
tp4680
I362
s(g28
S'otters'
p4681
S'OTHER'
p4682
tp4683
I1640
s(g28
S'colors'
p4684
S'OTHER'
p4685
tp4686
I205
s(g28
S'ball'
p4687
S'OTHER'
p4688
tp4689
I148
s(g28
S'figure'
p4690
S'PERSON'
p4691
tp4692
I1177
s(g28
S'ages'
p4693
S'OTHER'
p4694
tp4695
I1085
s(g28
S'rose'
p4696
S'PERSON'
p4697
tp4698
I469
s(g28
S'cables'
p4699
S'NUMBER'
p4700
tp4701
I1455
s(g28
S'submarine'
p4702
S'OTHER'
p4703
tp4704
I1032
s(g28
S'par'
p4705
S'NUMBER'
p4706
tp4707
I1133
s(g28
S'skin'
p4708
S'OTHER'
p4709
tp4710
I1069
s(g28
S'name'
p4711
S'OTHER'
p4712
tp4713
I90
s(g28
S'barbie'
p4714
S'DATE'
p4715
tp4716
I904
s(g28
S'witness'
p4717
S'PERSON'
p4718
tp4719
I1735
s(g28
S'mall'
p4720
S'LOCATION'
p4721
tp4722
I680
s(g28
S'ship'
p4723
S'OTHER'
p4724
tp4725
I1075
s(g28
S'positions'
p4726
S'PERSON'
p4727
tp4728
I662
s(g28
S'movies'
p4729
S'NUMBER'
p4730
tp4731
I1289
s(g28
S'earthquakes'
p4732
S'OTHER'
p4733
tp4734
I1606
s(g28
S'villi'
p4735
S'NUMBER'
p4736
tp4737
I67
s(g28
S'names'
p4738
S'PERSON'
p4739
tp4740
I381
s(g28
S'davies'
p4741
S'LOCATION'
p4742
tp4743
I510
s(g28
S'video'
p4744
S'PERSON'
p4745
tp4746
I347
s(g107
S'in'
p4747
g2869
tp4748
I38
s(g28
S'talking'
p4749
S'PERSON'
p4750
tp4751
I404
s(g28
g195
g1120
tp4752
I33
s(g28
S'characters'
p4753
S'NUMBER'
p4754
tp4755
I1637
s(g28
S'stars'
p4756
S'OTHER'
p4757
tp4758
I1190
s(g28
S'coastlines'
p4759
S'LOCATION'
p4760
tp4761
I570
s(g28
S'spumante'
p4762
S'ORGANIZATION'
p4763
tp4764
I108
s(g107
S'in'
p4765
S'LOCATION'
p4766
tp4767
I262
s(g28
S'sort'
p4768
S'OTHER'
p4769
tp4770
I1325
s(g28
S'bowling'
p4771
S'PERSON'
p4772
tp4773
I889
s(g28
S'household'
p4774
S'OTHER'
p4775
tp4776
I312
s(g28
S'temperature'
p4777
S'NUMBER'
p4778
tp4779
I331
s(g28
S'kid'
p4780
S'OTHER'
p4781
tp4782
I1046
s(g28
S'hamlet'
p4783
S'PERSON'
p4784
tp4785
I921
s(g107
S'name'
p4786
S'ORGANIZATION'
p4787
tp4788
I369
s(g28
S'prison'
p4789
S'LOCATION'
p4790
tp4791
I1279
s(g107
S'what'
p4792
g351
tp4793
I549
s(g28
S'account'
p4794
g112
tp4795
I1357
s(g28
S'god'
p4796
S'OTHER'
p4797
tp4798
I501
s(g28
S'grammys'
p4799
S'NUMBER'
p4800
tp4801
I546
s(g28
S'trademark'
p4802
S'ORGANIZATION'
p4803
tp4804
I1728
s(g28
S'wedding'
p4805
S'DATE'
p4806
tp4807
I143
s(g28
S'sperm'
p4808
S'OTHER'
p4809
tp4810
I986
s(g28
S'captain'
p4811
S'PERSON'
p4812
tp4813
I1022
s(g28
S'canal'
p4814
S'LOCATION'
p4815
tp4816
I1127
s(g28
S'way'
p4817
S'PERSON'
p4818
tp4819
I110
s(g28
S'amendements'
p4820
S'OTHER'
p4821
tp4822
I603
s(g28
S'journal'
p4823
S'DATE'
p4824
tp4825
I142
s(g28
S'pigs'
p4826
S'LOCATION'
p4827
tp4828
I569
s(g28
S'danube'
p4829
S'LOCATION'
p4830
tp4831
I413
s(g28
S'star'
p4832
S'PERSON'
p4833
tp4834
I338
s(g28
S'youngsters'
p4835
S'PERSON'
p4836
tp4837
I1021
s(g28
S'singer'
p4838
S'LOCATION'
p4839
tp4840
I618
s(g107
S'what'
p4841
g2441
tp4842
I353
s(g28
S'lawyers'
p4843
S'NUMBER'
p4844
tp4845
I641
s(g28
S'people'
p4846
S'OTHER'
p4847
tp4848
I1778
s(g28
S'invention'
p4849
S'OTHER'
p4850
tp4851
I1634
s(g28
S'lion'
p4852
S'PERSON'
p4853
tp4854
I1163
s(g28
S'morgan'
p4855
S'PERSON'
p4856
tp4857
I944
s(g28
S'columbus'
p4858
S'LOCATION'
p4859
tp4860
I191
s(g28
S'ruby'
p4861
S'DATE'
p4862
tp4863
I1776
s(g28
S'tv'
p4864
S'OTHER'
p4865
tp4866
I237
s(g28
S'components'
p4867
S'OTHER'
p4868
tp4869
I1280
s(g107
S'on'
p4870
S'NUMBER'
p4871
tp4872
I448
s(g28
S'songs'
p4873
S'OTHER'
p4874
tp4875
I401
s(g28
S'life'
p4876
S'PERSON'
p4877
tp4878
I622
s(g28
S'surfboard'
p4879
S'PERSON'
p4880
tp4881
I897
s(g28
S'kemper'
p4882
S'PERSON'
p4883
tp4884
I1528
s(g28
S'horsepower'
p4885
S'NUMBER'
p4886
tp4887
I787
s(g28
S'creator'
p4888
S'PERSON'
p4889
tp4890
I693
s(g28
S'droppings'
p4891
S'OTHER'
p4892
tp4893
I1484
s(g28
S'conference'
p4894
S'OTHER'
p4895
tp4896
I752
s(g28
S'liquid'
p4897
S'OTHER'
p4898
tp4899
I1194
s(g28
S'railway'
p4900
S'DATE'
p4901
tp4902
I1037
s(g28
S'opera'
p4903
S'OTHER'
p4904
tp4905
I1288
s(g28
S'scrabble'
p4906
S'PERSON'
p4907
tp4908
I795
s(g28
S'kennedy'
p4909
S'OTHER'
p4910
tp4911
I1733
s(g107
S'whose'
p4912
g276
tp4913
I319
s(g28
S'example'
p4914
S'OTHER'
p4915
tp4916
I1080
s(g28
S'minister'
p4917
S'PERSON'
p4918
tp4919
I241
s(g28
S'ruth'
p4920
S'DATE'
p4921
tp4922
I1555
s(g28
S'mine'
p4923
S'OTHER'
p4924
tp4925
I1084
s(g107
S'garry'
p4926
S'OTHER'
p4927
tp4928
I1066
s(g28
S'stories'
p4929
S'OTHER'
p4930
tp4931
I749
s(g28
S'names'
p4932
S'LOCATION'
p4933
tp4934
I56
s(g28
S'encounters'
p4935
S'OTHER'
p4936
tp4937
I1179
s(g28
S'tournaments'
p4938
S'OTHER'
p4939
tp4940
I1111
s(g107
S'name'
p4941
g205
tp4942
I9
s(g28
S'information'
p4943
S'PERSON'
p4944
tp4945
I914
s(g28
S'predators'
p4946
S'OTHER'
p4947
tp4948
I250
s(g28
S'stocks'
p4949
S'LOCATION'
p4950
tp4951
I327
s(g28
S'maclaine'
p4952
S'OTHER'
p4953
tp4954
I1395
s(g28
S'libraries'
p4955
S'LOCATION'
p4956
tp4957
I767
s(g28
S'counties'
p4958
S'NUMBER'
p4959
tp4960
I1027
s(g28
S'shortstop'
p4961
S'PERSON'
p4962
tp4963
I1213
s(g28
S'husband'
p4964
S'PERSON'
p4965
tp4966
I454
s(g28
S'ice'
p4967
S'OTHER'
p4968
tp4969
I917
s(g28
S'badu'
p4970
S'LOCATION'
p4971
tp4972
I1737
s(g28
S'basketball'
p4973
S'OTHER'
p4974
tp4975
I735
s(g28
S'meeting'
p4976
S'LOCATION'
p4977
tp4978
I1036
s(g28
S'room'
p4979
S'PERSON'
p4980
tp4981
I1529
s(g28
S'visine'
p4982
S'OTHER'
p4983
tp4984
I1015
s(g28
S'tribe'
p4985
S'ORGANIZATION'
p4986
tp4987
I130
s(g28
S'tiles'
p4988
S'NUMBER'
p4989
tp4990
I1541
s(g28
S'gordon'
p4991
S'PERSON'
p4992
tp4993
I1663
s(g28
S'company'
p4994
S'ORGANIZATION'
p4995
tp4996
I149
s(g28
S'shape'
p4997
S'OTHER'
p4998
tp4999
I1768
s(g28
S'clip'
p5000
S'PERSON'
p5001
tp5002
I755
s(g28
S'quetzalcoatl'
p5003
S'PERSON'
p5004
tp5005
I1147
s(g107
S'stuart'
p5006
S'OTHER'
p5007
tp5008
I1373
s(g28
S'offices'
p5009
S'ORGANIZATION'
p5010
tp5011
I154
s(g28
g195
S'PERCENT'
p5012
tp5013
I351
s(g28
S'cherokee'
p5014
S'PERSON'
p5015
tp5016
I727
s(g28
S'andrews'
p5017
S'PERSON'
p5018
tp5019
I1428
s(g28
S'lindbergh'
p5020
S'PERSON'
p5021
tp5022
I1470
s(g28
S'animals'
p5023
S'OTHER'
p5024
tp5025
I270
s(g28
S'diary'
p5026
S'PERSON'
p5027
tp5028
I300
s(g28
S'novel'
p5029
S'OTHER'
p5030
tp5031
I98
s(g28
S'poet'
p5032
S'PERSON'
p5033
tp5034
I228
s(g28
S'dog'
p5035
S'PERSON'
p5036
tp5037
I980
s(g28
S'event'
p5038
S'OTHER'
p5039
tp5040
I422
s(g28
S'bodies'
p5041
S'LOCATION'
p5042
tp5043
I1602
s(g28
S'role'
p5044
S'PERSON'
p5045
tp5046
I201
s(g28
S'nickname'
p5047
S'LOCATION'
p5048
tp5049
I65
s(g28
S'broadcast'
p5050
S'DATE'
p5051
tp5052
I722
s(g28
S'american'
p5053
S'PERSON'
p5054
tp5055
I115
s(g28
S'flowers'
p5056
S'OTHER'
p5057
tp5058
I1478
s(g28
S'university'
p5059
S'LOCATION'
p5060
tp5061
I531
s(g28
S'boxer'
p5062
S'PERSON'
p5063
tp5064
I1434
s(g107
S'who'
p5065
g4763
tp5066
I109
s(g28
S'formula'
p5067
S'OTHER'
p5068
tp5069
I894
s(g28
S'snow'
p5070
S'NUMBER'
p5071
tp5072
I272
s(g28
S'cult'
p5073
S'OTHER'
p5074
tp5075
I1760
s(g28
S'restaurant'
p5076
S'LOCATION'
p5077
tp5078
I624
s(g28
S'journalist'
p5079
S'PERSON'
p5080
tp5081
I1512
s(g28
S'people'
p5082
S'ORGANIZATION'
p5083
tp5084
I259
s(g107
S'on'
p5085
S'TIME'
p5086
tp5087
I1047
s(g107
S'rotary'
p5088
S'PERSON'
p5089
tp5090
I1567
s(g28
S'walker'
p5091
S'LOCATION'
p5092
tp5093
I1041
s(g28
S'numbers'
p5094
S'NUMBER'
p5095
tp5096
I1137
s(g28
S'hawkins'
p5097
S'OTHER'
p5098
tp5099
I1285
s(g28
S'tammy'
p5100
S'PERSON'
p5101
tp5102
I1112
s(g28
S'department'
p5103
S'ORGANIZATION'
p5104
tp5105
I1302
s(g107
S'when'
p5106
S'LOCATION'
p5107
tp5108
I1123
s(g28
S'year'
p5109
S'NUMBER'
p5110
tp5111
I1451
s(g28
S'clinton'
p5112
S'LOCATION'
p5113
tp5114
I1703
s(g28
S'sailor'
p5115
S'PERSON'
p5116
tp5117
I619
s(g28
S'inventors'
p5118
S'PERSON'
p5119
tp5120
I963
s(g28
S'penguins'
p5121
S'OTHER'
p5122
tp5123
I1347
s(g28
S'owner'
p5124
S'OTHER'
p5125
tp5126
I654
s(g28
S'brontosauruses'
p5127
S'OTHER'
p5128
tp5129
I181
s(g28
S'surgeon'
p5130
S'PERSON'
p5131
tp5132
I1049
s(g28
S'coronado'
p5133
S'PERSON'
p5134
tp5135
I363
s(g28
S'abstract'
p5136
S'LOCATION'
p5137
tp5138
I1327
s(g28
S'italians'
p5139
S'OTHER'
p5140
tp5141
I192
s(g28
S'producer'
p5142
g3549
tp5143
I435
s(g28
S'archenemy'
p5144
S'PERSON'
p5145
tp5146
I1461
s(g28
S'movie'
p5147
S'OTHER'
p5148
tp5149
I295
s(g28
S'steps'
p5150
S'LOCATION'
p5151
tp5152
I125
s(g28
S'simon'
p5153
S'OTHER'
p5154
tp5155
I1447
s(g28
S'englishmen'
p5156
S'NUMBER'
p5157
tp5158
I1490
s(g28
S'marlowe'
p5159
S'PERSON'
p5160
tp5161
I449
s(g28
S'island'
p5162
S'LOCATION'
p5163
tp5164
I306
s(g28
S'bear'
p5165
S'OTHER'
p5166
tp5167
I350
s(g28
S'flight'
p5168
S'OTHER'
p5169
tp5170
I908
s(g28
S'islands'
p5171
S'NUMBER'
p5172
tp5173
I1238
s(g28
S'racehorse'
p5174
S'OTHER'
p5175
tp5176
I1349
s(g28
S'dow'
p5177
S'DATE'
p5178
tp5179
I458
s(g28
S'kid'
p5180
S'PERSON'
p5181
tp5182
I355
s(g28
S'library'
p5183
S'LOCATION'
p5184
tp5185
I1642
s(g28
S'fingernails'
p5186
S'OTHER'
p5187
tp5188
I909
s(g28
S'enterprise'
p5189
S'PERSON'
p5190
tp5191
I942
s(g28
S'khrushchev'
p5192
S'PERSON'
p5193
tp5194
I1603
s(g28
S'tools'
p5195
S'PERSON'
p5196
tp5197
I1459
s(g107
S'the'
p5198
S'TIME'
p5199
tp5200
I432
s(g28
S'husbands'
p5201
S'PERSON'
p5202
tp5203
I1328
s(g28
S'room'
p5204
S'LOCATION'
p5205
tp5206
I1458
s(g28
S'diamonds'
p5207
S'LOCATION'
p5208
tp5209
I1559
s(g28
S'owner'
p5210
S'PERSON'
p5211
tp5212
I1414
s(g28
S'yankee'
p5213
S'PERSON'
p5214
tp5215
I802
s(g28
S'organization'
p5216
g4787
tp5217
I368
s(g28
S'stars'
p5218
S'NUMBER'
p5219
tp5220
I564
s(g28
S'battle'
p5221
S'LOCATION'
p5222
tp5223
I673
s(g28
S'site'
p5224
S'LOCATION'
p5225
tp5226
I633
s(g28
S'websites'
p5227
S'LOCATION'
p5228
tp5229
I1390
s(g28
S'millennium'
p5230
S'DATE'
p5231
tp5232
I709
s(g28
S'bones'
p5233
S'NUMBER'
p5234
tp5235
I1097
s(g28
S'people'
p5236
S'PERSON'
p5237
tp5238
I437
s(g28
S'continent'
p5239
S'LOCATION'
p5240
tp5241
I663
s(g28
S'group'
p5242
S'DATE'
p5243
tp5244
I1113
s(g28
S'yards'
p5245
S'NUMBER'
p5246
tp5247
I1684
s(g28
S'majal'
p5248
S'OTHER'
p5249
tp5250
I1433
s(g28
S'ambassador'
p5251
S'DATE'
p5252
tp5253
I1497
s(g28
S'parks'
p5254
S'PERSON'
p5255
tp5256
I491
s(g28
S'hugo'
p5257
S'DATE'
p5258
tp5259
I426
s(g28
S'witch'
p5260
S'OTHER'
p5261
tp5262
I1215
s(g28
S'advocate'
p5263
S'PERSON'
p5264
tp5265
I1618
s(g28
S'republic'
p5266
S'LOCATION'
p5267
tp5268
I256
s(g28
S'mountain'
p5269
S'LOCATION'
p5270
tp5271
I255
s(g28
S'museum'
p5272
S'LOCATION'
p5273
tp5274
I905
s(g28
S'complex'
p5275
S'LOCATION'
p5276
tp5277
I1524
s(g28
S'children'
p5278
S'OTHER'
p5279
tp5280
I290
s(g28
S'reign'
p5281
S'PERSON'
p5282
tp5283
I738
s(g28
S'direction'
p5284
S'LOCATION'
p5285
tp5286
I1508
s(g28
S'wordsworth'
p5287
S'PERSON'
p5288
tp5289
I1469
s(g28
S'nixon'
p5290
S'DATE'
p5291
tp5292
I1154
s(g28
S'ridder'
p5293
S'OTHER'
p5294
tp5295
I1306
s(g28
S'house'
p5296
S'LOCATION'
p5297
tp5298
I1225
s(g28
S'export'
p5299
S'OTHER'
p5300
tp5301
I316
s(g28
S'events'
p5302
S'OTHER'
p5303
tp5304
I466
s(g28
S'college'
p5305
S'NUMBER'
p5306
tp5307
I1623
s(g107
S'a'
p5308
S'NUMBER'
p5309
tp5310
I1587
s(g28
S'paganini'
p5311
S'PERSON'
p5312
tp5313
I667
s(g28
S'x-man'
p5314
S'PERSON'
p5315
tp5316
I1568
s(g28
S'alphabet'
p5317
S'OTHER'
p5318
tp5319
I704
s(g28
S'medals'
p5320
S'PERSON'
p5321
tp5322
I1531
s(g107
S'the'
p5323
S'PERSON'
p5324
tp5325
I1024
s(g28
S'russians'
p5326
S'NUMBER'
p5327
tp5328
I1275
s(g28
S'state'
p5329
g20
tp5330
I16
s(g28
S'athletes'
p5331
S'NUMBER'
p5332
tp5333
I1791
s(g28
S'book'
p5334
S'OTHER'
p5335
tp5336
I73
s(g28
S'society'
p5337
S'ORGANIZATION'
p5338
tp5339
I1699
s(g28
S'lengths'
p5340
S'NUMBER'
p5341
tp5342
I566
s(g28
S'birthday'
p5343
S'DATE'
p5344
tp5345
I540
s(g28
S'pillar'
p5346
S'PERSON'
p5347
tp5348
I1175
s(g28
S'residents'
p5349
S'ORGANIZATION'
p5350
tp5351
I1184
s(g28
S'victoria'
p5352
S'DATE'
p5353
tp5354
I779
s(g28
S'cards'
p5355
S'OTHER'
p5356
tp5357
I930
s(g28
S'states'
p5358
g841
tp5359
I29
ssbsS'_weights'
p5360
cnumpy.core.multiarray
_reconstruct
p5361
(cnumpy
ndarray
p5362
(I0
tp5363
S'b'
p5364
tp5365
Rp5366
(I1
(I1796
tp5367
cnumpy
dtype
p5368
(S'f8'
p5369
I0
I1
tp5370
Rp5371
(I3
S'<'
p5372
NNNI-1
I-1
I0
tp5373
bI00
S'n\xa64\xefG\xa4\x16@\xac\xea\x85\xf2\xe7\x91\xfc?\x8f\xcd\x0edVe\x17@7\xa6,\xac\xba\x81 @\xa75\x9d\xbcE\xe6\xd1\xbf\x84\xf1\xeb\x1b\x83\x98\x1e@\x84\x10-\x97x\x88\xe9\xbf7\xa6,\xac\xba\x81 @\xd0\x0en\xab\xe2\x8f\x1e@L|P\xf3\x1c*\x14@\xaez$(\x92\x1a\x11@y\x05\xf8\xf9\x02g\x14@7yc\xb8\x7f\'\x11@wV\x18\xf9G\xe4\x16@7yc\xb8\x7f\'\x11@\x8f\xcd\x0edVe\x17@\x13\xc4S\\`r\x1e@\x95\x91\xbe\x17a\xe4\xd0?L\x03s\x8b\x9c\x96\x15@\xd0\x0c\xc1o\xac\xaf\x18@\xf1\x9c \x83\xfe\x91#@\x85\xd6\x19Iz\xfd\xfb\xbf\xec\reqK\x15\xe4?e\x1e\xa4t\xfd\x84\x1a@\x8f\xcd\x0edVe\x17@7yc\xb8\x7f\'\x11@g\x1f\xb9)1\xc8\x1e@\xa5\xc4,\xccj\xe4\x1c@\xdf\xed4\x10\x89e\x12@k\x88\xb4\xe8\x9c\x12\x1e@\xfc\xe3\xe7\x1b1`\x0c@\x8f\xcd\x0edVe\x17@"0C\xa0\xda\xfc\x15@\xe4\x1dK\xa6\xbd\xa7\xd8\xbf\x0e\xec\xd7\xf6\x1c\r\x0c@"0C\xa0\xda\xfc\x15@\x07\xbd\x12\xd7\xd1\x99\x06@X)\xca\xf63f\x1b@\xd30\x97^\xcd(\n@\xf9%\x91\x856\x07\x0e@t8q\xe3c\x8a\x1c@\x8f\xcd\x0edVe\x17@\xe2\xd9\xf3\xe2XV\xd0?7\xa6,\xac\xba\x81 @\x8f\xcd\x0edVe\x17@1\xd3oli4"@\x8f\xcd\x0edVe\x17@\x9c\xd1\xd6\xac\xb8&\x1f@5yc\xb8\x7f\'\x11@7yc\xb8\x7f\'\x11@\x97\xcd\x0edVe\x17@\x8f\xcd\x0edVe\x17@\xf9%\x91\x856\x07\x0e@k\x1f\xb9)1\xc8\x1e@7yc\xb8\x7f\'\x11@\x80\x89\x05\xd8D\xb6\x1e@\x94,\x84\x9a\x0e\x8f\x06@\x87\xce\xc6\x80oi\xba\xbf7yc\xb8\x7f\'\x11@\x8f\xcd\x0edVe\x17@7yc\xb8\x7f\'\x11@7\xa6,\xac\xba\x81 @\xe9\x96\xd8>\x18@\x14@\x0cl\xfb8\xa3\x94\x10@\x8f\xcd\x0edVe\x17@\xb0\x08\xef\xa7\x81\xf3\x08@\x90\xcd\x0edVe\x17@"0C\xa0\xda\xfc\x15@\x8f\xcd\x0edVe\x17@\xf8\xec&R\xc45\x14@\xad\x8bV2\x9f\xf0 @\'\xba6s\x9eh\x05@\xd7@\xfc\xbc\xc6\xea\x10@=\xc7&0\x96\xe1\x17@1\xd3oli4"@\xaez$(\x92\x1a\x11@g\x1f\xb9)1\xc8\x1e@7yc\xb8\x7f\'\x11@\xe6F\x06iI)\xd7?6\x04\x14\xba\x042\x15@\xd8_%0\xdd\x18\x12@\x8f\xcd\x0edVe\x17@\xf9%\x91\x856\x07\x0e@\xf9%\x91\x856\x07\x0e@~\x062\xe7K\x0f\x1e@\x8f\xcd\x0edVe\x17@\x8f\xcd\x0edVe\x17@\x15\xbb\xfdgq\xa0\x1c@\xe2I\x99-3\xa6\x1f@\x7f\xc2\x0cN\xd2\xcc\x0f@\x05n\xfe\xdb\xec\n\x06@d\xf1\x87A\x02\xea\x1c@@\xae\xeb\xdb\xd0"\x10@\xf0\x14J\xac\xf7r\xda?"\xeb\xe3r\xb5\xaa\x12@7\xa6,\xac\xba\x81 @1\xd3oli4"@\x86\x8e\xbc\x03@R\x10@\x0e*[Jy\xc5\x17@\xbd>-GE1\x18@ GFq\xdf\xf9\x12@\n\xea9\xa5\xc2\xa4\x17@\xb7C\x8b#o1\xae\xbf\xab"\x15l\xac\r\x1f@!0C\xa0\xda\xfc\x15@\xf9%\x91\x856\x07\x0e@\x8f\xcd\x0edVe\x17@"0C\xa0\xda\xfc\x15@\x04\x801\xf1\xd6c&@>\x9c`\xb2\xe4yq\xbf\x8d!\xad\x87\xc3L\xf5?7yc\xb8\x7f\'\x11@b\xee\xade\xecK\x19@"0C\xa0\xda\xfc\x15@\xb2D\x91O\xb3\xd4\x12@\xa8\x05Y\x1c \x1c\x1d@\xb2v5\x10\x08\x9a\x1e@\x8f\xcd\x0edVe\x17@OK_+\xf7\xaf\x18@\x81\xff\x80I\x0bA$@\xc4\xa2\x0c\x7f\xad\xcb\x05@\x1b7\x04\\\rL\x18@\xa8\x05Y\x1c \x1c\x1d@=nz\xe0v\xe8\x1a@\xdf#\t\xaf\xaa\xec\x1a@\xf9%\x91\x856\x07\x0e@7yc\xb8\x7f\'\x11@7yc\xb8\x7f\'\x11@\xd1\xc6\x16\xf4\x11\xad @\xc5\xa7\xael\xa2\xe2\xfc?A\x9b\xa2A~\xed$@"0C\xa0\xda\xfc\x15@\x10-\x19\xebi\xb9\x00@\x8f\xcd\x0edVe\x17@4j\xf2#4\xc8\x12@0\xa6,\xac\xba\x81 @\xfa\xd0aF\x9a\x94!@\x8f\xcd\x0edVe\x17@\x14\x9dr\xbb\xab\x83\x1d@\xef\xc1\x86\xb4\x12\xb3\x1a@\x8f\xcd\x0edVe\x17@7\xa6,\xac\xba\x81 @\xaez$(\x92\x1a\x11@\xaez$(\x92\x1a\x11@}=\x88\xaac\xcb\x1b@\xb30\xd1Qt\xbc\x1e@wg\xe5\xd0\x9a\x00\xe2\xbf\r\xb3\xe4\x93\xab\xae\x1e@\x8f\xcd\x0edVe\x17@\x81\x13)\x1b/,\x1e@\x8f\xcd\x0edVe\x17@\x1b\x15\xcfps\xb3\x1a@\x92\xd9\xd8\x86\x8d6\x14@\x8f\xcd\x0edVe\x17@1\xd3oli4"@\x8f\xcd\x0edVe\x17@0\x1a\xd3/Q\xe2%@\x831)\x89\xc7\xf3\x07\xc0\xaez$(\x92\x1a\x11@\x9ey\xadX\xec\xb4\x1e@i\xaaWs\xea\x81\x19@"0C\xa0\xda\xfc\x15@\x8f\xcd\x0edVe\x17@\x1d\xd8\x19\xa8\x1a;\x19@\x8f\xcd\x0edVe\x17@\xaa\xbb\x8c\x04!\xd2\x13@\xc4\xa2\x0c\x7f\xad\xcb\x05@7yc\xb8\x7f\'\x11@\xaez$(\x92\x1a\x11@7\xa6,\xac\xba\x81 @a\x8c\x10|{\xf5\x14@7yc\xb8\x7f\'\x11@\x8f\xcd\x0edVe\x17@\x8f\xcd\x0edVe\x17@=nz\xe0v\xe8\x1a@\xaez$(\x92\x1a\x11@\xa5\xb8\xd6\xfc\xc8\xf1\x10@\x8c}h\x94\x8a\x89\x15@(\xb5\xbfk\xa9\xd3\x1b@\x83\x1e\xea?\x9eT\x1c@\xc7/H\x17\xfa\x02\x19@\x8f\xcd\x0edVe\x17@7yc\xb8\x7f\'\x11@C\xf0\n\xedT\xd1\x1e@\x8f\xcd\x0edVe\x17@\xe3\x89\xd7\x82\xe6V\n@6\xc0\xa9\xe6\x14| @\xaez$(\x92\x1a\x11@(\x1a\xd3/Q\xe2%@\xa4\xda\xccj?\x90\x1b@\x8a\xc5\x8b\xf1&x\x16@\xf9%\x91\x856\x07\x0e@\x8f\xcd\x0edVe\x17@g\x1f\xb9)1\xc8\x1e@\x8f\xcd\x0edVe\x17@\x90\xcd\x0edVe\x17@y\x89\xccn\t\xa2\x1c@t\xaf\x04]\xc3;\x1f@\x8f\xcd\x0edVe\x17@\xa6\x0f\xff\xe4\xd6A$@=nz\xe0v\xe8\x1a@\xa8\x05Y\x1c \x1c\x1d@0\x1a\xd3/Q\xe2%@\xd2\x98H>\t=\x15@\xba`\xa5\xfd\xe4\x03 @\x92C\x12\x85\xd2F\x18@(\x1a\xd3/Q\xe2%@7yc\xb8\x7f\'\x11@\xfd\xf9\x0f\xc2\xd2\xfe\x18@\xa8\xf1nz\xd0\x9e#@0\x1a\xd3/Q\xe2%@"0C\xa0\xda\xfc\x15@\xea#R\xf2\xdc\xb1\x19@\x1b\xe1=&\x01\n\x18@7yc\xb8\x7f\'\x11@j\\\xba\xf4\x03\xf3\x1a@\x8f\xcd\x0edVe\x17@g\x1f\xb9)1\xc8\x1e@7yc\xb8\x7f\'\x11@\x04\x801\xf1\xd6c&@\x06\xd1>\x9c\x84?\x19@\xd8,&?\x12\x92\x0e@\x95\xcf\x1c\xf8n^#@\x8f\xcd\x0edVe\x17@\x88&\xf7\x10\x82\xd5\r@(\x1a\xd3/Q\xe2%@\x8f\xcd\x0edVe\x17@d\'V\x17\x9c2\x19@\xe2\xb4\xb6QO\xf8\x1f@"0C\xa0\xda\xfc\x15@@\xa2\x9e\xdb\xf7\x9a\x08@\x04\x801\xf1\xd6c&@\x8f\xcd\x0edVe\x17@\x9ey\xadX\xec\xb4\x1e@\x8f\xcd\x0edVe\x17@7yc\xb8\x7f\'\x11@eY\xf4\x10U\x16\x10@\n\x88\x07\x85\x84\xa9\x12@\x8f\xf1\xd3\xf5\xb7\x10 @7yc\xb8\x7f\'\x11@"0C\xa0\xda\xfc\x15@7yc\xb8\x7f\'\x11@GI,\xfe\xe47\x1d@^U\xb5\xdc\xdaZ\x0c@g\x1f\xb9)1\xc8\x1e@"0C\xa0\xda\xfc\x15@\x8f\xcd\x0edVe\x17@\xb4\x12Qb\x90\xb5\x15@\x90\xcd\x0edVe\x17@\x10OD\xb6*\xd5\x19@\x8f\xcd\x0edVe\x17@t\xad\x97\xb7\x10\x83&@0\x1a\xd3/Q\xe2%@\x8f\xcd\x0edVe\x17@\x90\xcd\x0edVe\x17@ZeS\x05j\xe1\x1f@\xf9%\x91\x856\x07\x0e@\x16\xf8\x8c\xa4V\x05\t@\xaez$(\x92\x1a\x11@\xb24\xcf\xb5\x02"\x13@g\x1f\xb9)1\xc8\x1e@\xf9%\x91\x856\x07\x0e@-c\xfc\x1b\xa8V\x11@b\xee\xade\xecK\x19@\x8f\xcd\x0edVe\x17@7yc\xb8\x7f\'\x11@7yc\xb8\x7f\'\x11@7yc\xb8\x7f\'\x11@g\x1f\xb9)1\xc8\x1e@\xf9%\x91\x856\x07\x0e@\x98\xcd\x0edVe\x17@>\x9d\xd19\xa1\xea\x1a@"0C\xa0\xda\xfc\x15@\x003\xdb\x86#\xc2\x18@\x8f\xcd\x0edVe\x17@\x86\x8e\xbc\x03@R\x10@\xed\xf9.J\x1b\xa9\x1e@7\xa6,\xac\xba\x81 @\xf9%\x91\x856\x07\x0e@7yc\xb8\x7f\'\x11@l\x88\x8c\xcc\t\x1e\x17@\xf9%\x91\x856\x07\x0e@5yc\xb8\x7f\'\x11@t\x81\x9e\x1c/M+@\xd5\xb0\xaa!\x18y\x0f\xc0{\x8b2\xd0]n\x17@\x8a\x15\xf1" \'\x18@\xf9%\x91\x856\x07\x0e@"\xba\xc9\xfdY\xdf\x19@7yc\xb8\x7f\'\x11@\x1b\xe9\x909\x85\xf6\x12@"0C\xa0\xda\xfc\x15@IY\x81z\xc0\xbd\xf0?\xaez$(\x92\x1a\x11@@\xa2\x9e\xdb\xf7\x9a\x08@\xe76\xc9w \xbe\x19@\x9ey\xadX\xec\xb4\x1e@1\xd3oli4"@&yu&L\xaa\x17@\x8f\xcd\x0edVe\x17@7yc\xb8\x7f\'\x11@"0C\xa0\xda\xfc\x15@7\xa6,\xac\xba\x81 @\xb2\x13\xdc\x1c/7\x19@\xad\x1fD\xe6>\x14\x1c@\x15\xf6\x8c\xbe\xb4\x89\x18@L\x82`\x9a8\xa0\x1e@7yc\xb8\x7f\'\x11@e\x1e\xa4t\xfd\x84\x1a@\x8f\xcd\x0edVe\x17@7yc\xb8\x7f\'\x11@\x12\xae\xeeG2T!@\x8f\xcd\x0edVe\x17@y\xa9\x15\xe6eG%@\x9e\xa2\xa2)5\xa9\xfd\xbf\x85[\xdb \xe6w\x03@\x8f\xcd\x0edVe\x17@\x8f\xcd\x0edVe\x17@\rH\x95G\x84Q\x0f@\x05\xefM\x87F\x96\x1c@"0C\xa0\xda\xfc\x15@0\x1a\xd3/Q\xe2%@\x91\xef\x88\xbc<\'\x19@"0C\xa0\xda\xfc\x15@\x16\xfbR\x10`\xa2\x11@,-\x04\xb9\x11d\x19@`\x1f\xb9)1\xc8\x1e@\xf9%\x91\x856\x07\x0e@\xaez$(\x92\x1a\x11@\x81;\x15\xc6\xe8\x9c @g\x1f\xb9)1\xc8\x1e@(\x1a\xd3/Q\xe2%@\xf9%\x91\x856\x07\x0e@\x8f\xcd\x0edVe\x17@7\xa6,\xac\xba\x81 @g\x1f\xb9)1\xc8\x1e@\x16\x16\x88\xb9|\xb3\x14@\x8f\xcd\x0edVe\x17@\x9e\xa0F=\xd4\xa1\x16@1\xd3oli4"@\x8f\xcd\x0edVe\x17@\xb6\x8eC\x07\x16\x8c\x18@7yc\xb8\x7f\'\x11@\xf9%\x91\x856\x07\x0e@"0C\xa0\xda\xfc\x15@"0C\xa0\xda\xfc\x15@\x8f\xcd\x0edVe\x17@\xac\xd7F\x90\t\xc4\x15@"0C\xa0\xda\xfc\x15@\x02\xda\x9bL\xec\xa2\x1d@\x8f\xcd\x0edVe\x17@\xd2\x1eR\x85\xcf\xf6\xc4\xbf\xc7|;\'\x9fH\'@\xd7\xa3\xdb\x8d\x8d\x03\x0b\xc0<\xa1\xf1\xa6R\x82\x03@^U\xb5\xdc\xdaZ\x0c@\xdf\t\xe4\xca\xfd^\n@\x90\xcd\x0edVe\x17@\xaez$(\x92\x1a\x11@\x8f\xcd\x0edVe\x17@=nz\xe0v\xe8\x1a@\x8f\xcd\x0edVe\x17@"0C\xa0\xda\xfc\x15@7yc\xb8\x7f\'\x11@\x8f\xcd\x0edVe\x17@@\xa2\x9e\xdb\xf7\x9a\x08@\xce\xf2$eM:\x17@\xf9%\x91\x856\x07\x0e@\xe1\xa3\x8bJ\x86\xaf!@\xceN\x1d\x06\\#\x12@7yc\xb8\x7f\'\x11@7yc\xb8\x7f\'\x11@\x8f\xcd\x0edVe\x17@\x8f\xcd\x0edVe\x17@\x10\xb5\xafN,\x8f @)\x9f\x08~\x16B\x0c@\xaez$(\x92\x1a\x11@\x03\x01\xc3\xa9\x89\x05\x1e@7yc\xb8\x7f\'\x11@\xa5\xc4,\xccj\xe4\x1c@"0C\xa0\xda\xfc\x15@^\xb4\xd9\xc6\xc0C\x17@g\x1f\xb9)1\xc8\x1e@\xe0p\xe9\xbd%H\x01@D\xbb\x04\x18\x8b\xac\n@\xa8\x05Y\x1c \x1c\x1d@\x8f\xcd\x0edVe\x17@l\xa7\n>\xf8\xc4\x18@\x03\xa23e!\xda\x1d@7yc\xb8\x7f\'\x11@7yc\xb8\x7f\'\x11@\x8f\xcd\x0edVe\x17@\xb5~W\x80S\x99\x16@\xa5\xc4,\xccj\xe4\x1c@[@\x16\x92\x9b\xa7\xf8\xbf_\xe5T\xffc\x82*@\xf9%\x91\x856\x07\x0e@0\xad*qn\x87\x13@7\xa6,\xac\xba\x81 @\xf9%\x91\x856\x07\x0e@0\x1a\xd3/Q\xe2%@\x8f\xcd\x0edVe\x17@s6`\xb9\xba4\x18@\x8f\xcd\x0edVe\x17@7\xa6,\xac\xba\x81 @l&\xbd\xb0\xe9\xb3\x1e@\\Ml1!\x82\x1e@JJ5v\xca\xff\x1b@0\x1a\xd3/Q\xe2%@7yc\xb8\x7f\'\x11@)\x11\xf8L?\x04\x14@n\xa64\xefG\xa4\x16@\x80\xac\xc0\xbf\xc9\x17\x16@\xf9%\x91\x856\x07\x0e@7yc\xb8\x7f\'\x11@!0C\xa0\xda\xfc\x15@y\xa9\x15\xe6eG%@\xf9%\x91\x856\x07\x0e@\x8f\xcd\x0edVe\x17@7yc\xb8\x7f\'\x11@7yc\xb8\x7f\'\x11@\x8f\xcd\x0edVe\x17@\x8f\xcd\x0edVe\x17@1\xb3B\x0cFK\x1e@"0C\xa0\xda\xfc\x15@\x8f\xcd\x0edVe\x17@\xa5\xb8\xd6\xfc\xc8\xf1\x10@7\xa6,\xac\xba\x81 @\xc7|;\'\x9fH\'@\xaez$(\x92\x1a\x11@B\xd5\x9cM\x04\xee\xf4?7yc\xb8\x7f\'\x11@\xd1~>y\xee\x84\xfd?\x0b\n\xcc\x8c\xd7\x9d\x05@\xa8\x05Y\x1c \x1c\x1d@\x90\x15uGd\x17\xc3\xbf\xf3\xcep\x8f8\xd4)@\xf2\x94\xf3\xb8\xf1\xc8\x04@\xf9%\x91\x856\x07\x0e@\x8f\xcd\x0edVe\x17@\x8f\xcd\x0edVe\x17@7yc\xb8\x7f\'\x11@~e%`s\xdf!@7yc\xb8\x7f\'\x11@\x8f\xcd\x0edVe\x17@\x8f\xcd\x0edVe\x17@"0C\xa0\xda\xfc\x15@\x8f\xcd\x0edVe\x17@c(\xfeV.Y\xf3?7yc\xb8\x7f\'\x11@7yc\xb8\x7f\'\x11@\xa2\xa4n\xe1\xbb\x8f\x17@7yc\xb8\x7f\'\x11@\xceo|\xe5zt\x04@7yc\xb8\x7f\'\x11@"0C\xa0\xda\xfc\x15@7\xa6,\xac\xba\x81 @\xf9%\x91\x856\x07\x0e@\xaez$(\x92\x1a\x11@\xbc\xb2\xd4B\xaek!@m\x0b\xab\xa8\x9e\xe8\x1b@\xf9%\x91\x856\x07\x0e@\xf9%\x91\x856\x07\x0e@7yc\xb8\x7f\'\x11@e\x1e\xa4t\xfd\x84\x1a@g\x1f\xb9)1\xc8\x1e@\xa2\xa4n\xe1\xbb\x8f\x17@7\xa6,\xac\xba\x81 @7yc\xb8\x7f\'\x11@7yc\xb8\x7f\'\x11@\xaez$(\x92\x1a\x11@"0C\xa0\xda\xfc\x15@\x8d\xd5:\xe5\xd0\x85\x1e@&\xe4c\xf5\x1b\xe7\x14@"0C\xa0\xda\xfc\x15@7yc\xb8\x7f\'\x11@"0C\xa0\xda\xfc\x15@\xa5\xc4,\xccj\xe4\x1c@eY\xf4\x10U\x16\x10@\x8f\xcd\x0edVe\x17@"0C\xa0\xda\xfc\x15@\xfc=T5\x97\x96\x03@\x8f\xcd\x0edVe\x17@7\xa6,\xac\xba\x81 @\xee\xde%&\xc8\x8a\x1e@m\x0b\xab\xa8\x9e\xe8\x1b@7\xa6,\xac\xba\x81 @7yc\xb8\x7f\'\x11@"0C\xa0\xda\xfc\x15@7yc\xb8\x7f\'\x11@\x8f\xcd\x0edVe\x17@7yc\xb8\x7f\'\x11@"0C\xa0\xda\xfc\x15@\xaez$(\x92\x1a\x11@\x87\xff\x80I\x0bA$@"0C\xa0\xda\xfc\x15@\xa5\xc4,\xccj\xe4\x1c@gy\xd5\x1a\x0e\xb7\x19@^d]\x8a\x85\xa3\x19@7yc\xb8\x7f\'\x11@\xc7|;\'\x9fH\'@\xe3\xa7\x86Y/\x14\x1a@\xc7|;\'\x9fH\'@\x8f\xcd\x0edVe\x17@\xb0\xa2\x0fxc\x83\x13@c\x1bF\'\xdex\xf9?\x8f\xcd\x0edVe\x17@\x8f\xcd\x0edVe\x17@\x8f\xcd\x0edVe\x17@\x8f\xcd\x0edVe\x17@\xf9%\x91\x856\x07\x0e@\xa5\x03\xd3s\xf2!\x16@7yc\xb8\x7f\'\x11@\xbf\xd2\xa2\x19\xd2\xd4\x1b@\xaez$(\x92\x1a\x11@\x8f\xcd\x0edVe\x17@\xbd\xe2D\x1b\x8e\xd1\x16@\x1bC\x00\xdcS\xff!@\xed\xf9.J\x1b\xa9\x1e@y\xa9\x15\xe6eG%@"0C\xa0\xda\xfc\x15@F\x03s\x8b\x9c\x96\x15@\x8f\xcd\x0edVe\x17@7yc\xb8\x7f\'\x11@7\xa6,\xac\xba\x81 @\x8f\xcd\x0edVe\x17@`\x1f\xb9)1\xc8\x1e@\x8f\xcd\x0edVe\x17@\xc8/\xe6\xf3\x80>\xfe?\x8f\xcd\x0edVe\x17@\x8f\xcd\x0edVe\x17@\xa1\x10\xe8\x97\xa7\x9f\x0c@1\xd3oli4"@0\x1a\xd3/Q\xe2%@"0C\xa0\xda\xfc\x15@\x8f\xcd\x0edVe\x17@0\x1a\xd3/Q\xe2%@ybV]\xc1\xbe\x0f@u\x83GT\xbd\x8d\x1b@7yc\xb8\x7f\'\x11@(\xf6\xaf\xe75\x04"@\xf4\x87\xf8\x19\x13\xb4\x1d@"0C\xa0\xda\xfc\x15@\xf7d\xc5\x1eD\x81\x13@7yc\xb8\x7f\'\x11@\xc7|;\'\x9fH\'@"0C\xa0\xda\xfc\x15@\x8f\xcd\x0edVe\x17@\x8a\x9c\x95Q\xaf\r\'@\x0b$:\x1e>[\x12\xc0"0C\xa0\xda\xfc\x15@g\x1f\xb9)1\xc8\x1e@7yc\xb8\x7f\'\x11@\x8f\xcd\x0edVe\x17@\x8f\xcd\x0edVe\x17@7yc\xb8\x7f\'\x11@7yc\xb8\x7f\'\x11@\x8f\xcd\x0edVe\x17@7yc\xb8\x7f\'\x11@\x8f\xcd\x0edVe\x17@\xf9%\x91\x856\x07\x0e@7yc\xb8\x7f\'\x11@@\xa2\x9e\xdb\xf7\x9a\x08@\xd4\xc4C\x82\x90\x06\x1a@\xb8\x13\x01~\xb97\x16@g\x1f\xb9)1\xc8\x1e@0\x1a\xd3/Q\xe2%@\xb6\x83\xb7p\x7fe @\x04\x801\xf1\xd6c&@\xf9%\x91\x856\x07\x0e@g\x1f\xb9)1\xc8\x1e@\xaez$(\x92\x1a\x11@3\xa6,\xac\xba\x81 @\x92\xdb\x16L\xa21\x16@\x10OD\xb6*\xd5\x19@\x8f\xcd\x0edVe\x17@y\xa9\x15\xe6eG%@\xd9\xe2=\xe0DY\x0f@\x8f\xcd\x0edVe\x17@u4\xeb\xe4\x01\xae\x07@\xa8\x05Y\x1c \x1c\x1d@\x998\x82@\xceh\x11@\xaez$(\x92\x1a\x11@0\x1a\xd3/Q\xe2%@\xaez$(\x92\x1a\x11@7yc\xb8\x7f\'\x11@\x8f\xcd\x0edVe\x17@7yc\xb8\x7f\'\x11@7yc\xb8\x7f\'\x11@\x8f\xcd\x0edVe\x17@A\x0c\xfe\xa6}Y\x1b@\x8f\xcd\x0edVe\x17@\xd4\xc4C\x82\x90\x06\x1a@`\x1f\xb9)1\xc8\x1e@\x8f\xcd\x0edVe\x17@\x8f\xcd\x0edVe\x17@"0C\xa0\xda\xfc\x15@7yc\xb8\x7f\'\x11@WFJN\xb4\xf2\x1d@\x8f\xcd\x0edVe\x17@\x8f\xcd\x0edVe\x17@0\xa6,\xac\xba\x81 @\n\xff\xc1\x81\xcbi#@\x8f\xcd\x0edVe\x17@*\xb7\xaa#&\x7f\x1b@\xcf\x8c\x90\xb2\xd3\xee\x15@8w\xb4pk7\x04@\xf1\x8eL\x0bjC"@\xd0\x8d\xe56\x11\xe5\xcb\xbfw \xf3\xc3\xd3]!@\xbd\x1d;\'\xbf\xfa\x13@\xaez$(\x92\x1a\x11@"0C\xa0\xda\xfc\x15@\xda\xd4\xe6d\xe1\xc4$@\xf9\xe5\xa1/\xcc\xe0\x0f@g\x1f\xb9)1\xc8\x1e@\x8f\xcd\x0edVe\x17@\xf9_"4Y\x19\x1f@\xd6\xb1\x1cozY\x13@7\xa6,\xac\xba\x81 @\xca\xc7\x8b!\xac\xc5\x1e@\xff)\xb9\x9f\x00\x13\x0b@\xa8\x05Y\x1c \x1c\x1d@7yc\xb8\x7f\'\x11@=nz\xe0v\xe8\x1a@"0C\xa0\xda\xfc\x15@"0C\xa0\xda\xfc\x15@7\xa6,\xac\xba\x81 @"0C\xa0\xda\xfc\x15@p\xf7ly\x8aE&@\x8f\xcd\x0edVe\x17@.\xc5D\xf5j\xc5\x1d@\x15\xbc6q\xe0\xcb\x04@g\x1f\xb9)1\xc8\x1e@7\xa6,\xac\xba\x81 @\x91\xcd\xf6\xdbmV\x0c@7yc\xb8\x7f\'\x11@\xc6\xd6\x86\xb4\xd1\x04\x19@\x8f\xcd\x0edVe\x17@7\xa6,\xac\xba\x81 @\x8f\xcd\x0edVe\x17@"0C\xa0\xda\xfc\x15@e\x1e\xa4t\xfd\x84\x1a@\x8f\xcd\x0edVe\x17@f6\xbbFB>\x19@\xaez$(\x92\x1a\x11@\xd5\x88\x11\xf8\x9b\xd6\x10@@\xa2\x9e\xdb\xf7\x9a\x08@\xf9\xe5\xa1/\xcc\xe0\x0f@\xf9%\x91\x856\x07\x0e@\x1c\xea\xb8]\xe8\x90\x18@\x12\xae\xeeG2T!@\x8f\xcd\x0edVe\x17@v\t\x82\x15\x89t\x18@\x10OD\xb6*\xd5\x19@\x8f\xcd\xe2\xbb\xcd\xe6"@\x1az\xb6) \xe2"@7yc\xb8\x7f\'\x11@7yc\xb8\x7f\'\x11@7yc\xb8\x7f\'\x11@\xfd(\xabJO\x90 @\x8f\xcd\x0edVe\x17@e\x1e\xa4t\xfd\x84\x1a@\xef\xe3\xedlk\xe4\x1e@7yc\xb8\x7f\'\x11@\x01\xf49D\xde@\x1c@7\xa6,\xac\xba\x81 @7yc\xb8\x7f\'\x11@7yc\xb8\x7f\'\x11@H6#4t\xb4\r@7\xa6,\xac\xba\x81 @"0C\xa0\xda\xfc\x15@\x8f\xcd\x0edVe\x17@\xf8\\\xbe\x89\xa7\x7f\xf8?7\xa6,\xac\xba\x81 @\xf9%\x91\x856\x07\x0e@;\xd1\xf9\xdf3(\x1d@.\x08v\xd0\x7f1\x0f@\xc45\xdc\xd8\x96\x8d\x16@"0C\xa0\xda\xfc\x15@g\x1f\xb9)1\xc8\x1e@\x8f\xcd\x0edVe\x17@7\xa6,\xac\xba\x81 @7yc\xb8\x7f\'\x11@\xf9_"4Y\x19\x1f@X\x86\xc2o\x93&\x1d@\rH\x95G\x84Q\x0f@g\x1f\xb9)1\xc8\x1e@7yc\xb8\x7f\'\x11@1\x16\x85\xbf\x00\xca\x12@7yc\xb8\x7f\'\x11@\x84\xcaY\xd6\xe3\xcc\x1f@7\xa6,\xac\xba\x81 @{\x8b2\xd0]n\x17@g\x1f\xb9)1\xc8\x1e@"0C\xa0\xda\xfc\x15@1\xd3oli4"@m\x0b\xab\xa8\x9e\xe8\x1b@\x89\xde\x18\x1blL\x19@7\xa6,\xac\xba\x81 @s\xa9\x15\xe6eG%@g\x1f\xb9)1\xc8\x1e@\xa5\xc4,\xccj\xe4\x1c@\xf9%\x91\x856\x07\x0e@\x8f\xcd\x0edVe\x17@\xbf\x816\x10a*\x1a@\x8f\xcd\x0edVe\x17@7yc\xb8\x7f\'\x11@\xf9%\x91\x856\x07\x0e@\xaez$(\x92\x1a\x11@7yc\xb8\x7f\'\x11@\xfd\xf9\x0f\xc2\xd2\xfe\x18@\xf9%\x91\x856\x07\x0e@7yc\xb8\x7f\'\x11@\x8f\xcd\x0edVe\x17@\xf9%\x91\x856\x07\x0e@\x8f\xcd\x0edVe\x17@V\xdc\x86p\xaa\xbd)@q%Qd\xef\xe7\x16@\xa8\x05Y\x1c \x1c\x1d@m\x0b\xab\xa8\x9e\xe8\x1b@0\x1a\xd3/Q\xe2%@\xaez$(\x92\x1a\x11@\x8f\xcd\x0edVe\x17@\x04\x801\xf1\xd6c&@\x8f\xcd\x0edVe\x17@\x8f\xcd\x0edVe\x17@7\xa6,\xac\xba\x81 @\xaez$(\x92\x1a\x11@y\xa9\x15\xe6eG%@\x05\x95\x18M\xeep\n@7yc\xb8\x7f\'\x11@\x8f\xcd\x0edVe\x17@\x90\xcd\x0edVe\x17@u\x8b\x83\x88\\;#@RQ\xb25\x99"\n@"0C\xa0\xda\xfc\x15@\x8f\xcd\x0edVe\x17@7yc\xb8\x7f\'\x11@\x8f\xcd\x0edVe\x17@\xd0\x12\x7f\x02\xbbx"@\x8f\xcd\x0edVe\x17@7yc\xb8\x7f\'\x11@\x8f\xcd\x0edVe\x17@g\x1f\xb9)1\xc8\x1e@7yc\xb8\x7f\'\x11@7yc\xb8\x7f\'\x11@7yc\xb8\x7f\'\x11@\x8f\xcd\x0edVe\x17@\xa5\xc4,\xccj\xe4\x1c@\x8f\xcd\x0edVe\x17@7yc\xb8\x7f\'\x11@\x8f\xcd\x0edVe\x17@|\xf6\xba`5\x80 @\x8f\xcd\x0edVe\x17@7yc\xb8\x7f\'\x11@\xb2\x18\xa7\x16] \x13@\x1d-)\xeb^B\x1a@\xc3\x8d\xfcs\x9eP\x12@\xb2\'\xaf\xcb\xc0o\'@"0C\xa0\xda\xfc\x15@7yc\xb8\x7f\'\x11@\xf9%\x91\x856\x07\x0e@\x03+L\x8c\xe8\x0b\x14@\xa4\xf1\x0e\xce\n\xf0\x1c@\xee\xde%&\xc8\x8a\x1e@g\x1f\xb9)1\xc8\x1e@g\x1f\xb9)1\xc8\x1e@7yc\xb8\x7f\'\x11@\x8f\xcd\x0edVe\x17@\x8f\xcd\x0edVe\x17@g\x1f\xb9)1\xc8\x1e@\x8f\xcd\x0edVe\x17@@\xa2\x9e\xdb\xf7\x9a\x08@\x8f\xcd\x0edVe\x17@7yc\xb8\x7f\'\x11@\x8f\xcd\x0edVe\x17@g\x1f\xb9)1\xc8\x1e@\x8f\xcd\x0edVe\x17@\xaez$(\x92\x1a\x11@#\x93_9\x13\xba\x1a@\xaez$(\x92\x1a\x11@\x8f\xcd\x0edVe\x17@\xc7|;\'\x9fH\'@\r\xc5G\xe3<}\x1b@(\x1a\xd3/Q\xe2%@\xf9%\x91\x856\x07\x0e@0\x1a\xd3/Q\xe2%@7yc\xb8\x7f\'\x11@/\xfb\x95\x84i\x10\x11@\xaez$(\x92\x1a\x11@\xfd\xc0t\x9c7\xd9\xf7\xbf\x8f\xcd\x0edVe\x17@\x8f\xcd\x0edVe\x17@\xee\xca\x82\x00\x90\x89\x06\xc07yc\xb8\x7f\'\x11@H6#4t\xb4\r@(j\x12\xb6x\xcb\x0c@Q\xdc\x86p\xaa\xbd)@\x9a\xa4\x8b\x17\x1b`\xd0\xbf\xaez$(\x92\x1a\x11@"0C\xa0\xda\xfc\x15@7\xa6,\xac\xba\x81 @7yc\xb8\x7f\'\x11@7yc\xb8\x7f\'\x11@\xf9%\x91\x856\x07\x0e@7yc\xb8\x7f\'\x11@\xd0\x0en\xab\xe2\x8f\x1e@\xf4\x87\xf8\x19\x13\xb4\x1d@(\x8f\xe13nY\x1c@b\xee\xade\xecK\x19@\xea#R\xf2\xdc\xb1\x19@g\x1f\xb9)1\xc8\x1e@"0C\xa0\xda\xfc\x15@7yc\xb8\x7f\'\x11@5yc\xb8\x7f\'\x11@j\\\xba\xf4\x03\xf3\x1a@E\xedG\xb1\x07\xc9\x15@\xaez$(\x92\x1a\x11@7\xa6,\xac\xba\x81 @#\x8e\xed\xdb,D\x0e\xc01\xd3oli4"@`\x1f\xb9)1\xc8\x1e@"0C\xa0\xda\xfc\x15@\xc2\xc6\xdf\x9df\x88\x1a@"0C\xa0\xda\xfc\x15@\xf9%\x91\x856\x07\x0e@\xf9_"4Y\x19\x1f@{\x03a\x88(\xd5\x0b@\x8f\xcd\x0edVe\x17@\xfd\xf9\x0f\xc2\xd2\xfe\x18@N\xa8\xcf\x90\xa1P @"0C\xa0\xda\xfc\x15@\xf9%\x91\x856\x07\x0e@\xf9%\x91\x856\x07\x0e@\x0f\xc0\x95\xff\x0f\xf4\x11@\x8f\xcd\x0edVe\x17@7yc\xb8\x7f\'\x11@\x8f\xcd\x0edVe\x17@\x99\xc8\xa6a\xfb\xf0\xf6?\x8f\xcd\x0edVe\x17@7yc\xb8\x7f\'\x11@\xf9%\x91\x856\x07\x0e@\x90\xcd\x0edVe\x17@1\xd3oli4"@\xee\xccW\xc5\xcfa\x04@7\xa6,\xac\xba\x81 @\xb5\xa1\xf7\xbbj\xac\x05@\x8f\xcd\x0edVe\x17@g\x1f\xb9)1\xc8\x1e@Y\xf4\xca>\xf1z\x0e@\xa8\x05Y\x1c \x1c\x1d@\x8f\xcd\x0edVe\x17@K\xeci\xbaT5(@\xe3\xffuq\x88h\xf7\xbf7\xa6,\xac\xba\x81 @\xf9%\x91\x856\x07\x0e@7yc\xb8\x7f\'\x11@0\x1a\xd3/Q\xe2%@\x8f\xcd\x0edVe\x17@"0C\xa0\xda\xfc\x15@\x8f\xcd\x0edVe\x17@7yc\xb8\x7f\'\x11@\x99y\n\x99\xfd&\x18@\x8f\xcd\x0edVe\x17@\x8f\xcd\x0edVe\x17@z\xef1\x90K;\xc5\xbf7yc\xb8\x7f\'\x11@A\x81\x83J]"\n@"0C\xa0\xda\xfc\x15@"0C\xa0\xda\xfc\x15@\x8f\xcd\x0edVe\x17@\xaez$(\x92\x1a\x11@\x8f\xcd\x0edVe\x17@7yc\xb8\x7f\'\x11@\x8f\xcd\x0edVe\x17@\x98,\xcdJH\xb6\x11@"0C\xa0\xda\xfc\x15@\x8f\xcd\x0edVe\x17@"0C\xa0\xda\xfc\x15@\x8f\xcd\x0edVe\x17@\xd4\r\x9f)\xb2$\x10@7yc\xb8\x7f\'\x11@\xf1u\x1c\xca\x9dI\x1a@\x1a\xce\xb6\xff[\xdf\x1b@\x10OD\xb6*\xd5\x19@#\xeex\x00q*\x19@\x90\xcd\x0edVe\x17@7\xa6,\xac\xba\x81 @7yc\xb8\x7f\'\x11@\x8f\xcd\x0edVe\x17@"0C\xa0\xda\xfc\x15@(\x1a\xd3/Q\xe2%@\x8f\xcd\x0edVe\x17@\x90\xcd\x0edVe\x17@3\xa6,\xac\xba\x81 @\xcf\x8fkk\x96\xcb\x1e@7yc\xb8\x7f\'\x11@s}\x02MW\xa1\x01@I\x03s\x8b\x9c\x96\x15@\x8f\xcd\x0edVe\x17@^U\xb5\xdc\xdaZ\x0c@!x\xbbu\x0b\xdb\x17@\xee\xde%&\xc8\x8a\x1e@\xaez$(\x92\x1a\x11@\xef(\xcb8\x08\xe8\x1b@\x8f\xcd\x0edVe\x17@\x8f\xcd\x0edVe\x17@\xd1\xc6\x16\xf4\x11\xad @\x8f\xcd\x0edVe\x17@7yc\xb8\x7f\'\x11@\xb2D\x91O\xb3\xd4\x12@\x17\x1a\x87\x83:\xce\x19@\xc4\xcaq\xddF\xbb\x17@F\xbbq=K\xf6\x1d@/\xfb\x95\x84i\x10\x11@\xe3\xa7\x86Y/\x14\x1a@\x8f\xcd\x0edVe\x17@%H{\xca\xab\x0b!@"0C\xa0\xda\xfc\x15@\x86\x8e\xbc\x03@R\x10@7yc\xb8\x7f\'\x11@\xf9%\x91\x856\x07\x0e@7\xa6,\xac\xba\x81 @"0C\xa0\xda\xfc\x15@\xf9%\x91\x856\x07\x0e@\x10OD\xb6*\xd5\x19@\xff\r\xfaF\xa1\x98\x14@\xf9\xe5\xa1/\xcc\xe0\x0f@x\xd2#L\x93\xb4\x13@n\xa64\xefG\xa4\x16@g\x1f\xb9)1\xc8\x1e@\xf9%\x91\x856\x07\x0e@@\xa2\x9e\xdb\xf7\x9a\x08@7yc\xb8\x7f\'\x11@6\xa0s\x1b\xa4\x97\xe4\xbf7yc\xb8\x7f\'\x11@\xf9%\x91\x856\x07\x0e@\xdcY\x83{\xfc\r\xf8?\xf0\xe41>V\xfa\x13@\x8f\xcd\x0edVe\x17@"0C\xa0\xda\xfc\x15@7yc\xb8\x7f\'\x11@\x8f\xcd\x0edVe\x17@7yc\xb8\x7f\'\x11@7yc\xb8\x7f\'\x11@"0C\xa0\xda\xfc\x15@\xa7\x06\xcewH7\x19@\x13(\x9b\xd2:8\x01@7yc\xb8\x7f\'\x11@\x03+L\x8c\xe8\x0b\x14@\x8f\xcd\x0edVe\x17@7yc\xb8\x7f\'\x11@(\x1a\xd3/Q\xe2%@g\x1f\xb9)1\xc8\x1e@\xee\xde%&\xc8\x8a\x1e@\xf9%\x91\x856\x07\x0e@\x8f\xcd\x0edVe\x17@0\x1a\xd3/Q\xe2%@\x8f\xcd\x0edVe\x17@\x95>g\xcd[\xf1\x0f@\x8f\xcd\x0edVe\x17@\xaez$(\x92\x1a\x11@\xfd\xf9\x0f\xc2\xd2\xfe\x18@\rH\x95G\x84Q\x0f@\x10OD\xb6*\xd5\x19@qB\x874\xbdS\x1d@\x8f\xcd\x0edVe\x17@c\xefy\x0c\xb2%!@7yc\xb8\x7f\'\x11@\x8f\xcd\x0edVe\x17@\xf9%\x91\x856\x07\x0e@|\xf6\xba`5\x80 @\xb8\t\xa9\x10j\xe7\xd3?\xa8\x05Y\x1c \x1c\x1d@\x8f\xcd\x0edVe\x17@7yc\xb8\x7f\'\x11@/\xfb\x95\x84i\x10\x11@\xf9%\x91\x856\x07\x0e@\x8f\xcd\x0edVe\x17@S:^Rb5\x17@"0C\xa0\xda\xfc\x15@\x9ey\xadX\xec\xb4\x1e@\xa2T\x97%\x0e\xf8\x0b@\x1d\xde\x05\xfa\xb6\xd2\x1e@\x8f\xcd\x0edVe\x17@\xe2y^\xa1R\xdc\x1a@y\xa9\x15\xe6eG%@\rH\x95G\x84Q\x0f@\'\xd1~t\xa8`\x1a@\xad[~|\xbd}\x1c@\x8f\xcd\x0edVe\x17@ej\x91\x11\x8d\x19\x0c@7yc\xb8\x7f\'\x11@0\x1a\xd3/Q\xe2%@7\xa6,\xac\xba\x81 @\x8f\xcd\x0edVe\x17@!0C\xa0\xda\xfc\x15@\x8f\xcd\x0edVe\x17@\x06\xd1>\x9c\x84?\x19@\x86\x8e\xbc\x03@R\x10@7yc\xb8\x7f\'\x11@\xf9%\x91\x856\x07\x0e@A\xac\t}+\xb7\x1a@>F\xc89\x8f\x18 @7yc\xb8\x7f\'\x11@7yc\xb8\x7f\'\x11@\x021\xe7\r:\x89\x1b@\xe3\xb5\x8e\'\x17\x94\x01@3\xa6,\xac\xba\x81 @7yc\xb8\x7f\'\x11@\x7f\xe7\xdag\xdb\x8e\x16@\xf9%\x91\x856\x07\x0e@7\xa6,\xac\xba\x81 @7yc\xb8\x7f\'\x11@\x8f\xcd\x0edVe\x17@1\xd3oli4"@y\x89\xccn\t\xa2\x1c@g\x1f\xb9)1\xc8\x1e@\xe1\x1e\x0f\x1e\x0c\x9b\x01@\xc7\\\xb33Q\x18\x03@e\x1e\xa4t\xfd\x84\x1a@7yc\xb8\x7f\'\x11@7yc\xb8\x7f\'\x11@qTs\x18<A\x05@\xa8\x05Y\x1c \x1c\x1d@\x1az\xb6) \xe2"@"0C\xa0\xda\xfc\x15@\'\xf8\x0c\xf3\xeb\r\x00@"0C\xa0\xda\xfc\x15@g\x1f\xb9)1\xc8\x1e@\x8f\xcd\x0edVe\x17@\x8f\xcd\x0edVe\x17@\xaez$(\x92\x1a\x11@\x8f\xcd\x0edVe\x17@7yc\xb8\x7f\'\x11@\xf9%\x91\x856\x07\x0e@\xaez$(\x92\x1a\x11@7yc\xb8\x7f\'\x11@\x8f\xcd\x0edVe\x17@7yc\xb8\x7f\'\x11@\xf9%\x91\x856\x07\x0e@\xaez$(\x92\x1a\x11@\xc7|;\'\x9fH\'@A\xac\t}+\xb7\x1a@\x8f\xcd\x0edVe\x17@\xe3\xa7\x86Y/\x14\x1a@\xd9\x054s\x06#\x07@\xacX5\xbe\x06|\x10@7\xa6,\xac\xba\x81 @\x8f\xcd\x0edVe\x17@\x8f\xcd\x0edVe\x17@7yc\xb8\x7f\'\x11@\x8f\xcd\x0edVe\x17@\x8f\xcd\x0edVe\x17@\x8f\xcd\x0edVe\x17@\xf9%\x91\x856\x07\x0e@\xf3\x82\x07\x8c\x9a\x93\x17@i\x14\xad\xc6\xf5J\x1e@"0C\xa0\xda\xfc\x15@7yc\xb8\x7f\'\x11@\x9b\xe0\xa3\x86\x15\xa8\x07@\x8f\xcd\x0edVe\x17@\x8f\xcd\x0edVe\x17@\x8f\xcd\x0edVe\x17@"0C\xa0\xda\xfc\x15@\xf9_"4Y\x19\x1f@"0C\xa0\xda\xfc\x15@\xaez$(\x92\x1a\x11@\\\xaf\xc9\xbel\x15/@7yc\xb8\x7f\'\x11@\x8f\xcd\x0edVe\x17@7\xa6,\xac\xba\x81 @\x8f\xcd\x0edVe\x17@7yc\xb8\x7f\'\x11@\xae\xfeY\xbb\xbc\xc4\x19@\xf9_"4Y\x19\x1f@1\xd3oli4"@\xf9%\x91\x856\x07\x0e@\x98\xcd\x0edVe\x17@T\xe3\x99\x86IM\x12@o\xa64\xefG\xa4\x16@\x87\xff\x80I\x0bA$@/\xfb\x95\x84i\x10\x11@\x8f\xcd\x0edVe\x17@\x8f\xcd\x0edVe\x17@I\x07\xae\x9a5C @\x92\xb8I\xe0\xe1\x1a\x17@\x13(\x9b\xd2:8\x01@\xf9%\x91\x856\x07\x0e@"0C\xa0\xda\xfc\x15@\xf9%\x91\x856\x07\x0e@\x8f\xcd\x0edVe\x17@\xc2\xb6\xd9\n\x95\xcf\x14@\x8f\xcd\x0edVe\x17@"0C\xa0\xda\xfc\x15@7yc\xb8\x7f\'\x11@"0C\xa0\xda\xfc\x15@7\xa6,\xac\xba\x81 @g\x1f\xb9)1\xc8\x1e@\x8f\xcd\x0edVe\x17@7yc\xb8\x7f\'\x11@\x8f\xcd\x0edVe\x17@\x8d\xaa\x8bbb\xc5\xcc?\xf9%\x91\x856\x07\x0e@s\xc7\x14s\xd6\xd7\xf1?\x8f\xcd\x0edVe\x17@"0C\xa0\xda\xfc\x15@I\x03s\x8b\x9c\x96\x15@\x8f\xcd\x0edVe\x17@7yc\xb8\x7f\'\x11@\x8f\xcd\x0edVe\x17@7yc\xb8\x7f\'\x11@\x0f\x99}L\xcb\xa6\x0e@7\xa6,\xac\xba\x81 @7yc\xb8\x7f\'\x11@7yc\xb8\x7f\'\x11@\xa4\xf1\x0e\xce\n\xf0\x1c@1\xd3oli4"@\x8f\xcd\x0edVe\x17@\xf9\xe5\xa1/\xcc\xe0\x0f@\xf9%\x91\x856\x07\x0e@7yc\xb8\x7f\'\x11@3E\x08\xd4\x99\x91\xd0?\xaez$(\x92\x1a\x11@\x8f\xcd\x0edVe\x17@\x8f\xcd\x0edVe\x17@g\x1f\xb9)1\xc8\x1e@y\xa9\x15\xe6eG%@\x8f\xcd\x0edVe\x17@e\x1e\xa4t\xfd\x84\x1a@\x99y\n\x99\xfd&\x18@\xf9%\x91\x856\x07\x0e@0\x1a\xd3/Q\xe2%@\x87,\xfe.\xf9\xc6!@\xe7\xd6\xfe\xac\xefL\xf1\xbf7yc\xb8\x7f\'\x11@\xe6;\t6\xcbi#@\x8f\xcd\x0edVe\x17@\x8f\xcd\x0edVe\x17@7yc\xb8\x7f\'\x11@g\x1f\xb9)1\xc8\x1e@\x8f\xcd\x0edVe\x17@\xf9%\x91\x856\x07\x0e@7yc\xb8\x7f\'\x11@\xb3L\x11!E\x0e\x1b@7yc\xb8\x7f\'\x11@7yc\xb8\x7f\'\x11@g\x1f\xb9)1\xc8\x1e@b\xee\xade\xecK\x19@"0C\xa0\xda\xfc\x15@\xc7|;\'\x9fH\'@7yc\xb8\x7f\'\x11@"0C\xa0\xda\xfc\x15@\xdb\x9e3\x1dD\xd7\x10@\x8f\xcd\x0edVe\x17@Xd-\x00\xf8\x83\x16@g\x1f\xb9)1\xc8\x1e@7\xa6,\xac\xba\x81 @7yc\xb8\x7f\'\x11@7yc\xb8\x7f\'\x11@\xdb\x0f\xce&:\x11\x00@e\x1e\xa4t\xfd\x84\x1a@7yc\xb8\x7f\'\x11@\x8f\xcd\x0edVe\x17@\x042\x00(\x94\x16\x19@7yc\xb8\x7f\'\x11@@\xa2\x9e\xdb\xf7\x9a\x08@\x8f\xcd\x0edVe\x17@D\x01;\x1b^y\x05@7yc\xb8\x7f\'\x11@7\xa6,\xac\xba\x81 @\xees\xab\x07U\x9e\x11@\xf9%\x91\x856\x07\x0e@|\xf6\xba`5\x80 @7\xa6,\xac\xba\x81 @7yc\xb8\x7f\'\x11@7\xa6,\xac\xba\x81 @1\xd3oli4"@\x8f\xcd\x0edVe\x17@7yc\xb8\x7f\'\x11@\x8f\xcd\x0edVe\x17@\xf4\x87\xf8\x19\x13\xb4\x1d@\xaez$(\x92\x1a\x11@1\xd3oli4"@\x8f\xcd\x0edVe\x17@\xf7\x82\xd6\xf6\xed\xed\x10@\x8f\xcd\x0edVe\x17@7yc\xb8\x7f\'\x11@\x8f\xcd\x0edVe\x17@\x9dP\xeb\xd5\xeen\x15@7\xa6,\xac\xba\x81 @7yc\xb8\x7f\'\x11@"0C\xa0\xda\xfc\x15@\x8f\xcd\x0edVe\x17@\xee\xde%&\xc8\x8a\x1e@\xf9%\x91\x856\x07\x0e@\x8f\xcd\x0edVe\x17@\x84\xd9\r\xcc\x85t\x01@\x19\xcf\xa6\xb0P\xb3\x15@\xaez$(\x92\x1a\x11@0\x1a\xd3/Q\xe2%@\xb2\x18\xa7\x16] \x13@\xf9%\x91\x856\x07\x0e@\x8f\xcd\x0edVe\x17@s\xd4\xcb\x88\xf8C\x10@\xf9%\x91\x856\x07\x0e@\x8f\xcd\x0edVe\x17@\xaez$(\x92\x1a\x11@\x7f5%\xeb\xa2\xf1\x12@7yc\xb8\x7f\'\x11@\x8f\xcd\x0edVe\x17@g\x1f\xb9)1\xc8\x1e@7yc\xb8\x7f\'\x11@7\x1f\xb5\x9eV\xf3 @/\xfb\x95\x84i\x10\x11@47D:S\x05 @\xb8\x92\xad\xb9\xb9c\x15@7yc\xb8\x7f\'\x11@\x8f\xcd\x0edVe\x17@g\x1f\xb9)1\xc8\x1e@"0C\xa0\xda\xfc\x15@\x8f\xcd\x0edVe\x17@1\xbc\xb3\xb7K\xd1\n@\x1f\x813\x10\xfe\xc7\x18@\x06\xb2PF\x84)\x1b@7yc\xb8\x7f\'\x11@\x8f\xcd\x0edVe\x17@\x81\xff\x80I\x0bA$@7yc\xb8\x7f\'\x11@\x9ey\xadX\xec\xb4\x1e@\x8f\xcd\x0edVe\x17@N\xc8\x07\x91\xfa\t\x14@\xf9%\x91\x856\x07\x0e@\x8f\xcd\x0edVe\x17@\xcf3/\x82\xfc\xab\xf6?\xec\xc3\x1b\xd8\xce3\x08@7yc\xb8\x7f\'\x11@\x9a\xd7\xdc}/\x93\x17@7\xa6,\xac\xba\x81 @7yc\xb8\x7f\'\x11@\x8f\xcd\x0edVe\x17@7yc\xb8\x7f\'\x11@\xfd^[o\xa9\x96 @\x8f\xcd\x0edVe\x17@\x15\xad\x1b\xaa\x04y\x11@\xbcV\xd99\x8d0\x12@\x19t0$|$\x1c@\xf9%\x91\x856\x07\x0e@\xf9%\x91\x856\x07\x0e@\x8f\xcd\x0edVe\x17@7yc\xb8\x7f\'\x11@\x10OD\xb6*\xd5\x19@\xc45\xdc\xd8\x96\x8d\x16@ \xe8\xa8\xd8\x98\xea\x12@7yc\xb8\x7f\'\x11@e\x1e\xa4t\xfd\x84\x1a@H6#4t\xb4\r@\x8f\xcd\x0edVe\x17@\xf9\x12\xa4\x1f R!@\xa1\xb1\xc5\xfcC\xb3\x04@\xb6:U\x8f.\xeb\x19@\x8f\xcd\x0edVe\x17@;^\xab=\xf6U&@0\x1a\xd3/Q\xe2%@7yc\xb8\x7f\'\x11@"0C\xa0\xda\xfc\x15@7\xa6,\xac\xba\x81 @\xf9%\x91\x856\x07\x0e@7yc\xb8\x7f\'\x11@7\xa6,\xac\xba\x81 @\x8f\xcd\x0edVe\x17@"0C\xa0\xda\xfc\x15@\x8f\xcd\x0edVe\x17@U\xa9W\x94G\xf8\x1e@"0C\xa0\xda\xfc\x15@\xee\xde%&\xc8\x8a\x1e@\xaez$(\x92\x1a\x11@\x8f\xcd\x0edVe\x17@g\x1f\xb9)1\xc8\x1e@\x8f\xcd\x0edVe\x17@4\xfc\x9cV\xb1\xe7\x1b@7\xa6,\xac\xba\x81 @\xb5\xd0\xd7}\xf3\xdb\x11@\xf9%\x91\x856\x07\x0e@\x8f\xcd\x0edVe\x17@\x8f\xcd\x0edVe\x17@\xc7|;\'\x9fH\'@\x8f\xcd\x0edVe\x17@"0C\xa0\xda\xfc\x15@7yc\xb8\x7f\'\x11@7yc\xb8\x7f\'\x11@\x95\xa4)\xd5G\t\x1f@7yc\xb8\x7f\'\x11@\xb0$\xcf\xbck\x01\x00@7yc\xb8\x7f\'\x11@7yc\xb8\x7f\'\x11@\\\xa2\xc1)Z\x1f\x14@7yc\xb8\x7f\'\x11@\xa8\x05Y\x1c \x1c\x1d@7yc\xb8\x7f\'\x11@\xc45\xdc\xd8\x96\x8d\x16@\x95\xa4)\xd5G\t\x1f@\xe3\x1f"\xb6\xd8\x99\x19@n\xc4\xa2\xa9\xc0\x1d\x14@7\xa6,\xac\xba\x81 @\x8f\xcd\x0edVe\x17@\x8f\xcd\x0edVe\x17@"0C\xa0\xda\xfc\x15@\xba\xda\x81\xa7K4\x1a@"0C\xa0\xda\xfc\x15@\x8f\xcd\x0edVe\x17@"0C\xa0\xda\xfc\x15@\xf9%\x91\x856\x07\x0e@\xf9%\x91\x856\x07\x0e@7yc\xb8\x7f\'\x11@\xb4[~|\xbd}\x1c@\x8f\xcd\x0edVe\x17@\x8f\xcd\x0edVe\x17@7yc\xb8\x7f\'\x11@1\xd3oli4"@ \xe8\xa8\xd8\x98\xea\x12@7yc\xb8\x7f\'\x11@\xf9%\x91\x856\x07\x0e@\xf9%\x91\x856\x07\x0e@\x03\xa23e!\xda\x1d@7yc\xb8\x7f\'\x11@\xf9%\x91\x856\x07\x0e@\rH\x95G\x84Q\x0f@\x8f\xcd\x0edVe\x17@\x8f\xcd\x0edVe\x17@"0C\xa0\xda\xfc\x15@"0C\xa0\xda\xfc\x15@7yc\xb8\x7f\'\x11@\xf1u\x1c\xca\x9dI\x1a@\x8f\xf1\xado\x95\xc8\x08@\x8f\xcd\x0edVe\x17@7yc\xb8\x7f\'\x11@\xc7|;\'\x9fH\'@\x8f\xcd\x0edVe\x17@\xf9%\x91\x856\x07\x0e@\xf9%\x91\x856\x07\x0e@\x11\xa8x~\xe2\xd3\x15@S\xc1\x1d\x83\xe8T#@\x8f\xcd\x0edVe\x17@\x8f\xcd\x0edVe\x17@\xbf>\xa8\xe9\xd5S\x14@\x8f\xcd\x0edVe\x17@=,\xca\xe4@V\x10@\x8f\xcd\x0edVe\x17@\x8f\xcd\x0edVe\x17@7yc\xb8\x7f\'\x11@"0C\xa0\xda\xfc\x15@\xd6-P\xfa\xfe\x8e\x1d@1\xd3oli4"@(\x1a\xd3/Q\xe2%@1\xbc\xb3\xb7K\xd1\n@\xe6\x85\x9a\xa3)C\x13@\xe6\x85\x9a\xa3)C\x13@7yc\xb8\x7f\'\x11@7yc\xb8\x7f\'\x11@7yc\xb8\x7f\'\x11@\x04\x801\xf1\xd6c&@g\x1f\xb9)1\xc8\x1e@7yc\xb8\x7f\'\x11@0\x1a\xd3/Q\xe2%@\xf9%\x91\x856\x07\x0e@\x8f\xcd\x0edVe\x17@7yc\xb8\x7f\'\x11@\x9c\xa5D@\xa9\x03\x10@\xaez$(\x92\x1a\x11@\xaez$(\x92\x1a\x11@b\xee\xade\xecK\x19@\xf9_"4Y\x19\x1f@\x8f\xcd\x0edVe\x17@7yc\xb8\x7f\'\x11@\xa5\xb8\xd6\xfc\xc8\xf1\x10@\x8f\xcd\x0edVe\x17@7yc\xb8\x7f\'\x11@</_\x995(\xe4?\xa2\xbd^\x18[g\x1a@/\xfb\x95\x84i\x10\x11@7yc\xb8\x7f\'\x11@7yc\xb8\x7f\'\x11@R\xe6\xb7hP0\x91?\x87,\xfe.\xf9\xc6!@\xf5\x16x\x15\x0f\xa7$@\xf9%\x91\x856\x07\x0e@\xf9%\x91\x856\x07\x0e@\xaaK|I\xff\xf8\n@g\x1f\xb9)1\xc8\x1e@\xb6T\xe0-\x9b\xcd @7yc\xb8\x7f\'\x11@\rH\x95G\x84Q\x0f@\xc7\xe4\xdc\xa2n\xc7\x01@\x10OD\xb6*\xd5\x19@\x8f\xcd\x0edVe\x17@\x8f\xcd\x0edVe\x17@\x8f\xcd\x0edVe\x17@\x8f\xcd\x0edVe\x17@\xf9%\x91\x856\x07\x0e@7\xa6,\xac\xba\x81 @7\xa6,\xac\xba\x81 @\x8f\xcd\x0edVe\x17@\x8f\xcd\x0edVe\x17@7yc\xb8\x7f\'\x11@\x99y\n\x99\xfd&\x18@\xed\xd7\xac;:\r&@\xf9%\x91\x856\x07\x0e@\xe3\xc2\xceZ\xf6\xda @"0C\xa0\xda\xfc\x15@\x8f\xcd\x0edVe\x17@\xd2\xf3\xf8\xd8\x89\xbd\x05@\xaez$(\x92\x1a\x11@@\xa2\x9e\xdb\xf7\x9a\x08@\xf9%\x91\x856\x07\x0e@2\xdb\x17\xf8\x8d\xc8\xe7?"0C\xa0\xda\xfc\x15@\xee\xde%&\xc8\x8a\x1e@\xf7\xf2\xcf.Y^\x17@\xe3\xc2\xceZ\xf6\xda @\xaez$(\x92\x1a\x11@\x8f\xcd\x0edVe\x17@\x8e3L^\xa4\x11\x10@\x9cj\xf2F\xc0_\n@\x8f\xcd\x0edVe\x17@\xf9%\x91\x856\x07\x0e@\x8f\xcd\x0edVe\x17@7yc\xb8\x7f\'\x11@\xaez$(\x92\x1a\x11@\xee\xde%&\xc8\x8a\x1e@\x8f\xcd\x0edVe\x17@7yc\xb8\x7f\'\x11@\x8f\xcd\x0edVe\x17@7\xa6,\xac\xba\x81 @\x8f\xcd\x0edVe\x17@\x8f\xcd\x0edVe\x17@"0C\xa0\xda\xfc\x15@7yc\xb8\x7f\'\x11@7\xa6,\xac\xba\x81 @7yc\xb8\x7f\'\x11@\x19\x06\x9e\x08\xb3\xd3\x16@"0C\xa0\xda\xfc\x15@\xaez$(\x92\x1a\x11@7yc\xb8\x7f\'\x11@"0C\xa0\xda\xfc\x15@\x8f\xcd\x0edVe\x17@\x8f\xcd\x0edVe\x17@\x8f\xcd\x0edVe\x17@\x8f\xcd\x0edVe\x17@\x86\x8e\xbc\x03@R\x10@\xfe\x92\xeb\x85z\x14\x0b@\xc7|;\'\x9fH\'@7yc\xb8\x7f\'\x11@\x8f\xcd\x0edVe\x17@"0C\xa0\xda\xfc\x15@7\xa6,\xac\xba\x81 @7yc\xb8\x7f\'\x11@\xfb0;>\nI\x1d@b\xee\xade\xecK\x19@\x8f\xcd\x0edVe\x17@7yc\xb8\x7f\'\x11@\xf9%\x91\x856\x07\x0e@\x8f\xcd\x0edVe\x17@g\x1f\xb9)1\xc8\x1e@\x8f\xcd\x0edVe\x17@\x8f\xcd\x0edVe\x17@\x8f\xcd\x0edVe\x17@\xc3\x9di\x0c\xd8\x16\x18@7yc\xb8\x7f\'\x11@\xf9\xe5\xa1/\xcc\xe0\x0f@g\x1f\xb9)1\xc8\x1e@\xf9%\x91\x856\x07\x0e@\x8f\xcd\x0edVe\x17@7yc\xb8\x7f\'\x11@"0C\xa0\xda\xfc\x15@7yc\xb8\x7f\'\x11@\x8f\xcd\x0edVe\x17@\x8f\xcd\x0edVe\x17@1\xd3oli4"@7yc\xb8\x7f\'\x11@7yc\xb8\x7f\'\x11@2\x8bZ^T!\xfa?7yc\xb8\x7f\'\x11@\x8f\xcd\x0edVe\x17@\x8f\xcd\x0edVe\x17@\xaez$(\x92\x1a\x11@\xaez$(\x92\x1a\x11@7yc\xb8\x7f\'\x11@\x8f\xcd\x0edVe\x17@0\x1a\xd3/Q\xe2%@7yc\xb8\x7f\'\x11@7yc\xb8\x7f\'\x11@\xf9%\x91\x856\x07\x0e@7yc\xb8\x7f\'\x11@\x8f\xcd\x0edVe\x17@"0C\xa0\xda\xfc\x15@\x86\x8e\xbc\x03@R\x10@7\xa6,\xac\xba\x81 @\x8f\xcd\x0edVe\x17@x\x1a\xc0\xa3\x10\xf8\x10@\x8f\xcd\x0edVe\x17@\x8f\xcd\x0edVe\x17@\xaez$(\x92\x1a\x11@\xf9%\x91\x856\x07\x0e@7yc\xb8\x7f\'\x11@7yc\xb8\x7f\'\x11@7yc\xb8\x7f\'\x11@g\x1f\xb9)1\xc8\x1e@&:\x8bo\x01\x92 @7\xa6,\xac\xba\x81 @\xd7\x82#n\x07\x00\xf5?7\xa6,\xac\xba\x81 @\x8f\xcd\x0edVe\x17@\xd3\x1d\x1d"k\xda\x15@7yc\xb8\x7f\'\x11@\x8f\xcd\x0edVe\x17@0\x1a\xd3/Q\xe2%@\xf9%\x91\x856\x07\x0e@\x04\x801\xf1\xd6c&@\xf7d\xc5\x1eD\x81\x13@\xacX5\xbe\x06|\x10@\xf9%\x91\x856\x07\x0e@\xa5\xc4,\xccj\xe4\x1c@\xf9%\x91\x856\x07\x0e@\xaez$(\x92\x1a\x11@b\xee\xade\xecK\x19@g\x1f\xb9)1\xc8\x1e@7yc\xb8\x7f\'\x11@^L\xd7o\xb28\x11@\xaez$(\x92\x1a\x11@7yc\xb8\x7f\'\x11@1\xd3oli4"@\x8f\xcd\x0edVe\x17@\xf9%\x91\x856\x07\x0e@\x8f\xcd\x0edVe\x17@7yc\xb8\x7f\'\x11@7yc\xb8\x7f\'\x11@\x8f\xcd\x0edVe\x17@"0C\xa0\xda\xfc\x15@7yc\xb8\x7f\'\x11@"0C\xa0\xda\xfc\x15@"0C\xa0\xda\xfc\x15@7yc\xb8\x7f\'\x11@\x8f\xcd\x0edVe\x17@\xbf\xbe6\xf1\x07(\x16@7yc\xb8\x7f\'\x11@\x86\xe6\xa8v\xb8T\xfb?7yc\xb8\x7f\'\x11@\x8f\xcd\x0edVe\x17@\x8f\xcd\x0edVe\x17@\x8f\xcd\x0edVe\x17@"0C\xa0\xda\xfc\x15@GI,\xfe\xe47\x1d@u_\xba\x1cw \x11@\xaez$(\x92\x1a\x11@7yc\xb8\x7f\'\x11@"0C\xa0\xda\xfc\x15@\x8f\xcd\x0edVe\x17@\xf9%\x91\x856\x07\x0e@7yc\xb8\x7f\'\x11@7yc\xb8\x7f\'\x11@1\xd3oli4"@"0C\xa0\xda\xfc\x15@7yc\xb8\x7f\'\x11@7\xa6,\xac\xba\x81 @\xf9%\x91\x856\x07\x0e@vx\x11\x10\x9e\x9d\x1a@7yc\xb8\x7f\'\x11@\x8f\xcd\x0edVe\x17@\xf9%\x91\x856\x07\x0e@\xaez$(\x92\x1a\x11@\x8f\xcd\x0edVe\x17@g\x1f\xb9)1\xc8\x1e@7yc\xb8\x7f\'\x11@\x8f\xcd\x0edVe\x17@\xd4\xcd!-\xbfj\x11@7\xa6,\xac\xba\x81 @7yc\xb8\x7f\'\x11@g\x1f\xb9)1\xc8\x1e@\x8d\xd2B\xb7\x91\xf0\r\xc0\x9a\x1a\xecv\xc2\xa0\x13@\xaez$(\x92\x1a\x11@1\xd3oli4"@\xa4\xf1\x0e\xce\n\xf0\x1c@N\xa8\xcf\x90\xa1P @\x0f\xc0\x95\xff\x0f\xf4\x11@-k\x94\x1e\xd9l\x1e@7yc\xb8\x7f\'\x11@\x8f\xcd\x0edVe\x17@\x8f\xcd\x0edVe\x17@7\xa6,\xac\xba\x81 @\xf9%\x91\x856\x07\x0e@\xa5\xc4,\xccj\xe4\x1c@\x06\xb2PF\x84)\x1b@7yc\xb8\x7f\'\x11@\x0b\x86\x08\x05\xd7\xd8)@7yc\xb8\x7f\'\x11@n\xbc\x8b\xf8\x917\x00@\x8d\x94\xb2Uk\x05\x0e@\xf9%\x91\x856\x07\x0e@\x9a\x1a\xecv\xc2\xa0\x13@g\x1f\xb9)1\xc8\x1e@7yc\xb8\x7f\'\x11@\x8f\xcd\x0edVe\x17@7\xa6,\xac\xba\x81 @\x8f\xcd\x0edVe\x17@a\xd7\xdd\x96 4\x1e@\xaez$(\x92\x1a\x11@\x8f\xcd\x0edVe\x17@\x81\xff\x80I\x0bA$@\xaez$(\x92\x1a\x11@7yc\xb8\x7f\'\x11@7yc\xb8\x7f\'\x11@"0C\xa0\xda\xfc\x15@[\x10\xab\xffD]\r@7yc\xb8\x7f\'\x11@\x8f\xcd\x0edVe\x17@7\xa6,\xac\xba\x81 @T\xe3\x99\x86IM\x12@7yc\xb8\x7f\'\x11@7yc\xb8\x7f\'\x11@7yc\xb8\x7f\'\x11@{\xf6\x0c\xc2p~\x12@\xf9%\x91\x856\x07\x0e@\x8f\xcd\x0edVe\x17@\xaez$(\x92\x1a\x11@7yc\xb8\x7f\'\x11@7yc\xb8\x7f\'\x11@\x8f\xcd\x0edVe\x17@\x8f\xcd\x0edVe\x17@7yc\xb8\x7f\'\x11@\x8f\xcd\x0edVe\x17@\x8f\xcd\x0edVe\x17@\x8f\xcd\x0edVe\x17@\x8f\xcd\x0edVe\x17@7yc\xb8\x7f\'\x11@^\x92H*\xad8\x18@7yc\xb8\x7f\'\x11@7yc\xb8\x7f\'\x11@\x8f\xcd\x0edVe\x17@7yc\xb8\x7f\'\x11@g\x1f\xb9)1\xc8\x1e@\x8f\xcd\x0edVe\x17@\x8f\xcd\x0edVe\x17@\xf9%\x91\x856\x07\x0e@\x8f\xcd\x0edVe\x17@\xf9%\x91\x856\x07\x0e@\x8f\xcd\x0edVe\x17@"0C\xa0\xda\xfc\x15@e\x1e\xa4t\xfd\x84\x1a@\x8b\xdfG.4M\r@\xaez$(\x92\x1a\x11@a\x8c\x10|{\xf5\x14@7yc\xb8\x7f\'\x11@\xf9%\x91\x856\x07\x0e@g\x1f\xb9)1\xc8\x1e@e\x1e\xa4t\xfd\x84\x1a@\xc7|;\'\x9fH\'@\x8f\xcd\x0edVe\x17@H6#4t\xb4\r@7yc\xb8\x7f\'\x11@\x1b\x15\xcfps\xb3\x1a@7yc\xb8\x7f\'\x11@\x99y\n\x99\xfd&\x18@\xff\xbe!\xbdw\x07\x11@g\x1f\xb9)1\xc8\x1e@\xf9%\x91\x856\x07\x0e@|\xf6\xba`5\x80 @\x8f\xcd\x0edVe\x17@|y\xfai[\x14\x0b@\x8f\xcd\x0edVe\x17@7\xa6,\xac\xba\x81 @\xc4\x9eq>u\x13\x14@\xa4\xba\x02e\xcb\xe2\x0c@\xf9%\x91\x856\x07\x0e@7yc\xb8\x7f\'\x11@7yc\xb8\x7f\'\x11@\xe3\x1f"\xb6\xd8\x99\x19@\x8f\xcd\x0edVe\x17@7yc\xb8\x7f\'\x11@\x81\x1e\xf0x\xeaT"@\xf9%\x91\x856\x07\x0e@\x8f\xcd\x0edVe\x17@L\x03s\x8b\x9c\x96\x15@y\x89\xccn\t\xa2\x1c@\xaez$(\x92\x1a\x11@e\x1e\xa4t\xfd\x84\x1a@"0C\xa0\xda\xfc\x15@7\xa6,\xac\xba\x81 @7yc\xb8\x7f\'\x11@\x8f\xcd\x0edVe\x17@1\xbc\xb3\xb7K\xd1\n@\x8f\xcd\x0edVe\x17@\xc7|;\'\x9fH\'@\xf9\xe5\xa1/\xcc\xe0\x0f@7yc\xb8\x7f\'\x11@\xaez$(\x92\x1a\x11@\x92\xb8I\xe0\xe1\x1a\x17@1\xd3oli4"@7\xa6,\xac\xba\x81 @\xef\x8aL\xecz\xfc\x0b@7yc\xb8\x7f\'\x11@\xf9%\x91\x856\x07\x0e@7\xa6,\xac\xba\x81 @\xe1\xdbo\xc5\x1c\x9c @"0C\xa0\xda\xfc\x15@\x8f\xcd\x0edVe\x17@7yc\xb8\x7f\'\x11@7yc\xb8\x7f\'\x11@\x8f\xcd\x0edVe\x17@7yc\xb8\x7f\'\x11@\x04\x801\xf1\xd6c&@7\xa6,\xac\xba\x81 @\x8f\xcd\x0edVe\x17@\x8f\xcd\x0edVe\x17@T\xe3\x99\x86IM\x12@1\xd3oli4"@\xf9%\x91\x856\x07\x0e@\x8f\xcd\x0edVe\x17@g\x1f\xb9)1\xc8\x1e@\x8f\xcd\x0edVe\x17@7\xa6,\xac\xba\x81 @\xa2\x16=\xe8$x\x05@\x8f\xcd\x0edVe\x17@\xc7\x85\x9a\xa3)C\x13@\xc7\x85\x9a\xa3)C\x13@\xaez$(\x92\x1a\x11@\'\xd1~t\xa8`\x1a@\xaez$(\x92\x1a\x11@\xaez$(\x92\x1a\x11@\xf9%\x91\x856\x07\x0e@\xacX5\xbe\x06|\x10@\x10OD\xb6*\xd5\x19@7yc\xb8\x7f\'\x11@7yc\xb8\x7f\'\x11@\x8f\xcd\x0edVe\x17@\xf9%\x91\x856\x07\x0e@n\xf7\xca\xfc\xf2\x8a#@\x8f\xcd\x0edVe\x17@7yc\xb8\x7f\'\x11@\x8f\xcd\x0edVe\x17@\x8f\xcd\x0edVe\x17@?0\xf7\x16-\x90\x1f@\xaez$(\x92\x1a\x11@\xc9\xb5V\x00\xb6\xa0\n@\x8f\xcd\x0edVe\x17@k\xf54Lc\x95\x04@\xaez$(\x92\x1a\x11@7yc\xb8\x7f\'\x11@7\xa6,\xac\xba\x81 @\xf9%\x91\x856\x07\x0e@\x8f\xcd\x0edVe\x17@\x8f\xcd\x0edVe\x17@,-\x04\xb9\x11d\x19@7yc\xb8\x7f\'\x11@\xf9%\x91\x856\x07\x0e@/\xfb\x95\x84i\x10\x11@\xaez$(\x92\x1a\x11@\xaez$(\x92\x1a\x11@\x8f\xcd\x0edVe\x17@7\xa6,\xac\xba\x81 @\x95\xa4)\xd5G\t\x1f@7yc\xb8\x7f\'\x11@\x8f\xcd\x0edVe\x17@7yc\xb8\x7f\'\x11@\xaez$(\x92\x1a\x11@(&\x1d\xea\x03P\x0b@\xf5\xaf\xf6zc\xa6\x18@7yc\xb8\x7f\'\x11@7yc\xb8\x7f\'\x11@g\x1f\xb9)1\xc8\x1e@o\xa64\xefG\xa4\x16@\xee\xde%&\xc8\x8a\x1e@\x8f\xcd\x0edVe\x17@\xaez$(\x92\x1a\x11@\xaez$(\x92\x1a\x11@g\x1f\xb9)1\xc8\x1e@/\x84\r\xb4%\xdc\xf9?7yc\xb8\x7f\'\x11@7yc\xb8\x7f\'\x11@\xf9%\x91\x856\x07\x0e@\xaez$(\x92\x1a\x11@7\xa6,\xac\xba\x81 @g\x1f\xb9)1\xc8\x1e@7yc\xb8\x7f\'\x11@\x8f\xcd\x0edVe\x17@\xaez$(\x92\x1a\x11@"0C\xa0\xda\xfc\x15@g\x1f\xb9)1\xc8\x1e@\x86\x8e\xbc\x03@R\x10@"0C\xa0\xda\xfc\x15@\x8f\xcd\x0edVe\x17@\xf9\xe5\xa1/\xcc\xe0\x0f@0\x1a\xd3/Q\xe2%@\x8f\xcd\x0edVe\x17@'
p5374
tp5375
bsb.