ccopy_reg
_reconstructor
p0
(cnltk.classify.naivebayes
NaiveBayesClassifier
p1
c__builtin__
object
p2
Ntp3
Rp4
(dp5
S'_labels'
p6
(lp7
S'OTHER'
p8
aS'PERSON'
p9
aS'LOCATION'
p10
aS'NUMBER'
p11
aS'DATE'
p12
aS'ORGANIZATION'
p13
aS'TIME'
p14
aS'MONEY'
p15
aS'PERCENT'
p16
asS'_feature_probdist'
p17
(dp18
(g14
S'noun'
p19
tp20
g0
(cnltk.probability
ELEProbDist
p21
g2
Ntp22
Rp23
(dp24
S'_gamma'
p25
F0.5
sS'_N'
p26
I75
sS'_freqdist'
p27
g0
(cnltk.probability
FreqDist
p28
c__builtin__
dict
p29
(dp30
S''
p31
I15
sS'flies'
p32
I1
sS'revolution'
p33
I1
sS'office'
p34
I1
sS'show'
p35
I1
sS'community'
p36
I1
sS'pig'
p37
I1
sS'sunlight'
p38
I1
sS'human'
p39
I1
sS'church'
p40
I1
sS'cocaine'
p41
I1
sS'web'
p42
I1
sS'intercourse'
p43
I1
sS'person'
p44
I1
sS'tv'
p45
I1
sS'sun'
p46
I1
sS'decision'
p47
I1
sS'been'
p48
I1
sS'moon'
p49
I1
sS'attack'
p50
I1
sS'hen'
p51
I1
sS'puppy'
p52
I1
sS'eggs'
p53
I2
sS'hermit'
p54
I1
sS'body'
p55
I1
sS'life'
p56
I4
sS'quarts'
p57
I1
sS'gestation'
p58
I2
sS'ferret'
p59
I1
sS'blood'
p60
I2
sS'child'
p61
I1
sS'debt'
p62
I1
sS'artist'
p63
I2
sS'did'
p64
I4
sS'universe'
p65
I1
sS'age'
p66
I7
sS'dog'
p67
I1
sS'hiccup'
p68
I1
sS'trial'
p69
I1
sS'savings'
p70
I1
sS'materials'
p71
I1
sS'time'
p72
I4
stp73
Rp74
(dp75
g26
I75
sS'_max_cache'
p76
NsS'_item_cache'
p77
NsS'_Nr_cache'
p78
NsbsS'_bins'
p79
I1449
sS'_divisor'
p80
F799.5
sbs(g13
g19
tp81
g0
(g21
g2
Ntp82
Rp83
(dp84
g25
F0.5
sg26
I189
sg27
g0
(g28
g29
(dp85
g31
I4
sS'tribe'
p86
I1
sS'colleges'
p87
I1
sS'agency'
p88
I1
sS'producer'
p89
I1
sS'produces'
p90
I1
sS'football'
p91
I1
sS'businesses'
p92
I2
sS'president'
p93
I1
sS'super-teams'
p94
I1
sS'ballet'
p95
I1
sS'toy'
p96
I1
sS'group'
p97
I7
sS'hunting'
p98
I1
sS'fast'
p99
I1
sS'sports'
p100
I1
sS'camera'
p101
I1
sS'manufactures'
p102
I1
sS'engine'
p103
I2
sS'diamond'
p104
I3
sS'fast-food'
p105
I1
sS'government'
p106
I1
sS'food'
p107
I1
sS'company'
p108
I23
sS'railways'
p109
I1
sS'school'
p110
I3
sS'band'
p111
I1
sS'races'
p112
I1
sS'court'
p113
I1
sS'schools'
p114
I2
sS'world'
p115
I3
sS'championship'
p116
I1
sS'name'
p117
I9
sS'distance'
p118
I1
sS'kind'
p119
I4
sS'middle'
p120
I1
sS'meat'
p121
I1
sS'level'
p122
I1
sS'car'
p123
I2
sS'university'
p124
I5
sS'companies'
p125
I2
sS'purveyor'
p126
I1
sS'rock'
p127
I1
sS'radio'
p128
I2
sS'example'
p129
I1
sS'exhibit'
p130
I1
sS'supreme'
p131
I1
sS'pyramid'
p132
I1
sS'art'
p133
I1
sS'ten'
p134
I1
sS'people'
p135
I2
sS'tree'
p136
I1
sS'telephone'
p137
I1
sS'culture'
p138
I1
sS'computer'
p139
I1
sS'college'
p140
I9
sS'advertise'
p141
I2
sS'airplane'
p142
I2
sS'cocaine'
p143
I1
sS'competitor'
p144
I1
sS'network'
p145
I1
sS'corporation'
p146
I2
sS'manufacturers'
p147
I1
sS'administration'
p148
I1
sS'civilization'
p149
I1
sS'party'
p150
I2
sS'electronics'
p151
I1
sS'play'
p152
I1
sS'oil'
p153
I1
sS'business'
p154
I4
sS'fascist'
p155
I1
sS'cars'
p156
I1
sS'team'
p157
I6
sS'cigarette'
p158
I1
sS'baseball'
p159
I6
sS'groups'
p160
I1
sS'society'
p161
I1
sS'police'
p162
I5
sS'motto'
p163
I1
sS'nickname'
p164
I1
sS'television'
p165
I1
sS'card'
p166
I1
sS'manufacturer'
p167
I1
sS'league'
p168
I2
sS'engines'
p169
I1
sS'wife'
p170
I1
sS'airline'
p171
I2
sS'time'
p172
I1
sS'organization'
p173
I8
sS'residents'
p174
I1
sS'backup'
p175
I1
sS'frequent'
p176
I1
stp177
Rp178
(dp179
g26
I189
sg76
Nsg77
Nsg78
Nsbsg79
I1449
sg80
F913.5
sbs(g11
g19
tp180
g0
(g21
g2
Ntp181
Rp182
(dp183
g25
F0.5
sg26
I505
sg27
g0
(g28
g29
(dp184
g31
I28
sS'colleges'
p185
I1
sS'dollar'
p186
I2
sS'astronauts'
p187
I2
sS'fathom'
p188
I3
sS'spacecraft'
p189
I1
sS'spaces'
p190
I2
sS'businesses'
p191
I2
sS'shoe'
p192
I1
sS'cds'
p193
I1
sS'go'
p194
I1
sS'soldiers'
p195
I6
sS'kilamanjaro'
p196
I1
sS'children'
p197
I2
sS'layers'
p198
I2
sS'votes'
p199
I2
sS'electricity'
p200
I1
sS'megawatts'
p201
I1
sS'languages'
p202
I3
sS'teaspoon'
p203
I2
sS'thousands'
p204
I1
sS'tiles'
p205
I1
sS'oceans'
p206
I1
sS'trees'
p207
I1
sS'acreage'
p208
I1
sS'penny-farthings'
p209
I1
sS'words'
p210
I1
sS'years'
p211
I11
sS'verses'
p212
I1
sS'school'
p213
I1
sS'countries'
p214
I4
sS'did'
p215
I1
sS'bytes'
p216
I1
sS'colors'
p217
I4
sS'casinos'
p218
I1
sS'shots'
p219
I1
sS'inside'
p220
I1
sS'tenths'
p221
I1
sS'leaders'
p222
I1
sS'cheetahs'
p223
I1
sS'villi'
p224
I1
sS'rate'
p225
I1
sS'college'
p226
I1
sS'grooves'
p227
I2
sS'acid'
p228
I2
sS'movies'
p229
I1
sS'thunder'
p230
I1
sS'rings'
p231
I1
sS'fingers'
p232
I1
sS'liberty'
p233
I1
sS'score'
p234
I3
sS'galaxy'
p235
I1
sS'referees'
p236
I1
sS'claws'
p237
I1
sS'human'
p238
I2
sS'men'
p239
I3
sS'answers'
p240
I1
sS'hours'
p241
I2
sS'protection'
p242
I1
sS'baseball'
p243
I1
sS'yards'
p244
I1
sS'furlongs'
p245
I1
sS'cities'
p246
I1
sS'digits'
p247
I3
sS'tractors'
p248
I1
sS'airport'
p249
I1
sS'objects'
p250
I1
sS'games'
p251
I1
sS'canadians'
p252
I1
sS'kinds'
p253
I1
sS'members'
p254
I3
sS'scales'
p255
I1
sS'presidents'
p256
I2
sS'names'
p257
I1
sS'flavors'
p258
I2
sS'attendance'
p259
I1
sS'zip'
p260
I1
sS'poodle'
p261
I1
sS'vineyard'
p262
I1
sS'bees'
p263
I1
sS'counties'
p264
I1
sS'films'
p265
I2
sS'sonnets'
p266
I1
sS'milliseconds'
p267
I1
sS'dots'
p268
I2
sS'resting'
p269
I1
sS'diamond'
p270
I1
sS'propellers'
p271
I1
sS'pairs'
p272
I2
sS'telephone'
p273
I1
sS'phone'
p274
I4
sS'angles'
p275
I1
sS'baby'
p276
I1
sS'hole'
p277
I1
sS'emperors'
p278
I1
sS'car'
p279
I1
sS'calcium'
p280
I1
sS'gallons'
p281
I2
sS'pound'
p282
I1
sS'permutations'
p283
I1
sS'teaspoons'
p284
I1
sS'surface'
p285
I1
sS'states'
p286
I3
sS'neurons'
p287
I1
sS'numbers'
p288
I1
sS'bones'
p289
I2
sS'species'
p290
I3
sS'revolutions'
p291
I1
sS'bottles'
p292
I1
sS'lengths'
p293
I1
sS'maids'
p294
I1
sS'oven'
p295
I2
sS'amount'
p296
I1
sS'member'
p297
I1
sS'pins'
p298
I1
sS'colonies'
p299
I2
sS'spears'
p300
I1
sS'events'
p301
I1
sS'stock'
p302
I1
sS'cherubs'
p303
I1
sS'lawyers'
p304
I1
sS'mountain'
p305
I1
sS'fruit'
p306
I1
sS'characters'
p307
I2
sS'law'
p308
I1
sS'types'
p309
I4
sS'man'
p310
I1
sS'varieties'
p311
I2
sS'hearts'
p312
I1
sS'wives'
p313
I1
sS'athletes'
p314
I1
sS'unemployment'
p315
I2
sS'freckles'
p316
I1
sS'quarters'
p317
I1
sS'sperm'
p318
I1
sS'questions'
p319
I2
sS'seats'
p320
I1
sS'speed'
p321
I3
sS'superbowls'
p322
I1
sS'web'
p323
I1
sS'death'
p324
I2
sS'drunk'
p325
I1
sS'acres'
p326
I1
sS'degrees'
p327
I2
sS'latitude'
p328
I3
sS'weeks'
p329
I1
sS'wingspan'
p330
I1
sS'bails'
p331
I1
sS'nation'
p332
I1
sS'records'
p333
I1
sS'giraffe'
p334
I1
sS'hands'
p335
I1
sS'world'
p336
I3
sS'wings'
p337
I1
sS'pounds'
p338
I1
sS'chairs'
p339
I1
sS'corners'
p340
I1
sS'disks'
p341
I1
sS'cullions'
p342
I1
sS'pizza'
p343
I1
sS'jews'
p344
I1
sS'weight'
p345
I4
sS'people'
p346
I35
sS'elevators'
p347
I1
sS'companies'
p348
I1
sS'energy'
p349
I1
sS'frequency'
p350
I2
sS'meters'
p351
I2
sS'year'
p352
I1
sS'home'
p353
I3
sS'dimensions'
p354
I1
sS'blacks'
p355
I1
sS'mines'
p356
I1
sS'moon'
p357
I1
sS'students'
p358
I2
sS'miles'
p359
I9
sS'squares'
p360
I1
sS'eggs'
p361
I1
sS'highway'
p362
I2
sS'millimeters'
p363
I1
sS'equivalent'
p364
I1
sS'lakes'
p365
I1
sS'quart'
p366
I1
sS'caffeine'
p367
I2
sS'statistics'
p368
I1
sS'hostages'
p369
I1
sS'pitchers'
p370
I1
sS'refuge'
p371
I1
sS'chapter'
p372
I4
sS'watts'
p373
I1
sS'engines'
p374
I1
sS'stations'
p375
I1
sS'universe'
p376
I2
sS'dollars'
p377
I1
sS'months'
p378
I2
sS'calories'
p379
I4
sS'days'
p380
I1
sS'times'
p381
I11
sS'whitetail'
p382
I1
sS'length'
p383
I1
sS'extensions'
p384
I2
sS'airline'
p385
I1
sS'islands'
p386
I2
sS'processor'
p387
I1
sS'silver'
p388
I1
sS'size'
p389
I4
sS'letters'
p390
I1
sS'student'
p391
I1
sS'number'
p392
I7
sS'rank'
p393
I2
sS'copies'
p394
I1
sS'feet'
p395
I6
sS'frames'
p396
I1
sS'earthworms'
p397
I1
sS'bends'
p398
I1
sS'city'
p399
I1
sS'rows'
p400
I2
sS'temperature'
p401
I4
sS'elephants'
p402
I1
sS'approximate'
p403
I2
sS'shillings'
p404
I1
sS'zeros'
p405
I1
sS'stars'
p406
I2
sS'syllables'
p407
I1
sS'dogs'
p408
I1
sS'mountains'
p409
I1
sS'eyes'
p410
I2
sS'muscles'
p411
I2
sS'continents'
p412
I1
sS'inches'
p413
I4
sS'brand'
p414
I1
sS'boys'
p415
I1
sS'population'
p416
I15
sS'waste'
p417
I1
sS'warmup'
p418
I1
sS'cells'
p419
I1
sS'milligrams'
p420
I1
sS'maximum'
p421
I2
sS'war'
p422
I1
sS'iron'
p423
I1
sS'cards'
p424
I3
sS'quadruplets'
p425
I1
sS'minutes'
p426
I1
sS'horses'
p427
I2
sS'holes'
p428
I1
sS'head'
p429
I1
sS'pig'
p430
I1
sS'boardwalk'
p431
I1
sS'replica'
p432
I1
sS'fiddlers'
p433
I1
sS'horsepower'
p434
I2
sS'border'
p435
I1
sS'chromosome'
p436
I2
sS'innings'
p437
I2
sS'russians'
p438
I1
sS'snow'
p439
I1
sS'reactivity'
p440
I4
sS'actors'
p441
I1
sS'grammys'
p442
I1
sS'vegetation'
p443
I1
sS'elements'
p444
I1
sS'star'
p445
I1
sS'teats'
p446
I1
sS'quarts'
p447
I1
sS'teeth'
p448
I1
sS'visitors'
p449
I1
sS'sides'
p450
I3
sS'cables'
p451
I1
sS'stronger'
p452
I1
sS'websites'
p453
I1
sS'points'
p454
I4
sS'time'
p455
I1
sS'weigh'
p456
I1
sS'salt'
p457
I1
sS'quantity'
p458
I1
stp459
Rp460
(dp461
g26
I505
sg76
Nsg77
Nsg78
Nsbsg79
I1449
sg80
F1229.5
sbs(g8
g19
tp462
g0
(g21
g2
Ntp463
Rp464
(dp465
g25
F0.5
sg26
I1250
sg27
g0
(g28
g29
(dp466
g31
I47
sS'melts'
p467
I1
sS'invent'
p468
I3
sS'crocodile'
p469
I1
sS'disc'
p470
I1
sS'publish'
p471
I1
sS'migrates'
p472
I1
sS'skin'
p473
I1
sS'dish'
p474
I1
sS'golf'
p475
I3
sS'centers'
p476
I1
sS'causes'
p477
I1
sS'looking'
p478
I1
sS'baseball'
p479
I1
sS'referring'
p480
I1
sS'tv'
p481
I12
sS'hump'
p482
I1
sS'technique'
p483
I3
sS'languages'
p484
I6
sS'fingernails'
p485
I1
sS'tail'
p486
I1
sS'program'
p487
I2
sS'terror'
p488
I1
sS'smile'
p489
I1
sS'ingredient'
p490
I1
sS'plants'
p491
I2
sS'family'
p492
I1
sS'woman'
p493
I1
sS'translations'
p494
I1
sS'jeroboams'
p495
I1
sS'sons'
p496
I1
sS'mixing'
p497
I2
sS'word'
p498
I14
sS'prize'
p499
I1
sS'level'
p500
I1
sS'did'
p501
I1
sS'gender'
p502
I1
sS'companies'
p503
I1
sS'occurs'
p504
I1
sS'race'
p505
I4
sS'car'
p506
I4
sS'refer'
p507
I1
sS'athlete'
p508
I1
sS'non-fiction'
p509
I1
sS'magazine'
p510
I6
sS'ten'
p511
I1
sS'crop'
p512
I2
sS'sign'
p513
I2
sS'chef'
p514
I1
sS'battle'
p515
I2
sS'titles'
p516
I1
sS'video'
p517
I1
sS'lawyer'
p518
I1
sS'fear'
p519
I62
sS'hymn'
p520
I1
sS'employ'
p521
I1
sS'constitution'
p522
I1
sS'clock'
p523
I1
sS'section'
p524
I1
sS'caffeine'
p525
I1
sS'dangles'
p526
I1
sS'tarantula'
p527
I1
sS'tips'
p528
I1
sS'tournaments'
p529
I1
sS'bird'
p530
I1
sS'body'
p531
I1
sS'hero'
p532
I2
sS'leg'
p533
I1
sS'men'
p534
I1
sS'commercial'
p535
I1
sS'dipsomaniac'
p536
I1
sS'operating'
p537
I2
sS'tragedy'
p538
I1
sS'box'
p539
I1
sS'substance'
p540
I3
sS'credit'
p541
I1
sS'products'
p542
I4
sS'advertising'
p543
I1
sS'birthstone'
p544
I1
sS'otters'
p545
I1
sS'classification'
p546
I1
sS'spermologer'
p547
I1
sS'respirator'
p548
I1
sS'names'
p549
I3
sS'tools'
p550
I1
sS'chefs'
p551
I1
sS'ladybugs'
p552
I1
sS'contains'
p553
I1
sS'arms'
p554
I1
sS'sports'
p555
I3
sS'symphony'
p556
I1
sS'call'
p557
I6
sS'films'
p558
I1
sS'type'
p559
I11
sS'sort'
p560
I1
sS'racoon'
p561
I1
sS'phobophobe'
p562
I1
sS'club'
p563
I1
sS'company'
p564
I2
sS'refrain'
p565
I1
sS'missile'
p566
I1
sS'glass'
p567
I1
sS'flag'
p568
I1
sS'rabbit'
p569
I2
sS'known'
p570
I2
sS'polyorchid'
p571
I1
sS'mascot'
p572
I1
sS'balls'
p573
I1
sS'animals'
p574
I8
sS'primate'
p575
I1
sS'science'
p576
I1
sS'ride'
p577
I1
sS'work'
p578
I1
sS'hardest'
p579
I1
sS'example'
p580
I2
sS'stubborn'
p581
I1
sS'eczema'
p582
I1
sS'assent'
p583
I1
sS'currency'
p584
I1
sS'foods'
p585
I2
sS'airplane'
p586
I2
sS'species'
p587
I3
sS'ceremony'
p588
I1
sS'damage'
p589
I1
sS'write'
p590
I3
sS'sword'
p591
I1
sS'creature'
p592
I3
sS'fare'
p593
I1
sS'plant'
p594
I4
sS'cocktail'
p595
I2
sS'clone'
p596
I1
sS'rites'
p597
I1
sS'accessory'
p598
I1
sS'conjugations'
p599
I1
sS'blood'
p600
I2
sS'philatelist'
p601
I1
sS'softball'
p602
I1
sS'date'
p603
I1
sS'eighth'
p604
I1
sS'types'
p605
I4
sS'man'
p606
I3
sS'noun'
p607
I1
sS'commodity'
p608
I2
sS'liner'
p609
I2
sS'element'
p610
I3
sS'tale'
p611
I2
sS'writ'
p612
I1
sS'keeps'
p613
I1
sS'alloy'
p614
I1
sS'swimming'
p615
I2
sS'playing'
p616
I1
sS'wine'
p617
I1
sS'no.'
p618
I1
sS'words'
p619
I5
sS'producer'
p620
I1
sS'produces'
p621
I1
sS'move'
p622
I1
sS'mission'
p623
I1
sS'meter'
p624
I2
sS'trade'
p625
I1
sS'paper'
p626
I1
sS'motorcycle'
p627
I1
sS'oven'
p628
I1
sS'signs'
p629
I1
sS'birds'
p630
I2
sS'limelight'
p631
I1
sS'group'
p632
I1
sS'handheld'
p633
I1
sS'forms'
p634
I1
sS'civil'
p635
I1
sS'distinguishing'
p636
I1
sS'constitutes'
p637
I1
sS'travelling'
p638
I1
sS'holiday'
p639
I1
sS'diseases'
p640
I1
sS'food'
p641
I7
sS'auto'
p642
I1
sS'killer'
p643
I1
sS'therapy'
p644
I1
sS'snake'
p645
I1
sS'resource'
p646
I1
sS'bread'
p647
I1
sS'articles'
p648
I2
sS'term'
p649
I19
sS'name'
p650
I70
sS'opera'
p651
I2
sS'potatoes'
p652
I1
sS'policeman'
p653
I1
sS'events'
p654
I4
sS'crops'
p655
I1
sS'predators'
p656
I1
sS'side'
p657
I2
sS'bone'
p658
I1
sS'mean'
p659
I1
sS'week'
p660
I1
sS'constipation'
p661
I1
sS'generation'
p662
I1
sS'series'
p663
I3
sS'spider'
p664
I1
sS'fires'
p665
I1
sS'ball'
p666
I1
sS'year'
p667
I1
sS'aids'
p668
I1
sS'event'
p669
I1
sS'album'
p670
I1
sS'gangland'
p671
I1
sS'space'
p672
I1
sS'four-player'
p673
I1
sS'vessels'
p674
I1
sS'research'
p675
I1
sS'wolverine'
p676
I1
sS'medicine'
p677
I2
sS'formula'
p678
I2
sS'correct'
p679
I2
sS'achievements'
p680
I1
sS'maneuver'
p681
I1
sS'monster'
p682
I1
sS'city'
p683
I1
sS'delicacy'
p684
I1
sS'seventh'
p685
I1
sS'horse'
p686
I2
sS'approaches'
p687
I1
sS'put'
p688
I1
sS'holidays'
p689
I2
sS'card'
p690
I7
sS'care'
p691
I1
sS'language'
p692
I9
sS'deck'
p693
I1
sS'starts'
p694
I1
sS'times'
p695
I1
sS'counterpart'
p696
I2
sS'thing'
p697
I3
sS'tennis'
p698
I2
sS'sentence'
p699
I1
sS'hearing'
p700
I1
sS'feet'
p701
I1
sS'defects'
p702
I1
sS'overalls'
p703
I1
sS'millions'
p704
I1
sS'razor'
p705
I1
sS'story'
p706
I1
sS'toy'
p707
I1
sS'silent'
p708
I1
sS'automobile'
p709
I1
sS'system'
p710
I3
sS'fiction'
p711
I1
sS'paint'
p712
I1
sS'corpus'
p713
I1
sS'syrup'
p714
I1
sS'dogs'
p715
I1
sS'eyes'
p716
I1
sS'murder'
p717
I1
sS'stomach'
p718
I1
sS'way'
p719
I7
sS'chemicals'
p720
I3
sS'part'
p721
I5
sS'cereal'
p722
I2
sS'translation'
p723
I1
sS'flowers'
p724
I1
sS'steel'
p725
I1
sS'distance'
p726
I1
sS'television'
p727
I2
sS'domestica'
p728
I1
sS'invention'
p729
I1
sS'marriage'
p730
I1
sS'cards'
p731
I2
sS'feeling'
p732
I1
sS'sculpture'
p733
I2
sS'fowl'
p734
I1
sS'modern'
p735
I1
sS'ages'
p736
I1
sS'mine'
p737
I1
sS'pedometer'
p738
I1
sS'tastes'
p739
I1
sS'shrubs'
p740
I1
sS'breakfast'
p741
I1
sS'contact'
p742
I1
sS'chess'
p743
I1
sS'chiropodist'
p744
I1
sS'divers'
p745
I1
sS'play'
p746
I4
sS'object'
p747
I1
sS'cigarette'
p748
I2
sS'letter'
p749
I6
sS'exercises'
p750
I1
sS'coin'
p751
I1
sS'class'
p752
I2
sS'synonym'
p753
I1
sS'disease'
p754
I10
sS'order'
p755
I1
sS'flog'
p756
I1
sS'dot'
p757
I1
sS'bomb'
p758
I1
sS'phenomenon'
p759
I2
sS'gold'
p760
I1
sS'tequila'
p761
I1
sS'queen'
p762
I1
sS'recipe'
p763
I2
sS'colors'
p764
I7
sS'radio'
p765
I2
sS'laments'
p766
I1
sS'chicken'
p767
I1
sS'albums'
p768
I1
sS'snack'
p769
I1
sS'dice'
p770
I1
sS'gulf'
p771
I1
sS'title'
p772
I1
sS'ruin'
p773
I1
sS'winner'
p774
I1
sS'penalty'
p775
I1
sS'theme'
p776
I2
sS'molecules'
p777
I1
sS'fuel'
p778
I2
sS'get'
p779
I1
sS'kind'
p780
I40
sS'bear'
p781
I1
sS'da'
p782
I1
sS'longest'
p783
I1
sS'joins'
p784
I1
sS'determines'
p785
I1
sS'bar'
p786
I1
sS'encounters'
p787
I1
sS'saliva'
p788
I1
sS'method'
p789
I2
sS'penguins'
p790
I1
sS'abolitionists'
p791
I1
sS'corgi'
p792
I1
sS'orca'
p793
I1
sS'hairy'
p794
I1
sS'disaster'
p795
I1
sS'ancients'
p796
I1
sS'humans'
p797
I1
sS'sex'
p798
I2
sS'computer'
p799
I5
sS'seal'
p800
I1
sS'sport'
p801
I18
sS'draws'
p802
I1
sS'ways'
p803
I6
sS'movie'
p804
I18
sS'exchange'
p805
I1
sS'state'
p806
I3
sS'gemstone'
p807
I1
sS'ends'
p808
I1
sS'ability'
p809
I1
sS'incident'
p810
I1
sS'wear'
p811
I2
sS'come'
p812
I1
sS'piece'
p813
I2
sS'drug'
p814
I3
sS'connection'
p815
I1
sS'games'
p816
I1
sS'berry'
p817
I1
sS'faces'
p818
I1
sS'witch'
p819
I1
sS'heliologist'
p820
I1
sS'statues'
p821
I1
sS'cancer'
p822
I2
sS'color'
p823
I30
sS'period'
p824
I1
sS'vessel'
p825
I1
sS'poll'
p826
I1
sS'belt'
p827
I1
sS'quit'
p828
I1
sS'cream'
p829
I1
sS'instrument'
p830
I7
sS'west'
p831
I1
sS'trademark'
p832
I2
sS'submarine'
p833
I1
sS'beer'
p834
I4
sS'treat'
p835
I1
sS'poet'
p836
I1
sS'incompetent'
p837
I1
sS'board'
p838
I1
sS'cyclist'
p839
I1
sS'dialogue'
p840
I1
sS'senses'
p841
I1
sS'flight'
p842
I1
sS'tiger'
p843
I1
sS'craft'
p844
I1
sS'lives'
p845
I1
sS'folklore'
p846
I1
sS'extant'
p847
I1
sS'ravens'
p848
I1
sS'sound'
p849
I1
sS'novel'
p850
I24
sS'gland'
p851
I1
sS'frozen'
p852
I1
sS'originate'
p853
I1
sS'cash'
p854
I1
sS'irate'
p855
I1
sS'droppings'
p856
I1
sS'newspaper'
p857
I3
sS'procedure'
p858
I1
sS'layer'
p859
I1
sS'prayer'
p860
I1
sS'player'
p861
I1
sS'full-length'
p862
I1
sS'haboob'
p863
I1
sS'perform'
p864
I1
sS'alphabet'
p865
I3
sS'bowl'
p866
I1
sS'member'
p867
I1
sS'document'
p868
I1
sS'composition'
p869
I1
sS'wheel'
p870
I1
sS'oil'
p871
I1
sS'drink'
p872
I14
sS'hand'
p873
I2
sS'fruit'
p874
I1
sS'vowel'
p875
I2
sS'whale'
p876
I1
sS'nickname'
p877
I1
sS'cartoon'
p878
I1
sS'tune'
p879
I1
sS'kid'
p880
I1
sS'peacocks'
p881
I1
sS'variety'
p882
I1
sS'materials'
p883
I1
sS'chronicles'
p884
I1
sS'components'
p885
I1
sS'twirl'
p886
I1
sS'deltiologist'
p887
I1
sS'advertises'
p888
I1
sS'plagues'
p889
I1
sS'livestock'
p890
I1
sS'camel'
p891
I1
sS'money'
p892
I3
sS'product'
p893
I11
sS'shape'
p894
I2
sS'fishing'
p895
I1
sS'flavor'
p896
I1
sS'adding'
p897
I1
sS'death'
p898
I1
sS'campaign'
p899
I1
sS'alternate'
p900
I1
sS'character'
p901
I1
sS'source'
p902
I1
sS'slits'
p903
I1
sS'treatment'
p904
I1
sS'crack'
p905
I1
sS'grow'
p906
I1
sS'tenses'
p907
I1
sS'sailors'
p908
I1
sS'bid'
p909
I1
sS'game'
p910
I8
sS'birth'
p911
I1
sS'world'
p912
I6
sS'wings'
p913
I1
sS'insert'
p914
I1
sS'nutrients'
p915
I1
sS'soap'
p916
I2
sS'communications'
p917
I1
sS'eidologist'
p918
I1
sS'clay'
p919
I1
sS'become'
p920
I1
sS'wonders'
p921
I1
sS'vats'
p922
I1
sS'pyramid-builders'
p923
I1
sS'methods'
p924
I1
sS'people'
p925
I5
sS'begin'
p926
I1
sS'competition'
p927
I2
sS'hair'
p928
I1
sS'brontosauruses'
p929
I1
sS'scale'
p930
I1
sS'lead'
p931
I1
sS'singing'
p932
I2
sS'hurricane'
p933
I1
sS'ice'
p934
I1
sS'religion'
p935
I2
sS'anti-aids'
p936
I1
sS'espionage'
p937
I1
sS'thighs'
p938
I1
sS'measures'
p939
I1
sS'rum'
p940
I2
sS'equivalent'
p941
I1
sS'lose'
p942
I1
sS'post'
p943
I1
sS'refers'
p944
I1
sS'vaccine'
p945
I1
sS'trophy'
p946
I1
sS'sister'
p947
I1
sS'resurrectionist'
p948
I1
sS'concerts'
p949
I1
sS'carries'
p950
I1
sS'camels'
p951
I1
sS'ox'
p952
I1
sS'emperor'
p953
I1
sS'hocks'
p954
I1
sS'software'
p955
I1
sS'letters'
p956
I1
sS'facility'
p957
I1
sS'owe'
p958
I1
sS'litmus'
p959
I1
sS'device'
p960
I2
sS'strip'
p961
I3
sS'ailment'
p962
I1
sS'vegetables'
p963
I1
sS'flying'
p964
I1
sS'secret'
p965
I1
sS'indoor'
p966
I1
sS'cats'
p967
I1
sS'stars'
p968
I1
sS'suit'
p969
I1
sS'breeding'
p970
I1
sS'war'
p971
I11
sS'opens'
p972
I1
sS'medium'
p973
I3
sS'amateur'
p974
I1
sS'form'
p975
I3
sS'brand'
p976
I6
sS'sequel'
p977
I3
sS'vichyssoise'
p978
I1
sS'principles'
p979
I1
sS'needles'
p980
I1
sS'line'
p981
I4
sS'eat'
p982
I2
sS'spice'
p983
I1
sS'manatees'
p984
I1
sS'middle'
p985
I1
sS'consist'
p986
I1
sS'devices'
p987
I1
sS'books'
p988
I1
sS'stories'
p989
I1
sS'zodiac'
p990
I1
sS'stages'
p991
I1
sS'condiment'
p992
I2
sS'taste'
p993
I2
sS'strips'
p994
I1
sS'dog'
p995
I3
sS'utensils'
p996
I1
sS'walks'
p997
I1
sS'ship'
p998
I2
sS'education'
p999
I1
sS'film'
p1000
I25
sS'garment'
p1001
I1
sS'ingredients'
p1002
I1
sS'trials'
p1003
I3
sS'flora'
p1004
I1
sS'actor'
p1005
I1
sS'snakes'
p1006
I1
sS'book'
p1007
I21
sS'boom'
p1008
I1
sS'boob'
p1009
I1
sS'elements'
p1010
I4
sS'kinds'
p1011
I2
sS'symbol'
p1012
I3
sS'football'
p1013
I1
sS'lens'
p1014
I1
sS'chairbound'
p1015
I1
sS'structure'
p1016
I1
sS'age'
p1017
I1
sS'vehicles'
p1018
I1
sS'fastener'
p1019
I1
sS'came'
p1020
I1
sS'time'
p1021
I2
sS'menace'
p1022
I1
sS'requires'
p1023
I1
sS'songs'
p1024
I2
stp1025
Rp1026
(dp1027
g26
I1250
sg76
Nsg77
Nsg78
Nsbsg79
I1449
sg80
F1974.5
sbs(g12
g19
tp1028
g0
(g21
g2
Ntp1029
Rp1030
(dp1031
g25
F0.5
sg26
I218
sg27
g0
(g28
g29
(dp1032
g31
I35
sS'ambassador'
p1033
I1
sS'show'
p1034
I1
sS'royal'
p1035
I1
sS'revolutionaries'
p1036
I1
sS'period'
p1037
I1
sS'month'
p1038
I6
sS'battle'
p1039
I1
sS'www.questions.com'
p1040
I1
sS'use'
p1041
I1
sS'group'
p1042
I1
sS'troops'
p1043
I1
sS'start'
p1044
I2
sS'visit'
p1045
I1
sS'live'
p1046
I1
sS'labor'
p1047
I1
sS'paint'
p1048
I1
sS'attack'
p1049
I1
sS'music'
p1050
I1
sS'teenager'
p1051
I1
sS'mutiny'
p1052
I1
sS'woman'
p1053
I1
sS'get'
p1054
I2
sS'fire'
p1055
I2
sS'season'
p1056
I3
sS'company'
p1057
I1
sS'broadcast'
p1058
I2
sS'glass'
p1059
I1
sS'railroad'
p1060
I1
sS'believe'
p1061
I1
sS'day'
p1062
I9
sS'women'
p1063
I1
sS'steel'
p1064
I1
sS'die'
p1065
I1
sS'air'
p1066
I2
sS'heart'
p1067
I1
sS'erupt'
p1068
I1
sS'become'
p1069
I3
sS'supercontinent'
p1070
I1
sS'control'
p1071
I1
sS'menstruation'
p1072
I1
sS'art'
p1073
I2
sS'concert'
p1074
I1
sS'century'
p1075
I3
sS'house'
p1076
I1
sS'year'
p1077
I44
sS'humans'
p1078
I1
sS'direct'
p1079
I1
sS'mormons'
p1080
I1
sS'born'
p1081
I9
sS'flush'
p1082
I1
sS'film'
p1083
I1
sS'neanderthal'
p1084
I1
sS'end'
p1085
I2
sS'camcorders'
p1086
I1
sS'publish'
p1087
I1
sS'write'
p1088
I1
sS'flood'
p1089
I1
sS'millennium'
p1090
I1
sS'test'
p1091
I1
sS'gate'
p1092
I1
sS'leader'
p1093
I1
sS'begin'
p1094
I3
sS'power'
p1095
I1
sS'eruption'
p1096
I3
sS'commercial'
p1097
I1
sS'combustion'
p1098
I1
sS'shorn'
p1099
I1
sS'date'
p1100
I13
sS'seasons'
p1101
I1
sS'come'
p1102
I1
sS'winter'
p1103
I2
sS'dates'
p1104
I1
sS'accident'
p1105
I1
sS'stricken'
p1106
I1
sS'birthday'
p1107
I4
sS'encyclopedia'
p1108
I1
sS'advertising'
p1109
I1
sS'time'
p1110
I6
sS'built'
p1111
I1
sS'painting'
p1112
I1
sS'vesuvius'
p1113
I1
stp1114
Rp1115
(dp1116
g26
I218
sg76
Nsg77
Nsg78
Nsbsg79
I1449
sg80
F942.5
sbs(g10
g19
tp1117
g0
(g21
g2
Ntp1118
Rp1119
(dp1120
g25
F0.5
sg26
I835
sg27
g0
(g28
g29
(dp1121
g31
I97
sS'lobsters'
p1122
I1
sS'lyrics'
p1123
I3
sS'bocci'
p1124
I1
sS'actress'
p1125
I1
sS'hamlet'
p1126
I1
sS'seaport'
p1127
I3
sS'avenue'
p1128
I1
sS'find'
p1129
I1
sS'cartoon'
p1130
I1
sS'web'
p1131
I3
sS'birthplace'
p1132
I3
sS'group'
p1133
I3
sS'office'
p1134
I1
sS'gulf'
p1135
I1
sS'title'
p1136
I1
sS'point'
p1137
I1
sS'royal'
p1138
I1
sS'lake'
p1139
I2
sS'civil'
p1140
I1
sS'source'
p1141
I1
sS'book'
p1142
I1
sS'tape'
p1143
I1
sS'location'
p1144
I4
sS'prison'
p1145
I1
sS'piano'
p1146
I1
sS'soccer'
p1147
I1
sS'hat'
p1148
I1
sS'resources'
p1149
I1
sS'merchant'
p1150
I1
sS'case'
p1151
I2
sS'screensaver'
p1152
I1
sS'myth'
p1153
I1
sS'get'
p1154
I2
sS'surrounds'
p1155
I2
sS'dam'
p1156
I2
sS'capital'
p1157
I18
sS'photograph'
p1158
I1
sS'arch'
p1159
I1
sS'nation'
p1160
I3
sS'department'
p1161
I1
sS'tuberculosis'
p1162
I1
sS'world'
p1163
I10
sS'fractal'
p1164
I1
sS'suey'
p1165
I1
sS'room'
p1166
I1
sS'airports'
p1167
I1
sS'name'
p1168
I15
sS'countries'
p1169
I24
sS'opera'
p1170
I1
sS'glitters'
p1171
I1
sS'list'
p1172
I3
sS'hole'
p1173
I1
sS'bay'
p1174
I3
sS'miles'
p1175
I1
sS'steps'
p1176
I1
sS'cartoons'
p1177
I1
sS'rock'
p1178
I1
sS'found'
p1179
I1
sS'river'
p1180
I9
sS'ports'
p1181
I1
sS'province'
p1182
I2
sS'breweries'
p1183
I1
sS'art'
p1184
I1
sS'telescope'
p1185
I1
sS'ten'
p1186
I1
sS'apartments'
p1187
I1
sS'seas'
p1188
I1
sS'back'
p1189
I1
sS'rivers'
p1190
I2
sS'born'
p1191
I7
sS'street'
p1192
I3
sS'examples'
p1193
I1
sS'sea'
p1194
I5
sS'erupts'
p1195
I1
sS'home'
p1196
I6
sS'calendar'
p1197
I1
sS'sport'
p1198
I1
sS'constellation'
p1199
I3
sS'wander'
p1200
I1
sS'textiles'
p1201
I1
sS'guinea'
p1202
I1
sS'review'
p1203
I1
sS'sites'
p1204
I1
sS'research'
p1205
I1
sS'libraries'
p1206
I1
sS'state'
p1207
I54
sS'diamonds'
p1208
I1
sS'email'
p1209
I2
sS'subway'
p1210
I1
sS'body'
p1211
I3
sS'monarchs'
p1212
I1
sS'cars'
p1213
I1
sS'answers'
p1214
I1
sS'monsters'
p1215
I1
sS'statistics'
p1216
I1
sS'sink'
p1217
I1
sS'groups'
p1218
I1
sS'address'
p1219
I6
sS'directions'
p1220
I1
sS'nationality'
p1221
I8
sS'canals'
p1222
I1
sS'cities'
p1223
I9
sS'come'
p1224
I2
sS'flytrap'
p1225
I1
sS'deserts'
p1226
I1
sS'publisher'
p1227
I1
sS'zoo'
p1228
I1
sS'anything'
p1229
I1
sS'restaurant'
p1230
I2
sS'country'
p1231
I118
sS'region'
p1232
I1
sS'adventures'
p1233
I1
sS'thing'
p1234
I1
sS'airport'
p1235
I1
sS'place'
p1236
I3
sS'islands'
p1237
I1
sS'weird'
p1238
I1
sS'hospital'
p1239
I1
sS'seeing'
p1240
I1
sS'tennis'
p1241
I1
sS'bell'
p1242
I1
sS'wall'
p1243
I1
sS'attractions'
p1244
I2
sS'county'
p1245
I3
sS'snowboard'
p1246
I1
sS'names'
p1247
I3
sS'coastal'
p1248
I1
sS'strip'
p1249
I1
sS'schematics'
p1250
I1
sS'lesson'
p1251
I1
sS'continent'
p1252
I7
sS'post'
p1253
I1
sS'city'
p1254
I89
sS'basketball'
p1255
I1
sS'span'
p1256
I1
sS'habitat'
p1257
I1
sS'quality'
p1258
I1
sS'area'
p1259
I3
sS'remains'
p1260
I1
sS'nickname'
p1261
I2
sS'museum'
p1262
I3
sS'people'
p1263
I3
sS'desert'
p1264
I5
sS'draft'
p1265
I1
sS'seafaring'
p1266
I1
sS'way'
p1267
I1
sS'ridge'
p1268
I1
sS'corpus'
p1269
I2
sS'territory'
p1270
I1
sS'meeting'
p1271
I1
sS'tourists'
p1272
I1
sS'empty'
p1273
I1
sS'possession'
p1274
I1
sS'mountains'
p1275
I2
sS'direction'
p1276
I3
sS'stadium'
p1277
I1
sS'ash'
p1278
I1
sS'flying'
p1279
I1
sS'contains'
p1280
I1
sS'listing'
p1281
I1
sS'waterways'
p1282
I1
sS'lists'
p1283
I1
sS'site'
p1284
I4
sS'chemicals'
p1285
I1
sS'part'
p1286
I3
sS'pecan'
p1287
I1
sS'line'
p1288
I1
sS'surrender'
p1289
I1
sS'dialing'
p1290
I1
sS'town'
p1291
I3
sS'wide'
p1292
I1
sS'kind'
p1293
I1
sS'target'
p1294
I1
sS'science'
p1295
I1
sS'ride'
p1296
I1
sS'originate'
p1297
I2
sS'tree'
p1298
I1
sS'devices'
p1299
I1
sS'nations'
p1300
I1
sS'planet'
p1301
I4
sS'movies'
p1302
I1
sS'mall'
p1303
I1
sS'individual'
p1304
I1
sS'wrestler'
p1305
I1
sS'island'
p1306
I3
sS'mountain'
p1307
I12
sS'mythology'
p1308
I1
sS'display'
p1309
I1
sS'history'
p1310
I2
sS'bridge'
p1311
I3
sS'president'
p1312
I1
sS'pony'
p1313
I1
sS'tabs'
p1314
I1
sS'strait'
p1315
I1
sS'marijuana'
p1316
I1
sS'evidence'
p1317
I1
sS'states'
p1318
I5
sS'want'
p1319
I1
sS'southern'
p1320
I2
sS'concentration'
p1321
I1
sS'border'
p1322
I1
sS'eels'
p1323
I1
sS'tallest'
p1324
I1
sS'ukulele'
p1325
I1
sS'helium'
p1326
I1
sS'graduate'
p1327
I1
sS'website'
p1328
I1
sS'setting'
p1329
I1
sS'take'
p1330
I2
sS'online'
p1331
I2
sS'test'
p1332
I1
sS'residence'
p1333
I1
sS'status'
p1334
I1
sS'map'
p1335
I1
sS'begin'
p1336
I1
sS'hotel'
p1337
I1
sS'star'
p1338
I2
sS'brothers'
p1339
I2
sS'information'
p1340
I18
sS'singles'
p1341
I1
sS'park'
p1342
I2
sS'rail'
p1343
I1
sS'rain'
p1344
I1
sS'aborigines'
p1345
I1
sS'waterfall'
p1346
I1
sS'peak'
p1347
I1
sS'court'
p1348
I2
sS'stocks'
p1349
I1
sS'data'
p1350
I1
sS'grow'
p1351
I1
sS'building'
p1352
I4
sS'picture'
p1353
I1
sS'center'
p1354
I3
sS'attracts'
p1355
I1
sS'hang'
p1356
I1
sS'headquarters'
p1357
I4
sS'rule'
p1358
I1
sS'midi'
p1359
I1
sS'freeway'
p1360
I1
sS'person'
p1361
I1
sS'maintain'
p1362
I1
sS'official'
p1363
I1
sS'nuclear'
p1364
I1
sS'landmark'
p1365
I1
sS'comparisons'
p1366
I1
sS'spend'
p1367
I1
sS'bodies'
p1368
I1
sS'marvel'
p1369
I1
stp1370
Rp1371
(dp1372
g26
I835
sg76
Nsg77
Nsg78
Nsbsg79
I1449
sg80
F1559.5
sbs(g16
g19
tp1373
g0
(g21
g2
Ntp1374
Rp1375
(dp1376
g25
F0.5
sg26
I27
sg27
g0
(g28
g29
(dp1377
S'account'
p1378
I1
sS'target'
p1379
I1
sS'probability'
p1380
I2
sS'unemployment'
p1381
I1
sS'chances'
p1382
I2
sS'odds'
p1383
I3
sS'percent'
p1384
I2
sS'chance'
p1385
I1
sS'state'
p1386
I1
sS'fraction'
p1387
I2
sS'approval'
p1388
I1
sS'percentage'
p1389
I8
sS'children'
p1390
I2
stp1391
Rp1392
(dp1393
g26
I27
sg76
Nsg77
Nsg78
Nsbsg79
I1449
sg80
F751.5
sbs(g15
g19
tp1394
g0
(g21
g2
Ntp1395
Rp1396
(dp1397
g25
F0.5
sg26
I71
sg27
g0
(g28
g29
(dp1398
S'money'
p1399
I7
sS'cost'
p1400
I3
sS'year'
p1401
I1
sS'fine'
p1402
I1
sS'railroad'
p1403
I1
sS'wage'
p1404
I5
sS'beef'
p1405
I1
sS'stamp'
p1406
I2
sS'twenty'
p1407
I1
sS'debts'
p1408
I1
sS'increase'
p1409
I1
sS'state'
p1410
I1
sS'ton'
p1411
I1
sS'income'
p1412
I3
sS'party'
p1413
I1
sS'get'
p1414
I1
sS'fare'
p1415
I1
sS'junk'
p1416
I1
sS'exchange'
p1417
I2
sS'drugs'
p1418
I1
sS'price'
p1419
I4
sS'gas'
p1420
I1
sS'utilities'
p1421
I1
sS'tuberculosis'
p1422
I1
sS'ticket'
p1423
I2
sS'presidents'
p1424
I1
sS'bug'
p1425
I1
sS'salary'
p1426
I6
sS'daycare'
p1427
I2
sS'did'
p1428
I9
sS'tree'
p1429
I2
sS'contract'
p1430
I1
sS'person'
p1431
I1
sS'amount'
p1432
I2
sS'having'
p1433
I1
stp1434
Rp1435
(dp1436
g26
I71
sg76
Nsg77
Nsg78
Nsbsg79
I1449
sg80
F795.5
sbs(g9
g19
tp1437
g0
(g21
g2
Ntp1438
Rp1439
(dp1440
g25
F0.5
sg26
I1034
sg27
g0
(g28
g29
(dp1441
g31
I207
sS'husband-and-wife'
p1442
I1
sS'coach'
p1443
I3
sS'founder'
p1444
I2
sS'show'
p1445
I2
sS'authors'
p1446
I1
sS'celebrities'
p1447
I2
sS'resistance'
p1448
I1
sS'invent'
p1449
I1
sS'leads'
p1450
I1
sS'code'
p1451
I1
sS'radio'
p1452
I2
sS'liberty'
p1453
I1
sS'soldiers'
p1454
I2
sS'chair'
p1455
I1
sS'captain'
p1456
I1
sS'milk'
p1457
I1
sS'staff'
p1458
I1
sS'apartment'
p1459
I1
sS'chain'
p1460
I1
sS'title'
p1461
I8
sS'electricity'
p1462
I1
sS'writer'
p1463
I4
sS'father'
p1464
I8
sS'fans'
p1465
I1
sS'literary'
p1466
I1
sS'theme'
p1467
I1
sS'program'
p1468
I1
sS'black'
p1469
I5
sS'present'
p1470
I2
sS'crooner'
p1471
I1
sS'communist'
p1472
I1
sS'quotation'
p1473
I1
sS'fences'
p1474
I1
sS'fax'
p1475
I1
sS'woman'
p1476
I12
sS'hit'
p1477
I3
sS'citizen'
p1478
I2
sS'translations'
p1479
I1
sS'kind'
p1480
I1
sS'bear'
p1481
I1
sS'millionaire'
p1482
I1
sS'sons'
p1483
I2
sS'diary'
p1484
I1
sS'borrower'
p1485
I1
sS'entries'
p1486
I1
sS'races'
p1487
I1
sS'surgeon'
p1488
I1
sS'dose'
p1489
I1
sS'prime'
p1490
I4
sS'bestselling'
p1491
I1
sS'artist'
p1492
I1
sS'positions'
p1493
I1
sS'marry'
p1494
I1
sS'brother'
p1495
I1
sS'grandfather'
p1496
I1
sS'yougurt'
p1497
I1
sS'sang'
p1498
I2
sS'shoplifts'
p1499
I1
sS'delegate'
p1500
I1
sS'barroom'
p1501
I1
sS'guy'
p1502
I1
sS'round'
p1503
I1
sS'husband'
p1504
I2
sS'secretary'
p1505
I1
sS'official'
p1506
I1
sS'temperance'
p1507
I1
sS'leaders'
p1508
I1
sS'ten'
p1509
I2
sS'creator'
p1510
I2
sS'canine'
p1511
I1
sS'seat'
p1512
I1
sS'trilogy'
p1513
I1
sS'governor'
p1514
I2
sS'lawyer'
p1515
I9
sS'wife'
p1516
I2
sS'tender'
p1517
I1
sS'folk'
p1518
I1
sS'cricketer'
p1519
I1
sS'stardom'
p1520
I1
sS'movie'
p1521
I4
sS'section'
p1522
I1
sS'havoc'
p1523
I1
sS'uniform'
p1524
I1
sS'election'
p1525
I2
sS'genius'
p1526
I1
sS'state'
p1527
I1
sS'won'
p1528
I1
sS'suspect'
p1529
I1
sS'finger'
p1530
I1
sS'occupation'
p1531
I5
sS'advertizing'
p1532
I1
sS'hero'
p1533
I1
sS'degree'
p1534
I1
sS'faith'
p1535
I2
sS'men'
p1536
I2
sS'boss'
p1537
I1
sS'guitar'
p1538
I1
sS'wild'
p1539
I1
sS'job'
p1540
I3
sS'dubliners'
p1541
I1
sS'baseball'
p1542
I10
sS'opposition'
p1543
I1
sS'boy'
p1544
I2
sS'voice'
p1545
I1
sS'daughter'
p1546
I2
sS'naval'
p1547
I1
sS'survivor'
p1548
I1
sS'money'
p1549
I1
sS'joke'
p1550
I1
sS'trader'
p1551
I1
sS'host'
p1552
I2
sS'reports'
p1553
I1
sS'tv'
p1554
I12
sS'jogging'
p1555
I1
sS'games'
p1556
I1
sS'defeat'
p1557
I1
sS'senator'
p1558
I1
sS'makes'
p1559
I1
sS'maker'
p1560
I1
sS'patents'
p1561
I1
sS'conservationist'
p1562
I1
sS'cruiser'
p1563
I1
sS'presidents'
p1564
I3
sS'lyricist'
p1565
I1
sS'colony'
p1566
I1
sS'supreme'
p1567
I1
sS'pop'
p1568
I1
sS'twin'
p1569
I1
sS'martyrs'
p1570
I1
sS'husbands'
p1571
I1
sS'names'
p1572
I6
sS'composer'
p1573
I3
sS'toys'
p1574
I1
sS'resident'
p1575
I1
sS'singing'
p1576
I2
sS'rugby'
p1577
I1
sS'conference'
p1578
I1
sS'poem'
p1579
I2
sS'spoke'
p1580
I1
sS'engines'
p1581
I1
sS'army'
p1582
I2
sS'acceptance'
p1583
I1
sS'newscast'
p1584
I1
sS'commission'
p1585
I1
sS'secret'
p1586
I1
sS'wood'
p1587
I1
sS'music'
p1588
I1
sS'films'
p1589
I2
sS'markets'
p1590
I1
sS'abstract'
p1591
I1
sS'empty'
p1592
I1
sS'door'
p1593
I1
sS'conductor'
p1594
I1
sS'cop'
p1595
I1
sS'tennis'
p1596
I1
sS'honorary'
p1597
I1
sS'inventions'
p1598
I1
sS'gas'
p1599
I1
sS'buxom'
p1600
I1
sS'pugilist'
p1601
I1
sS'train'
p1602
I1
sS'stethoscope'
p1603
I1
sS'minister'
p1604
I5
sS'child'
p1605
I1
sS'superstar'
p1606
I2
sS'gold'
p1607
I2
sS'instructor'
p1608
I1
sS'painter'
p1609
I3
sS'women'
p1610
I1
sS'sound'
p1611
I1
sS'novel'
p1612
I1
sS'look'
p1613
I1
sS'presidency'
p1614
I1
sS'rights'
p1615
I1
sS'car'
p1616
I1
sS'work'
p1617
I1
sS'worm'
p1618
I1
sS'honeymooners'
p1619
I1
sS'criticizing'
p1620
I1
sS'male'
p1621
I1
sS'spy'
p1622
I1
sS'compare'
p1623
I1
sS'pyramid'
p1624
I1
sS'bandleader'
p1625
I1
sS'figures'
p1626
I1
sS'figure'
p1627
I2
sS'century'
p1628
I2
sS'process'
p1629
I1
sS'commander'
p1630
I1
sS'middle'
p1631
I2
sS'villain'
p1632
I2
sS'protects'
p1633
I1
sS'numbers'
p1634
I1
sS'partner'
p1635
I1
sS'founding'
p1636
I1
sS'astronaut'
p1637
I3
sS'biography'
p1638
I1
sS'information'
p1639
I1
sS'polio'
p1640
I1
sS'soldier'
p1641
I1
sS'holds'
p1642
I2
sS'administration'
p1643
I1
sS'tour'
p1644
I1
sS'endurance'
p1645
I1
sS'member'
p1646
I5
sS'winners'
p1647
I1
sS'monarch'
p1648
I3
sS'duel'
p1649
I1
sS'stock'
p1650
I1
sS'designer'
p1651
I2
sS'explorer'
p1652
I2
sS'autobiography'
p1653
I1
sS'kennedy-nixon'
p1654
I1
sS'appearances'
p1655
I1
sS'youngsters'
p1656
I1
sS'despondent'
p1657
I1
sS'companion'
p1658
I1
sS'shores'
p1659
I1
sS'kidnaping'
p1660
I1
sS'characters'
p1661
I1
sS'president'
p1662
I19
sS'data'
p1663
I1
sS'cartoon'
p1664
I5
sS'identity'
p1665
I1
sS'man'
p1666
I9
sS'task'
p1667
I1
sS'whores'
p1668
I1
sS'surfboard'
p1669
I1
sS'doctor'
p1670
I3
sS'children'
p1671
I1
sS'person'
p1672
I9
sS'road'
p1673
I1
sS'mother'
p1674
I2
sS'position'
p1675
I1
sS'model'
p1676
I1
sS'order'
p1677
I1
sS'ambassador'
p1678
I1
sS'abilities'
p1679
I1
sS'office'
p1680
I1
sS'gods'
p1681
I1
sS'wedding'
p1682
I1
sS'actress'
p1683
I12
sS'years'
p1684
I3
sS'batteries'
p1685
I1
sS'paper'
p1686
I1
sS'costume'
p1687
I2
sS'replies'
p1688
I1
sS'mayor'
p1689
I5
sS'bombing'
p1690
I1
sS'underwater'
p1691
I1
sS'self-portrait'
p1692
I1
sS'call'
p1693
I1
sS'queen'
p1694
I2
sS'character'
p1695
I11
sS'housewife'
p1696
I1
sS'labor'
p1697
I1
sS'blob'
p1698
I1
sS'personas'
p1699
I1
sS'founders'
p1700
I1
sS'role'
p1701
I4
sS'scoundrel'
p1702
I3
sS'chairman'
p1703
I2
sS'fool'
p1704
I1
sS'missions'
p1705
I1
sS'food'
p1706
I1
sS'chancellor'
p1707
I1
sS'wives'
p1708
I1
sS'band'
p1709
I1
sS'game'
p1710
I2
sS'boxer'
p1711
I3
sS'hands'
p1712
I1
sS'press'
p1713
I1
sS'world'
p1714
I7
sS'lady'
p1715
I1
sS'term'
p1716
I1
sS'panties'
p1717
I1
sS'attorneys'
p1718
I1
sS'name'
p1719
I61
sS'success'
p1720
I1
sS'commanders'
p1721
I1
sS'clown'
p1722
I1
sS'theory'
p1723
I1
sS'victory'
p1724
I1
sS'lawnmower'
p1725
I1
sS'loco-motion'
p1726
I1
sS'inventors'
p1727
I1
sS'celebrity'
p1728
I2
sS'x-man'
p1729
I1
sS'mean'
p1730
I1
sS'people'
p1731
I7
sS'aerodynamics'
p1732
I1
sS'stern'
p1733
I1
sS'back'
p1734
I1
sS'borrow'
p1735
I1
sS'books'
p1736
I1
sS'archenemy'
p1737
I1
sS'home'
p1738
I3
sS'girl'
p1739
I3
sS'perfume'
p1740
I1
sS'try'
p1741
I2
sS'lead'
p1742
I2
sS'space'
p1743
I1
sS'vacuum'
p1744
I1
sS'horoscope'
p1745
I1
sS'opener'
p1746
I1
sS'fountain'
p1747
I1
sS'leader'
p1748
I13
sS'maneuver'
p1749
I1
sS'monster'
p1750
I1
sS'power'
p1751
I2
sS'rock'
p1752
I1
sS'pub'
p1753
I1
sS'appointments'
p1754
I1
sS'protagonist'
p1755
I1
sS'plea'
p1756
I1
sS'poems'
p1757
I1
sS'pitchers'
p1758
I1
sS'explorers'
p1759
I1
sS'fondness'
p1760
I1
sS'director'
p1761
I6
sS'sister'
p1762
I2
sS'son-in-law'
p1763
I2
sS'deer'
p1764
I1
sS'cowboy'
p1765
I1
sS'jeep'
p1766
I1
sS'prophet'
p1767
I4
sS'newspapers'
p1768
I1
sS'door-to-door'
p1769
I1
sS'times'
p1770
I1
sS'thing'
p1771
I1
sS'islands'
p1772
I1
sS'block'
p1773
I1
sS'playwright'
p1774
I1
sS'image'
p1775
I1
sS'cross-your-heart'
p1776
I1
sS'profession'
p1777
I4
sS'comedienne'
p1778
I2
sS'obscene'
p1779
I1
sS'son'
p1780
I4
sS'feet'
p1781
I1
sS'female'
p1782
I1
sS'strip'
p1783
I3
sS'owner'
p1784
I1
sS'message'
p1785
I1
sS'swimmer'
p1786
I1
sS'engineer'
p1787
I2
sS'bull'
p1788
I1
sS'jockey'
p1789
I1
sS'nickname'
p1790
I6
sS'sculptress'
p1791
I1
sS'night'
p1792
I1
sS'question'
p1793
I1
sS'player'
p1794
I3
sS'fought'
p1795
I1
sS'master'
p1796
I1
sS'author'
p1797
I9
sS'bounty'
p1798
I1
sS'dictator'
p1799
I2
sS'speaking'
p1800
I1
sS'head'
p1801
I3
sS'airwaves'
p1802
I1
sS'circumnavigator'
p1803
I1
sS'pitcher'
p1804
I1
sS'cabinet'
p1805
I1
sS'poet'
p1806
I5
sS'part'
p1807
I3
sS'biochemists'
p1808
I1
sS'mules'
p1809
I1
sS'line'
p1810
I1
sS'surrender'
p1811
I1
sS'inventor'
p1812
I2
sS'count'
p1813
I1
sS'king'
p1814
I4
sS'television'
p1815
I3
sS'made'
p1816
I1
sS'glory'
p1817
I1
sS'players'
p1818
I2
sS'project'
p1819
I1
sS'listeners'
p1820
I1
sS'architect'
p1821
I2
sS'friend'
p1822
I2
sS'prankster'
p1823
I1
sS'promises'
p1824
I1
sS'surname'
p1825
I1
sS'nominee'
p1826
I1
sS'pro'
p1827
I1
sS'premier'
p1828
I1
sS'toothbrush'
p1829
I1
sS'strips'
p1830
I1
sS'voices'
p1831
I1
sS'talking'
p1832
I1
sS'regards'
p1833
I1
sS'rent'
p1834
I1
sS'girlfriend'
p1835
I1
sS'sells'
p1836
I1
sS'novelist'
p1837
I2
sS'film'
p1838
I6
sS'sings'
p1839
I4
sS'dancing'
p1840
I1
sS'come-on'
p1841
I1
sS'lyrics'
p1842
I1
sS'guitarist'
p1843
I1
sS'actor'
p1844
I18
sS'reality'
p1845
I1
sS'majority'
p1846
I2
sS'book'
p1847
I4
sS'actors'
p1848
I1
sS'niece'
p1849
I1
sS'forces'
p1850
I1
sS'department'
p1851
I1
sS'victor'
p1852
I1
sS'pseudonym'
p1853
I2
sS'star'
p1854
I6
sS'brothers'
p1855
I2
sS'living'
p1856
I3
sS'football'
p1857
I1
sS'phonograph'
p1858
I1
sS'heroine'
p1859
I2
sS'inspiration'
p1860
I1
sS'singer'
p1861
I1
sS'studio'
p1862
I1
sS'vice'
p1863
I2
sS'cover'
p1864
I1
sS'dog'
p1865
I1
sS'reputation'
p1866
I1
sS'lives'
p1867
I3
sS'buffalo'
p1868
I1
sS'once'
p1869
I1
stp1870
Rp1871
(dp1872
g26
I1034
sg76
Nsg77
Nsg78
Nsbsg79
I1449
sg80
F1758.5
sbssS'_label_probdist'
p1873
g0
(g21
g2
Ntp1874
Rp1875
(dp1876
g25
F0.5
sg26
I4204
sg27
g0
(g28
g29
(dp1877
g15
I71
sg16
I27
sg11
I505
sg9
I1034
sg8
I1250
sg10
I835
sg14
I75
sg12
I218
sg13
I189
stp1878
Rp1879
(dp1880
g26
I4204
sg76
Nsg77
(lp1881
(g8
I1250
tp1882
a(g9
I1034
tp1883
a(g10
I835
tp1884
a(g11
I505
tp1885
a(g12
I218
tp1886
a(g13
I189
tp1887
a(g14
I75
tp1888
a(g15
I71
tp1889
a(g16
I27
tp1890
asg78
Nsbsg79
I9
sg80
F4208.5
sbsb.