ccopy_reg
_reconstructor
p0
(cnltk.classify.maxent
MaxentClassifier
p1
c__builtin__
object
p2
Ntp3
Rp4
(dp5
S'_logarithmic'
p6
I01
sS'_encoding'
p7
g0
(cnltk.classify.maxent
BinaryMaxentFeatureEncoding
p8
g2
Ntp9
Rp10
(dp11
S'_length'
p12
I1776
sS'_labels'
p13
(lp14
S'MONEY'
p15
aS'PERCENT'
p16
aS'NUMBER'
p17
aS'PERSON'
p18
aS'OTHER'
p19
aS'LOCATION'
p20
aS'TIME'
p21
aS'DATE'
p22
aS'ORGANIZATION'
p23
asS'_unseen'
p24
NsS'_alwayson'
p25
NsS'_mapping'
p26
(dp27
(S'noun'
p28
S'votes'
p29
S'NUMBER'
p30
tp31
I813
s(g28
S'kind'
p32
S'OTHER'
p33
tp34
I58
s(g28
S'sport'
p35
S'OTHER'
p36
tp37
I238
s(g28
S'counterpart'
p38
S'OTHER'
p39
tp40
I1655
s(g28
S'sculptress'
p41
S'PERSON'
p42
tp43
I588
s(g28
S'creator'
p44
S'PERSON'
p45
tp46
I645
s(g28
S'gulf'
p47
S'LOCATION'
p48
tp49
I1504
s(g28
S'constitutes'
p50
S'OTHER'
p51
tp52
I794
s(g28
S'hearing'
p53
S'OTHER'
p54
tp55
I952
s(g28
S'surfboard'
p56
S'PERSON'
p57
tp58
I849
s(g28
S'patents'
p59
S'PERSON'
p60
tp61
I1763
s(g28
S'actress'
p62
S'LOCATION'
p63
tp64
I460
s(g28
S'rate'
p65
S'NUMBER'
p66
tp67
I771
s(g28
S'company'
p68
S'ORGANIZATION'
p69
tp70
I21
s(g28
S'broadcast'
p71
S'DATE'
p72
tp73
I678
s(g28
S'feet'
p74
S'PERSON'
p75
tp76
I314
s(g28
S'electricity'
p77
S'PERSON'
p78
tp79
I87
s(g28
S'voices'
p80
S'PERSON'
p81
tp82
I1491
s(g28
S'midi'
p83
S'LOCATION'
p84
tp85
I1409
s(g28
S'trader'
p86
S'PERSON'
p87
tp88
I1336
s(g28
S'shillings'
p89
S'NUMBER'
p90
tp91
I694
s(g28
S'network'
p92
S'ORGANIZATION'
p93
tp94
I1012
s(g28
S'chair'
p95
S'PERSON'
p96
tp97
I1309
s(g28
S'appointments'
p98
S'PERSON'
p99
tp100
I1416
s(g28
S'web'
p101
S'NUMBER'
p102
tp103
I1039
s(g28
S'sailors'
p104
S'OTHER'
p105
tp106
I1357
s(g28
S'hardest'
p107
S'OTHER'
p108
tp109
I319
s(g28
S'killer'
p110
S'OTHER'
p111
tp112
I1641
s(g28
S'architect'
p113
S'PERSON'
p114
tp115
I675
s(g28
S'jeep'
p116
S'PERSON'
p117
tp118
I1171
s(g28
S'fiddlers'
p119
S'NUMBER'
p120
tp121
I825
s(g28
S'casinos'
p122
S'NUMBER'
p123
tp124
I422
s(g28
S'moon'
p125
S'NUMBER'
p126
tp127
I1147
s(g28
S'radio'
p128
S'PERSON'
p129
tp130
I192
s(g28
S'chapter'
p131
S'NUMBER'
p132
tp133
I332
s(g28
S'watts'
p134
S'NUMBER'
p135
tp136
I1676
s(g28
S'baseball'
p137
S'NUMBER'
p138
tp139
I930
s(g28
S'vichyssoise'
p140
S'OTHER'
p141
tp142
I979
s(g28
S'toy'
p143
S'ORGANIZATION'
p144
tp145
I164
s(g28
S'wrestler'
p146
S'LOCATION'
p147
tp148
I980
s(g28
S'arms'
p149
S'OTHER'
p150
tp151
I77
s(g28
S'prime'
p152
S'PERSON'
p153
tp154
I210
s(g28
S'care'
p155
S'OTHER'
p156
tp157
I379
s(g28
S'penalty'
p158
S'OTHER'
p159
tp160
I633
s(g28
S'landmark'
p161
S'LOCATION'
p162
tp163
I1141
s(g28
S'been'
p164
S'TIME'
p165
tp166
I1430
s(g28
S'shape'
p167
S'OTHER'
p168
tp169
I1753
s(g28
S'refuge'
p170
S'NUMBER'
p171
tp172
I494
s(g28
S'film'
p173
S'OTHER'
p174
tp175
I76
s(g28
S'birth'
p176
S'OTHER'
p177
tp178
I1453
s(g28
S'marriage'
p179
S'OTHER'
p180
tp181
I740
s(g28
S'stronger'
p182
S'NUMBER'
p183
tp184
I1661
s(g28
S'avenue'
p185
S'LOCATION'
p186
tp187
I1195
s(g28
S'acres'
p188
S'NUMBER'
p189
tp190
I496
s(g28
S'dialogue'
p191
S'OTHER'
p192
tp193
I441
s(g28
S'sculpture'
p194
S'OTHER'
p195
tp196
I907
s(g28
S'bottles'
p197
S'NUMBER'
p198
tp199
I1613
s(g28
S'unemployment'
p200
S'PERCENT'
p201
tp202
I1735
s(g28
S'dipsomaniac'
p203
S'OTHER'
p204
tp205
I662
s(g28
S'camera'
p206
S'ORGANIZATION'
p207
tp208
I1481
s(g28
S'movies'
p209
S'NUMBER'
p210
tp211
I1238
s(g28
S'singles'
p212
S'LOCATION'
p213
tp214
I257
s(g28
S'advertizing'
p215
S'PERSON'
p216
tp217
I189
s(g28
S'type'
p218
S'OTHER'
p219
tp220
I251
s(g28
S'spaces'
p221
S'NUMBER'
p222
tp223
I426
s(g28
S'fascist'
p224
S'ORGANIZATION'
p225
tp226
I1188
s(g28
S'majority'
p227
S'PERSON'
p228
tp229
I674
s(g28
S'club'
p230
S'OTHER'
p231
tp232
I459
s(g28
S''
p233
S'OTHER'
p234
tp235
I27
s(g28
S'movie'
p236
S'OTHER'
p237
tp238
I227
s(g28
S'boom'
p239
S'OTHER'
p240
tp241
I1764
s(g28
S'pecan'
p242
S'LOCATION'
p243
tp244
I342
s(g28
S'weigh'
p245
S'NUMBER'
p246
tp247
I1456
s(g28
S'composer'
p248
S'PERSON'
p249
tp250
I127
s(g28
S'contact'
p251
S'OTHER'
p252
tp253
I815
s(g28
S'zip'
p254
S'NUMBER'
p255
tp256
I1534
s(g28
S'freckles'
p257
S'NUMBER'
p258
tp259
I1582
s(g28
S'buxom'
p260
S'PERSON'
p261
tp262
I1051
s(g28
S'grandfather'
p263
S'PERSON'
p264
tp265
I1204
s(g28
S'surname'
p266
S'PERSON'
p267
tp268
I808
s(g28
S'honorary'
p269
S'PERSON'
p270
tp271
I553
s(g28
S'crack'
p272
S'OTHER'
p273
tp274
I824
s(g28
S'occurs'
p275
S'OTHER'
p276
tp277
I806
s(g28
S'gland'
p278
S'OTHER'
p279
tp280
I430
s(g28
S'railways'
p281
S'ORGANIZATION'
p282
tp283
I1508
s(g28
S'oil'
p284
S'OTHER'
p285
tp286
I1283
s(g28
S'monarchs'
p287
S'LOCATION'
p288
tp289
I609
s(g28
S'wives'
p290
S'PERSON'
p291
tp292
I1473
s(g28
S'manufacturers'
p293
S'ORGANIZATION'
p294
tp295
I1266
s(g28
S'types'
p296
S'NUMBER'
p297
tp298
I217
s(g28
S'spy'
p299
S'PERSON'
p300
tp301
I259
s(g28
S'deck'
p302
S'OTHER'
p303
tp304
I264
s(g28
S'commercial'
p305
S'DATE'
p306
tp307
I1373
s(g28
S'flowers'
p308
S'OTHER'
p309
tp310
I1442
s(g28
S'hen'
p311
S'TIME'
p312
tp313
I518
s(g28
S'time'
p314
S'OTHER'
p315
tp316
I775
s(g28
S'camcorders'
p317
S'DATE'
p318
tp319
I686
s(g28
S'did'
p320
S'NUMBER'
p321
tp322
I1431
s(g28
S'men'
p323
S'OTHER'
p324
tp325
I1576
s(g28
S'savings'
p326
S'TIME'
p327
tp328
I1085
s(g28
S'joins'
p329
S'OTHER'
p330
tp331
I1355
s(g28
S'father'
p332
S'PERSON'
p333
tp334
I661
s(g28
S'cigarette'
p335
S'ORGANIZATION'
p336
tp337
I936
s(g28
S'maneuver'
p338
S'OTHER'
p339
tp340
I1742
s(g28
S'computer'
p341
S'ORGANIZATION'
p342
tp343
I663
s(g28
S'chain'
p344
S'PERSON'
p345
tp346
I785
s(g28
S'sunlight'
p347
S'TIME'
p348
tp349
I684
s(g28
S'road'
p350
S'PERSON'
p351
tp352
I957
s(g28
S'fruit'
p353
S'NUMBER'
p354
tp355
I1009
s(g28
S'propellers'
p356
S'NUMBER'
p357
tp358
I1762
s(g28
S'book'
p359
S'PERSON'
p360
tp361
I59
s(g28
S'ten'
p362
S'OTHER'
p363
tp364
I551
s(g28
S'round'
p365
S'PERSON'
p366
tp367
I1529
s(g28
S'frozen'
p368
S'OTHER'
p369
tp370
I1065
s(g28
S'sons'
p371
S'PERSON'
p372
tp373
I150
s(g28
S'diamond'
p374
S'ORGANIZATION'
p375
tp376
I761
s(g28
S'mission'
p377
S'OTHER'
p378
tp379
I973
s(g28
S'quantity'
p380
S'NUMBER'
p381
tp382
I221
s(g28
S'saliva'
p383
S'OTHER'
p384
tp385
I1396
s(g28
S'iron'
p386
S'NUMBER'
p387
tp388
I1402
s(g28
S'ticket'
p389
S'MONEY'
p390
tp391
I452
s(g28
S'man'
p392
S'PERSON'
p393
tp394
I195
s(g28
S'online'
p395
S'LOCATION'
p396
tp397
I1194
s(g28
S'name'
p398
S'LOCATION'
p399
tp400
I103
s(g28
S'owner'
p401
S'PERSON'
p402
tp403
I1375
s(g28
S'official'
p404
S'LOCATION'
p405
tp406
I1459
s(g28
S'elements'
p407
S'NUMBER'
p408
tp409
I1151
s(g28
S'island'
p410
S'LOCATION'
p411
tp412
I444
s(g28
S'fingernails'
p413
S'OTHER'
p414
tp415
I858
s(g28
S'remains'
p416
S'LOCATION'
p417
tp418
I899
s(g28
S'debt'
p419
S'TIME'
p420
tp421
I1755
s(g28
S'explorers'
p422
S'PERSON'
p423
tp424
I420
s(g28
S'eighth'
p425
S'OTHER'
p426
tp427
I1241
s(g28
S'beer'
p428
S'OTHER'
p429
tp430
I220
s(g28
S'body'
p431
S'TIME'
p432
tp433
I1122
s(g28
S'program'
p434
S'PERSON'
p435
tp436
I615
s(g28
S'post'
p437
S'LOCATION'
p438
tp439
I1561
s(g28
S'gate'
p440
S'DATE'
p441
tp442
I425
s(g28
S'score'
p443
S'NUMBER'
p444
tp445
I840
s(g28
S'forms'
p446
S'OTHER'
p447
tp448
I124
s(g28
S'colors'
p449
S'OTHER'
p450
tp451
I175
s(g28
S'bocci'
p452
S'LOCATION'
p453
tp454
I810
s(g28
S'show'
p455
S'DATE'
p456
tp457
I1654
s(g28
S'beef'
p458
S'MONEY'
p459
tp460
I903
s(g28
S'premier'
p461
S'PERSON'
p462
tp463
I1048
s(g28
S'bones'
p464
S'NUMBER'
p465
tp466
I1049
s(g28
S'ox'
p467
S'OTHER'
p468
tp469
I888
s(g28
S'glory'
p470
S'PERSON'
p471
tp472
I627
s(g28
S'document'
p473
S'OTHER'
p474
tp475
I731
s(g28
S'maximum'
p476
S'NUMBER'
p477
tp478
I1305
s(g28
S'characters'
p479
S'NUMBER'
p480
tp481
I1629
s(g28
S'girlfriend'
p482
S'PERSON'
p483
tp484
I768
s(g28
S'victory'
p485
S'PERSON'
p486
tp487
I1609
s(g28
S'stations'
p488
S'NUMBER'
p489
tp490
I872
s(g28
S'earthworms'
p491
S'NUMBER'
p492
tp493
I770
s(g28
S'muscles'
p494
S'NUMBER'
p495
tp496
I1603
s(g28
S'sound'
p497
S'OTHER'
p498
tp499
I1495
s(g28
S'directions'
p500
S'LOCATION'
p501
tp502
I104
s(g28
S'accident'
p503
S'DATE'
p504
tp505
I1384
s(g28
S'telescope'
p506
S'LOCATION'
p507
tp508
I1259
s(g28
S'surgeon'
p509
S'PERSON'
p510
tp511
I989
s(g28
S'minutes'
p512
S'NUMBER'
p513
tp514
I572
s(g28
S'rum'
p515
S'OTHER'
p516
tp517
I133
s(g28
S'eyes'
p518
S'OTHER'
p519
tp520
I155
s(g28
S'children'
p521
S'PERSON'
p522
tp523
I1527
s(g28
S'deltiologist'
p524
S'OTHER'
p525
tp526
I851
s(g28
S'stock'
p527
S'NUMBER'
p528
tp529
I904
s(g28
S'meeting'
p530
S'LOCATION'
p531
tp532
I978
s(g28
S'youngsters'
p533
S'PERSON'
p534
tp535
I962
s(g28
S'rock'
p536
S'LOCATION'
p537
tp538
I1744
s(g28
S'months'
p539
S'NUMBER'
p540
tp541
I98
s(g28
S'livestock'
p542
S'OTHER'
p543
tp544
I1044
s(g28
S'research'
p545
S'LOCATION'
p546
tp547
I1041
s(g28
S'crops'
p548
S'OTHER'
p549
tp550
I1427
s(g28
S'formula'
p551
S'OTHER'
p552
tp553
I845
s(g28
S'circumnavigator'
p554
S'PERSON'
p555
tp556
I1302
s(g28
S'delicacy'
p557
S'OTHER'
p558
tp559
I1618
s(g28
S'state'
p560
S'PERCENT'
p561
tp562
I1326
s(g28
S'train'
p563
S'PERSON'
p564
tp565
I934
s(g28
S'wingspan'
p566
S'NUMBER'
p567
tp568
I366
s(g28
S'hermit'
p569
S'TIME'
p570
tp571
I1033
s(g28
S'rail'
p572
S'LOCATION'
p573
tp574
I1581
s(g28
S'energy'
p575
S'NUMBER'
p576
tp577
I558
s(g28
S'organization'
p578
S'ORGANIZATION'
p579
tp580
I122
s(g28
S'target'
p581
S'LOCATION'
p582
tp583
I1606
s(g28
S'competition'
p584
S'OTHER'
p585
tp586
I482
s(g28
S'title'
p587
S'LOCATION'
p588
tp589
I782
s(g28
S'church'
p590
S'TIME'
p591
tp592
I1681
s(g28
S'territory'
p593
S'LOCATION'
p594
tp595
I1139
s(g28
S'tequila'
p596
S'OTHER'
p597
tp598
I1499
s(g28
S'group'
p599
S'OTHER'
p600
tp601
I371
s(g28
S'nickname'
p602
S'ORGANIZATION'
p603
tp604
I578
s(g28
S'rent'
p605
S'PERSON'
p606
tp607
I511
s(g28
S'electricity'
p608
S'NUMBER'
p609
tp610
I495
s(g28
S'guitar'
p611
S'PERSON'
p612
tp613
I1694
s(g28
S'lead'
p614
S'PERSON'
p615
tp616
I149
s(g28
S'silver'
p617
S'NUMBER'
p618
tp619
I1276
s(g28
S'statistics'
p620
S'LOCATION'
p621
tp622
I837
s(g28
S'conservationist'
p623
S'PERSON'
p624
tp625
I891
s(g28
S'missile'
p626
S'OTHER'
p627
tp628
I707
s(g28
S'baseball'
p629
S'PERSON'
p630
tp631
I305
s(g28
S'toy'
p632
S'OTHER'
p633
tp634
I1707
s(g28
S'advertise'
p635
S'ORGANIZATION'
p636
tp637
I1674
s(g28
S'disc'
p638
S'OTHER'
p639
tp640
I954
s(g28
S'inventor'
p641
S'PERSON'
p642
tp643
I15
s(g28
S'listing'
p644
S'LOCATION'
p645
tp646
I1640
s(g28
S'tournaments'
p647
S'OTHER'
p648
tp649
I1059
s(g28
S'comparisons'
p650
S'LOCATION'
p651
tp652
I885
s(g28
S'novel'
p653
S'PERSON'
p654
tp655
I1076
s(g28
S'requires'
p656
S'OTHER'
p657
tp658
I683
s(g28
S'tender'
p659
S'PERSON'
p660
tp661
I688
s(g28
S'incident'
p662
S'OTHER'
p663
tp664
I1648
s(g28
S'alternate'
p665
S'OTHER'
p666
tp667
I1056
s(g28
S'galaxy'
p668
S'NUMBER'
p669
tp670
I1115
s(g28
S'name'
p671
S'ORGANIZATION'
p672
tp673
I312
s(g28
S'engine'
p674
S'ORGANIZATION'
p675
tp676
I1724
s(g28
S'eels'
p677
S'LOCATION'
p678
tp679
I724
s(g28
S'times'
p680
S'PERSON'
p681
tp682
I1507
s(g28
S'overalls'
p683
S'OTHER'
p684
tp685
I735
s(g28
S'abilities'
p686
S'PERSON'
p687
tp688
I1145
s(g28
S'chiropodist'
p689
S'OTHER'
p690
tp691
I1112
s(g28
S'time'
p692
S'ORGANIZATION'
p693
tp694
I253
s(g28
S'numbers'
p695
S'NUMBER'
p696
tp697
I1088
s(g28
S'suspect'
p698
S'PERSON'
p699
tp700
I1646
s(g28
S'snow'
p701
S'NUMBER'
p702
tp703
I236
s(g28
S'pop'
p704
S'PERSON'
p705
tp706
I1537
s(g28
S'boxer'
p707
S'PERSON'
p708
tp709
I565
s(g28
S'scale'
p710
S'OTHER'
p711
tp712
I1592
s(g28
S'divers'
p713
S'OTHER'
p714
tp715
I710
s(g28
S'ten'
p716
S'LOCATION'
p717
tp718
I1268
s(g28
S'inspiration'
p719
S'PERSON'
p720
tp721
I613
s(g28
S'survivor'
p722
S'PERSON'
p723
tp724
I1630
s(g28
S'nation'
p725
S'LOCATION'
p726
tp727
I1296
s(g28
S'children'
p728
S'NUMBER'
p729
tp730
I504
s(g28
S'singing'
p731
S'OTHER'
p732
tp733
I1321
s(g28
S'star'
p734
S'NUMBER'
p735
tp736
I1106
s(g28
S'airplane'
p737
S'OTHER'
p738
tp739
I1209
s(g28
S'instructor'
p740
S'PERSON'
p741
tp742
I1295
s(g28
S'soccer'
p743
S'LOCATION'
p744
tp745
I229
s(g28
S'residence'
p746
S'LOCATION'
p747
tp748
I1091
s(g28
S'source'
p749
S'OTHER'
p750
tp751
I1256
s(g28
S'tiger'
p752
S'OTHER'
p753
tp754
I329
s(g28
S'types'
p755
S'OTHER'
p756
tp757
I223
s(g28
S'suit'
p758
S'OTHER'
p759
tp760
I1627
s(g28
S'bull'
p761
S'PERSON'
p762
tp763
I1213
s(g28
S'producer'
p764
S'OTHER'
p765
tp766
I393
s(g28
S'languages'
p767
S'OTHER'
p768
tp769
I368
s(g28
S'da'
p770
S'OTHER'
p771
tp772
I1639
s(g28
S'art'
p773
S'DATE'
p774
tp775
I910
s(g28
S'oceans'
p776
S'NUMBER'
p777
tp778
I369
s(g28
S'food'
p779
S'PERSON'
p780
tp781
I1156
s(g28
S'cost'
p782
S'MONEY'
p783
tp784
I449
s(g28
S'horsepower'
p785
S'NUMBER'
p786
tp787
I742
s(g28
S'dates'
p788
S'DATE'
p789
tp790
I1160
s(g28
S'time'
p791
S'DATE'
p792
tp793
I214
s(g28
S'universe'
p794
S'NUMBER'
p795
tp796
I1042
s(g28
S'drink'
p797
S'OTHER'
p798
tp799
I296
s(g28
S'autobiography'
p800
S'PERSON'
p801
tp802
I359
s(g28
S'star'
p803
S'LOCATION'
p804
tp805
I246
s(g28
S'trade'
p806
S'OTHER'
p807
tp808
I1441
s(g28
S'draws'
p809
S'OTHER'
p810
tp811
I136
s(g28
S'software'
p812
S'OTHER'
p813
tp814
I1532
s(g28
S'son-in-law'
p815
S'PERSON'
p816
tp817
I1541
s(g28
S'condiment'
p818
S'OTHER'
p819
tp820
I435
s(g28
S'speaking'
p821
S'PERSON'
p822
tp823
I169
s(g28
S'counties'
p824
S'NUMBER'
p825
tp826
I966
s(g28
S'phenomenon'
p827
S'OTHER'
p828
tp829
I431
s(g28
S'dogs'
p830
S'OTHER'
p831
tp832
I1578
s(g28
S'migrates'
p833
S'OTHER'
p834
tp835
I1025
s(g28
S'baseball'
p836
S'OTHER'
p837
tp838
I795
s(g28
S'poems'
p839
S'PERSON'
p840
tp841
I977
s(g28
S'bread'
p842
S'OTHER'
p843
tp844
I1350
s(g28
S'tennis'
p845
S'LOCATION'
p846
tp847
I1028
s(g28
S'century'
p848
S'DATE'
p849
tp850
I445
s(g28
S'head'
p851
S'NUMBER'
p852
tp853
I1569
s(g28
S'rights'
p854
S'PERSON'
p855
tp856
I1478
s(g28
S'wild'
p857
S'PERSON'
p858
tp859
I1570
s(g28
S'corners'
p860
S'NUMBER'
p861
tp862
I971
s(g28
S'scales'
p863
S'NUMBER'
p864
tp865
I1406
s(g28
S'lake'
p866
S'LOCATION'
p867
tp868
I657
s(g28
S'mormons'
p869
S'DATE'
p870
tp871
I982
s(g28
S'back'
p872
S'PERSON'
p873
tp874
I278
s(g28
S'wives'
p875
S'NUMBER'
p876
tp877
I276
s(g28
S'vegetables'
p878
S'OTHER'
p879
tp880
I1264
s(g28
S'chess'
p881
S'OTHER'
p882
tp883
I1474
s(g28
S'medicine'
p884
S'OTHER'
p885
tp886
I1573
s(g28
S'jogging'
p887
S'PERSON'
p888
tp889
I1127
s(g28
S'did'
p890
S'TIME'
p891
tp892
I708
s(g28
S'freeway'
p893
S'LOCATION'
p894
tp895
I1659
s(g28
S'border'
p896
S'LOCATION'
p897
tp898
I598
s(g28
S'engines'
p899
S'NUMBER'
p900
tp901
I486
s(g28
S'x-man'
p902
S'PERSON'
p903
tp904
I1547
s(g28
S'baby'
p905
S'NUMBER'
p906
tp907
I1320
s(g28
S'bends'
p908
S'NUMBER'
p909
tp910
I86
s(g28
S'giraffe'
p911
S'NUMBER'
p912
tp913
I706
s(g28
S'football'
p914
S'ORGANIZATION'
p915
tp916
I1645
s(g28
S'lives'
p917
S'OTHER'
p918
tp919
I1440
s(g28
S'title'
p920
S'PERSON'
p921
tp922
I353
s(g28
S'children'
p923
S'PERCENT'
p924
tp925
I606
s(g28
S'stocks'
p926
S'LOCATION'
p927
tp928
I282
s(g28
S'week'
p929
S'OTHER'
p930
tp931
I816
s(g28
S'horse'
p932
S'OTHER'
p933
tp934
I203
s(g28
S'varieties'
p935
S'NUMBER'
p936
tp937
I729
s(g28
S'plea'
p938
S'PERSON'
p939
tp940
I762
s(g28
S'rings'
p941
S'NUMBER'
p942
tp943
I1137
s(g28
S'bees'
p944
S'NUMBER'
p945
tp946
I1470
s(g28
S'arch'
p947
S'LOCATION'
p948
tp949
I334
s(g28
S'thing'
p950
S'OTHER'
p951
tp952
I861
s(g28
S'combustion'
p953
S'DATE'
p954
tp955
I950
s(g28
S'sentence'
p956
S'OTHER'
p957
tp958
I450
s(g28
S'gemstone'
p959
S'OTHER'
p960
tp961
I1198
s(g28
S'world'
p962
S'LOCATION'
p963
tp964
I63
s(g28
S'contract'
p965
S'MONEY'
p966
tp967
I1339
s(g28
S'moon'
p968
S'TIME'
p969
tp970
I1448
s(g28
S'women'
p971
S'PERSON'
p972
tp973
I1002
s(g28
S'time'
p974
S'NUMBER'
p975
tp976
I1730
s(g28
S'hero'
p977
S'OTHER'
p978
tp979
I1061
s(g28
S'seats'
p980
S'NUMBER'
p981
tp982
I1057
s(g28
S'liner'
p983
S'OTHER'
p984
tp985
I398
s(g28
S'erupt'
p986
S'DATE'
p987
tp988
I1312
s(g28
S'procedure'
p989
S'OTHER'
p990
tp991
I1184
s(g28
S'reactivity'
p992
S'NUMBER'
p993
tp994
I485
s(g28
S'spermologer'
p995
S'OTHER'
p996
tp997
I19
s(g28
S'molecules'
p998
S'OTHER'
p999
tp1000
I690
s(g28
S'line'
p1001
S'PERSON'
p1002
tp1003
I1715
s(g28
S'ports'
p1004
S'LOCATION'
p1005
tp1006
I1306
s(g28
S'swimming'
p1007
S'OTHER'
p1008
tp1009
I131
s(g28
S'witch'
p1010
S'OTHER'
p1011
tp1012
I1158
s(g28
S'painting'
p1013
S'DATE'
p1014
tp1015
I57
s(g28
S'guy'
p1016
S'PERSON'
p1017
tp1018
I1748
s(g28
S'story'
p1019
S'OTHER'
p1020
tp1021
I1227
s(g28
S'weeks'
p1022
S'NUMBER'
p1023
tp1024
I854
s(g28
S'non-fiction'
p1025
S'OTHER'
p1026
tp1027
I1074
s(g28
S'cats'
p1028
S'OTHER'
p1029
tp1030
I949
s(g28
S'newspapers'
p1031
S'PERSON'
p1032
tp1033
I1072
s(g28
S'business'
p1034
S'ORGANIZATION'
p1035
tp1036
I559
s(g28
S'airline'
p1037
S'NUMBER'
p1038
tp1039
I1170
s(g28
S'leads'
p1040
S'PERSON'
p1041
tp1042
I882
s(g28
S'period'
p1043
S'DATE'
p1044
tp1045
I1067
s(g28
S'super-teams'
p1046
S'ORGANIZATION'
p1047
tp1048
I492
s(g28
S'war'
p1049
S'NUMBER'
p1050
tp1051
I1647
s(g28
S'animals'
p1052
S'OTHER'
p1053
tp1054
I234
s(g28
S'exhibit'
p1055
S'ORGANIZATION'
p1056
tp1057
I747
s(g28
S'cross-your-heart'
p1058
S'PERSON'
p1059
tp1060
I1540
s(g28
S'genius'
p1061
S'PERSON'
p1062
tp1063
I1740
s(g28
S'attracts'
p1064
S'LOCATION'
p1065
tp1066
I292
s(g28
S'newscast'
p1067
S'PERSON'
p1068
tp1069
I372
s(g28
S'start'
p1070
S'DATE'
p1071
tp1072
I144
s(g28
S'islands'
p1073
S'NUMBER'
p1074
tp1075
I1182
s(g28
S'home'
p1076
S'PERSON'
p1077
tp1078
I1110
s(g28
S'cash'
p1079
S'OTHER'
p1080
tp1081
I1015
s(g28
S'ship'
p1082
S'OTHER'
p1083
tp1084
I1651
s(g28
S'state'
p1085
S'MONEY'
p1086
tp1087
I1335
s(g28
S'teaspoon'
p1088
S'NUMBER'
p1089
tp1090
I487
s(g28
S'percent'
p1091
S'PERCENT'
p1092
tp1093
I375
s(g28
S'direction'
p1094
S'LOCATION'
p1095
tp1096
I1289
s(g28
S'names'
p1097
S'OTHER'
p1098
tp1099
I481
s(g28
S'increase'
p1100
S'MONEY'
p1101
tp1102
I1414
s(g28
S'campaign'
p1103
S'OTHER'
p1104
tp1105
I1623
s(g28
S'needles'
p1106
S'OTHER'
p1107
tp1108
I1288
s(g28
S'methods'
p1109
S'OTHER'
p1110
tp1111
I1670
s(g28
S'structure'
p1112
S'OTHER'
p1113
tp1114
I1130
s(g28
S'election'
p1115
S'PERSON'
p1116
tp1117
I1754
s(g28
S'body'
p1118
S'OTHER'
p1119
tp1120
I988
s(g28
S'woman'
p1121
S'DATE'
p1122
tp1123
I1116
s(g28
S'authors'
p1124
S'PERSON'
p1125
tp1126
I635
s(g28
S'wander'
p1127
S'LOCATION'
p1128
tp1129
I299
s(g28
S'fans'
p1130
S'PERSON'
p1131
tp1132
I1109
s(g28
S'system'
p1133
S'OTHER'
p1134
tp1135
I676
s(g28
S'extant'
p1136
S'OTHER'
p1137
tp1138
I447
s(g28
S'espionage'
p1139
S'OTHER'
p1140
tp1141
I1345
s(g28
S'person'
p1142
S'LOCATION'
p1143
tp1144
I242
s(g28
S'work'
p1145
S'OTHER'
p1146
tp1147
I64
s(g28
S'direct'
p1148
S'DATE'
p1149
tp1150
I153
s(g28
S'dubliners'
p1151
S'PERSON'
p1152
tp1153
I1329
s(g28
S'chefs'
p1154
S'OTHER'
p1155
tp1156
I745
s(g28
S'ingredient'
p1157
S'OTHER'
p1158
tp1159
I990
s(g28
S'bell'
p1160
S'LOCATION'
p1161
tp1162
I1095
s(g28
S'havoc'
p1163
S'PERSON'
p1164
tp1165
I890
s(g28
S'measures'
p1166
S'OTHER'
p1167
tp1168
I1287
s(g28
S'trademark'
p1169
S'OTHER'
p1170
tp1171
I892
s(g28
S'money'
p1172
g15
tp1173
I68
s(g28
S'vats'
p1174
S'OTHER'
p1175
tp1176
I1123
s(g28
S'policeman'
p1177
S'OTHER'
p1178
tp1179
I812
s(g28
S'poet'
p1180
S'OTHER'
p1181
tp1182
I1486
s(g28
S'royal'
p1183
S'DATE'
p1184
tp1185
I115
s(g28
S'way'
p1186
S'OTHER'
p1187
tp1188
I173
s(g28
S'russians'
p1189
S'NUMBER'
p1190
tp1191
I1220
s(g28
S'protection'
p1192
S'NUMBER'
p1193
tp1194
I970
s(g28
S'wine'
p1195
S'OTHER'
p1196
tp1197
I1114
s(g28
S'human'
p1198
S'TIME'
p1199
tp1200
I836
s(g28
S'take'
p1201
S'LOCATION'
p1202
tp1203
I625
s(g28
S'role'
p1204
S'PERSON'
p1205
tp1206
I717
s(g28
S'woman'
p1207
S'OTHER'
p1208
tp1209
I969
s(g28
S'street'
p1210
S'LOCATION'
p1211
tp1212
I479
s(g28
S'latitude'
p1213
S'NUMBER'
p1214
tp1215
I176
s(g28
S'piece'
p1216
S'OTHER'
p1217
tp1218
I186
s(g28
S'member'
p1219
S'OTHER'
p1220
tp1221
I1342
s(g28
S'press'
p1222
S'PERSON'
p1223
tp1224
I634
s(g28
S'presidents'
p1225
S'NUMBER'
p1226
tp1227
I753
s(g28
S'invent'
p1228
S'PERSON'
p1229
tp1230
I1487
s(g28
S'accessory'
p1231
S'OTHER'
p1232
tp1233
I222
s(g28
S'message'
p1234
S'PERSON'
p1235
tp1236
I1070
s(g28
S'snake'
p1237
S'OTHER'
p1238
tp1239
I65
s(g28
S'kidnaping'
p1240
S'PERSON'
p1241
tp1242
I1050
s(g28
S'level'
p1243
S'ORGANIZATION'
p1244
tp1245
I249
s(g28
S'car'
p1246
S'PERSON'
p1247
tp1248
I1458
s(g28
S'sports'
p1249
S'OTHER'
p1250
tp1251
I437
s(g28
S'cigarette'
p1252
S'OTHER'
p1253
tp1254
I725
s(g28
S'communist'
p1255
S'PERSON'
p1256
tp1257
I1513
s(g28
S'border'
p1258
S'NUMBER'
p1259
tp1260
I1337
s(g28
S'dialing'
p1261
S'LOCATION'
p1262
tp1263
I1637
s(g28
S'stadium'
p1264
S'LOCATION'
p1265
tp1266
I168
s(g28
S'products'
p1267
S'OTHER'
p1268
tp1269
I71
s(g28
S'dot'
p1270
S'OTHER'
p1271
tp1272
I841
s(g28
S'ride'
p1273
S'OTHER'
p1274
tp1275
I377
s(g28
S'corgi'
p1276
S'OTHER'
p1277
tp1278
I750
s(g28
S'begin'
p1279
S'DATE'
p1280
tp1281
I55
s(g28
S'ages'
p1282
S'OTHER'
p1283
tp1284
I1037
s(g28
S'polyorchid'
p1285
S'OTHER'
p1286
tp1287
I1313
s(g28
S'figure'
p1288
S'PERSON'
p1289
tp1290
I1084
s(g28
S'balls'
p1291
S'OTHER'
p1292
tp1293
I1429
s(g28
S'irate'
p1294
S'OTHER'
p1295
tp1296
I605
s(g28
S'husband'
p1297
S'PERSON'
p1298
tp1299
I409
s(g28
S'case'
p1300
S'LOCATION'
p1301
tp1302
I208
s(g28
S'heroine'
p1303
S'PERSON'
p1304
tp1305
I1237
s(g28
S'eggs'
p1306
S'NUMBER'
p1307
tp1308
I1668
s(g28
S'articles'
p1309
S'OTHER'
p1310
tp1311
I12
s(g28
S'sang'
p1312
S'PERSON'
p1313
tp1314
I582
s(g28
S'airports'
p1315
S'LOCATION'
p1316
tp1317
I804
s(g28
S'voice'
p1318
S'PERSON'
p1319
tp1320
I440
s(g28
S'canine'
p1321
S'PERSON'
p1322
tp1323
I897
s(g28
S'river'
p1324
S'LOCATION'
p1325
tp1326
I424
s(g28
S'book'
p1327
S'LOCATION'
p1328
tp1329
I908
s(g28
S'trials'
p1330
S'OTHER'
p1331
tp1332
I697
s(g28
S'ravens'
p1333
S'OTHER'
p1334
tp1335
I658
s(g28
S'game'
p1336
S'PERSON'
p1337
tp1338
I748
s(g28
g233
S'PERSON'
p1339
tp1340
I7
s(g28
S'winter'
p1341
S'DATE'
p1342
tp1343
I108
s(g28
S'people'
p1344
S'NUMBER'
p1345
tp1346
I28
s(g28
S'cereal'
p1347
S'OTHER'
p1348
tp1349
I540
s(g28
S'terror'
p1350
S'OTHER'
p1351
tp1352
I1153
s(g28
S'visit'
p1353
S'DATE'
p1354
tp1355
I1469
s(g28
S'presidents'
p1356
S'MONEY'
p1357
tp1358
I1680
s(g28
S'superbowls'
p1359
S'NUMBER'
p1360
tp1361
I838
s(g28
S'office'
p1362
S'PERSON'
p1363
tp1364
I1727
s(g28
S'show'
p1365
S'TIME'
p1366
tp1367
I1341
s(g28
S'blacks'
p1368
S'NUMBER'
p1369
tp1370
I1725
s(g28
S'decision'
p1371
S'TIME'
p1372
tp1373
I1548
s(g28
S'brand'
p1374
S'NUMBER'
p1375
tp1376
I698
s(g28
S'players'
p1377
S'PERSON'
p1378
tp1379
I787
s(g28
S'data'
p1380
S'PERSON'
p1381
tp1382
I341
s(g28
S'myth'
p1383
S'LOCATION'
p1384
tp1385
I289
s(g28
S'surrender'
p1386
S'LOCATION'
p1387
tp1388
I1664
s(g28
S'group'
p1389
S'DATE'
p1390
tp1391
I1063
s(g28
S'president'
p1392
S'PERSON'
p1393
tp1394
I272
s(g28
S'pyramid-builders'
p1395
S'OTHER'
p1396
tp1397
I1530
s(g28
S'signs'
p1398
S'OTHER'
p1399
tp1400
I679
s(g28
S'write'
p1401
S'DATE'
p1402
tp1403
I744
s(g28
S'husband-and-wife'
p1404
S'PERSON'
p1405
tp1406
I1679
s(g28
S'automobile'
p1407
S'OTHER'
p1408
tp1409
I167
s(g28
S'go'
p1410
S'NUMBER'
p1411
tp1412
I1737
s(g28
S'millennium'
p1413
S'DATE'
p1414
tp1415
I664
s(g28
S'eyes'
p1416
S'NUMBER'
p1417
tp1418
I1284
s(g28
S'ruin'
p1419
S'OTHER'
p1420
tp1421
I1678
s(g28
S'manufacturer'
p1422
S'ORGANIZATION'
p1423
tp1424
I484
s(g28
S'astronauts'
p1425
S'NUMBER'
p1426
tp1427
I446
s(g28
S'task'
p1428
S'PERSON'
p1429
tp1430
I1358
s(g28
S'department'
p1431
S'LOCATION'
p1432
tp1433
I941
s(g28
S'concert'
p1434
S'DATE'
p1435
tp1436
I1594
s(g28
S'toothbrush'
p1437
S'PERSON'
p1438
tp1439
I298
s(g28
S'city'
p1440
S'LOCATION'
p1441
tp1442
I40
s(g28
S'abolitionists'
p1443
S'OTHER'
p1444
tp1445
I1554
s(g28
S'product'
p1446
S'OTHER'
p1447
tp1448
I191
s(g28
S'disaster'
p1449
S'OTHER'
p1450
tp1451
I8
s(g28
S'tune'
p1452
S'OTHER'
p1453
tp1454
I1733
s(g28
S'thunder'
p1455
S'NUMBER'
p1456
tp1457
I1367
s(g28
S'colors'
p1458
S'NUMBER'
p1459
tp1460
I1161
s(g28
S'county'
p1461
S'LOCATION'
p1462
tp1463
I365
s(g28
S'names'
p1464
S'NUMBER'
p1465
tp1466
I1714
s(g28
S'attack'
p1467
S'TIME'
p1468
tp1469
I1465
s(g28
S'element'
p1470
S'OTHER'
p1471
tp1472
I589
s(g28
S'music'
p1473
S'PERSON'
p1474
tp1475
I852
s(g28
S'clock'
p1476
S'OTHER'
p1477
tp1478
I434
s(g28
S'office'
p1479
S'TIME'
p1480
tp1481
I721
s(g28
S'culture'
p1482
S'ORGANIZATION'
p1483
tp1484
I776
s(g28
S'stardom'
p1485
S'PERSON'
p1486
tp1487
I231
s(g28
S'fast-food'
p1488
S'ORGANIZATION'
p1489
tp1490
I1250
s(g28
S'mythology'
p1491
S'LOCATION'
p1492
tp1493
I1343
s(g28
S'come'
p1494
S'LOCATION'
p1495
tp1496
I205
s(g28
S'visitors'
p1497
S'NUMBER'
p1498
tp1499
I1193
s(g28
S'death'
p1500
S'OTHER'
p1501
tp1502
I647
s(g28
S'handheld'
p1503
S'OTHER'
p1504
tp1505
I324
s(g28
S'life'
p1506
S'TIME'
p1507
tp1508
I672
s(g28
S'door'
p1509
S'PERSON'
p1510
tp1511
I39
s(g28
S'gallons'
p1512
S'NUMBER'
p1513
tp1514
I1516
s(g28
S'person'
p1515
S'MONEY'
p1516
tp1517
I1503
s(g28
S'bails'
p1518
S'NUMBER'
p1519
tp1520
I1590
s(g28
S'strip'
p1521
S'PERSON'
p1522
tp1523
I665
s(g28
S'speed'
p1524
S'NUMBER'
p1525
tp1526
I196
s(g28
S'shorn'
p1527
S'DATE'
p1528
tp1529
I443
s(g28
S'martyrs'
p1530
S'PERSON'
p1531
tp1532
I13
s(g28
S'attorneys'
p1533
S'PERSON'
p1534
tp1535
I944
s(g28
S'bone'
p1536
S'OTHER'
p1537
tp1538
I883
s(g28
S'manatees'
p1539
S'OTHER'
p1540
tp1541
I403
s(g28
S'having'
p1542
S'MONEY'
p1543
tp1544
I624
s(g28
S'contains'
p1545
S'LOCATION'
p1546
tp1547
I1178
s(g28
S'crop'
p1548
S'OTHER'
p1549
tp1550
I216
s(g28
S'playwright'
p1551
S'PERSON'
p1552
tp1553
I1687
s(g28
S'art'
p1554
S'ORGANIZATION'
p1555
tp1556
I1263
s(g28
S'bombing'
p1557
S'PERSON'
p1558
tp1559
I1071
s(g28
g233
S'LOCATION'
p1560
tp1561
I38
s(g28
S'stubborn'
p1562
S'OTHER'
p1563
tp1564
I322
s(g28
S'call'
p1565
S'OTHER'
p1566
tp1567
I159
s(g28
S'equivalent'
p1568
S'OTHER'
p1569
tp1570
I1732
s(g28
S'marijuana'
p1571
S'LOCATION'
p1572
tp1573
I1672
s(g28
S'species'
p1574
S'OTHER'
p1575
tp1576
I406
s(g28
S'women'
p1577
S'DATE'
p1578
tp1579
I225
s(g28
S'part'
p1580
S'PERSON'
p1581
tp1582
I184
s(g28
S'quart'
p1583
S'NUMBER'
p1584
tp1585
I537
s(g28
S'device'
p1586
S'OTHER'
p1587
tp1588
I985
s(g28
S'designer'
p1589
S'PERSON'
p1590
tp1591
I763
s(g28
S'telephone'
p1592
S'NUMBER'
p1593
tp1594
I275
s(g28
S'dollar'
p1595
S'NUMBER'
p1596
tp1597
I193
s(g28
S'utilities'
p1598
S'MONEY'
p1599
tp1600
I616
s(g28
S'region'
p1601
S'LOCATION'
p1602
tp1603
I543
s(g28
S'materials'
p1604
S'OTHER'
p1605
tp1606
I1759
s(g28
S'literary'
p1607
S'PERSON'
p1608
tp1609
I1477
s(g28
S'civil'
p1610
S'LOCATION'
p1611
tp1612
I965
s(g28
S'section'
p1613
S'PERSON'
p1614
tp1615
I1164
s(g28
S'rank'
p1616
S'NUMBER'
p1617
tp1618
I555
s(g28
S'found'
p1619
S'LOCATION'
p1620
tp1621
I1650
s(g28
S'dollars'
p1622
S'NUMBER'
p1623
tp1624
I1308
s(g28
S'chemicals'
p1625
S'OTHER'
p1626
tp1627
I163
s(g28
S'assent'
p1628
S'OTHER'
p1629
tp1630
I1097
s(g28
S'eat'
p1631
S'OTHER'
p1632
tp1633
I321
s(g28
S'director'
p1634
S'PERSON'
p1635
tp1636
I1229
s(g28
S'maneuver'
p1637
S'PERSON'
p1638
tp1639
I1636
s(g28
S'mountain'
p1640
S'NUMBER'
p1641
tp1642
I1511
s(g28
S'jews'
p1643
g17
tp1644
I10
s(g28
S'month'
p1645
S'DATE'
p1646
tp1647
I769
s(g28
S'point'
p1648
S'LOCATION'
p1649
tp1650
I61
s(g28
S'supreme'
p1651
S'ORGANIZATION'
p1652
tp1653
I1073
s(g28
S'owe'
p1654
S'OTHER'
p1655
tp1656
I146
s(g28
S'strips'
p1657
S'OTHER'
p1658
tp1659
I1500
s(g28
S'letters'
p1660
S'OTHER'
p1661
tp1662
I1652
s(g28
S'vacuum'
p1663
S'PERSON'
p1664
tp1665
I639
s(g28
S'variety'
p1666
S'OTHER'
p1667
tp1668
I996
s(g28
S'otters'
p1669
S'OTHER'
p1670
tp1671
I1635
s(g28
S'classification'
p1672
S'OTHER'
p1673
tp1674
I1018
s(g28
S'book'
p1675
S'OTHER'
p1676
tp1677
I56
s(g28
S'seal'
p1678
S'OTHER'
p1679
tp1680
I621
s(g28
S'smile'
p1681
S'OTHER'
p1682
tp1683
I1176
s(g28
S'noun'
p1684
S'OTHER'
p1685
tp1686
I1622
s(g28
S'teenager'
p1687
S'DATE'
p1688
tp1689
I239
s(g28
S'alphabet'
p1690
S'OTHER'
p1691
tp1692
I660
s(g28
S'attendance'
p1693
S'NUMBER'
p1694
tp1695
I1738
s(g28
S'principles'
p1696
S'OTHER'
p1697
tp1698
I1353
s(g28
S'park'
p1699
S'LOCATION'
p1700
tp1701
I902
s(g28
S'supercontinent'
p1702
S'DATE'
p1703
tp1704
I1454
s(g28
S'gas'
p1705
S'MONEY'
p1706
tp1707
I1233
s(g28
S'actor'
p1708
S'PERSON'
p1709
tp1710
I116
s(g28
S'aids'
p1711
S'OTHER'
p1712
tp1713
I534
s(g28
S'quotation'
p1714
S'PERSON'
p1715
tp1716
I618
s(g28
S'games'
p1717
S'NUMBER'
p1718
tp1719
I593
s(g28
S'research'
p1720
S'OTHER'
p1721
tp1722
I855
s(g28
S'success'
p1723
S'PERSON'
p1724
tp1725
I857
s(g28
S'living'
p1726
S'PERSON'
p1727
tp1728
I1118
s(g28
S'underwater'
p1729
S'PERSON'
p1730
tp1731
I1682
s(g28
S'identity'
p1732
S'PERSON'
p1733
tp1734
I935
s(g28
S'quadruplets'
p1735
S'NUMBER'
p1736
tp1737
I792
s(g28
S'deer'
p1738
S'PERSON'
p1739
tp1740
I1520
s(g28
S'calories'
p1741
S'NUMBER'
p1742
tp1743
I182
s(g28
S'technique'
p1744
S'OTHER'
p1745
tp1746
I123
s(g28
S'founder'
p1747
S'PERSON'
p1748
tp1749
I43
s(g28
S'fires'
p1750
S'OTHER'
p1751
tp1752
I781
s(g28
S'vessel'
p1753
S'OTHER'
p1754
tp1755
I428
s(g28
S'furlongs'
p1756
S'NUMBER'
p1757
tp1758
I1318
s(g28
S'back'
p1759
S'LOCATION'
p1760
tp1761
I562
s(g28
S'coach'
p1762
S'PERSON'
p1763
tp1764
I201
s(g28
S'colleges'
p1765
S'ORGANIZATION'
p1766
tp1767
I1368
s(g28
S'monster'
p1768
S'PERSON'
p1769
tp1770
I1113
s(g28
S'zodiac'
p1771
S'OTHER'
p1772
tp1773
I1400
s(g28
S'generation'
p1774
S'OTHER'
p1775
tp1776
I506
s(g28
S'engineer'
p1777
S'PERSON'
p1778
tp1779
I964
s(g28
S'did'
p1780
S'MONEY'
p1781
tp1782
I483
s(g28
S'engines'
p1783
S'PERSON'
p1784
tp1785
I1546
s(g28
S'vesuvius'
p1786
S'DATE'
p1787
tp1788
I1452
s(g28
S'sides'
p1789
S'NUMBER'
p1790
tp1791
I946
s(g28
S'theme'
p1792
S'PERSON'
p1793
tp1794
I1243
s(g28
S'mascot'
p1795
S'OTHER'
p1796
tp1797
I141
s(g28
S'whale'
p1798
S'OTHER'
p1799
tp1800
I415
s(g28
S'railroad'
p1801
S'DATE'
p1802
tp1803
I1736
s(g28
S'opens'
p1804
S'OTHER'
p1805
tp1806
I1663
s(g28
S'obscene'
p1807
S'PERSON'
p1808
tp1809
I766
s(g28
S'reports'
p1810
S'PERSON'
p1811
tp1812
I1068
s(g28
S'plagues'
p1813
S'OTHER'
p1814
tp1815
I1468
s(g28
S'bowl'
p1816
S'OTHER'
p1817
tp1818
I830
s(g28
S'names'
p1819
S'LOCATION'
p1820
tp1821
I41
s(g28
S'paint'
p1822
S'DATE'
p1823
tp1824
I1014
s(g28
S'bug'
p1825
S'MONEY'
p1826
tp1827
I1658
s(g28
S'area'
p1828
S'LOCATION'
p1829
tp1830
I174
s(g28
S'breakfast'
p1831
S'OTHER'
p1832
tp1833
I1713
s(g28
S'chronicles'
p1834
S'OTHER'
p1835
tp1836
I1451
s(g28
S'heliologist'
p1837
S'OTHER'
p1838
tp1839
I1089
s(g28
S'presidents'
p1840
S'PERSON'
p1841
tp1842
I1267
s(g28
S'chromosome'
p1843
S'NUMBER'
p1844
tp1845
I423
s(g28
S'cop'
p1846
S'PERSON'
p1847
tp1848
I1628
s(g28
S'miles'
p1849
S'LOCATION'
p1850
tp1851
I1704
s(g28
S'salt'
p1852
S'NUMBER'
p1853
tp1854
I881
s(g28
S'bestselling'
p1855
S'PERSON'
p1856
tp1857
I1669
s(g28
S'spend'
p1858
S'LOCATION'
p1859
tp1860
I1168
s(g28
S'groups'
p1861
S'ORGANIZATION'
p1862
tp1863
I1568
s(g28
S'countries'
p1864
S'LOCATION'
p1865
tp1866
I90
s(g28
S'screensaver'
p1867
S'LOCATION'
p1868
tp1869
I178
s(g28
S'president'
p1870
S'ORGANIZATION'
p1871
tp1872
I349
s(g28
S'flush'
p1873
S'DATE'
p1874
tp1875
I754
s(g28
S'originate'
p1876
S'OTHER'
p1877
tp1878
I1747
s(g28
S'championship'
p1879
S'ORGANIZATION'
p1880
tp1881
I326
s(g28
S'innings'
p1882
S'NUMBER'
p1883
tp1884
I274
s(g28
S'railroad'
p1885
S'MONEY'
p1886
tp1887
I126
s(g28
S'cowboy'
p1888
S'PERSON'
p1889
tp1890
I30
s(g28
S'words'
p1891
S'OTHER'
p1892
tp1893
I833
s(g28
S'jeroboams'
p1894
S'OTHER'
p1895
tp1896
I1436
s(g28
S'board'
p1897
S'OTHER'
p1898
tp1899
I165
s(g28
S'constipation'
p1900
S'OTHER'
p1901
tp1902
I713
s(g28
S'electronics'
p1903
S'ORGANIZATION'
p1904
tp1905
I623
s(g28
S'strait'
p1906
S'LOCATION'
p1907
tp1908
I1711
s(g28
S'penguins'
p1909
S'OTHER'
p1910
tp1911
I1290
s(g28
S'plants'
p1912
S'OTHER'
p1913
tp1914
I384
s(g28
S'books'
p1915
S'PERSON'
p1916
tp1917
I797
s(g28
S'police'
p1918
S'ORGANIZATION'
p1919
tp1920
I111
s(g28
S'potatoes'
p1921
S'OTHER'
p1922
tp1923
I1471
s(g28
S'display'
p1924
S'LOCATION'
p1925
tp1926
I887
s(g28
S'creature'
p1927
S'OTHER'
p1928
tp1929
I183
s(g28
S'pizza'
p1930
S'NUMBER'
p1931
tp1932
I649
s(g28
S'author'
p1933
S'PERSON'
p1934
tp1935
I157
s(g28
S'yougurt'
p1936
S'PERSON'
p1937
tp1938
I1180
s(g28
S'biography'
p1939
S'PERSON'
p1940
tp1941
I1205
s(g28
S'feeling'
p1942
S'OTHER'
p1943
tp1944
I844
s(g28
S'fingers'
p1945
S'NUMBER'
p1946
tp1947
I383
s(g28
S'strip'
p1948
S'OTHER'
p1949
tp1950
I984
s(g28
S'did'
p1951
S'OTHER'
p1952
tp1953
I564
s(g28
S'rites'
p1954
S'OTHER'
p1955
tp1956
I119
s(g28
S'approval'
p1957
S'PERCENT'
p1958
tp1959
I527
s(g28
S'bar'
p1960
S'OTHER'
p1961
tp1962
I700
s(g28
S'state'
p1963
S'OTHER'
p1964
tp1965
I396
s(g28
S'date'
p1966
S'OTHER'
p1967
tp1968
I1338
s(g28
S'queen'
p1969
S'PERSON'
p1970
tp1971
I602
s(g28
S'monsters'
p1972
S'LOCATION'
p1973
tp1974
I1633
s(g28
S'city'
p1975
S'NUMBER'
p1976
tp1977
I1413
s(g28
S'chef'
p1978
S'OTHER'
p1979
tp1980
I1589
s(g28
S'panties'
p1981
S'PERSON'
p1982
tp1983
I1726
s(g28
S'fraction'
p1984
g16
tp1985
I268
s(g28
g233
S'TIME'
p1986
tp1987
I545
s(g28
S'advertises'
p1988
S'OTHER'
p1989
tp1990
I1035
s(g28
S'capital'
p1991
S'LOCATION'
p1992
tp1993
I156
s(g28
S'amateur'
p1994
S'OTHER'
p1995
tp1996
I1131
s(g28
S'superstar'
p1997
S'PERSON'
p1998
tp1999
I266
s(g28
S'band'
p2000
S'PERSON'
p2001
tp2002
I1496
s(g28
S'show'
p2003
S'PERSON'
p2004
tp2005
I394
s(g28
S'gods'
p2006
S'PERSON'
p2007
tp2008
I1246
s(g28
S'believe'
p2009
S'DATE'
p2010
tp2011
I975
s(g28
S'box'
p2012
S'OTHER'
p2013
tp2014
I433
s(g28
S'paint'
p2015
S'OTHER'
p2016
tp2017
I526
s(g28
S'novel'
p2018
S'OTHER'
p2019
tp2020
I75
s(g28
S'look'
p2021
S'PERSON'
p2022
tp2023
I939
s(g28
S'teeth'
p2024
S'NUMBER'
p2025
tp2026
I800
s(g28
S'cds'
p2027
S'NUMBER'
p2028
tp2029
I427
s(g28
S'pyramid'
p2030
S'PERSON'
p2031
tp2032
I1734
s(g28
S'bandleader'
p2033
S'PERSON'
p2034
tp2035
I1565
s(g28
S'poet'
p2036
S'PERSON'
p2037
tp2038
I198
s(g28
S'maids'
p2039
S'NUMBER'
p2040
tp2041
I1497
s(g28
S'color'
p2042
S'OTHER'
p2043
tp2044
I36
s(g28
S'times'
p2045
S'OTHER'
p2046
tp2047
I1538
s(g28
S'hole'
p2048
S'NUMBER'
p2049
tp2050
I1415
s(g28
S'bear'
p2051
S'OTHER'
p2052
tp2053
I308
s(g28
S'middle'
p2054
S'ORGANIZATION'
p2055
tp2056
I400
s(g28
S'finger'
p2057
S'PERSON'
p2058
tp2059
I1363
s(g28
S'rock'
p2060
S'ORGANIZATION'
p2061
tp2062
I1555
s(g28
S'brother'
p2063
S'PERSON'
p2064
tp2065
I1572
s(g28
S'borrower'
p2066
S'PERSON'
p2067
tp2068
I758
s(g28
S'woman'
p2069
S'PERSON'
p2070
tp2071
I185
s(g28
S'twenty'
p2072
S'MONEY'
p2073
tp2074
I1120
s(g28
S'wife'
p2075
S'PERSON'
p2076
tp2077
I859
s(g28
S'twirl'
p2078
S'OTHER'
p2079
tp2080
I590
s(g28
S'extensions'
p2081
S'NUMBER'
p2082
tp2083
I722
s(g28
S'party'
p2084
S'MONEY'
p2085
tp2086
I79
s(g28
S'money'
p2087
S'OTHER'
p2088
tp2089
I956
s(g28
S'province'
p2090
S'LOCATION'
p2091
tp2092
I489
s(g28
S'soldiers'
p2093
S'PERSON'
p2094
tp2095
I517
s(g28
S'agency'
p2096
S'ORGANIZATION'
p2097
tp2098
I1566
s(g28
g233
S'NUMBER'
p2099
tp2100
I170
s(g28
S'materials'
p2101
S'TIME'
p2102
tp2103
I1536
s(g28
S'perform'
p2104
S'OTHER'
p2105
tp2106
I880
s(g28
S'fences'
p2107
S'PERSON'
p2108
tp2109
I416
s(g28
S'secretary'
p2110
S'PERSON'
p2111
tp2112
I1587
s(g28
S'drugs'
p2113
S'MONEY'
p2114
tp2115
I1404
s(g28
S'car'
p2116
S'OTHER'
p2117
tp2118
I466
s(g28
S'motto'
p2119
S'ORGANIZATION'
p2120
tp2121
I650
s(g28
S'supreme'
p2122
S'PERSON'
p2123
tp2124
I1004
s(g28
S'cullions'
p2125
S'NUMBER'
p2126
tp2127
I1756
s(g28
S'murder'
p2128
S'OTHER'
p2129
tp2130
I1443
s(g28
S'films'
p2131
S'NUMBER'
p2132
tp2133
I850
s(g28
S'apartment'
p2134
S'PERSON'
p2135
tp2136
I1225
s(g28
S'symphony'
p2137
S'OTHER'
p2138
tp2139
I539
s(g28
S'slits'
p2140
S'OTHER'
p2141
tp2142
I1580
s(g28
S'come'
p2143
S'DATE'
p2144
tp2145
I909
s(g28
S'libraries'
p2146
S'LOCATION'
p2147
tp2148
I730
s(g28
S'melts'
p2149
S'OTHER'
p2150
tp2151
I641
s(g28
S'determines'
p2152
S'OTHER'
p2153
tp2154
I823
s(g28
S'mother'
p2155
S'PERSON'
p2156
tp2157
I128
s(g28
S'vessels'
p2158
S'OTHER'
p2159
tp2160
I1275
s(g28
S'tiles'
p2161
S'NUMBER'
p2162
tp2163
I1523
s(g28
S'defeat'
p2164
S'PERSON'
p2165
tp2166
I1600
s(g28
S'made'
p2167
S'PERSON'
p2168
tp2169
I1128
s(g28
S'hero'
p2170
S'PERSON'
p2171
tp2172
I306
s(g28
S'chicken'
p2173
S'OTHER'
p2174
tp2175
I161
s(g28
S'food'
p2176
S'OTHER'
p2177
tp2178
I1029
s(g28
S'highway'
p2179
S'NUMBER'
p2180
tp2181
I355
s(g28
S'date'
p2182
S'DATE'
p2183
tp2184
I11
s(g28
S'tennis'
p2185
S'PERSON'
p2186
tp2187
I1316
s(g28
S'band'
p2188
S'ORGANIZATION'
p2189
tp2190
I765
s(g28
S'whores'
p2191
S'PERSON'
p2192
tp2193
I204
s(g28
S'country'
p2194
S'LOCATION'
p2195
tp2196
I34
s(g28
S'empty'
p2197
S'LOCATION'
p2198
tp2199
I1761
s(g28
S'defects'
p2200
S'OTHER'
p2201
tp2202
I1722
s(g28
S'child'
p2203
S'PERSON'
p2204
tp2205
I1533
s(g28
S'monarch'
p2206
S'PERSON'
p2207
tp2208
I337
s(g28
S'sun'
p2209
S'TIME'
p2210
tp2211
I756
s(g28
S'spacecraft'
p2212
S'NUMBER'
p2213
tp2214
I1136
s(g28
S'indoor'
p2215
S'OTHER'
p2216
tp2217
I1631
s(g28
S'invention'
p2218
S'OTHER'
p2219
tp2220
I1626
s(g28
S'end'
p2221
S'DATE'
p2222
tp2223
I860
s(g28
S'fine'
p2224
S'MONEY'
p2225
tp2226
I1103
s(g28
S'corporation'
p2227
S'ORGANIZATION'
p2228
tp2229
I1708
s(g28
S'golf'
p2230
S'OTHER'
p2231
tp2232
I17
s(g28
S'thighs'
p2233
S'OTHER'
p2234
tp2235
I651
s(g28
S'characters'
p2236
S'PERSON'
p2237
tp2238
I522
s(g28
S'approximate'
p2239
S'NUMBER'
p2240
tp2241
I603
s(g28
S'protects'
p2242
S'PERSON'
p2243
tp2244
I1449
s(g28
S'pseudonym'
p2245
S'PERSON'
p2246
tp2247
I476
s(g28
S'facility'
p2248
S'OTHER'
p2249
tp2250
I267
s(g28
S'airplane'
p2251
S'ORGANIZATION'
p2252
tp2253
I1286
s(g28
S'wife'
p2254
S'ORGANIZATION'
p2255
tp2256
I294
s(g28
S'sports'
p2257
S'ORGANIZATION'
p2258
tp2259
I1489
s(g28
S'faces'
p2260
S'OTHER'
p2261
tp2262
I1385
s(g28
S'marvel'
p2263
S'LOCATION'
p2264
tp2265
I1766
s(g28
S'sites'
p2266
S'LOCATION'
p2267
tp2268
I1261
s(g28
S'community'
p2269
S'TIME'
p2270
tp2271
I1604
s(g28
S'points'
p2272
S'NUMBER'
p2273
tp2274
I20
s(g28
S'tree'
p2275
S'LOCATION'
p2276
tp2277
I1709
s(g28
S'tale'
p2278
S'OTHER'
p2279
tp2280
I248
s(g28
S'stories'
p2281
S'OTHER'
p2282
tp2283
I712
s(g28
S'ways'
p2284
S'OTHER'
p2285
tp2286
I147
s(g28
S'bodies'
p2287
S'LOCATION'
p2288
tp2289
I1586
s(g28
S'maintain'
p2290
S'LOCATION'
p2291
tp2292
I869
s(g28
S'piano'
p2293
S'LOCATION'
p2294
tp2295
I1447
s(g28
S'seasons'
p2296
S'DATE'
p2297
tp2298
I1693
s(g28
S'flies'
p2299
S'TIME'
p2300
tp2301
I828
s(g28
S'city'
p2302
S'OTHER'
p2303
tp2304
I480
s(g28
S'aborigines'
p2305
S'LOCATION'
p2306
tp2307
I1706
s(g28
S'boardwalk'
p2308
S'NUMBER'
p2309
tp2310
I277
s(g28
S'movie'
p2311
S'PERSON'
p2312
tp2313
I789
s(g28
S'zeros'
p2314
S'NUMBER'
p2315
tp2316
I1211
s(g28
S'calcium'
p2317
S'NUMBER'
p2318
tp2319
I1699
s(g28
S'stricken'
p2320
S'DATE'
p2321
tp2322
I1223
s(g28
S'title'
p2323
S'OTHER'
p2324
tp2325
I1418
s(g28
S'work'
p2326
S'PERSON'
p2327
tp2328
I610
s(g28
S'continent'
p2329
S'LOCATION'
p2330
tp2331
I535
s(g28
S'child'
p2332
S'TIME'
p2333
tp2334
I1323
s(g28
S'amount'
p2335
S'MONEY'
p2336
tp2337
I953
s(g28
S'loco-motion'
p2338
S'PERSON'
p2339
tp2340
I842
s(g28
S'coin'
p2341
S'OTHER'
p2342
tp2343
I339
s(g28
S'books'
p2344
S'OTHER'
p2345
tp2346
I1717
s(g28
S'philatelist'
p2347
S'OTHER'
p2348
tp2349
I671
s(g28
S'fiction'
p2350
S'OTHER'
p2351
tp2352
I1278
s(g28
S'birthplace'
p2353
S'LOCATION'
p2354
tp2355
I937
s(g28
S'angles'
p2356
S'NUMBER'
p2357
tp2358
I212
s(g28
S'flight'
p2359
S'OTHER'
p2360
tp2361
I856
s(g28
S'bridge'
p2362
S'LOCATION'
p2363
tp2364
I1369
s(g28
S'labor'
p2365
S'DATE'
p2366
tp2367
I1314
s(g28
S'came'
p2368
S'OTHER'
p2369
tp2370
I734
s(g28
S'examples'
p2371
S'LOCATION'
p2372
tp2373
I597
s(g28
S'duel'
p2374
S'PERSON'
p2375
tp2376
I1620
s(g28
S'motorcycle'
p2377
S'OTHER'
p2378
tp2379
I1583
s(g28
S'men'
p2380
S'PERSON'
p2381
tp2382
I451
s(g28
S'museum'
p2383
S'LOCATION'
p2384
tp2385
I898
s(g28
S'use'
p2386
S'DATE'
p2387
tp2388
I1731
s(g28
S'debts'
p2389
S'MONEY'
p2390
tp2391
I1279
s(g28
S'nickname'
p2392
S'OTHER'
p2393
tp2394
I1334
s(g28
S'hotel'
p2395
S'LOCATION'
p2396
tp2397
I142
s(g28
S'queen'
p2398
S'OTHER'
p2399
tp2400
I1767
s(g28
S'conductor'
p2401
S'PERSON'
p2402
tp2403
I696
s(g28
S'tree'
p2404
S'ORGANIZATION'
p2405
tp2406
I1349
s(g28
S'tape'
p2407
S'LOCATION'
p2408
tp2409
I1419
s(g28
S'encounters'
p2410
S'OTHER'
p2411
tp2412
I1124
s(g28
S'quarts'
p2413
S'TIME'
p2414
tp2415
I809
s(g28
S'music'
p2416
S'DATE'
p2417
tp2418
I906
s(g28
S'web'
p2419
S'TIME'
p2420
tp2421
I261
s(g28
S'folklore'
p2422
S'OTHER'
p2423
tp2424
I805
s(g28
S'seeing'
p2425
S'LOCATION'
p2426
tp2427
I739
s(g28
S'hostages'
p2428
S'NUMBER'
p2429
tp2430
I82
s(g28
S'skin'
p2431
S'OTHER'
p2432
tp2433
I1016
s(g28
S'bear'
p2434
S'PERSON'
p2435
tp2436
I1023
s(g28
S'science'
p2437
S'LOCATION'
p2438
tp2439
I1579
s(g28
S'gold'
p2440
S'PERSON'
p2441
tp2442
I1155
s(g28
S'makes'
p2443
S'PERSON'
p2444
tp2445
I85
s(g28
S'operating'
p2446
S'OTHER'
p2447
tp2448
I309
s(g28
S'costume'
p2449
S'PERSON'
p2450
tp2451
I584
s(g28
S'restaurant'
p2452
S'LOCATION'
p2453
tp2454
I567
s(g28
S'megawatts'
p2455
S'NUMBER'
p2456
tp2457
I1001
s(g28
S'control'
p2458
S'DATE'
p2459
tp2460
I1770
s(g28
S'seventh'
p2461
S'OTHER'
p2462
tp2463
I1138
s(g28
S'components'
p2464
S'OTHER'
p2465
tp2466
I1228
s(g28
S'nuclear'
p2467
S'LOCATION'
p2468
tp2469
I1501
s(g28
S'brand'
p2470
S'OTHER'
p2471
tp2472
I591
s(g28
S'word'
p2473
S'OTHER'
p2474
tp2475
I243
s(g28
S'lawyer'
p2476
S'PERSON'
p2477
tp2478
I262
s(g28
S'job'
p2479
S'PERSON'
p2480
tp2481
I523
s(g28
S'ridge'
p2482
S'LOCATION'
p2483
tp2484
I1111
s(g28
S'habitat'
p2485
S'LOCATION'
p2486
tp2487
I1559
s(g28
S'anti-aids'
p2488
S'OTHER'
p2489
tp2490
I1595
s(g28
S'day'
p2491
S'DATE'
p2492
tp2493
I171
s(g28
S'acceptance'
p2494
S'PERSON'
p2495
tp2496
I1347
s(g28
S'pugilist'
p2497
S'PERSON'
p2498
tp2499
I1432
s(g28
S'writ'
p2500
S'OTHER'
p2501
tp2502
I1506
s(g28
S'fire'
p2503
S'DATE'
p2504
tp2505
I421
s(g28
S'softball'
p2506
S'OTHER'
p2507
tp2508
I1371
s(g28
S'sex'
p2509
S'OTHER'
p2510
tp2511
I727
s(g28
S'feet'
p2512
S'NUMBER'
p2513
tp2514
I145
s(g28
S'resident'
p2515
S'PERSON'
p2516
tp2517
I179
s(g28
S'entries'
p2518
S'PERSON'
p2519
tp2520
I1484
s(g28
S'steel'
p2521
S'DATE'
p2522
tp2523
I137
s(g28
S'frequent'
p2524
S'ORGANIZATION'
p2525
tp2526
I681
s(g28
S'swimmer'
p2527
S'PERSON'
p2528
tp2529
I232
s(g28
S'age'
p2530
S'OTHER'
p2531
tp2532
I408
s(g28
S'mules'
p2533
S'PERSON'
p2534
tp2535
I1399
s(g28
S'space'
p2536
S'OTHER'
p2537
tp2538
I1563
s(g28
S'state'
p2539
S'PERSON'
p2540
tp2541
I1019
s(g28
S'dose'
p2542
S'PERSON'
p2543
tp2544
I1117
s(g28
S'poodle'
p2545
S'NUMBER'
p2546
tp2547
I1011
s(g28
S'niece'
p2548
S'PERSON'
p2549
tp2550
I1301
s(g28
S'novelist'
p2551
S'PERSON'
p2552
tp2553
I801
s(g28
S'wide'
p2554
S'LOCATION'
p2555
tp2556
I97
s(g28
S'sea'
p2557
S'LOCATION'
p2558
tp2559
I160
s(g28
S'carries'
p2560
S'OTHER'
p2561
tp2562
I942
s(g28
S'joke'
p2563
S'PERSON'
p2564
tp2565
I1567
s(g28
S'office'
p2566
S'LOCATION'
p2567
tp2568
I1154
s(g28
S'resistance'
p2569
S'PERSON'
p2570
tp2571
I1752
s(g28
S'stern'
p2572
S'PERSON'
p2573
tp2574
I1174
s(g28
S'litmus'
p2575
S'OTHER'
p2576
tp2577
I1517
s(g28
S'revolution'
p2578
S'TIME'
p2579
tp2580
I1535
s(g28
S'fondness'
p2581
S'PERSON'
p2582
tp2583
I391
s(g28
S'grow'
p2584
S'LOCATION'
p2585
tp2586
I1282
s(g28
S'boss'
p2587
S'PERSON'
p2588
tp2589
I1743
s(g28
S'publish'
p2590
S'DATE'
p2591
tp2592
I773
s(g28
S'stars'
p2593
S'OTHER'
p2594
tp2595
I1133
s(g28
S'clown'
p2596
S'PERSON'
p2597
tp2598
I1556
s(g28
S'occupation'
p2599
S'PERSON'
p2600
tp2601
I107
s(g28
S'quarters'
p2602
S'NUMBER'
p2603
tp2604
I330
s(g28
S'astronaut'
p2605
S'PERSON'
p2606
tp2607
I767
s(g28
S'stages'
p2608
S'OTHER'
p2609
tp2610
I197
s(g28
S'movies'
p2611
S'LOCATION'
p2612
tp2613
I188
s(g28
S'taste'
p2614
S'OTHER'
p2615
tp2616
I1221
s(g28
S'income'
p2617
S'MONEY'
p2618
tp2619
I498
s(g28
S'star'
p2620
S'PERSON'
p2621
tp2622
I291
s(g28
S'clay'
p2623
S'OTHER'
p2624
tp2625
I925
s(g28
S'barroom'
p2626
S'PERSON'
p2627
tp2628
I436
s(g28
S'hocks'
p2629
S'OTHER'
p2630
tp2631
I1026
s(g28
S'acreage'
p2632
S'NUMBER'
p2633
tp2634
I125
s(g28
S'colony'
p2635
S'PERSON'
p2636
tp2637
I668
s(g28
S'pounds'
p2638
S'NUMBER'
p2639
tp2640
I1255
s(g28
S'once'
p2641
S'PERSON'
p2642
tp2643
I955
s(g28
S'surrender'
p2644
S'PERSON'
p2645
tp2646
I1505
s(g28
S'sperm'
p2647
S'NUMBER'
p2648
tp2649
I345
s(g28
S'flora'
p2650
S'OTHER'
p2651
tp2652
I1690
s(g28
S'trial'
p2653
S'TIME'
p2654
tp2655
I1376
s(g28
S'humans'
p2656
S'DATE'
p2657
tp2658
I749
s(g28
S'character'
p2659
S'PERSON'
p2660
tp2661
I166
s(g28
S'education'
p2662
S'OTHER'
p2663
tp2664
I120
s(g28
S'encyclopedia'
p2665
S'DATE'
p2666
tp2667
I327
s(g28
S'card'
p2668
S'OTHER'
p2669
tp2670
I215
s(g28
S'death'
p2671
S'NUMBER'
p2672
tp2673
I530
s(g28
S'currency'
p2674
S'OTHER'
p2675
tp2676
I1775
s(g28
S'faith'
p2677
S'PERSON'
p2678
tp2679
I411
s(g28
S'model'
p2680
S'PERSON'
p2681
tp2682
I230
s(g28
S'sign'
p2683
S'OTHER'
p2684
tp2685
I315
s(g28
S'son'
p2686
S'PERSON'
p2687
tp2688
I929
s(g28
S'chances'
p2689
S'PERCENT'
p2690
tp2691
I1082
s(g28
S'art'
p2692
S'LOCATION'
p2693
tp2694
I607
s(g28
S'thing'
p2695
S'LOCATION'
p2696
tp2697
I1483
s(g28
S'seat'
p2698
S'PERSON'
p2699
tp2700
I1624
s(g28
S'borrow'
p2701
S'PERSON'
p2702
tp2703
I640
s(g28
S'credit'
p2704
S'OTHER'
p2705
tp2706
I972
s(g28
S'events'
p2707
S'NUMBER'
p2708
tp2709
I1585
s(g28
S'blood'
p2710
S'OTHER'
p2711
tp2712
I1407
s(g28
S'insert'
p2713
S'OTHER'
p2714
tp2715
I1769
s(g28
S'keeps'
p2716
S'OTHER'
p2717
tp2718
I561
s(g28
S'chairs'
p2719
S'NUMBER'
p2720
tp2721
I1258
s(g28
S'prison'
p2722
S'LOCATION'
p2723
tp2724
I1226
s(g28
S'seas'
p2725
S'LOCATION'
p2726
tp2727
I638
s(g28
S'human'
p2728
S'NUMBER'
p2729
tp2730
I1062
s(g28
S'bay'
p2731
S'LOCATION'
p2732
tp2733
I1099
s(g28
S'companion'
p2734
S'PERSON'
p2735
tp2736
I456
s(g28
S'flavor'
p2737
S'OTHER'
p2738
tp2739
I255
s(g28
S'die'
p2740
S'DATE'
p2741
tp2742
I1760
s(g28
S'states'
p2743
S'NUMBER'
p2744
tp2745
I693
s(g28
S'crooner'
p2746
S'PERSON'
p2747
tp2748
I73
s(g28
S'headquarters'
p2749
S'LOCATION'
p2750
tp2751
I628
s(g28
S'winners'
p2752
S'PERSON'
p2753
tp2754
I1634
s(g28
S'medium'
p2755
S'OTHER'
p2756
tp2757
I66
s(g28
S'tv'
p2758
S'PERSON'
p2759
tp2760
I254
s(g28
S'alloy'
p2761
S'OTHER'
p2762
tp2763
I1551
s(g28
S'seaport'
p2764
S'LOCATION'
p2765
tp2766
I281
s(g28
S'year'
p2767
S'MONEY'
p2768
tp2769
I1528
s(g28
S'odds'
p2770
S'PERCENT'
p2771
tp2772
I656
s(g28
S'elevators'
p2773
S'NUMBER'
p2774
tp2775
I619
s(g28
S'commercial'
p2776
S'OTHER'
p2777
tp2778
I868
s(g28
S'event'
p2779
S'OTHER'
p2780
tp2781
I382
s(g28
S'ice'
p2782
S'OTHER'
p2783
tp2784
I864
s(g28
S'breweries'
p2785
S'LOCATION'
p2786
tp2787
I560
s(g28
S'troops'
p2788
S'DATE'
p2789
tp2790
I464
s(g28
S'post'
p2791
S'OTHER'
p2792
tp2793
I1245
s(g28
S'possession'
p2794
S'LOCATION'
p2795
tp2796
I503
s(g28
S'words'
p2797
S'NUMBER'
p2798
tp2799
I1666
s(g28
S'sword'
p2800
S'OTHER'
p2801
tp2802
I1330
s(g28
S'person'
p2803
S'TIME'
p2804
tp2805
I335
s(g28
S'athletes'
p2806
S'NUMBER'
p2807
tp2808
I1772
s(g28
S'plant'
p2809
S'OTHER'
p2810
tp2811
I303
s(g28
S'villain'
p2812
S'PERSON'
p2813
tp2814
I524
s(g28
S'civilization'
p2815
S'ORGANIZATION'
p2816
tp2817
I958
s(g28
S'soap'
p2818
S'OTHER'
p2819
tp2820
I213
s(g28
S'predators'
p2821
S'OTHER'
p2822
tp2823
I219
s(g28
S'picture'
p2824
S'LOCATION'
p2825
tp2826
I1269
s(g28
S'newspaper'
p2827
S'OTHER'
p2828
tp2829
I947
s(g28
S'sink'
p2830
S'LOCATION'
p2831
tp2832
I1472
s(g28
S'birds'
p2833
S'OTHER'
p2834
tp2835
I711
s(g28
S'protagonist'
p2836
S'PERSON'
p2837
tp2838
I632
s(g28
S'draft'
p2839
S'LOCATION'
p2840
tp2841
I568
s(g28
S'tourists'
p2842
S'LOCATION'
p2843
tp2844
I931
s(g28
S'liberty'
p2845
S'NUMBER'
p2846
tp2847
I1218
s(g28
S'mine'
p2848
S'OTHER'
p2849
tp2850
I1036
s(g28
S'layers'
p2851
S'NUMBER'
p2852
tp2853
I364
s(g28
S'salary'
p2854
S'MONEY'
p2855
tp2856
I983
s(g28
S'prophet'
p2857
S'PERSON'
p2858
tp2859
I35
s(g28
S'example'
p2860
S'OTHER'
p2861
tp2862
I1030
s(g28
S'cars'
p2863
S'LOCATION'
p2864
tp2865
I798
s(g28
S'member'
p2866
S'NUMBER'
p2867
tp2868
I673
s(g28
S'guitarist'
p2869
S'PERSON'
p2870
tp2871
I701
s(g28
S'term'
p2872
S'OTHER'
p2873
tp2874
I37
s(g28
S'probability'
p2875
S'PERCENT'
p2876
tp2877
I469
s(g28
S'people'
p2878
S'ORGANIZATION'
p2879
tp2880
I226
s(g28
S'islands'
p2881
S'LOCATION'
p2882
tp2883
I831
s(g28
S'diamond'
p2884
S'NUMBER'
p2885
tp2886
I1653
s(g28
S'processor'
p2887
S'NUMBER'
p2888
tp2889
I654
s(g28
S'permutations'
p2890
S'NUMBER'
p2891
tp2892
I1315
s(g28
S'lead'
p2893
S'OTHER'
p2894
tp2895
I715
s(g28
S'person'
p2896
S'PERSON'
p2897
tp2898
I448
s(g28
S'centers'
p2899
S'OTHER'
p2900
tp2901
I536
s(g28
S'painter'
p2902
S'PERSON'
p2903
tp2904
I45
s(g28
S'athlete'
p2905
S'OTHER'
p2906
tp2907
I743
s(g28
S'zoo'
p2908
S'LOCATION'
p2909
tp2910
I1197
s(g28
S'gas'
p2911
S'PERSON'
p2912
tp2913
I595
s(g28
S'answers'
p2914
S'NUMBER'
p2915
tp2916
I1102
s(g28
S'mines'
p2917
S'NUMBER'
p2918
tp2919
I1515
s(g28
S'oven'
p2920
S'NUMBER'
p2921
tp2922
I1408
s(g28
S'degree'
p2923
S'PERSON'
p2924
tp2925
I113
s(g28
S'regards'
p2926
S'PERSON'
p2927
tp2928
I1751
s(g28
S'tractors'
p2929
S'NUMBER'
p2930
tp2931
I1768
s(g28
S'army'
p2932
S'PERSON'
p2933
tp2934
I938
s(g28
S'exercises'
p2935
S'OTHER'
p2936
tp2937
I1008
s(g28
S'referees'
p2938
S'NUMBER'
p2939
tp2940
I250
s(g28
S'group'
p2941
S'LOCATION'
p2942
tp2943
I759
s(g28
S'nation'
p2944
S'NUMBER'
p2945
tp2946
I709
s(g28
S'vineyard'
p2947
S'NUMBER'
p2948
tp2949
I1605
s(g28
S'layer'
p2950
S'OTHER'
p2951
tp2952
I1492
s(g28
S'partner'
p2953
S'PERSON'
p2954
tp2955
I1058
s(g28
S'tour'
p2956
S'PERSON'
p2957
tp2958
I1169
s(g28
S'cabinet'
p2959
S'PERSON'
p2960
tp2961
I1444
s(g28
S'employ'
p2962
S'OTHER'
p2963
tp2964
I271
s(g28
S'devices'
p2965
S'LOCATION'
p2966
tp2967
I1146
s(g28
S'television'
p2968
S'PERSON'
p2969
tp2970
I462
s(g28
S'husbands'
p2971
S'PERSON'
p2972
tp2973
I1272
s(g28
S'submarine'
p2974
S'OTHER'
p2975
tp2976
I974
s(g28
S'fishing'
p2977
S'OTHER'
p2978
tp2979
I1411
s(g28
S'place'
p2980
S'LOCATION'
p2981
tp2982
I374
s(g28
S'advertising'
p2983
S'DATE'
p2984
tp2985
I1746
s(g28
S'cartoon'
p2986
S'PERSON'
p2987
tp2988
I529
s(g28
S'civil'
p2989
S'OTHER'
p2990
tp2991
I596
s(g28
S'fare'
p2992
S'OTHER'
p2993
tp2994
I1034
s(g28
S'pig'
p2995
S'NUMBER'
p2996
tp2997
I1307
s(g28
S'ball'
p2998
S'OTHER'
p2999
tp3000
I118
s(g28
S'auto'
p3001
S'OTHER'
p3002
tp3003
I457
s(g28
S'racoon'
p3004
S'OTHER'
p3005
tp3006
I26
s(g28
S'royal'
p3007
S'LOCATION'
p3008
tp3009
I960
s(g28
S'backup'
p3010
S'ORGANIZATION'
p3011
tp3012
I467
s(g28
S'group'
p3013
S'ORGANIZATION'
p3014
tp3015
I752
s(g28
S'hymn'
p3016
S'OTHER'
p3017
tp3018
I1705
s(g28
S'times'
p3019
S'NUMBER'
p3020
tp3021
I373
s(g28
S'symbol'
p3022
S'OTHER'
p3023
tp3024
I799
s(g28
S'food'
p3025
S'ORGANIZATION'
p3026
tp3027
I620
s(g28
S'paper'
p3028
S'OTHER'
p3029
tp3030
I814
s(g28
S'basketball'
p3031
S'LOCATION'
p3032
tp3033
I1142
s(g28
S'biochemists'
p3034
S'PERSON'
p3035
tp3036
I1248
s(g28
S'singing'
p3037
S'PERSON'
p3038
tp3039
I468
s(g28
S'character'
p3040
S'OTHER'
p3041
tp3042
I33
s(g28
S'rabbit'
p3043
S'OTHER'
p3044
tp3045
I60
s(g28
S'comedienne'
p3046
S'PERSON'
p3047
tp3048
I580
s(g28
S'evidence'
p3049
S'LOCATION'
p3050
tp3051
I318
s(g28
S'figures'
p3052
S'PERSON'
p3053
tp3054
I1235
s(g28
S'flood'
p3055
S'DATE'
p3056
tp3057
I1616
s(g28
S'explorer'
p3058
S'PERSON'
p3059
tp3060
I117
s(g28
S'flytrap'
p3061
S'LOCATION'
p3062
tp3063
I1177
s(g28
S'population'
p3064
S'NUMBER'
p3065
tp3066
I181
s(g28
S'fear'
p3067
S'OTHER'
p3068
tp3069
I52
s(g28
S'members'
p3070
S'NUMBER'
p3071
tp3072
I994
s(g28
S'source'
p3073
S'LOCATION'
p3074
tp3075
I1010
s(g28
S'quality'
p3076
S'LOCATION'
p3077
tp3078
I1475
s(g28
S'address'
p3079
S'LOCATION'
p3080
tp3081
I187
s(g28
S'administration'
p3082
S'ORGANIZATION'
p3083
tp3084
I1121
s(g28
S'born'
p3085
g22
tp3086
I6
s(g28
S'attack'
p3087
S'DATE'
p3088
tp3089
I629
s(g28
S'groups'
p3090
S'LOCATION'
p3091
tp3092
I429
s(g28
S'labor'
p3093
S'PERSON'
p3094
tp3095
I1066
s(g28
S'lens'
p3096
S'OTHER'
p3097
tp3098
I995
s(g28
S'governor'
p3099
S'PERSON'
p3100
tp3101
I772
s(g28
S'compare'
p3102
S'PERSON'
p3103
tp3104
I1119
s(g28
S'project'
p3105
S'PERSON'
p3106
tp3107
I642
s(g28
S'berry'
p3108
S'OTHER'
p3109
tp3110
I1758
s(g28
S'cartoon'
p3111
S'LOCATION'
p3112
tp3113
I62
s(g28
S'self-portrait'
p3114
S'PERSON'
p3115
tp3116
I951
s(g28
S'name'
p3117
S'OTHER'
p3118
tp3119
I69
s(g28
S'example'
p3120
S'ORGANIZATION'
p3121
tp3122
I959
s(g28
S'competitor'
p3123
S'ORGANIZATION'
p3124
tp3125
I190
s(g28
S'ferret'
p3126
S'TIME'
p3127
tp3128
I1671
s(g28
S'gestation'
p3129
S'TIME'
p3130
tp3131
I784
s(g28
S'refers'
p3132
S'OTHER'
p3133
tp3134
I1380
s(g28
S'coastal'
p3135
S'LOCATION'
p3136
tp3137
I1311
s(g28
S'lists'
p3138
S'LOCATION'
p3139
tp3140
I1374
s(g28
S'tenses'
p3141
S'OTHER'
p3142
tp3143
I1531
s(g28
S'fought'
p3144
S'PERSON'
p3145
tp3146
I1765
s(g28
S'television'
p3147
S'ORGANIZATION'
p3148
tp3149
I1027
s(g28
S'referring'
p3150
S'OTHER'
p3151
tp3152
I465
s(g28
S'canadians'
p3153
S'NUMBER'
p3154
tp3155
I470
s(g28
S'wonders'
p3156
S'OTHER'
p3157
tp3158
I793
s(g28
S'digits'
p3159
S'NUMBER'
p3160
tp3161
I1298
s(g28
S'part'
p3162
S'OTHER'
p3163
tp3164
I88
s(g28
S'snakes'
p3165
S'OTHER'
p3166
tp3167
I835
s(g28
S'secret'
p3168
S'OTHER'
p3169
tp3170
I1236
s(g28
S'age'
p3171
S'TIME'
p3172
tp3173
I501
s(g28
S'pairs'
p3174
S'NUMBER'
p3175
tp3176
I370
s(g28
S'gangland'
p3177
S'OTHER'
p3178
tp3179
I1166
s(g28
S'menace'
p3180
S'OTHER'
p3181
tp3182
I1716
s(g28
S'government'
p3183
S'ORGANIZATION'
p3184
tp3185
I1297
s(g28
S'gold'
p3186
S'OTHER'
p3187
tp3188
I1144
s(g28
S'puppy'
p3189
S'TIME'
p3190
tp3191
I1739
s(g28
S'copies'
p3192
S'NUMBER'
p3193
tp3194
I1518
s(g28
S'stock'
p3195
S'PERSON'
p3196
tp3197
I1277
s(g28
S'ingredients'
p3198
S'OTHER'
p3199
tp3200
I1702
s(g28
S'resting'
p3201
S'NUMBER'
p3202
tp3203
I180
s(g28
S'eruption'
p3204
S'DATE'
p3205
tp3206
I143
s(g28
S'colleges'
p3207
S'NUMBER'
p3208
tp3209
I280
s(g28
S'member'
p3210
S'PERSON'
p3211
tp3212
I385
s(g28
S'grooves'
p3213
S'NUMBER'
p3214
tp3215
I928
s(g28
S'tabs'
p3216
S'LOCATION'
p3217
tp3218
I378
s(g28
S'sings'
p3219
S'PERSON'
p3220
tp3221
I100
s(g28
S'treatment'
p3222
S'OTHER'
p3223
tp3224
I528
s(g28
S'films'
p3225
g19
tp3226
I0
s(g28
S'nations'
p3227
S'LOCATION'
p3228
tp3229
I286
s(g28
S'battle'
p3230
S'OTHER'
p3231
tp3232
I599
s(g28
S'quit'
p3233
S'OTHER'
p3234
tp3235
I397
s(g28
S'tallest'
p3236
S'LOCATION'
p3237
tp3238
I1552
s(g28
S'won'
p3239
S'PERSON'
p3240
tp3241
I1125
s(g28
S'secret'
p3242
S'PERSON'
p3243
tp3244
I846
s(g28
S'write'
p3245
S'OTHER'
p3246
tp3247
I317
s(g28
S'distinguishing'
p3248
S'OTHER'
p3249
tp3250
I669
s(g28
S'tastes'
p3251
S'OTHER'
p3252
tp3253
I1273
s(g28
S'businesses'
p3254
S'NUMBER'
p3255
tp3256
I999
s(g28
S'holidays'
p3257
S'OTHER'
p3258
tp3259
I455
s(g28
S'power'
p3260
S'PERSON'
p3261
tp3262
I922
s(g28
S'resource'
p3263
S'OTHER'
p3264
tp3265
I47
s(g28
S'publisher'
p3266
S'LOCATION'
p3267
tp3268
I581
s(g28
S'uniform'
p3269
S'PERSON'
p3270
tp3271
I348
s(g28
S'boob'
p3272
S'OTHER'
p3273
tp3274
I453
s(g28
S'camel'
p3275
S'OTHER'
p3276
tp3277
I901
s(g28
S'oven'
p3278
S'OTHER'
p3279
tp3280
I718
s(g28
S'wall'
p3281
S'LOCATION'
p3282
tp3283
I1577
s(g28
S'series'
p3284
S'OTHER'
p3285
tp3286
I478
s(g28
S'female'
p3287
S'PERSON'
p3288
tp3289
I138
s(g28
S'man'
p3290
S'NUMBER'
p3291
tp3292
I354
s(g28
S'days'
p3293
S'NUMBER'
p3294
tp3295
I1397
s(g28
S'games'
p3296
S'OTHER'
p3297
tp3298
I1000
s(g28
S'flag'
p3299
S'OTHER'
p3300
tp3301
I1721
s(g28
S'money'
p3302
S'PERSON'
p3303
tp3304
I84
s(g28
S'verses'
p3305
S'NUMBER'
p3306
tp3307
I1294
s(g28
S'web'
p3308
S'LOCATION'
p3309
tp3310
I297
s(g28
S'leaders'
p3311
S'NUMBER'
p3312
tp3313
I1172
s(g28
S'birthday'
p3314
S'DATE'
p3315
tp3316
I491
s(g28
S'seafaring'
p3317
S'LOCATION'
p3318
tp3319
I1466
s(g28
S'acid'
p3320
S'NUMBER'
p3321
tp3322
I820
s(g28
S'hospital'
p3323
S'LOCATION'
p3324
tp3325
I703
s(g28
S'male'
p3326
S'PERSON'
p3327
tp3328
I1064
s(g28
S'method'
p3329
S'OTHER'
p3330
tp3331
I822
s(g28
S'photograph'
p3332
S'LOCATION'
p3333
tp3334
I1003
s(g28
S'player'
p3335
S'OTHER'
p3336
tp3337
I1745
s(g28
S'wedding'
p3338
S'PERSON'
p3339
tp3340
I1575
s(g28
S'emperor'
p3341
S'OTHER'
p3342
tp3343
I1201
s(g28
S'air'
p3344
S'DATE'
p3345
tp3346
I94
s(g28
S'residents'
p3347
S'ORGANIZATION'
p3348
tp3349
I1129
s(g28
S'tv'
p3350
S'TIME'
p3351
tp3352
I531
s(g28
S'year'
p3353
S'OTHER'
p3354
tp3355
I1055
s(g28
S'airwaves'
p3356
S'PERSON'
p3357
tp3358
I323
s(g28
S'sells'
p3359
S'PERSON'
p3360
tp3361
I608
s(g28
S'thousands'
p3362
S'NUMBER'
p3363
tp3364
I1644
s(g28
S'want'
p3365
S'LOCATION'
p3366
tp3367
I376
s(g28
S'neurons'
p3368
S'NUMBER'
p3369
tp3370
I1251
s(g28
S'commodity'
p3371
S'OTHER'
p3372
tp3373
I269
s(g28
S'founding'
p3374
S'PERSON'
p3375
tp3376
I158
s(g28
S'play'
p3377
S'ORGANIZATION'
p3378
tp3379
I1239
s(g28
S'percentage'
p3380
S'PERCENT'
p3381
tp3382
I310
s(g28
S'elephants'
p3383
S'NUMBER'
p3384
tp3385
I1370
s(g28
S'side'
p3386
S'OTHER'
p3387
tp3388
I981
s(g28
S'replies'
p3389
S'PERSON'
p3390
tp3391
I646
s(g28
S'disease'
p3392
S'OTHER'
p3393
tp3394
I132
s(g28
S'ten'
p3395
S'ORGANIZATION'
p3396
tp3397
I1207
s(g28
S'planet'
p3398
S'LOCATION'
p3399
tp3400
I876
s(g28
S'aerodynamics'
p3401
S'PERSON'
p3402
tp3403
I1331
s(g28
S'begin'
p3404
S'LOCATION'
p3405
tp3406
I659
s(g28
S'shrubs'
p3407
S'OTHER'
p3408
tp3409
I121
s(g28
S'drug'
p3410
S'OTHER'
p3411
tp3412
I513
s(g28
S'mountain'
p3413
S'LOCATION'
p3414
tp3415
I224
s(g28
S'science'
p3416
S'OTHER'
p3417
tp3418
I1710
s(g28
S'college'
p3419
S'ORGANIZATION'
p3420
tp3421
I285
s(g28
S'live'
p3422
S'DATE'
p3423
tp3424
I283
s(g28
S'mall'
p3425
S'LOCATION'
p3426
tp3427
I631
s(g28
S'soldier'
p3428
S'PERSON'
p3429
tp3430
I774
s(g28
S'nickname'
p3431
S'PERSON'
p3432
tp3433
I351
s(g28
S'promises'
p3434
S'PERSON'
p3435
tp3436
I826
s(g28
S'respirator'
p3437
S'OTHER'
p3438
tp3439
I473
s(g28
S'hand'
p3440
S'OTHER'
p3441
tp3442
I757
s(g28
S'translations'
p3443
S'PERSON'
p3444
tp3445
I557
s(g28
S'damage'
p3446
S'OTHER'
p3447
tp3448
I817
s(g28
S'strip'
p3449
S'LOCATION'
p3450
tp3451
I968
s(g28
S'player'
p3452
S'PERSON'
p3453
tp3454
I1101
s(g28
S'length'
p3455
S'NUMBER'
p3456
tp3457
I1354
s(g28
S'limelight'
p3458
S'OTHER'
p3459
tp3460
I1498
s(g28
S'company'
p3461
S'OTHER'
p3462
tp3463
I1378
s(g28
S'baseball'
p3464
S'ORGANIZATION'
p3465
tp3466
I414
s(g28
S'pedometer'
p3467
S'OTHER'
p3468
tp3469
I1643
s(g28
S'monster'
p3470
S'OTHER'
p3471
tp3472
I525
s(g28
S'unemployment'
p3473
S'NUMBER'
p3474
tp3475
I741
s(g28
S'playing'
p3476
S'OTHER'
p3477
tp3478
I1167
s(g28
S'car'
p3479
S'ORGANIZATION'
p3480
tp3481
I95
s(g28
S'constitution'
p3482
S'OTHER'
p3483
tp3484
I381
s(g28
S'cards'
p3485
S'NUMBER'
p3486
tp3487
I22
s(g28
S'miles'
p3488
S'NUMBER'
p3489
tp3490
I235
s(g28
S'call'
p3491
S'PERSON'
p3492
tp3493
I1366
s(g28
S'cherubs'
p3494
S'NUMBER'
p3495
tp3496
I1771
s(g28
S'hang'
p3497
S'LOCATION'
p3498
tp3499
I1677
s(g28
S'name'
p3500
S'PERSON'
p3501
tp3502
I106
s(g28
S'winner'
p3503
S'OTHER'
p3504
tp3505
I1638
s(g28
S'equivalent'
p3506
S'NUMBER'
p3507
tp3508
I1621
s(g28
S'founders'
p3509
S'PERSON'
p3510
tp3511
I343
s(g28
S'lady'
p3512
S'PERSON'
p3513
tp3514
I1588
s(g28
S'droppings'
p3515
S'OTHER'
p3516
tp3517
I1450
s(g28
S'computer'
p3518
S'OTHER'
p3519
tp3520
I600
s(g28
S'achievements'
p3521
S'OTHER'
p3522
tp3523
I918
s(g28
S'dictator'
p3524
S'PERSON'
p3525
tp3526
I252
s(g28
S'eidologist'
p3527
S'OTHER'
p3528
tp3529
I1700
s(g28
S'cruiser'
p3530
S'PERSON'
p3531
tp3532
I493
s(g28
S'pony'
p3533
S'LOCATION'
p3534
tp3535
I1723
s(g28
S'resurrectionist'
p3536
S'OTHER'
p3537
tp3538
I1262
s(g28
S'translations'
p3539
S'OTHER'
p3540
tp3541
I1597
s(g28
S'ceremony'
p3542
S'OTHER'
p3543
tp3544
I1173
s(g28
S'companies'
p3545
S'ORGANIZATION'
p3546
tp3547
I1593
s(g28
S'company'
p3548
S'DATE'
p3549
tp3550
I818
s(g28
S'glass'
p3551
S'DATE'
p3552
tp3553
I1718
s(g28
S'night'
p3554
S'PERSON'
p3555
tp3556
I563
s(g28
S'radio'
p3557
S'OTHER'
p3558
tp3559
I636
s(g28
S'albums'
p3560
S'OTHER'
p3561
tp3562
I1079
s(g28
S'lyrics'
p3563
S'LOCATION'
p3564
tp3565
I67
s(g28
S'artist'
p3566
S'TIME'
p3567
tp3568
I389
s(g28
S'become'
p3569
S'DATE'
p3570
tp3571
I533
s(g28
S'cells'
p3572
S'NUMBER'
p3573
tp3574
I1553
s(g28
S'full-length'
p3575
S'OTHER'
p3576
tp3577
I1485
s(g28
S'delegate'
p3578
S'PERSON'
p3579
tp3580
I666
s(g28
S'test'
p3581
S'DATE'
p3582
tp3583
I1502
s(g28
S'world'
p3584
S'NUMBER'
p3585
tp3586
I1433
s(g28
S'gender'
p3587
S'OTHER'
p3588
tp3589
I1657
s(g28
S'cables'
p3590
S'NUMBER'
p3591
tp3592
I1420
s(g28
S'razor'
p3593
S'OTHER'
p3594
tp3595
I346
s(g28
S'party'
p3596
S'ORGANIZATION'
p3597
tp3598
I413
s(g28
S'meters'
p3599
S'NUMBER'
p3600
tp3601
I778
s(g28
S'opener'
p3602
S'PERSON'
p3603
tp3604
I1346
s(g28
S'film'
p3605
S'PERSON'
p3606
tp3607
I313
s(g28
S'graduate'
p3608
S'LOCATION'
p3609
tp3610
I1697
s(g28
S'theory'
p3611
S'PERSON'
p3612
tp3613
I1322
s(g28
S'dots'
p3614
S'NUMBER'
p3615
tp3616
I300
s(g28
S'program'
p3617
S'OTHER'
p3618
tp3619
I1231
s(g28
S'ballet'
p3620
S'ORGANIZATION'
p3621
tp3622
I1608
s(g28
S'blob'
p3623
S'PERSON'
p3624
tp3625
I886
s(g28
S'tarantula'
p3626
S'OTHER'
p3627
tp3628
I695
s(g28
S'buffalo'
p3629
S'PERSON'
p3630
tp3631
I360
s(g28
S'hiccup'
p3632
S'TIME'
p3633
tp3634
I746
s(g28
S'longest'
p3635
S'OTHER'
p3636
tp3637
I356
s(g28
S'rock'
p3638
S'PERSON'
p3639
tp3640
I689
s(g28
S'frames'
p3641
S'NUMBER'
p3642
tp3643
I1013
s(g28
S'senator'
p3644
S'PERSON'
p3645
tp3646
I1216
s(g28
S'milk'
p3647
S'PERSON'
p3648
tp3649
I1351
s(g28
S'hair'
p3650
S'OTHER'
p3651
tp3652
I245
s(g28
S'strips'
p3653
S'PERSON'
p3654
tp3655
I705
s(g28
S'shots'
p3656
S'NUMBER'
p3657
tp3658
I320
s(g28
S'stamp'
p3659
S'MONEY'
p3660
tp3661
I270
s(g28
S'room'
p3662
S'LOCATION'
p3663
tp3664
I1424
s(g28
S'telephone'
p3665
S'ORGANIZATION'
p3666
tp3667
I520
s(g28
S'writer'
p3668
S'PERSON'
p3669
tp3670
I363
s(g28
S'profession'
p3671
S'PERSON'
p3672
tp3673
I4
s(g28
S'way'
p3674
S'LOCATION'
p3675
tp3676
I336
s(g28
S'form'
p3677
S'OTHER'
p3678
tp3679
I549
s(g28
S'school'
p3680
S'ORGANIZATION'
p3681
tp3682
I1024
s(g28
S'countries'
p3683
S'NUMBER'
p3684
tp3685
I134
s(g28
S'teats'
p3686
S'NUMBER'
p3687
tp3688
I1092
s(g28
S'trophy'
p3689
S'OTHER'
p3690
tp3691
I889
s(g28
S'ends'
p3692
S'OTHER'
p3693
tp3694
I926
s(g28
S'wage'
p3695
S'MONEY'
p3696
tp3697
I399
s(g28
S'travelling'
p3698
S'OTHER'
p3699
tp3700
I1514
s(g28
S'boy'
p3701
S'PERSON'
p3702
tp3703
I1522
s(g28
S'hands'
p3704
S'PERSON'
p3705
tp3706
I1422
s(g28
S'diseases'
p3707
S'OTHER'
p3708
tp3709
I1728
s(g28
S'cancer'
p3710
S'OTHER'
p3711
tp3712
I544
s(g28
S'erupts'
p3713
S'LOCATION'
p3714
tp3715
I1108
s(g28
S'grammys'
p3716
S'NUMBER'
p3717
tp3718
I499
s(g28
S'suey'
p3719
S'LOCATION'
p3720
tp3721
I1340
s(g28
S'soldiers'
p3722
S'NUMBER'
p3723
tp3724
I917
s(g28
S'empty'
p3725
S'PERSON'
p3726
tp3727
I1017
s(g28
S'rain'
p3728
S'LOCATION'
p3729
tp3730
I350
s(g28
S'cities'
p3731
S'NUMBER'
p3732
tp3733
I1191
s(g28
S'statistics'
p3734
S'NUMBER'
p3735
tp3736
I1212
s(g28
S'penny-farthings'
p3737
S'NUMBER'
p3738
tp3739
I630
s(g28
S'milliseconds'
p3740
S'NUMBER'
p3741
tp3742
I685
s(g28
S'glass'
p3743
S'OTHER'
p3744
tp3745
I803
s(g28
S'primate'
p3746
S'OTHER'
p3747
tp3748
I945
s(g28
S'temperature'
p3749
S'NUMBER'
p3750
tp3751
I288
s(g28
S'list'
p3752
S'LOCATION'
p3753
tp3754
I70
s(g28
S'cream'
p3755
S'OTHER'
p3756
tp3757
I997
s(g28
S'approaches'
p3758
S'OTHER'
p3759
tp3760
I194
s(g28
S'singer'
p3761
S'PERSON'
p3762
tp3763
I1562
s(g28
S'mean'
p3764
S'PERSON'
p3765
tp3766
I1372
s(g28
S'information'
p3767
S'LOCATION'
p3768
tp3769
I287
s(g28
S'daycare'
p3770
S'MONEY'
p3771
tp3772
I311
s(g28
S'cocaine'
p3773
S'TIME'
p3774
tp3775
I1159
s(g28
S'appearances'
p3776
S'PERSON'
p3777
tp3778
I992
s(g28
S'ukulele'
p3779
S'LOCATION'
p3780
tp3781
I1545
s(g28
S'pitchers'
p3782
S'NUMBER'
p3783
tp3784
I1165
s(g28
S'advertising'
p3785
S'OTHER'
p3786
tp3787
I863
s(g28
S'hole'
p3788
S'LOCATION'
p3789
tp3790
I241
s(g28
S'commanders'
p3791
S'PERSON'
p3792
tp3793
I644
s(g28
S'commander'
p3794
S'PERSON'
p3795
tp3796
I1183
s(g28
S'looking'
p3797
S'OTHER'
p3798
tp3799
I1132
s(g28
S'chancellor'
p3800
S'PERSON'
p3801
tp3802
I1749
s(g28
S'guinea'
p3803
S'LOCATION'
p3804
tp3805
I521
s(g28
S'ambassador'
p3806
S'PERSON'
p3807
tp3808
I873
s(g28
S'spears'
p3809
S'NUMBER'
p3810
tp3811
I1086
s(g28
S'tail'
p3812
S'OTHER'
p3813
tp3814
I1390
s(g28
S'west'
p3815
S'OTHER'
p3816
tp3817
I1596
s(g28
S'reality'
p3818
S'PERSON'
p3819
tp3820
I1265
s(g28
S'villi'
p3821
S'NUMBER'
p3822
tp3823
I51
s(g28
S'span'
p3824
S'LOCATION'
p3825
tp3826
I1081
s(g28
S'lawnmower'
p3827
S'PERSON'
p3828
tp3829
I1215
s(g28
S'exchange'
p3830
S'MONEY'
p3831
tp3832
I692
s(g28
S'waste'
p3833
S'NUMBER'
p3834
tp3835
I570
s(g28
S'dimensions'
p3836
S'NUMBER'
p3837
tp3838
I677
s(g28
g233
S'DATE'
p3839
tp3840
I114
s(g28
S'mutiny'
p3841
S'DATE'
p3842
tp3843
I74
s(g28
S'try'
p3844
S'PERSON'
p3845
tp3846
I1135
s(g28
S'ten'
p3847
S'PERSON'
p3848
tp3849
I338
s(g28
S'paper'
p3850
S'PERSON'
p3851
tp3852
I719
s(g28
S'begin'
p3853
S'OTHER'
p3854
tp3855
I1232
s(g28
S'mean'
p3856
S'OTHER'
p3857
tp3858
I871
s(g28
S'move'
p3859
S'OTHER'
p3860
tp3861
I1393
s(g28
S'events'
p3862
S'OTHER'
p3863
tp3864
I419
s(g28
S'hairy'
p3865
S'OTHER'
p3866
tp3867
I1208
s(g28
S'master'
p3868
S'PERSON'
p3869
tp3870
I240
s(g28
S'milligrams'
p3871
S'NUMBER'
p3872
tp3873
I780
s(g28
S'map'
p3874
S'LOCATION'
p3875
tp3876
I1521
s(g28
S'year'
p3877
S'DATE'
p3878
tp3879
I54
s(g28
S'prayer'
p3880
S'OTHER'
p3881
tp3882
I819
s(g28
S'tribe'
p3883
S'ORGANIZATION'
p3884
tp3885
I101
s(g28
S'opposition'
p3886
S'PERSON'
p3887
tp3888
I1152
s(g28
S'cartoons'
p3889
S'LOCATION'
p3890
tp3891
I733
s(g28
S'exchange'
p3892
S'OTHER'
p3893
tp3894
I1774
s(g28
S'magazine'
p3895
S'OTHER'
p3896
tp3897
I583
s(g28
S'object'
p3898
S'OTHER'
p3899
tp3900
I1187
s(g28
S'center'
p3901
S'LOCATION'
p3902
tp3903
I228
s(g28
S'kinds'
p3904
S'OTHER'
p3905
tp3906
I786
s(g28
S'cricketer'
p3907
S'PERSON'
p3908
tp3909
I1686
s(g28
S'leader'
p3910
S'PERSON'
p3911
tp3912
I207
s(g28
S'chemicals'
p3913
S'LOCATION'
p3914
tp3915
I1224
s(g28
S'tree'
p3916
S'MONEY'
p3917
tp3918
I1031
s(g28
S'race'
p3919
S'OTHER'
p3920
tp3921
I967
s(g28
S'recipe'
p3922
S'OTHER'
p3923
tp3924
I991
s(g28
S'missions'
p3925
S'PERSON'
p3926
tp3927
I1364
s(g28
S'nutrients'
p3928
S'OTHER'
p3929
tp3930
I1611
s(g28
S'forces'
p3931
S'PERSON'
p3932
tp3933
I1148
s(g28
S'season'
p3934
S'DATE'
p3935
tp3936
I764
s(g28
S'staff'
p3937
S'PERSON'
p3938
tp3939
I1359
s(g28
S'trilogy'
p3940
S'PERSON'
p3941
tp3942
I1617
s(g28
S'actors'
p3943
S'PERSON'
p3944
tp3945
I1104
s(g28
S'official'
p3946
S'PERSON'
p3947
tp3948
I1200
s(g28
S'pitcher'
p3949
S'PERSON'
p3950
tp3951
I1230
s(g28
S'jockey'
p3952
S'PERSON'
p3953
tp3954
I1181
s(g28
S'dog'
p3955
S'PERSON'
p3956
tp3957
I927
s(g28
S'millions'
p3958
S'OTHER'
p3959
tp3960
I1550
s(g28
S'actor'
p3961
S'OTHER'
p3962
tp3963
I387
s(g28
S'intercourse'
p3964
S'TIME'
p3965
tp3966
I723
s(g28
S'southern'
p3967
S'LOCATION'
p3968
tp3969
I943
s(g28
S'apartments'
p3970
S'LOCATION'
p3971
tp3972
I1260
s(g28
S'titles'
p3973
S'OTHER'
p3974
tp3975
I1217
s(g28
S'war'
p3976
S'OTHER'
p3977
tp3978
I93
s(g28
S'dice'
p3979
S'OTHER'
p3980
tp3981
I1571
s(g28
S'despondent'
p3982
S'PERSON'
p3983
tp3984
I463
s(g28
S'junk'
p3985
S'MONEY'
p3986
tp3987
I519
s(g28
S'films'
p3988
S'PERSON'
p3989
tp3990
I617
s(g28
S'hit'
p3991
S'PERSON'
p3992
tp3993
I1060
s(g28
S'theme'
p3994
S'OTHER'
p3995
tp3996
I237
s(g28
S'distance'
p3997
S'ORGANIZATION'
p3998
tp3999
I790
s(g28
S'number'
p4000
S'NUMBER'
p4001
tp4002
I352
s(g28
S'elements'
p4003
S'OTHER'
p4004
tp4005
I78
s(g28
S'resources'
p4006
S'LOCATION'
p4007
tp4008
I1140
s(g28
S'battle'
p4009
S'DATE'
p4010
tp4011
I152
s(g28
S'vice'
p4012
S'PERSON'
p4013
tp4014
I471
s(g28
S'phonograph'
p4015
S'PERSON'
p4016
tp4017
I401
s(g28
S'count'
p4018
S'PERSON'
p4019
tp4020
I655
s(g28
S'celebrity'
p4021
S'PERSON'
p4022
tp4023
I1544
s(g28
S'fare'
p4024
S'MONEY'
p4025
tp4026
I1332
s(g28
S'brontosauruses'
p4027
S'OTHER'
p4028
tp4029
I148
s(g28
S'pig'
p4030
S'TIME'
p4031
tp4032
I1683
s(g28
S'synonym'
p4033
S'OTHER'
p4034
tp4035
I1219
s(g28
S'friend'
p4036
S'PERSON'
p4037
tp4038
I1244
s(g28
S'flavors'
p4039
S'NUMBER'
p4040
tp4041
I1543
s(g28
S'court'
p4042
S'LOCATION'
p4043
tp4044
I779
s(g28
S'starts'
p4045
S'OTHER'
p4046
tp4047
I1519
s(g28
S'section'
p4048
S'OTHER'
p4049
tp4050
I1741
s(g28
S'inches'
p4051
S'NUMBER'
p4052
tp4053
I29
s(g28
S'television'
p4054
S'OTHER'
p4055
tp4056
I218
s(g28
S'listeners'
p4057
S'PERSON'
p4058
tp4059
I566
s(g28
S'conference'
p4060
S'PERSON'
p4061
tp4062
I571
s(g28
S'yards'
p4063
S'NUMBER'
p4064
tp4065
I1673
s(g28
S'actress'
p4066
S'PERSON'
p4067
tp4068
I80
s(g28
S'religion'
p4069
S'OTHER'
p4070
tp4071
I24
s(g28
S'corpus'
p4072
S'LOCATION'
p4073
tp4074
I1077
s(g28
S'airport'
p4075
S'LOCATION'
p4076
tp4077
I1712
s(g28
S'twin'
p4078
S'PERSON'
p4079
tp4080
I497
s(g28
S'conjugations'
p4081
S'OTHER'
p4082
tp4083
I1006
s(g28
S'fruit'
p4084
S'OTHER'
p4085
tp4086
I1729
s(g28
S'ambassador'
p4087
S'DATE'
p4088
tp4089
I1464
s(g28
S'come-on'
p4090
S'PERSON'
p4091
tp4092
I1460
s(g28
S'revolutions'
p4093
S'NUMBER'
p4094
tp4095
I129
s(g28
S'hat'
p4096
S'LOCATION'
p4097
tp4098
I538
s(g28
S'fractal'
p4099
S'LOCATION'
p4100
tp4101
I1403
s(g28
S'king'
p4102
S'PERSON'
p4103
tp4104
I552
s(g28
S'line'
p4105
S'LOCATION'
p4106
tp4107
I667
s(g28
S'door-to-door'
p4108
S'PERSON'
p4109
tp4110
I509
s(g28
S'ancients'
p4111
S'OTHER'
p4112
tp4113
I1388
s(g28
S'schools'
p4114
S'ORGANIZATION'
p4115
tp4116
I139
s(g28
S'stethoscope'
p4117
S'PERSON'
p4118
tp4119
I1105
s(g28
S'men'
p4120
S'NUMBER'
p4121
tp4122
I1087
s(g28
S'price'
p4123
S'MONEY'
p4124
tp4125
I386
s(g28
S'artist'
p4126
S'PERSON'
p4127
tp4128
I680
s(g28
S'housewife'
p4129
S'PERSON'
p4130
tp4131
I893
s(g28
S'rows'
p4132
S'NUMBER'
p4133
tp4134
I586
s(g28
S'sport'
p4135
S'LOCATION'
p4136
tp4137
I877
s(g28
S'sister'
p4138
S'OTHER'
p4139
tp4140
I1022
s(g28
S'produces'
p4141
S'ORGANIZATION'
p4142
tp4143
I83
s(g28
S'test'
p4144
S'LOCATION'
p4145
tp4146
I1632
s(g28
S'bytes'
p4147
S'NUMBER'
p4148
tp4149
I1202
s(g28
S'term'
p4150
S'PERSON'
p4151
tp4152
I407
s(g28
S'football'
p4153
S'PERSON'
p4154
tp4155
I1382
s(g28
S'question'
p4156
S'PERSON'
p4157
tp4158
I976
s(g28
S'tuberculosis'
p4159
S'LOCATION'
p4160
tp4161
I1214
s(g28
S'craft'
p4162
S'OTHER'
p4163
tp4164
I1150
s(g28
S'therapy'
p4165
S'OTHER'
p4166
tp4167
I109
s(g28
S'lawyer'
p4168
S'OTHER'
p4169
tp4170
I1421
s(g28
S'millimeters'
p4171
S'NUMBER'
p4172
tp4173
I1319
s(g28
S'canals'
p4174
S'LOCATION'
p4175
tp4176
I1389
s(g28
S'criticizing'
p4177
S'PERSON'
p4178
tp4179
I914
s(g28
S'translation'
p4180
S'OTHER'
p4181
tp4182
I682
s(g28
S'dangles'
p4183
S'OTHER'
p4184
tp4185
I112
s(g28
S'eczema'
p4186
S'OTHER'
p4187
tp4188
I1090
s(g28
S'anything'
p4189
S'LOCATION'
p4190
tp4191
I1196
s(g28
S'warmup'
p4192
S'NUMBER'
p4193
tp4194
I1043
s(g28
S'wear'
p4195
S'OTHER'
p4196
tp4197
I265
s(g28
S'answers'
p4198
S'LOCATION'
p4199
tp4200
I1249
s(g28
S'law'
p4201
S'NUMBER'
p4202
tp4203
I807
s(g28
S'walks'
p4204
S'OTHER'
p4205
tp4206
I1457
s(g28
S'connection'
p4207
S'OTHER'
p4208
tp4209
I738
s(g28
S'reputation'
p4210
S'PERSON'
p4211
tp4212
I550
s(g28
S'lesson'
p4213
S'LOCATION'
p4214
tp4215
I1083
s(g28
S'desert'
p4216
S'LOCATION'
p4217
tp4218
I110
s(g28
S'airline'
p4219
S'ORGANIZATION'
p4220
tp4221
I1274
s(g28
S'century'
p4222
S'PERSON'
p4223
tp4224
I1098
s(g28
S'cities'
p4225
S'LOCATION'
p4226
tp4227
I362
s(g28
S'sister'
p4228
S'PERSON'
p4229
tp4230
I1439
s(g28
S'class'
p4231
S'OTHER'
p4232
tp4233
I1455
s(g28
S'get'
p4234
S'DATE'
p4235
tp4236
I592
s(g28
S'leg'
p4237
S'OTHER'
p4238
tp4239
I853
s(g28
S'songs'
p4240
S'OTHER'
p4241
tp4242
I404
s(g28
S'stars'
p4243
S'NUMBER'
p4244
tp4245
I514
s(g28
S'names'
p4246
S'PERSON'
p4247
tp4248
I331
s(g28
S'fowl'
p4249
S'OTHER'
p4250
tp4251
I1
s(g28
S'crocodile'
p4252
S'OTHER'
p4253
tp4254
I1094
s(g28
S'birthstone'
p4255
S'OTHER'
p4256
tp4257
I405
s(g28
S'horses'
p4258
S'NUMBER'
p4259
tp4260
I569
s(g28
S'opera'
p4261
S'OTHER'
p4262
tp4263
I1234
s(g28
S'boys'
p4264
S'NUMBER'
p4265
tp4266
I442
s(g28
S'cocaine'
p4267
S'ORGANIZATION'
p4268
tp4269
I1303
s(g28
S'people'
p4270
S'OTHER'
p4271
tp4272
I279
s(g28
S'chairbound'
p4273
S'OTHER'
p4274
tp4275
I290
s(g28
S'abstract'
p4276
S'PERSON'
p4277
tp4278
I1317
s(g28
S'drunk'
p4279
S'NUMBER'
p4280
tp4281
I1348
s(g28
S'vowel'
p4282
S'OTHER'
p4283
tp4284
I14
s(g28
S'shoplifts'
p4285
S'PERSON'
p4286
tp4287
I900
s(g28
S'phobophobe'
p4288
S'OTHER'
p4289
tp4290
I1356
s(g28
S'tv'
p4291
S'OTHER'
p4292
tp4293
I206
s(g28
S'kind'
p4294
S'PERSON'
p4295
tp4296
I1667
s(g28
S'pitchers'
p4297
S'PERSON'
p4298
tp4299
I1467
s(g28
S'get'
p4300
S'OTHER'
p4301
tp4302
I1625
s(g28
S'lakes'
p4303
S'NUMBER'
p4304
tp4305
I1254
s(g28
S'engines'
p4306
S'ORGANIZATION'
p4307
tp4308
I1344
s(g28
S'companies'
p4309
S'OTHER'
p4310
tp4311
I488
s(g28
S'correct'
p4312
S'OTHER'
p4313
tp4314
I1564
s(g28
S'utensils'
p4315
S'OTHER'
p4316
tp4317
I1381
s(g28
S'trees'
p4318
S'NUMBER'
p4319
tp4320
I1040
s(g28
S'sound'
p4321
S'PERSON'
p4322
tp4323
I1054
s(g28
S'kid'
p4324
S'OTHER'
p4325
tp4326
I986
s(g28
S'snowboard'
p4327
S'LOCATION'
p4328
tp4329
I475
s(g28
S'nickname'
p4330
S'LOCATION'
p4331
tp4332
I49
s(g28
S'produces'
p4333
S'OTHER'
p4334
tp4335
I932
s(g28
S'games'
p4336
S'PERSON'
p4337
tp4338
I1005
s(g28
S'status'
p4339
S'LOCATION'
p4340
tp4341
I1391
s(g28
S'citizen'
p4342
S'PERSON'
p4343
tp4344
I648
s(g28
S'steps'
p4345
S'LOCATION'
p4346
tp4347
I99
s(g28
S'toys'
p4348
S'PERSON'
p4349
tp4350
I704
s(g28
S'code'
p4351
S'PERSON'
p4352
tp4353
I870
s(g28
S'thing'
p4354
S'PERSON'
p4355
tp4356
I998
s(g28
S'lengths'
p4357
S'NUMBER'
p4358
tp4359
I516
s(g28
S'house'
p4360
S'DATE'
p4361
tp4362
I1649
s(g28
S'chance'
p4363
S'PERCENT'
p4364
tp4365
I687
s(g28
S'sort'
p4366
S'OTHER'
p4367
tp4368
I1270
s(g28
S'fountain'
p4369
S'PERSON'
p4370
tp4371
I1423
s(g28
S'deserts'
p4372
S'LOCATION'
p4373
tp4374
I1435
s(g28
S'folk'
p4375
S'PERSON'
p4376
tp4377
I432
s(g28
S'lobsters'
p4378
S'LOCATION'
p4379
tp4380
I1614
s(g28
S'claws'
p4381
S'NUMBER'
p4382
tp4383
I1445
s(g28
S'amount'
p4384
S'NUMBER'
p4385
tp4386
I1257
s(g28
S'pound'
p4387
S'NUMBER'
p4388
tp4389
I1047
s(g28
S'dogs'
p4390
S'NUMBER'
p4391
tp4392
I1157
s(g28
S'put'
p4393
S'OTHER'
p4394
tp4395
I1395
s(g28
S'ladybugs'
p4396
S'OTHER'
p4397
tp4398
I1394
s(g28
S'continents'
p4399
S'NUMBER'
p4400
tp4401
I1379
s(g28
S'originate'
p4402
S'LOCATION'
p4403
tp4404
I1377
s(g28
S'consist'
p4405
S'OTHER'
p4406
tp4407
I295
s(g28
S'president'
p4408
S'LOCATION'
p4409
tp4410
I554
s(g28
S'ability'
p4411
S'OTHER'
p4412
tp4413
I1324
s(g28
S'car'
p4414
S'NUMBER'
p4415
tp4416
I333
s(g28
S'head'
p4417
S'PERSON'
p4418
tp4419
I1203
s(g28
S'fast'
p4420
S'ORGANIZATION'
p4421
tp4422
I1328
s(g28
S'languages'
p4423
S'NUMBER'
p4424
tp4425
I472
s(g28
S'waterfall'
p4426
S'LOCATION'
p4427
tp4428
I16
s(g28
S'concentration'
p4429
S'LOCATION'
p4430
tp4431
I1584
s(g28
S'lawyers'
p4432
S'NUMBER'
p4433
tp4434
I587
s(g28
S'subway'
p4435
S'LOCATION'
p4436
tp4437
I1281
s(g28
S'kind'
p4438
S'ORGANIZATION'
p4439
tp4440
I716
s(g28
S'humans'
p4441
S'OTHER'
p4442
tp4443
I1656
s(g28
S'wings'
p4444
S'OTHER'
p4445
tp4446
I1222
s(g28
S'constellation'
p4447
S'LOCATION'
p4448
tp4449
I777
s(g28
S'rivers'
p4450
S'LOCATION'
p4451
tp4452
I896
s(g28
S'flying'
p4453
S'OTHER'
p4454
tp4455
I1479
s(g28
S'ailment'
p4456
S'OTHER'
p4457
tp4458
I796
s(g28
S'hunting'
p4459
S'ORGANIZATION'
p4460
tp4461
I1075
s(g28
S'prankster'
p4462
S'PERSON'
p4463
tp4464
I1480
s(g28
S'surrounds'
p4465
S'LOCATION'
p4466
tp4467
I1512
s(g28
S'cards'
p4468
S'OTHER'
p4469
tp4470
I875
s(g28
S'society'
p4471
S'ORGANIZATION'
p4472
tp4473
I1685
s(g28
S'come'
p4474
S'OTHER'
p4475
tp4476
I1163
s(g28
S'years'
p4477
S'PERSON'
p4478
tp4479
I843
s(g28
S'letters'
p4480
S'NUMBER'
p4481
tp4482
I1591
s(g28
S'disks'
p4483
S'NUMBER'
p4484
tp4485
I755
s(g28
S'family'
p4486
S'OTHER'
p4487
tp4488
I1598
s(g28
S'colonies'
p4489
S'NUMBER'
p4490
tp4491
I102
s(g28
S'snack'
p4492
S'OTHER'
p4493
tp4494
I1557
s(g28
S'girl'
p4495
S'PERSON'
p4496
tp4497
I172
s(g28
g233
S'ORGANIZATION'
p4498
tp4499
I32
s(g28
S'cover'
p4500
S'PERSON'
p4501
tp4502
I392
s(g28
S'ash'
p4503
S'LOCATION'
p4504
tp4505
I1428
s(g28
S'frequency'
p4506
S'NUMBER'
p4507
tp4508
I811
s(g28
S'language'
p4509
S'OTHER'
p4510
tp4511
I247
s(g28
S'commission'
p4512
S'PERSON'
p4513
tp4514
I512
s(g28
S'ride'
p4515
S'LOCATION'
p4516
tp4517
I1365
s(g28
S'order'
p4518
S'OTHER'
p4519
tp4520
I1476
s(g28
S'football'
p4521
S'OTHER'
p4522
tp4523
I1291
s(g28
S'power'
p4524
S'DATE'
p4525
tp4526
I1386
s(g28
S'kinds'
p4527
S'NUMBER'
p4528
tp4529
I1549
s(g28
S'account'
p4530
S'PERCENT'
p4531
tp4532
I1300
s(g28
S'student'
p4533
S'NUMBER'
p4534
tp4535
I412
s(g28
S'grow'
p4536
S'OTHER'
p4537
tp4538
I1280
s(g28
S'naval'
p4539
S'PERSON'
p4540
tp4541
I1698
s(g28
S'dish'
p4542
S'OTHER'
p4543
tp4544
I508
s(g28
S'hamlet'
p4545
S'LOCATION'
p4546
tp4547
I1052
s(g28
S'building'
p4548
S'LOCATION'
p4549
tp4550
I328
s(g28
S'websites'
p4551
S'NUMBER'
p4552
tp4553
I1285
s(g28
S'flying'
p4554
S'LOCATION'
p4555
tp4556
I867
s(g28
S'adventures'
p4557
S'LOCATION'
p4558
tp4559
I25
s(g28
S'incompetent'
p4560
S'OTHER'
p4561
tp4562
I162
s(g28
S'years'
p4563
S'NUMBER'
p4564
tp4565
I81
s(g28
S'weight'
p4566
S'NUMBER'
p4567
tp4568
I895
s(g28
S'individual'
p4569
S'LOCATION'
p4570
tp4571
I1149
s(g28
S'mountains'
p4572
S'LOCATION'
p4573
tp4574
I211
s(g28
S'level'
p4575
S'OTHER'
p4576
tp4577
I151
s(g28
S'four-player'
p4578
S'OTHER'
p4579
tp4580
I1558
s(g28
S'tools'
p4581
S'OTHER'
p4582
tp4583
I924
s(g28
S'www.questions.com'
p4584
S'DATE'
p4585
tp4586
I316
s(g28
S'phone'
p4587
S'NUMBER'
p4588
tp4589
I532
s(g28
S'bid'
p4590
S'OTHER'
p4591
tp4592
I1253
s(g28
S'home'
p4593
S'NUMBER'
p4594
tp4595
I347
s(g28
S'islands'
p4596
S'PERSON'
p4597
tp4598
I367
s(g28
S'period'
p4599
S'OTHER'
p4600
tp4601
I1189
s(g28
S'mayor'
p4602
S'PERSON'
p4603
tp4604
I96
s(g28
S'history'
p4605
S'LOCATION'
p4606
tp4607
I948
s(g28
S'vegetation'
p4608
S'NUMBER'
p4609
tp4610
I866
s(g28
S'letter'
p4611
S'OTHER'
p4612
tp4613
I357
s(g28
S'dam'
p4614
S'LOCATION'
p4615
tp4616
I791
s(g28
S'hearts'
p4617
S'NUMBER'
p4618
tp4619
I302
s(g28
S'card'
p4620
S'ORGANIZATION'
p4621
tp4622
I1045
s(g28
S'squares'
p4623
S'NUMBER'
p4624
tp4625
I788
s(g28
S'spider'
p4626
S'OTHER'
p4627
tp4628
I1360
s(g28
S'helium'
p4629
S'LOCATION'
p4630
tp4631
I760
s(g28
S'cyclist'
p4632
S'OTHER'
p4633
tp4634
I304
s(g28
S'eggs'
p4635
S'TIME'
p4636
tp4637
I987
s(g28
S'peacocks'
p4638
S'OTHER'
p4639
tp4640
I921
s(g28
S'town'
p4641
S'LOCATION'
p4642
tp4643
I728
s(g28
S'quarts'
p4644
S'NUMBER'
p4645
tp4646
I1691
s(g28
S'vaccine'
p4647
S'OTHER'
p4648
tp4649
I913
s(g28
S'bird'
p4650
S'OTHER'
p4651
tp4652
I50
s(g28
S'kind'
p4653
S'LOCATION'
p4654
tp4655
I1405
s(g28
S'middle'
p4656
S'OTHER'
p4657
tp4658
I477
s(g28
S'black'
p4659
S'PERSON'
p4660
tp4661
I390
s(g28
S'statues'
p4662
S'OTHER'
p4663
tp4664
I344
s(g28
S'size'
p4665
S'NUMBER'
p4666
tp4667
I154
s(g28
S'peak'
p4668
S'LOCATION'
p4669
tp4670
I233
s(g28
S'caffeine'
p4671
S'NUMBER'
p4672
tp4673
I821
s(g28
S'studio'
p4674
S'PERSON'
p4675
tp4676
I1665
s(g28
S'weird'
p4677
S'LOCATION'
p4678
tp4679
I879
s(g28
S'waterways'
p4680
S'LOCATION'
p4681
tp4682
I1304
s(g28
S'breeding'
p4683
S'OTHER'
p4684
tp4685
I458
s(g28
S'glitters'
p4686
S'LOCATION'
p4687
tp4688
I751
s(g28
S'concerts'
p4689
S'OTHER'
p4690
tp4691
I1206
s(g28
S'treat'
p4692
S'OTHER'
p4693
tp4694
I1619
s(g28
S'meter'
p4695
S'OTHER'
p4696
tp4697
I585
s(g28
S'brothers'
p4698
S'PERSON'
p4699
tp4700
I53
s(g28
S'fuel'
p4701
S'OTHER'
p4702
tp4703
I500
s(g28
S'dog'
p4704
S'TIME'
p4705
tp4706
I622
s(g28
S'dog'
p4707
S'OTHER'
p4708
tp4709
I418
s(g28
S'tragedy'
p4710
S'OTHER'
p4711
tp4712
I1602
s(g28
S'meat'
p4713
S'ORGANIZATION'
p4714
tp4715
I1192
s(g28
S'blood'
p4716
g21
tp4717
I72
s(g28
S'substance'
p4718
S'OTHER'
p4719
tp4720
I575
s(g28
S'textiles'
p4721
S'LOCATION'
p4722
tp4723
I1078
s(g28
S'inventions'
p4724
S'PERSON'
p4725
tp4726
I1134
s(g28
S'home'
p4727
S'LOCATION'
p4728
tp4729
I541
s(g28
S'leader'
p4730
S'DATE'
p4731
tp4732
I1392
s(g28
S'get'
p4733
S'LOCATION'
p4734
tp4735
I244
s(g28
S'space'
p4736
S'PERSON'
p4737
tp4738
I89
s(g28
S'review'
p4739
S'LOCATION'
p4740
tp4741
I130
s(g28
S'world'
p4742
S'OTHER'
p4743
tp4744
I439
s(g28
S'tenths'
p4745
S'NUMBER'
p4746
tp4747
I1325
s(g28
S'kennedy-nixon'
p4748
S'PERSON'
p4749
tp4750
I1701
s(g28
S'spice'
p4751
S'OTHER'
p4752
tp4753
I1021
s(g28
S'hands'
p4754
S'NUMBER'
p4755
tp4756
I410
s(g28
S'middle'
p4757
S'PERSON'
p4758
tp4759
I783
s(g28
S'prize'
p4760
S'OTHER'
p4761
tp4762
I832
s(g28
S'diary'
p4763
S'PERSON'
p4764
tp4765
I256
s(g28
S'vehicles'
p4766
S'OTHER'
p4767
tp4768
I1361
s(g28
S'lives'
p4769
S'PERSON'
p4770
tp4771
I507
s(g28
S'domestica'
p4772
S'OTHER'
p4773
tp4774
I44
s(g28
S'publish'
p4775
S'OTHER'
p4776
tp4777
I1252
s(g28
S'lyricist'
p4778
S'PERSON'
p4779
tp4780
I1525
s(g28
S'host'
p4781
S'PERSON'
p4782
tp4783
I263
s(g28
S'universe'
p4784
S'TIME'
p4785
tp4786
I1692
s(g28
S'refer'
p4787
S'OTHER'
p4788
tp4789
I1293
s(g28
S'video'
p4790
S'OTHER'
p4791
tp4792
I1574
s(g28
S'causes'
p4793
S'OTHER'
p4794
tp4795
I1362
s(g28
S'hump'
p4796
S'OTHER'
p4797
tp4798
I1032
s(g28
S'poem'
p4799
S'PERSON'
p4800
tp4801
I1242
s(g28
S'website'
p4802
S'LOCATION'
p4803
tp4804
I847
s(g28
S'belt'
p4805
S'OTHER'
p4806
tp4807
I325
s(g28
S'camels'
p4808
S'OTHER'
p4809
tp4810
I702
s(g28
S'endurance'
p4811
S'PERSON'
p4812
tp4813
I1299
s(g28
S'companies'
p4814
S'NUMBER'
p4815
tp4816
I1352
s(g28
S'pub'
p4817
S'PERSON'
p4818
tp4819
I829
s(g28
S'instrument'
p4820
S'OTHER'
p4821
tp4822
I140
s(g28
S'flog'
p4823
S'OTHER'
p4824
tp4825
I612
s(g28
S'orca'
p4826
S'OTHER'
p4827
tp4828
I1696
s(g28
S'perfume'
p4829
S'PERSON'
p4830
tp4831
I461
s(g28
S'heart'
p4832
S'DATE'
p4833
tp4834
I1675
s(g28
S'purveyor'
p4835
S'ORGANIZATION'
p4836
tp4837
I510
s(g28
S'actors'
p4838
S'NUMBER'
p4839
tp4840
I1463
s(g28
S'bomb'
p4841
S'OTHER'
p4842
tp4843
I827
s(g28
S'world'
p4844
S'PERSON'
p4845
tp4846
I490
s(g28
S'doctor'
p4847
S'PERSON'
p4848
tp4849
I1175
s(g28
S'line'
p4850
S'OTHER'
p4851
tp4852
I92
s(g28
S'races'
p4853
S'ORGANIZATION'
p4854
tp4855
I1126
s(g28
S'worm'
p4856
S'PERSON'
p4857
tp4858
I1417
s(g28
S'mixing'
p4859
S'OTHER'
p4860
tp4861
I542
s(g28
S'oil'
p4862
S'ORGANIZATION'
p4863
tp4864
I260
s(g28
S'feet'
p4865
S'OTHER'
p4866
tp4867
I1247
s(g28
S'block'
p4868
S'PERSON'
p4869
tp4870
I1599
s(g28
S'presidency'
p4871
S'PERSON'
p4872
tp4873
I1542
s(g28
S'information'
p4874
S'PERSON'
p4875
tp4876
I862
s(g28
S'body'
p4877
S'LOCATION'
p4878
tp4879
I42
s(g28
S'inside'
p4880
S'NUMBER'
p4881
tp4882
I923
s(g28
S'diamonds'
p4883
S'LOCATION'
p4884
tp4885
I1539
s(g28
S'sonnets'
p4886
S'NUMBER'
p4887
tp4888
I199
s(g28
S'markets'
p4889
S'PERSON'
p4890
tp4891
I1387
s(g28
S'contains'
p4892
S'OTHER'
p4893
tp4894
I1526
s(g28
S'steel'
p4895
S'OTHER'
p4896
tp4897
I916
s(g28
S'batteries'
p4898
S'PERSON'
p4899
tp4900
I474
s(g28
S'dancing'
p4901
S'PERSON'
p4902
tp4903
I1689
s(g28
S'modern'
p4904
S'OTHER'
p4905
tp4906
I1720
s(g28
S'merchant'
p4907
S'LOCATION'
p4908
tp4909
I1642
s(g28
S'school'
p4910
S'NUMBER'
p4911
tp4912
I1401
s(g28
S'caffeine'
p4913
S'OTHER'
p4914
tp4915
I1310
s(g28
S'questions'
p4916
S'NUMBER'
p4917
tp4918
I546
s(g28
S'foods'
p4919
S'OTHER'
p4920
tp4921
I834
s(g28
S'haboob'
p4922
S'OTHER'
p4923
tp4924
I1190
s(g28
S'syllables'
p4925
S'NUMBER'
p4926
tp4927
I502
s(g28
S'brothers'
p4928
S'LOCATION'
p4929
tp4930
I961
s(g28
S'nationality'
p4931
S'LOCATION'
p4932
tp4933
I736
s(g28
S'state'
p4934
g20
tp4935
I9
s(g28
S'teaspoons'
p4936
S'NUMBER'
p4937
tp4938
I1524
s(g28
S'pro'
p4939
S'PERSON'
p4940
tp4941
I878
s(g28
S'hurricane'
p4942
S'OTHER'
p4943
tp4944
I1509
s(g28
S'target'
p4945
S'PERCENT'
p4946
tp4947
I556
s(g28
S'present'
p4948
S'PERSON'
p4949
tp4950
I1199
s(g28
S'year'
p4951
S'NUMBER'
p4952
tp4953
I626
s(g28
S'producer'
p4954
S'ORGANIZATION'
p4955
tp4956
I1038
s(g28
S'become'
p4957
S'OTHER'
p4958
tp4959
I340
s(g28
S'students'
p4960
S'NUMBER'
p4961
tp4962
I454
s(g28
S'senses'
p4963
S'OTHER'
p4964
tp4965
I1560
s(g28
S'shores'
p4966
S'PERSON'
p4967
tp4968
I1162
s(g28
S'nominee'
p4969
S'PERSON'
p4970
tp4971
I380
s(g28
S'revolutionaries'
p4972
S'DATE'
p4973
tp4974
I1750
s(g28
S'devices'
p4975
S'OTHER'
p4976
tp4977
I200
s(g28
S'sons'
p4978
S'OTHER'
p4979
tp4980
I699
s(g28
S'numbers'
p4981
S'PERSON'
p4982
tp4983
I1490
s(g28
S'millionaire'
p4984
S'PERSON'
p4985
tp4986
I1398
s(g28
S'shoe'
p4987
S'NUMBER'
p4988
tp4989
I1210
s(g28
S'wheel'
p4990
S'OTHER'
p4991
tp4992
I732
s(g28
S'emperors'
p4993
S'NUMBER'
p4994
tp4995
I1069
s(g28
S'image'
p4996
S'PERSON'
p4997
tp4998
I912
s(g28
S'man'
p4999
S'OTHER'
p5000
tp5001
I653
s(g28
S'schematics'
p5002
S'LOCATION'
p5003
tp5004
I1425
s(g28
S'captain'
p5005
S'PERSON'
p5006
tp5007
I963
s(g28
S'team'
p5008
g23
tp5009
I3
s(g28
S'data'
p5010
S'LOCATION'
p5011
tp5012
I1412
s(g28
S'opera'
p5013
S'LOCATION'
p5014
tp5015
I919
s(g28
S'email'
p5016
S'LOCATION'
p5017
tp5018
I601
s(g28
S'spoke'
p5019
S'PERSON'
p5020
tp5021
I1327
s(g28
S'replica'
p5022
S'NUMBER'
p5023
tp5024
I1434
s(g28
S'time'
p5025
S'TIME'
p5026
tp5027
I573
s(g28
S'film'
p5028
S'DATE'
p5029
tp5030
I1020
s(g28
S'built'
p5031
S'DATE'
p5032
tp5033
I1271
s(g28
S'fastener'
p5034
S'OTHER'
p5035
tp5036
I293
s(g28
S'get'
p5037
S'MONEY'
p5038
tp5039
I604
s(g28
S'invent'
p5040
S'OTHER'
p5041
tp5042
I505
s(g28
S'businesses'
p5043
S'ORGANIZATION'
p5044
tp5045
I1383
s(g28
S'people'
p5046
S'PERSON'
p5047
tp5048
I395
s(g28
S'scoundrel'
p5049
g18
tp5050
I2
s(g28
S'airport'
p5051
S'NUMBER'
p5052
tp5053
I1493
s(g28
S'fool'
p5054
S'PERSON'
p5055
tp5056
I1703
s(g28
S'lyrics'
p5057
S'PERSON'
p5058
tp5059
I1461
s(g28
S'personas'
p5060
S'PERSON'
p5061
tp5062
I417
s(g28
S'poll'
p5063
S'OTHER'
p5064
tp5065
I1292
s(g28
S'adding'
p5066
S'OTHER'
p5067
tp5068
I301
s(g28
S'department'
p5069
S'PERSON'
p5070
tp5071
I726
s(g28
S'honeymooners'
p5072
S'PERSON'
p5073
tp5074
I714
s(g28
S'states'
p5075
S'LOCATION'
p5076
tp5077
I18
s(g28
S'degrees'
p5078
S'NUMBER'
p5079
tp5080
I258
s(g28
S'whitetail'
p5081
S'NUMBER'
p5082
tp5083
I1096
s(g28
S'leaders'
p5084
S'PERSON'
p5085
tp5086
I1185
s(g28
S'cheetahs'
p5087
S'NUMBER'
p5088
tp5089
I652
s(g28
S'wolverine'
p5090
S'OTHER'
p5091
tp5092
I1615
s(g28
S'talking'
p5093
S'PERSON'
p5094
tp5095
I361
s(g28
S'laments'
p5096
S'OTHER'
p5097
tp5098
I1695
s(g28
S'university'
p5099
S'ORGANIZATION'
p5100
tp5101
I611
s(g28
S'records'
p5102
S'NUMBER'
p5103
tp5104
I209
s(g28
S'communications'
p5105
S'OTHER'
p5106
tp5107
I1046
s(g28
S'no.'
p5108
S'OTHER'
p5109
tp5110
I576
s(g28
S'position'
p5111
S'PERSON'
p5112
tp5113
I388
s(g28
S'tips'
p5114
S'OTHER'
p5115
tp5116
I402
s(g28
S'positions'
p5117
S'PERSON'
p5118
tp5119
I614
s(g28
S'celebrities'
p5120
S'PERSON'
p5121
tp5122
I839
s(g28
S'holiday'
p5123
S'OTHER'
p5124
tp5125
I202
s(g28
S'holes'
p5126
S'NUMBER'
p5127
tp5128
I307
s(g28
S'game'
p5129
S'OTHER'
p5130
tp5131
I105
s(g28
S'wings'
p5132
S'NUMBER'
p5133
tp5134
I884
s(g28
S'pyramid'
p5135
S'ORGANIZATION'
p5136
tp5137
I1186
s(g28
S'play'
p5138
S'OTHER'
p5139
tp5140
I548
s(g28
S'temperance'
p5141
S'PERSON'
p5142
tp5143
I1607
s(g28
S'location'
p5144
S'LOCATION'
p5145
tp5146
I637
s(g28
S'menstruation'
p5147
S'DATE'
p5148
tp5149
I1719
s(g28
S'archenemy'
p5150
S'PERSON'
p5151
tp5152
I1426
s(g28
S'composition'
p5153
S'OTHER'
p5154
tp5155
I993
s(g28
S'wood'
p5156
S'PERSON'
p5157
tp5158
I177
s(g28
S'refrain'
p5159
S'OTHER'
p5160
tp5161
I1757
s(g28
S'maker'
p5162
S'PERSON'
p5163
tp5164
I1179
s(g28
S'polio'
p5165
S'PERSON'
p5166
tp5167
I594
s(g28
S'horoscope'
p5168
S'PERSON'
p5169
tp5170
I1610
s(g28
S'chairman'
p5171
S'PERSON'
p5172
tp5173
I438
s(g28
S'inventors'
p5174
S'PERSON'
p5175
tp5176
I911
s(g28
S'college'
p5177
S'NUMBER'
p5178
tp5179
I1612
s(g28
S'mountains'
p5180
S'NUMBER'
p5181
tp5182
I1684
s(g28
S'garment'
p5183
S'OTHER'
p5184
tp5185
I1053
s(g28
S'distance'
p5186
S'OTHER'
p5187
tp5188
I1107
s(g28
S'born'
p5189
S'LOCATION'
p5190
tp5191
I135
s(g28
S'liberty'
p5192
S'PERSON'
p5193
tp5194
I1333
s(g28
S'ton'
p5195
S'MONEY'
p5196
tp5197
I1482
s(g28
S'species'
p5198
S'NUMBER'
p5199
tp5200
I48
s(g28
S'part'
p5201
S'LOCATION'
p5202
tp5203
I933
s(g28
S'holds'
p5204
S'PERSON'
p5205
tp5206
I874
s(g28
S'surface'
p5207
S'NUMBER'
p5208
tp5209
I737
s(g28
S'cocktail'
p5210
S'OTHER'
p5211
tp5212
I31
s(g28
S'rule'
p5213
S'LOCATION'
p5214
tp5215
I670
s(g28
S'tuberculosis'
p5216
S'MONEY'
p5217
tp5218
I1662
s(g28
S'tennis'
p5219
S'OTHER'
p5220
tp5221
I894
s(g28
S'cartoon'
p5222
S'OTHER'
p5223
tp5224
I577
s(g28
S'bounty'
p5225
S'PERSON'
p5226
tp5227
I5
s(g28
S'administration'
p5228
S'PERSON'
p5229
tp5230
I940
s(g28
S'objects'
p5231
S'NUMBER'
p5232
tp5233
I1601
s(g28
S'league'
p5234
S'ORGANIZATION'
p5235
tp5236
I802
s(g28
S'attractions'
p5237
S'LOCATION'
p5238
tp5239
I515
s(g28
S'find'
p5240
S'LOCATION'
p5241
tp5242
I1660
s(g28
S'world'
p5243
S'ORGANIZATION'
p5244
tp5245
I865
s(g28
S'clone'
p5246
S'OTHER'
p5247
tp5248
I1462
s(g28
S'court'
p5249
S'ORGANIZATION'
p5250
tp5251
I848
s(g28
S'site'
p5252
S'LOCATION'
p5253
tp5254
I579
s(g28
S'races'
p5255
S'PERSON'
p5256
tp5257
I920
s(g28
S'hours'
p5258
S'NUMBER'
p5259
tp5260
I1143
s(g28
S'cars'
p5261
S'ORGANIZATION'
p5262
tp5263
I1773
s(g28
S'syrup'
p5264
S'OTHER'
p5265
tp5266
I905
s(g28
S'people'
p5267
S'LOCATION'
p5268
tp5269
I284
s(g28
S'lose'
p5270
S'OTHER'
p5271
tp5272
I1080
s(g28
S'sequel'
p5273
S'OTHER'
p5274
tp5275
I691
s(g28
S'fax'
p5276
S'PERSON'
p5277
tp5278
I1240
s(g28
S'kilamanjaro'
p5279
S'NUMBER'
p5280
tp5281
I1093
s(g28
S'stomach'
p5282
S'OTHER'
p5283
tp5284
I1488
s(g28
S'calendar'
p5285
S'LOCATION'
p5286
tp5287
I574
s(g28
S'manufactures'
p5288
S'ORGANIZATION'
p5289
tp5290
I1494
s(g28
S'daughter'
p5291
S'PERSON'
p5292
tp5293
I547
s(g28
S'silent'
p5294
S'OTHER'
p5295
tp5296
I1510
s(g28
S'radio'
p5297
S'ORGANIZATION'
p5298
tp5299
I643
s(g28
S'gulf'
p5300
S'OTHER'
p5301
tp5302
I358
s(g28
S'rugby'
p5303
S'PERSON'
p5304
tp5305
I1437
s(g28
S'victor'
p5306
S'PERSON'
p5307
tp5308
I915
s(g28
S'pins'
p5309
S'NUMBER'
p5310
tp5311
I1438
s(g28
S'order'
p5312
S'PERSON'
p5313
tp5314
I273
s(g28
S'marry'
p5315
S'PERSON'
p5316
tp5317
I720
s(g28
S'album'
p5318
S'OTHER'
p5319
tp5320
I91
s(g28
S'neanderthal'
p5321
S'DATE'
p5322
tp5323
I23
s(g28
S'setting'
p5324
S'LOCATION'
p5325
tp5326
I1410
s(g28
S'known'
p5327
S'OTHER'
p5328
tp5329
I1007
s(g28
S'process'
p5330
S'PERSON'
p5331
tp5332
I1446
s(g28
S'corpus'
p5333
S'OTHER'
p5334
tp5335
I46
s(g28
S'minister'
p5336
S'PERSON'
p5337
tp5338
I1100
s(g28
S'fathom'
p5339
S'NUMBER'
p5340
tp5341
I1688
ssbsS'_weights'
p5342
cnumpy.core.multiarray
_reconstruct
p5343
(cnumpy
ndarray
p5344
(I0
tp5345
S'b'
p5346
tp5347
Rp5348
(I1
(I1776
tp5349
cnumpy
dtype
p5350
(S'f8'
p5351
I0
I1
tp5352
Rp5353
(I3
S'<'
p5354
NNNI-1
I-1
I0
tp5355
bI00
S'\x83IK7@\x99\x1b@\xc1\x83\x9e\xa3)C#@\xd2\x83\x9e\xa3)C#@\xa2\x83\x9e\xa3)C#@\xd5\x83\x9e\xa3)C#@\xd5\x83\x9e\xa3)C#@\xab1o\x03\xba8!@\xb4\x81\xf8h\x7fu\x1a@\xc1\x83\x9e\xa3)C#@o\xc8NR\xac\xfd @\xc9\x83\x9e\xa3)C#@\x82\xef\x96\x03\xfc\xaa"@\xc1\x83\x9e\xa3)C#@\xd5\x83\x9e\xa3)C#@\xc1\x83\x9e\xa3)C#@\xd5\x83\x9e\xa3)C#@\xbb\x83\x9e\xa3)C#@\xb8\x83\x9e\xa3)C#@k\xad\xe5\\\x8d\x86!@\xc1\x83\x9e\xa3)C#@\xc9\x83\x9e\xa3)C#@\xf10-%\xe4\x16"@a\xd2\x9c\x0cfh!@\xb0\x83\x9e\xa3)C#@\xc1\x83\x9e\xa3)C#@\xbb\x83\x9e\xa3)C#@\xc1\x83\x9e\xa3)C#@\xa7\x95\xe0\x1aD\xe7\x11@v\xc4\x13\x05\x11\' @\xc9\x83\x9e\xa3)C#@\xd5\x83\x9e\xa3)C#@\xc1\x83\x9e\xa3)C#@\xfb\xdcn\xb8\xefz\xed?\xf5\xf7&\xccrl\x17@\xb5\x83\x9e\xa3)C#@\xd5\x83\x9e\xa3)C#@\xc1\x83\x9e\xa3)C#@G"\r3\xd6\xbb"@Mod\x84\xad\x15\x16@\xd5\x83\x9e\xa3)C#@BJZ\x8a\ta"@#\xc7<\xc0\xc1c\x1b@X\xa1\x19P \xf8 @\xd5\x83\x9e\xa3)C#@\xc1\x83\x9e\xa3)C#@\xd2\x83\x9e\xa3)C#@\x82\x9e&\xccrl\x1f@\xc1\x83\x9e\xa3)C#@\xb5A\x87\x9a\xb9\xe1 @\x1c\x04a\xe4Y\x90\x1a@\xc1\x83\x9e\xa3)C#@\xc9\x83\x9e\xa3)C#@\xc0\x83\x9e\xa3)C#@\xb2A\x87\x9a\xb9\xe1 @A\x91\xa7AH\xbc!@a\xa1\x19P \xf8 @\x89\xb0h\xa9\xb1\xd3!@\xb0\x83\x9e\xa3)C#@h5\xe0&\xc4\x85!@\xa3o?\xaa\xa7\x15\x1a@\xc1\x83\x9e\xa3)C#@\xbb\x83\x9e\xa3)C#@\xb27^|,\xa8\x19@\xf0\x95[J\x14r\x1c@\xbaA\x87\x9a\xb9\xe1 @\xc1\x83\x9e\xa3)C#@\xb8\x83\x9e\xa3)C#@pF\xfb\xce9\r"@)\x80\xd7\xde\x96#!@L\x85[\xd2\xa3C\x1f@\xbb\x83\x9e\xa3)C#@\xc1\x83\x9e\xa3)C#@\xadA\x87\x9a\xb9\xe1 @\xd5\x83\x9e\xa3)C#@\xb0\x83\x9e\xa3)C#@\x96\xac>J\x92\xc3"@:\xfe\xc0b\x1b\xbb!@\xc1\x83\x9e\xa3)C#@;\xed(\xd8\xe5<"@j\x9e&\xccrl\x1f@\x1f\xf5\x16\xc6\x99\xa6"@\x0f\xea\xb3\x99\x96/"@\xc9\x83\x9e\xa3)C#@\xa6A\x87\x9a\xb9\xe1 @;\xfe\x04~r\x0c\x17@\xd5\x83\x9e\xa3)C#@\xc9\x83\x9e\xa3)C#@\xbaA\x87\x9a\xb9\xe1 @\x0b\xdf`\x01\r+ @\xbaA\x87\x9a\xb9\xe1 @\\X&/\xdco"@\xc1\x83\x9e\xa3)C#@\xed\x1f\x90\xa9\xf3E!@6\x13\x15\x05t\xa1"@\xb0\x83\x9e\xa3)C#@a\xc9\x1di\x01\xda\x1b@\xd5\x83\x9e\xa3)C#@\xbb\x83\x9e\xa3)C#@\xc9\x83\x9e\xa3)C#@\xbb\x83\x9e\xa3)C#@\xd5\x83\x9e\xa3)C#@\xa0\x83\x9e\xa3)C#@\xc9\x83\x9e\xa3)C#@\x89r\x99\xfb\xe8_\x16@\xbb\x83\x9e\xa3)C#@9\xed(\xd8\xe5<"@!\xb0\\CTx\x1e@\xd5\x83\x9e\xa3)C#@\xb0\x83\x9e\xa3)C#@\xc1\x83\x9e\xa3)C#@\xbb\x83\x9e\xa3)C#@\xa0\x83\x9e\xa3)C#@\xc1\x83\x9e\xa3)C#@\xd5\x83\x9e\xa3)C#@z\xaft\xbb\xc03\x10@\xa8A\x87\x9a\xb9\xe1 @\x11f\x8b\xa8\xc9\xb9"@\xd5\x83\x9e\xa3)C#@\xc1\x83\x9e\xa3)C#@\xc1\x83\x9e\xa3)C#@\xc1\x83\x9e\xa3)C#@\xc1\x83\x9e\xa3)C#@\xa2\x83\x9e\xa3)C#@\xb8\x83\x9e\xa3)C#@\xc1\x83\x9e\xa3)C#@\xc9\x83\x9e\xa3)C#@\xb0A\x87\x9a\xb9\xe1 @\xd2\x83\x9e\xa3)C#@\xd5\x83\x9e\xa3)C#@\xc9\x83\x9e\xa3)C#@\xbb\x83\x9e\xa3)C#@\xc1\x83\x9e\xa3)C#@\xc1\x83\x9e\xa3)C#@\xc1\x83\x9e\xa3)C#@^\xc1d\xf5\xb7\x88\x1a@\\C\\:\x17\x7f @\xc1\x83\x9e\xa3)C#@\xa8A\x87\x9a\xb9\xe1 @\xd5\x83\x9e\xa3)C#@\xa0\x83\x9e\xa3)C#@\xb8\x83\x9e\xa3)C#@\xc1\x83\x9e\xa3)C#@\xbb\x83\x9e\xa3)C#@\xaf\x83\x9e\xa3)C#@\xb0\x83\x9e\xa3)C#@\xbb\x19x\x12\xf4\x9c!@\xc1\x83\x9e\xa3)C#@\xb8\x83\x9e\xa3)C#@\xc1\x83\x9e\xa3)C#@PO\x13f9\xb6!@PO\x13f9\xb6!@\xa6A\x87\x9a\xb9\xe1 @\x80\x9e&\xccrl\x1f@\xb0\x83\x9e\xa3)C#@\xc9\x83\x9e\xa3)C#@\xa0\x9e&\xccrl\x1f@\xbb\x83\x9e\xa3)C#@\xd2\x83\x9e\xa3)C#@\xd5\x83\x9e\xa3)C#@jX&/\xdco"@\xbb\x83\x9e\xa3)C#@\xc1\x83\x9e\xa3)C#@\xc1\x83\x9e\xa3)C#@uF\xfb\xce9\r"@\xa6A\x87\x9a\xb9\xe1 @\xc1\x83\x9e\xa3)C#@K\x13\x15\x05t\xa1"@\xc1\x83\x9e\xa3)C#@\xbb\x83\x9e\xa3)C#@\xd5\x83\x9e\xa3)C#@w\xbbom2\xd4\r@\xab\x83\x9e\xa3)C#@\xd2\x83\x9e\xa3)C#@qg\\:\x17\x7f"@\xbb\x83\x9e\xa3)C#@\xde\xaeZ\x9b\xdc\x93!@\xc9\x83\x9e\xa3)C#@\xd5\x83\x9e\xa3)C#@\xbb\x83\x9e\xa3)C#@\xd5\x83\x9e\xa3)C#@\xc9\x83\x9e\xa3)C#@\xc9\x83\x9e\xa3)C#@\xc9\x83\x9e\xa3)C#@\xb8\x83\x9e\xa3)C#@\xb7\xdb\xec\xe6rc\x1d@\xb51\xa3r\x96\xff!@\xc1\x83\x9e\xa3)C#@\xbb\x83\x9e\xa3)C#@\xb2A\x87\x9a\xb9\xe1 @\xd5\x83\x9e\xa3)C#@\xa0\x83\x9e\xa3)C#@\xb8\x83\x9e\xa3)C#@\xae) S\xe7\x8b\x1e@\xc9\x83\x9e\xa3)C#@\xc1\x83\x9e\xa3)C#@\x80\x92\x07>\xd4a!@\xc9\x83\x9e\xa3)C#@\xc1\x83\x9e\xa3)C#@\x9c\xcdq(\r["@\xc9\x83\x9e\xa3)C#@\xadA\x87\x9a\xb9\xe1 @\xd2\x83\x9e\xa3)C#@\xc1\x83\x9e\xa3)C#@\xc1\x83\x9e\xa3)C#@\xd5\x83\x9e\xa3)C#@{\x0e\x04\xdesq @\x84;\xbb\x8dLS @\xa3\xef\x96\x03\xfc\xaa"@\xbb\x83\x9e\xa3)C#@\xc9\x83\x9e\xa3)C#@\xd5\x83\x9e\xa3)C#@FO\x13f9\xb6!@\xc9\x83\x9e\xa3)C#@\xc1\x83\x9e\xa3)C#@ec\xc7\x80D\xb3\x1d@mg\\:\x17\x7f"@\xc1\x83\x9e\xa3)C#@\xb5A\x87\x9a\xb9\xe1 @\xac. S\xe7\x8b\x1e@\xc1\x83\x9e\xa3)C#@\xc1\x83\x9e\xa3)C#@\xc9\x83\x9e\xa3)C#@\xc1\x83\x9e\xa3)C#@\xb5A\x87\x9a\xb9\xe1 @\x15\xf5\x16\xc6\x99\xa6"@\xb0A\x87\x9a\xb9\xe1 @;j\x81\x8b~\x93\x0f@Z\xb1md\x7fM"@\xbb\x83\x9e\xa3)C#@\xbb\x83\x9e\xa3)C#@\xd5\x83\x9e\xa3)C#@\xd5\x83\x9e\xa3)C#@\xd5\x83\x9e\xa3)C#@\xbb\x83\x9e\xa3)C#@\xc1\x83\x9e\xa3)C#@e\xf4\x10A\xe6\x93"@\xc9\x83\x9e\xa3)C#@KO\x13f9\xb6!@\xece\x8b\xa8\xc9\xb9"@\xb0\x83\x9e\xa3)C#@\xd5\x83\x9e\xa3)C#@\xb2A\x87\x9a\xb9\xe1 @,\x0f6\x00\x01\x83\x15@\xc1\x83\x9e\xa3)C#@Z\xd25\x00\x01\x83\x1d@\xc1\x83\x9e\xa3)C#@\x86Q8\xea\xe64\x1c@\xb8\x83\x9e\xa3)C#@\xc1\x83\x9e\xa3)C#@\xa6A\x87\x9a\xb9\xe1 @\xc9\x83\x9e\xa3)C#@\xb8\x83\x9e\xa3)C#@\xd5\x83\x9e\xa3)C#@\nt\xdf\x17D\\\x13@\x84;\xbb\x8dLS @\xc1\x83\x9e\xa3)C#@\xd5\x83\x9e\xa3)C#@\xbb\x83\x9e\xa3)C#@\xc9\x83\x9e\xa3)C#@\xd5\x83\x9e\xa3)C#@\xa6A\x87\x9a\xb9\xe1 @sSK7@\x99\x1b@b\xf4\x10A\xe6\x93"@\xd5\x83\x9e\xa3)C#@\xc1\x83\x9e\xa3)C#@\xc1\x83\x9e\xa3)C#@\xd5\x83\x9e\xa3)C#@\xc1\x83\x9e\xa3)C#@\xdc\x83\x9e\xa3)C#@\xc1\x83\x9e\xa3)C#@\xdc\x83\x9e\xa3)C#@\xc1\x83\x9e\xa3)C#@\x9d^\x9fd\x86\'"@\xbaA\x87\x9a\xb9\xe1 @\xc9\x83\x9e\xa3)C#@\xabA\x87\x9a\xb9\xe1 @\xbaA\x87\x9a\xb9\xe1 @\xc9\x83\x9e\xa3)C#@\xb2A\x87\x9a\xb9\xe1 @\xd5\x86}\xcaf\x13\x15@\xabA\x87\x9a\xb9\xe1 @\xbb\x83\x9e\xa3)C#@\xbb\x83\x9e\xa3)C#@\xb0\x83\x9e\xa3)C#@v\xa4\xa8\xae\xbf \x12@8\xf4\x10A\xe6\x93"@\xbb\x83\x9e\xa3)C#@\xf0e\x8b\xa8\xc9\xb9"@\xc9\x83\x9e\xa3)C#@\xbb\x83\x9e\xa3)C#@\xc1\x83\x9e\xa3)C#@p \x90\xa9\xf3E!@\xbb\x83\x9e\xa3)C#@\xc1\x83\x9e\xa3)C#@\x8a\x9e&\xccrl\x1f@\xc1\x83\x9e\xa3)C#@\xc1\x83\x9e\xa3)C#@g\xa1\x19P \xf8 @\xd5\x83\x9e\xa3)C#@\xbb\x83\x9e\xa3)C#@\xc9\x83\x9e\xa3)C#@\xc1\x83\x9e\xa3)C#@\xc9\x83\x9e\xa3)C#@\xc1\x83\x9e\xa3)C#@\xc1\x83\x9e\xa3)C#@hg\x05\x0e\xd4: @\x96\x9e&\xccrl\x1f@\xc9\x83\x9e\xa3)C#@\xbaA\x87\x9a\xb9\xe1 @\xc1\x83\x9e\xa3)C#@\xdc\x83\x9e\xa3)C#@\xdc\x83\x9e\xa3)C#@*\x90\xc4\xdfAm\x13@[H\xf0$\xe89\x1b@\x1cD\x08\xbc\xe7\xe2\x18@\xc1\x83\x9e\xa3)C#@\xb0\x83\x9e\xa3)C#@iF\xfb\xce9\r"@\xbb\x83\x9e\xa3)C#@\xc1\x83\x9e\xa3)C#@\xc9\x83\x9e\xa3)C#@\xc1\x83\x9e\xa3)C#@\xc1\x83\x9e\xa3)C#@\xd5\x83\x9e\xa3)C#@\xc1\x83\x9e\xa3)C#@\xc1\x83\x9e\xa3)C#@\xa0\x83\x9e\xa3)C#@\xb0\x83\x9e\xa3)C#@\xbb\x83\x9e\xa3)C#@\xc1\x83\x9e\xa3)C#@\xc9\x83\x9e\xa3)C#@#\xc7<\xc0\xc1c\x1f@\xc9\x83\x9e\xa3)C#@a\xc9\x1di\x01\xda\x17@\xbb\x83\x9e\xa3)C#@,\x0f6\x00\x01\x83\x15@\xcc\xcc\x0e5s\xc3\x19@\xd2\x83\x9e\xa3)C#@\xf0\xef`\xe4Y\x90\x1e@\xc1\x83\x9e\xa3)C#@j\x9d\x0e5s\xc3\x1d@\xb2A\x87\x9a\xb9\xe1 @\xbb\x83\x9e\xa3)C#@\xd5\x83\x9e\xa3)C#@\xc1\x83\x9e\xa3)C#@\xc9\x83\x9e\xa3)C#@\xc1\x83\x9e\xa3)C#@\xf7\x1c\x08\xbc\xe7\xe2\x1c@\xd5\x83\x9e\xa3)C#@\xf9\xa9v\x13,Q\x13@\xbb\x83\x9e\xa3)C#@\xbby\xa4&\xads @\xc9\x83\x9e\xa3)C#@\xc0\xc2\xa5\x1b\xa0\xcc!@LF?\xaa\xa7\x15\x16@\xc9\x83\x9e\xa3)C#@\xc1\x83\x9e\xa3)C#@\xb8\x83\x9e\xa3)C#@\xadA\x87\x9a\xb9\xe1 @\xd5\x83\x9e\xa3)C#@\xd5\x83\x9e\xa3)C#@\xd5\x83\x9e\xa3)C#@S\xf4\x10A\xe6\x93"@\xd5\x83\x9e\xa3)C#@\xc9\x83\x9e\xa3)C#@\xbb\x83\x9e\xa3)C#@\xc9\x83\x9e\xa3)C#@\x02\x1d\x08\xbc\xe7\xe2\x1c@KO\x13f9\xb6!@\xc9\x83\x9e\xa3)C#@\xc9\x83\x9e\xa3)C#@\xce\xe65\x00\x01\x83\x15@\xd5\x83\x9e\xa3)C#@fV!t\x0e\xf6!@\xbb\x83\x9e\xa3)C#@\xdc\x83\x9e\xa3)C#@\xbb\x83\x9e\xa3)C#@\xadA\x87\x9a\xb9\xe1 @\xbb\x83\x9e\xa3)C#@\xc1\x83\x9e\xa3)C#@\xd5\x83\x9e\xa3)C#@\xc1\x83\x9e\xa3)C#@\xc1\x83\x9e\xa3)C#@\xc9\x83\x9e\xa3)C#@\xc1\x83\x9e\xa3)C#@\xb3\x84\x8d\x00\xeax!@\xdc\x83\x9e\xa3)C#@m\xedF\x7f\x92\xc5\x14@\xd5\x83\x9e\xa3)C#@<O\x13f9\xb6!@\xd5\x83\x9e\xa3)C#@\xd5\x83\x9e\xa3)C#@\xd5\x83\x9e\xa3)C#@\xa6A\x87\x9a\xb9\xe1 @{\x0e\x04\xdesq @5\xb7j\x85z\x04\x17@+\xb2\xcd\xd2WM\x11@\xc1\x83\x9e\xa3)C#@\xc1\x83\x9e\xa3)C#@\xdc\x83\x9e\xa3)C#@\xf8\x1c\x08\xbc\xe7\xe2\x1c@\xd5\x83\x9e\xa3)C#@\xc1\x83\x9e\xa3)C#@\xc1\x83\x9e\xa3)C#@\xc1\x83\x9e\xa3)C#@\xc1\x83\x9e\xa3)C#@\xb5A\x87\x9a\xb9\xe1 @M1R\xb0\xcby\x14@\xc2\xcc\x0e5s\xc3\x19@\xd5\x83\x9e\xa3)C#@\xbaA\x87\x9a\xb9\xe1 @\xd5\x83\x9e\xa3)C#@\xc9\x83\x9e\xa3)C#@5O\x13f9\xb6!@r\xec5\x00\x01\x83\x1d@\xc1\x83\x9e\xa3)C#@\xd5\x83\x9e\xa3)C#@\xd5\x83\x9e\xa3)C#@j\xa1\x19P \xf8 @;\xed(\xd8\xe5<"@\xd5\x83\x9e\xa3)C#@\xb0\x83\x9e\xa3)C#@\xc9\x83\x9e\xa3)C#@\xc9\x83\x9e\xa3)C#@\xbb\x83\x9e\xa3)C#@\xb0\x83\x9e\xa3)C#@\xc9\x83\x9e\xa3)C#@\xc9\x83\x9e\xa3)C#@\xc1\x83\x9e\xa3)C#@\xa5A\x87\x9a\xb9\xe1 @\xc1\x83\x9e\xa3)C#@\xc1\x83\x9e\xa3)C#@\xd5\x83\x9e\xa3)C#@\xc1\x83\x9e\xa3)C#@\xc1\x83\x9e\xa3)C#@\xc1\x83\x9e\xa3)C#@\xd5\x83\x9e\xa3)C#@dF\xfb\xce9\r"@\xd5\x83\x9e\xa3)C#@\x91\xb3\x86.m\x7f\x19@\xd5\x83\x9e\xa3)C#@\xc1\x83\x9e\xa3)C#@\xc9\x83\x9e\xa3)C#@\xb0\x83\x9e\xa3)C#@\xbb\x83\x9e\xa3)C#@B\xd2\x9c\x0cfh!@\xc9\x83\x9e\xa3)C#@\xc1\x83\x9e\xa3)C#@\xf0\xf6\x02\xe9\x80\x18!@\xdc\x83\x9e\xa3)C#@\xc1\x83\x9e\xa3)C#@\xd0. S\xe7\x8b\x1e@\xdc\x83\x9e\xa3)C#@\xc1\x83\x9e\xa3)C#@\xc9\x83\x9e\xa3)C#@\xc1\x83\x9e\xa3)C#@\xd5\x83\x9e\xa3)C#@\xc1\x83\x9e\xa3)C#@\xc1\x83\x9e\xa3)C#@\xc1\x83\x9e\xa3)C#@\xe4\xfaE#3\xf6\x16@\xd5\x83\x9e\xa3)C#@\x03\x0f\x04\xdesq @\xd5\x83\x9e\xa3)C#@\xb0\x83\x9e\xa3)C#@\xc1\x83\x9e\xa3)C#@a\xc9\x1di\x01\xda\x1f@\xa0\x83\x9e\xa3)C#@\xbaA\x87\x9a\xb9\xe1 @\xdc\x83\x9e\xa3)C#@\xc9\x83\x9e\xa3)C#@\xd5\x83\x9e\xa3)C#@\x95\x9e&\xccrl\x1f@\xc1\x83\x9e\xa3)C#@\xd5\x83\x9e\xa3)C#@\xbb\x83\x9e\xa3)C#@\xd5\x83\x9e\xa3)C#@\xf8\x1c\x08\xbc\xe7\xe2\x1c@\xb8\x83\x9e\xa3)C#@\xbb\x83\x9e\xa3)C#@k>,\xd5\xd8\xb5\x05@#\xc7<\xc0\xc1c\x1b@\xc1\x83\x9e\xa3)C#@\x12}\xa4&\xads @\xa0\x83\x9e\xa3)C#@\xc9\x83\x9e\xa3)C#@\xc8) S\xe7\x8b\x1e@\xc9\x83\x9e\xa3)C#@\xe4\x1c\x08\xbc\xe7\xe2\x1c@\xbb\x83\x9e\xa3)C#@L\xc6H\x05(c\x1a@\xb0\x83\x9e\xa3)C#@\xa0\x83\x9e\xa3)C#@\xd5\x83\x9e\xa3)C#@\xc9\x83\x9e\xa3)C#@\xbaA\x87\x9a\xb9\xe1 @\xc9\x83\x9e\xa3)C#@\xd5\x83\x9e\xa3)C#@\xdc\x83\x9e\xa3)C#@\xc9\x83\x9e\xa3)C#@\xc1\x83\x9e\xa3)C#@lg\\:\x17\x7f"@\xc9\x83\x9e\xa3)C#@\xbb\x83\x9e\xa3)C#@\x93IK7@\x99\x1f@xF\xfb\xce9\r"@\xc1\x83\x9e\xa3)C#@}F\xfb\xce9\r"@\xc1\x83\x9e\xa3)C#@\xd5\x83\x9e\xa3)C#@\xa0\x83\x9e\xa3)C#@\xd5\x83\x9e\xa3)C#@\xd5\x83\x9e\xa3)C#@\xb8\x83\x9e\xa3)C#@PO\x13f9\xb6!@\xbb\x83\x9e\xa3)C#@\xc9\x83\x9e\xa3)C#@\xb4\x9d\x0e5s\xc3\x1d@\xb4\x83\x9e\xa3)C#@\xdc\x83\x9e\xa3)C#@\xabA\x87\x9a\xb9\xe1 @\xbb\x83\x9e\xa3)C#@\xb2\x9e&\xccrl\x1f@\xd2\x83\x9e\xa3)C#@\xd5\x83\x9e\xa3)C#@\xbaA\x87\x9a\xb9\xe1 @\xa8A\x87\x9a\xb9\xe1 @\xdc\x83\x9e\xa3)C#@\xc1\x83\x9e\xa3)C#@\xb5\x84\x8d\x00\xeax!@PO\x13f9\xb6!@\xaf\x87\x8e\xb2\x98O\x12@\xc9\x83\x9e\xa3)C#@bF\xfb\xce9\r"@\xc1\x83\x9e\xa3)C#@\xbb\x83\x9e\xa3)C#@\xc1\x83\x9e\xa3)C#@\xc9\x83\x9e\xa3)C#@\xbb\x83\x9e\xa3)C#@\xc1\x83\x9e\xa3)C#@\xc1\x83\x9e\xa3)C#@{\x0e\x04\xdesq @\xc1\x83\x9e\xa3)C#@\xbb\x83\x9e\xa3)C#@\xc1\x83\x9e\xa3)C#@\x969e\xc9\x0b\xa0\x06@\xc9\x83\x9e\xa3)C#@\xd5\x83\x9e\xa3)C#@\'\xed(\xd8\xe5<"@\xb8\x83\x9e\xa3)C#@\xd5\x83\x9e\xa3)C#@\xf0\xef`\xe4Y\x90\x1a@\xd5\x83\x9e\xa3)C#@\xd5\x83\x9e\xa3)C#@\xf9\xa9v\x13,Q\x13@\xc9\x83\x9e\xa3)C#@\xb2A\x87\x9a\xb9\xe1 @\xbaA\x87\x9a\xb9\xe1 @\xc9\x83\x9e\xa3)C#@\xa0\x83\x9e\xa3)C#@\xbb\x83\x9e\xa3)C#@\xc1\x83\x9e\xa3)C#@\xb2A\x87\x9a\xb9\xe1 @\xd5\x83\x9e\xa3)C#@o\x1by{Y9\x14@\xd2\x83\x9e\xa3)C#@\xd5\x83\x9e\xa3)C#@\xbb\x83\x9e\xa3)C#@\xbb\x83\x9e\xa3)C#@\xc9\x83\x9e\xa3)C#@\xc9\x83\x9e\xa3)C#@\xd5\x83\x9e\xa3)C#@\xc9\x83\x9e\xa3)C#@\nt\xdf\x17D\\\x1b@\xbb\x83\x9e\xa3)C#@\xb8\x83\x9e\xa3)C#@\xc1\x83\x9e\xa3)C#@\xb27^|,\xa8\x19@\x1c\x04a\xe4Y\x90\x16@\xbb\x83\x9e\xa3)C#@\xd5\x83\x9e\xa3)C#@\xbb\x83\x9e\xa3)C#@\xd5\x83\x9e\xa3)C#@\xb8\x83\x9e\xa3)C#@\xd5\x83\x9e\xa3)C#@\xc1\x83\x9e\xa3)C#@\xc9\x83\x9e\xa3)C#@\xc9\x83\x9e\xa3)C#@\xd5\x83\x9e\xa3)C#@\xb8\x83\x9e\xa3)C#@\xc1\x83\x9e\xa3)C#@nX&/\xdco"@Z\xd25\x00\x01\x83\x1d@\xc8) S\xe7\x8b\x1e@\xd5\x83\x9e\xa3)C#@\xc4A\x87\x9a\xb9\xe1 @\xadA\x87\x9a\xb9\xe1 @\xbb\x83\x9e\xa3)C#@\xb2A\x87\x9a\xb9\xe1 @@O\x13f9\xb6!@\x8a\xcdq(\r["@\xbb\x83\x9e\xa3)C#@PO\x13f9\xb6!@\xc9\x83\x9e\xa3)C#@Z\xd25\x00\x01\x83\x19@\xc1\x83\x9e\xa3)C#@\x93IK7@\x99\x1f@\xcc\x1c\x08\xbc\xe7\xe2\x1c@\xd5\x83\x9e\xa3)C#@\xbb\x83\x9e\xa3)C#@\xbaA\x87\x9a\xb9\xe1 @\xa0\x83\x9e\xa3)C#@\xc1\x83\x9e\xa3)C#@\xd5\x83\x9e\xa3)C#@\xd5\x83\x9e\xa3)C#@\x96\x9e&\xccrl\x1f@\xdc\x83\x9e\xa3)C#@\x83IK7@\x99\x1f@\xd5\x83\x9e\xa3)C#@\xc9\x83\x9e\xa3)C#@$o8\xea\xe64\x18@\xc1\x83\x9e\xa3)C#@ySK7@\x99\x1b@\xa0\x83\x9e\xa3)C#@\xdc\x83\x9e\xa3)C#@\xbb\x83\x9e\xa3)C#@\xc4\xe7\x97\x8a6D\x0b@\xd5\x83\x9e\xa3)C#@\xbb\x83\x9e\xa3)C#@\xa4A\x87\x9a\xb9\xe1 @\xc9\x83\x9e\xa3)C#@\xbb\x83\x9e\xa3)C#@\xd5\x83\x9e\xa3)C#@\xc1\x83\x9e\xa3)C#@\xd5\x83\x9e\xa3)C#@\xd5\x83\x9e\xa3)C#@\xae) S\xe7\x8b\x1e@\xbb\x83\x9e\xa3)C#@\xbb\x83\x9e\xa3)C#@\xd5\x83\x9e\xa3)C#@\xd5\x83\x9e\xa3)C#@\xc1\x83\x9e\xa3)C#@\xd5\x83\x9e\xa3)C#@\xae) S\xe7\x8b\x1e@\xd5\x83\x9e\xa3)C#@\xd5\x83\x9e\xa3)C#@\xd5\x83\x9e\xa3)C#@\xa0\x9e&\xccrl\x1f@\xd5\x83\x9e\xa3)C#@\xc9\x83\x9e\xa3)C#@\xa0\x83\x9e\xa3)C#@\xc1\x83\x9e\xa3)C#@\xc9\x83\x9e\xa3)C#@\xa65\'\x13\xa8l\x1c@\xc9\x83\x9e\xa3)C#@\xd5\x83\x9e\xa3)C#@\xdc\x83\x9e\xa3)C#@\xbb\x83\x9e\xa3)C#@\xc1\x83\x9e\xa3)C#@gSK7@\x99\x1b@\xb8\x83\x9e\xa3)C#@\xd5\x83\x9e\xa3)C#@\xc1\x83\x9e\xa3)C#@[\xc9&\xccrl\x1b@\xb0\x83\x9e\xa3)C#@\xd2\nF\xe5,\xff\x1f@\xd5\x83\x9e\xa3)C#@\xda? S\xe7\x8b\x1a@\xd5\x83\x9e\xa3)C#@\xc1\x83\x9e\xa3)C#@\xbb\x83\x9e\xa3)C#@\xc1\x83\x9e\xa3)C#@\xb4\x83\x9e\xa3)C#@\xae7^|,\xa8\x19@\xd5\x83\x9e\xa3)C#@\xd5\x83\x9e\xa3)C#@\xb8\x83\x9e\xa3)C#@\xc9\x83\x9e\xa3)C#@\xb0\x83\x9e\xa3)C#@\xc1\x83\x9e\xa3)C#@w\x9e&\xccrl\x1f@\xa0\x83\x9e\xa3)C#@\xc1\x83\x9e\xa3)C#@\xc1\x83\x9e\xa3)C#@\xb4\x83\x9e\xa3)C#@\xc9\x83\x9e\xa3)C#@\xb0\x83\x9e\xa3)C#@\xdc\x83\x9e\xa3)C#@\xd5\x83\x9e\xa3)C#@\xa4) S\xe7\x8b\x1e@\xc1\x83\x9e\xa3)C#@\xb8\x83\x9e\xa3)C#@PO\x13f9\xb6!@<<\xfb\xce9\r @\xc9\x83\x9e\xa3)C#@\xc1\x83\x9e\xa3)C#@\xd5\x83\x9e\xa3)C#@\xb8\x83\x9e\xa3)C#@\x82\xc1d\xf5\xb7\x88\x1a@\xa0\x9e&\xccrl\x1f@\xc1\x83\x9e\xa3)C#@\xd5\x83\x9e\xa3)C#@\xc1\x83\x9e\xa3)C#@\xbb\x83\x9e\xa3)C#@\xd5\x83\x9e\xa3)C#@\xbaA\x87\x9a\xb9\xe1 @\xc9\x83\x9e\xa3)C#@\xc1\x83\x9e\xa3)C#@o\x1by{Y9\x1c@\x86\x9d\x0e5s\xc3\x1d@\xc1\x83\x9e\xa3)C#@\xc1\x83\x9e\xa3)C#@\xc1\x83\x9e\xa3)C#@\xc1\x83\x9e\xa3)C#@\xd5\x83\x9e\xa3)C#@\xa0\x9e&\xccrl\x1f@\x15\x99\x03\xc9\xe0\xc1\x15@\xd5\x83\x9e\xa3)C#@\xa0\x9e&\xccrl\x1f@\xbaA\x87\x9a\xb9\xe1 @\xd5\x83\x9e\xa3)C#@\xb6) S\xe7\x8b\x1e@\xc9\x83\x9e\xa3)C#@\xb4\x83\x9e\xa3)C#@\xbb\x83\x9e\xa3)C#@:O\x13f9\xb6!@\xb2A\x87\x9a\xb9\xe1 @\xc1\x83\x9e\xa3)C#@\xbb\x83\x9e\xa3)C#@\xc9\x83\x9e\xa3)C#@\xbb\x83\x9e\xa3)C#@\xc1\x83\x9e\xa3)C#@\xc1\x83\x9e\xa3)C#@\xbb\x83\x9e\xa3)C#@\xc1\x83\x9e\xa3)C#@\xc1\x83\x9e\xa3)C#@\xbb\x83\x9e\xa3)C#@\xc9\x83\x9e\xa3)C#@\xc1\x83\x9e\xa3)C#@\xbb\x83\x9e\xa3)C#@\xc1\x83\x9e\xa3)C#@PO\x13f9\xb6!@\xc9\x83\x9e\xa3)C#@\xc1\x83\x9e\xa3)C#@x\x9d\x0e5s\xc3\x1d@\xc1\x83\x9e\xa3)C#@\xb4\x83\x9e\xa3)C#@\xa0\x83\x9e\xa3)C#@q\xdaQ\xb0\xcby\x1c@\xa8A\x87\x9a\xb9\xe1 @\xc1\x83\x9e\xa3)C#@\xbb\x83\x9e\xa3)C#@r\xf4\xef\x1f\xde^ @\xd0. S\xe7\x8b\x1e@\xb0\x83\x9e\xa3)C#@\xc9\x83\x9e\xa3)C#@\xb4\x83\x9e\xa3)C#@\xc1\x83\x9e\xa3)C#@\xd5\x83\x9e\xa3)C#@)\xd6\x1di\x01\xda\x1b@\xbb\x83\x9e\xa3)C#@_F\xfb\xce9\r"@\xd5\x83\x9e\xa3)C#@\xd5\x83\x9e\xa3)C#@\xaf\x83\x9e\xa3)C#@\xaeA\x87\x9a\xb9\xe1 @\xd5\x83\x9e\xa3)C#@\xd2\x83\x9e\xa3)C#@\xd5\x83\x9e\xa3)C#@\xaf\x83\x9e\xa3)C#@\xc9\x83\x9e\xa3)C#@\xc9\x83\x9e\xa3)C#@\xd5\x83\x9e\xa3)C#@\xa8A\x87\x9a\xb9\xe1 @\xd5\x83\x9e\xa3)C#@\nt\xdf\x17D\\\x17@\xa0\x83\x9e\xa3)C#@\xbb\x83\x9e\xa3)C#@\xc9\x83\x9e\xa3)C#@8O\x13f9\xb6!@\xc9\x83\x9e\xa3)C#@\xc1\x83\x9e\xa3)C#@\x80\x85K7@\x99\x17@|\x0e\x04\xdesq @\xb4\x83\x9e\xa3)C#@\xd5\x83\x9e\xa3)C#@KO\x13f9\xb6!@\xd5\x83\x9e\xa3)C#@\xc9\x83\x9e\xa3)C#@\x02\x84\x0b\xf7\xfd\xec\x1b@\xa6A\x87\x9a\xb9\xe1 @\xbb\x83\x9e\xa3)C#@\xc9\x83\x9e\xa3)C#@\xc1\x83\x9e\xa3)C#@\xc1\x83\x9e\xa3)C#@\x18\xfdM\x97\x00,\x13@\xc1\x83\x9e\xa3)C#@\xbaA\x87\x9a\xb9\xe1 @\xa5A\x87\x9a\xb9\xe1 @\xb8\x83\x9e\xa3)C#@\xc9\x83\x9e\xa3)C#@\xd5\x83\x9e\xa3)C#@\xa0\x83\x9e\xa3)C#@\xa8A\x87\x9a\xb9\xe1 @\xbb\x83\x9e\xa3)C#@\xc1\x83\x9e\xa3)C#@\xc1\x83\x9e\xa3)C#@\xc9\x83\x9e\xa3)C#@\xd5\x83\x9e\xa3)C#@\xb8A\x87\x9a\xb9\xe1 @\xbb\x83\x9e\xa3)C#@\xc9\x83\x9e\xa3)C#@\xc1\x83\x9e\xa3)C#@\xc9\x83\x9e\xa3)C#@\xbaA\x87\x9a\xb9\xe1 @\xc1\x83\x9e\xa3)C#@\xc1\x83\x9e\xa3)C#@\xc1\x83\x9e\xa3)C#@\x8d\x9a?\xaa\xa7\x15\x12@\xc1\x83\x9e\xa3)C#@\xc9\x83\x9e\xa3)C#@PO\x13f9\xb6!@\xc1\x83\x9e\xa3)C#@\xc1\x83\x9e\xa3)C#@\xc1\x83\x9e\xa3)C#@\xc9\x83\x9e\xa3)C#@\xd5\x83\x9e\xa3)C#@\xc1\x83\x9e\xa3)C#@\xb4\x83\x9e\xa3)C#@\xd5\x83\x9e\xa3)C#@\xc1\x83\x9e\xa3)C#@\x02\x1d\x08\xbc\xe7\xe2\x1c@\xc1\x83\x9e\xa3)C#@\x99\xcdq(\r["@\xc1\x83\x9e\xa3)C#@\xc1\x83\x9e\xa3)C#@\x8c\x9e&\xccrl\x1f@\xb2A\x87\x9a\xb9\xe1 @\xc9\x83\x9e\xa3)C#@\xd5\x83\x9e\xa3)C#@\xc9\x83\x9e\xa3)C#@\xc1\x83\x9e\xa3)C#@\xd5\x83\x9e\xa3)C#@\xd7\x94L^\xb8\xdf\x1c@\xc1\x83\x9e\xa3)C#@\xc1\x83\x9e\xa3)C#@\xbaA\x87\x9a\xb9\xe1 @\xbb\x83\x9e\xa3)C#@p\x9e&\xccrl\x1f@\xd5\x83\x9e\xa3)C#@\x83IK7@\x99\x1f@\xc1\x83\x9e\xa3)C#@\xb0A\x87\x9a\xb9\xe1 @\xc1\x83\x9e\xa3)C#@\xc9\x83\x9e\xa3)C#@\xadA\x87\x9a\xb9\xe1 @\xc1\x83\x9e\xa3)C#@\xd5\x83\x9e\xa3)C#@\xc1\x83\x9e\xa3)C#@EO\x13f9\xb6!@\xb0\x83\x9e\xa3)C#@o\xa1\x19P \xf8 @,\xedF\x7f\x92\xc5\x14@\xa8A\x87\x9a\xb9\xe1 @\xc1\x83\x9e\xa3)C#@\x91\xb3\x86.m\x7f\x15@\xc9\x83\x9e\xa3)C#@\xadA\x87\x9a\xb9\xe1 @\xa8A\x87\x9a\xb9\xe1 @\xbb\x83\x9e\xa3)C#@\xd5\x83\x9e\xa3)C#@\xbaA\x87\x9a\xb9\xe1 @\xc9\x83\x9e\xa3)C#@\xb0A\x87\x9a\xb9\xe1 @\xd5\x83\x9e\xa3)C#@\xb4\xda(\xd8\xe5< @\xbb\x83\x9e\xa3)C#@%\xedF\x7f\x92\xc5\x14@\xd5\x83\x9e\xa3)C#@\xbb\x83\x9e\xa3)C#@\xc1\x83\x9e\xa3)C#@\xc9\x83\x9e\xa3)C#@\xd5\x83\x9e\xa3)C#@\xc1\x83\x9e\xa3)C#@\xb5A\x87\x9a\xb9\xe1 @\xbb\x83\x9e\xa3)C#@\xd5\x83\x9e\xa3)C#@\xbb\x83\x9e\xa3)C#@\xc1\x83\x9e\xa3)C#@\xc1\x83\x9e\xa3)C#@\xd5\x83\x9e\xa3)C#@\xd5\x83\x9e\xa3)C#@\xc1\x83\x9e\xa3)C#@\xd5\x83\x9e\xa3)C#@\x80\x0e\x04\xdesq @\xc9\x83\x9e\xa3)C#@\xbb\x83\x9e\xa3)C#@\xd5\x83\x9e\xa3)C#@\xbb\x83\x9e\xa3)C#@\xbb\x83\x9e\xa3)C#@\xd5\x83\x9e\xa3)C#@\xc1\x83\x9e\xa3)C#@\xbb\x83\x9e\xa3)C#@\xdc\x83\x9e\xa3)C#@\xbaA\x87\x9a\xb9\xe1 @\xc1\x83\x9e\xa3)C#@\xb0A\x87\x9a\xb9\xe1 @\xc1\x83\x9e\xa3)C#@\xa3o?\xaa\xa7\x15\x12@\xf6\x1c\x08\xbc\xe7\xe2\x1c@f\x0e\x04\xdesq @\xd5\x83\x9e\xa3)C#@\xd5\x83\x9e\xa3)C#@\xc1\x83\x9e\xa3)C#@\xd5\x83\x9e\xa3)C#@\xd5\x83\x9e\xa3)C#@\xa8A\x87\x9a\xb9\xe1 @\x87F\xfb\xce9\r"@\xc1\x83\x9e\xa3)C#@\x86\x9e&\xccrl\x1f@\xaeA\x87\x9a\xb9\xe1 @\xc1\x83\x9e\xa3)C#@MO\x13f9\xb6!@\xc9\x83\x9e\xa3)C#@\xc1\x83\x9e\xa3)C#@\xc1\x83\x9e\xa3)C#@\xc1\x83\x9e\xa3)C#@ySK7@\x99\x1b@\xc9\x83\x9e\xa3)C#@\xd5\x83\x9e\xa3)C#@\x18\xfdM\x97\x00,\x13@\xbb\x83\x9e\xa3)C#@\xa6A\x87\x9a\xb9\xe1 @\xb7\xdb\xec\xe6rc\x1d@\xd5\x83\x9e\xa3)C#@\xd5\x83\x9e\xa3)C#@t\x9e&\xccrl\x1f@\xbb\x83\x9e\xa3)C#@\xd5\x83\x9e\xa3)C#@\xd5\x83\x9e\xa3)C#@\xaeA\x87\x9a\xb9\xe1 @\xb2A\x87\x9a\xb9\xe1 @\xc1\x83\x9e\xa3)C#@\xbb\x83\x9e\xa3)C#@\xd5\x83\x9e\xa3)C#@\xc1\x83\x9e\xa3)C#@\xc9\x83\x9e\xa3)C#@\xb8\x83\x9e\xa3)C#@\xbb\x83\x9e\xa3)C#@\xc1\x83\x9e\xa3)C#@\xb0\x83\x9e\xa3)C#@\xd5\x83\x9e\xa3)C#@\xc1\x83\x9e\xa3)C#@`O\x13f9\xb6!@\xc1\x83\x9e\xa3)C#@\xd5\x83\x9e\xa3)C#@\x95\xed\xec\xe6rc\x1d@\xd5\x83\x9e\xa3)C#@\xa0\x83\x9e\xa3)C#@t\x9e&\xccrl\x1f@\xa8A\x87\x9a\xb9\xe1 @\xb2A\x87\x9a\xb9\xe1 @\xd5\x83\x9e\xa3)C#@\xd5\x83\x9e\xa3)C#@\xd5\x83\x9e\xa3)C#@\xadA\x87\x9a\xb9\xe1 @\xc9\x83\x9e\xa3)C#@\xc1\x83\x9e\xa3)C#@x\x1b^|,\xa8\x19@\x0ft^|,\xa8\x15@\xc9\x83\x9e\xa3)C#@\xc9\x83\x9e\xa3)C#@\xc1\x83\x9e\xa3)C#@\xc1\x83\x9e\xa3)C#@\xc1\x83\x9e\xa3)C#@\xb0\x83\x9e\xa3)C#@\xd5\x83\x9e\xa3)C#@\xd5\x83\x9e\xa3)C#@\xbb\x83\x9e\xa3)C#@\xc1\x83\x9e\xa3)C#@\xbb\x83\x9e\xa3)C#@\xc1\x83\x9e\xa3)C#@\xb0\x83\x9e\xa3)C#@\xdc\x83\x9e\xa3)C#@\xd2\nF\xe5,\xff\x1f@\xc1\x83\x9e\xa3)C#@\xc1\x83\x9e\xa3)C#@BO\x13f9\xb6!@USK7@\x99\x1b@\xd5\x83\x9e\xa3)C#@\xc1\x83\x9e\xa3)C#@\xc1\x83\x9e\xa3)C#@\xd5\x83\x9e\xa3)C#@\xc1\x83\x9e\xa3)C#@\xc9\x83\x9e\xa3)C#@\xc1\x83\x9e\xa3)C#@\xc1\x83\x9e\xa3)C#@\xc1\x83\x9e\xa3)C#@\x83SK7@\x99\x1b@\xabA\x87\x9a\xb9\xe1 @\xc8) S\xe7\x8b\x1e@\xc9\x83\x9e\xa3)C#@\xb0A\x87\x9a\xb9\xe1 @\xbb\x83\x9e\xa3)C#@\xaeA\x87\x9a\xb9\xe1 @\xc8) S\xe7\x8b\x1e@\xc1\x83\x9e\xa3)C#@\xc1\x83\x9e\xa3)C#@\xc1\x83\x9e\xa3)C#@\xb5A\x87\x9a\xb9\xe1 @\xadA\x87\x9a\xb9\xe1 @\xc9\x83\x9e\xa3)C#@\xa0\x83\x9e\xa3)C#@\xc9\x83\x9e\xa3)C#@\xa8A\x87\x9a\xb9\xe1 @\xc1\x83\x9e\xa3)C#@\xc1\x83\x9e\xa3)C#@\xb2A\x87\x9a\xb9\xe1 @\xc1\x83\x9e\xa3)C#@\x98\x85\xcb\xd3\xae\xec\x05@\x03Y\x08\xbc\xe7\xe2\x10@\xc1\x83\x9e\xa3)C#@\xa0\x9e&\xccrl\x1f@\xbaA\x87\x9a\xb9\xe1 @_F\xfb\xce9\r"@\xc1\x83\x9e\xa3)C#@\xc1\x83\x9e\xa3)C#@\xac. S\xe7\x8b\x1a@\x00\x1d\x08\xbc\xe7\xe2\x1c@\x9d8\xf1\x14\xd1\xb7!@:O\x13f9\xb6!@\x7f\x0e\x04\xdesq @\xc1\x83\x9e\xa3)C#@\xb4\x83\x9e\xa3)C#@\xb7A\x87\x9a\xb9\xe1 @\xc1\x83\x9e\xa3)C#@\xc1\x83\x9e\xa3)C#@\xc1\x83\x9e\xa3)C#@\xa6A\x87\x9a\xb9\xe1 @sSK7@\x99\x1b@\xc9\x83\x9e\xa3)C#@\xadA\x87\x9a\xb9\xe1 @FO\x13f9\xb6!@\xc9\x83\x9e\xa3)C#@\xc1\x83\x9e\xa3)C#@\xc4\xcc\x0e5s\xc3\x19@\xc1\x83\x9e\xa3)C#@\xc9\x83\x9e\xa3)C#@\xd5\x83\x9e\xa3)C#@\xc9\x83\x9e\xa3)C#@\xd5\x83\x9e\xa3)C#@\xd5\x83\x9e\xa3)C#@\xbb\x83\x9e\xa3)C#@\xc1\x83\x9e\xa3)C#@\xbaA\x87\x9a\xb9\xe1 @\xc4\xe7\x97\x8a6D\x0b@\xc1\x83\x9e\xa3)C#@\xc9\x83\x9e\xa3)C#@\xd5\x83\x9e\xa3)C#@\xc1\x83\x9e\xa3)C#@\xd2\x83\x9e\xa3)C#@KO\x13f9\xb6!@FO\x13f9\xb6!@\xce\xe65\x00\x01\x83\x15@\xd5\x83\x9e\xa3)C#@\xc1\x83\x9e\xa3)C#@\xb0A\x87\x9a\xb9\xe1 @\xa8A\x87\x9a\xb9\xe1 @\xd5\x83\x9e\xa3)C#@\xc9\x83\x9e\xa3)C#@\xd5\x83\x9e\xa3)C#@\xd5\x83\x9e\xa3)C#@\xd5\x83\x9e\xa3)C#@\xaeA\x87\x9a\xb9\xe1 @\xc1\x83\x9e\xa3)C#@\xa0\x83\x9e\xa3)C#@\xd2i\x95+$0\x13@AO\x13f9\xb6!@\xbb\x83\x9e\xa3)C#@\xc1\x83\x9e\xa3)C#@\xc1\x83\x9e\xa3)C#@\xbb\x83\x9e\xa3)C#@\xdc\x83\x9e\xa3)C#@\xbb\x83\x9e\xa3)C#@\xd5\x83\x9e\xa3)C#@\xb4\x83\x9e\xa3)C#@\xc9\x83\x9e\xa3)C#@\x15\x0f\x04\xdesq @\xbaA\x87\x9a\xb9\xe1 @\xc1\x83\x9e\xa3)C#@\xc1\x83\x9e\xa3)C#@\xbb\x83\x9e\xa3)C#@\xc9\x83\x9e\xa3)C#@\xc9\x83\x9e\xa3)C#@\xc1\x83\x9e\xa3)C#@\xbb\x83\x9e\xa3)C#@\xc9\x83\x9e\xa3)C#@\xc1\x83\x9e\xa3)C#@\x95\xda(\xd8\xe5< @\xbb\x83\x9e\xa3)C#@\xd5\x83\x9e\xa3)C#@}F\xfb\xce9\r"@\xb2A\x87\x9a\xb9\xe1 @\xdc\x83\x9e\xa3)C#@\xbaA\x87\x9a\xb9\xe1 @\xd5\x83\x9e\xa3)C#@\x86Q8\xea\xe64\x18@\xa6A\x87\x9a\xb9\xe1 @\xbb\x83\x9e\xa3)C#@\xd5\x83\x9e\xa3)C#@\xf7\x1c\x08\xbc\xe7\xe2\x1c@\xbb\x83\x9e\xa3)C#@\xc1\x83\x9e\xa3)C#@\xbaA\x87\x9a\xb9\xe1 @\xc1\x83\x9e\xa3)C#@\xc9\x83\x9e\xa3)C#@\x0ft^|,\xa8\x15@\xd5\x83\x9e\xa3)C#@\xd2\x83\x9e\xa3)C#@\xd5\x83\x9e\xa3)C#@\xdc\x83\x9e\xa3)C#@\xaeA\x87\x9a\xb9\xe1 @USK7@\x99\x1b@\xc1\x83\x9e\xa3)C#@\xc1\x83\x9e\xa3)C#@\xd5\x83\x9e\xa3)C#@\xaeA\x87\x9a\xb9\xe1 @\xd5\x83\x9e\xa3)C#@\xd5\x83\x9e\xa3)C#@\xa0\x83\x9e\xa3)C#@\xc1\x83\x9e\xa3)C#@\xc1\x83\x9e\xa3)C#@\xc1\x83\x9e\xa3)C#@\xa0\x9e&\xccrl\x1f@\xd5\x83\x9e\xa3)C#@\xd5\x83\x9e\xa3)C#@\xc9\x83\x9e\xa3)C#@\xc9\x83\x9e\xa3)C#@\xc1\x83\x9e\xa3)C#@\xbb\x83\x9e\xa3)C#@\xbb\x83\x9e\xa3)C#@\xbb\x83\x9e\xa3)C#@\xbb\x83\x9e\xa3)C#@\xc9\x83\x9e\xa3)C#@\xa0\x9e&\xccrl\x1f@\xd5\x83\x9e\xa3)C#@\xadA\x87\x9a\xb9\xe1 @\xb8A\x87\x9a\xb9\xe1 @\xd5\x83\x9e\xa3)C#@\xbb\x83\x9e\xa3)C#@\xc1\x83\x9e\xa3)C#@w\xdaQ\xb0\xcby\x1c@\xd5\x83\x9e\xa3)C#@\xc1\x83\x9e\xa3)C#@\xb6) S\xe7\x8b\x1e@PO\x13f9\xb6!@$o8\xea\xe64\x18@\xb5A\x87\x9a\xb9\xe1 @\xc1\x83\x9e\xa3)C#@\x9dA\x87\x9a\xb9\xe1 @\xb0\x83\x9e\xa3)C#@\xa5[\x0b\xf7\xfd\xec\x1f@\xd5\x83\x9e\xa3)C#@\xf6\x1c\x08\xbc\xe7\xe2\x1c@\xbaA\x87\x9a\xb9\xe1 @\xbaA\x87\x9a\xb9\xe1 @\xc1\x83\x9e\xa3)C#@\xc1\x83\x9e\xa3)C#@\xbb\x83\x9e\xa3)C#@\xd5\x83\x9e\xa3)C#@m\x9e&\xccrl\x1f@\xd5\x83\x9e\xa3)C#@\xbaA\x87\x9a\xb9\xe1 @\xc1\x83\x9e\xa3)C#@\xd5\x83\x9e\xa3)C#@\xd2\x83\x9e\xa3)C#@\xc1\x83\x9e\xa3)C#@\xbb\x83\x9e\xa3)C#@\xadA\x87\x9a\xb9\xe1 @\xd5\x83\x9e\xa3)C#@\xd5\x83\x9e\xa3)C#@\xd5\x83\x9e\xa3)C#@\x81\x0e\x04\xdesq @\xd5\x83\x9e\xa3)C#@\xc1\x83\x9e\xa3)C#@\xbaA\x87\x9a\xb9\xe1 @\xaeA\x87\x9a\xb9\xe1 @\xc1\x83\x9e\xa3)C#@\xa0\x83\x9e\xa3)C#@\xa8A\x87\x9a\xb9\xe1 @\xc1\x83\x9e\xa3)C#@\xf4\tR\xb0\xcby\x18@\xa0\x83\x9e\xa3)C#@\xc9\x83\x9e\xa3)C#@\xbb\x83\x9e\xa3)C#@\xbb\x83\x9e\xa3)C#@\xbb\x83\x9e\xa3)C#@\xbb\x83\x9e\xa3)C#@\xc1\x83\x9e\xa3)C#@\xd5\x83\x9e\xa3)C#@\xb2A\x87\x9a\xb9\xe1 @\xc1\x83\x9e\xa3)C#@\xc9\x83\x9e\xa3)C#@~F\xfb\xce9\r"@\xd5\x83\x9e\xa3)C#@\xd5\x83\x9e\xa3)C#@\xc1\x83\x9e\xa3)C#@\xf0\xef`\xe4Y\x90\x1a@\xc1\x83\x9e\xa3)C#@\xa6A\x87\x9a\xb9\xe1 @\xc9\x83\x9e\xa3)C#@\xc9\x83\x9e\xa3)C#@\xb2A\x87\x9a\xb9\xe1 @\xd5\x83\x9e\xa3)C#@\xb2A\x87\x9a\xb9\xe1 @\xd5\x83\x9e\xa3)C#@\xd5\x83\x9e\xa3)C#@\xc1\x83\x9e\xa3)C#@\xbaA\x87\x9a\xb9\xe1 @\xc1\x83\x9e\xa3)C#@\xc9\x83\x9e\xa3)C#@\xc1\x83\x9e\xa3)C#@\xb5A\x87\x9a\xb9\xe1 @\xb0\x83\x9e\xa3)C#@\x90\x9d\x0e5s\xc3\x1d@\xd5\x83\x9e\xa3)C#@\xbb\x83\x9e\xa3)C#@\xc1\x83\x9e\xa3)C#@\xc1\x83\x9e\xa3)C#@\xd5\x83\x9e\xa3)C#@\xd5\x83\x9e\xa3)C#@KO\x13f9\xb6!@gSK7@\x99\x1b@\xc4A\x87\x9a\xb9\xe1 @CO\x13f9\xb6!@\xd5\x83\x9e\xa3)C#@\xbaA\x87\x9a\xb9\xe1 @\xd5\x83\x9e\xa3)C#@\xb2A\x87\x9a\xb9\xe1 @O\xdaQ\xb0\xcby\x1c@\xd5\x83\x9e\xa3)C#@\xc1\x83\x9e\xa3)C#@\xd5\x83\x9e\xa3)C#@\x96\x9e&\xccrl\x1f@\xd5\x83\x9e\xa3)C#@\xadA\x87\x9a\xb9\xe1 @\xd5\x83\x9e\xa3)C#@\x1cD\x08\xbc\xe7\xe2\x18@\xd5\x83\x9e\xa3)C#@\xb2A\x87\x9a\xb9\xe1 @\xa0\x83\x9e\xa3)C#@\xc9\x83\x9e\xa3)C#@\xa8A\x87\x9a\xb9\xe1 @\xc1\x83\x9e\xa3)C#@\xc9\x83\x9e\xa3)C#@\xc9\x83\x9e\xa3)C#@\xadA\x87\x9a\xb9\xe1 @\xc0\x9e&\xccrl\x1f@\xc9\x83\x9e\xa3)C#@\xbb\x83\x9e\xa3)C#@\xbb\x83\x9e\xa3)C#@\xbb\x83\x9e\xa3)C#@\xc1\x83\x9e\xa3)C#@\xcc\x1c\x08\xbc\xe7\xe2\x1c@\xc1\x83\x9e\xa3)C#@\xd5\x83\x9e\xa3)C#@\xa0\x83\x9e\xa3)C#@\x15\x0f\x04\xdesq @\xf0\xef`\xe4Y\x90\x1a@\xbb\x83\x9e\xa3)C#@\xc1\x83\x9e\xa3)C#@\xb0\x83\x9e\xa3)C#@\xd5\x83\x9e\xa3)C#@\xc1\x83\x9e\xa3)C#@7O\x13f9\xb6!@\xc1\x83\x9e\xa3)C#@\xc9\x83\x9e\xa3)C#@\xbaA\x87\x9a\xb9\xe1 @\xc1\x83\x9e\xa3)C#@\xdc\x83\x9e\xa3)C#@\xadA\x87\x9a\xb9\xe1 @\xbb\x83\x9e\xa3)C#@\xadA\x87\x9a\xb9\xe1 @\xa6A\x87\x9a\xb9\xe1 @PO\x13f9\xb6!@\xc9\x83\x9e\xa3)C#@\xa6A\x87\x9a\xb9\xe1 @\xc1\x83\x9e\xa3)C#@\xc1\x83\x9e\xa3)C#@\xbb\x83\x9e\xa3)C#@\xc1\x83\x9e\xa3)C#@\xb4) S\xe7\x8b\x1e@\xc1\x83\x9e\xa3)C#@\xc1\x83\x9e\xa3)C#@\xc9\x83\x9e\xa3)C#@\xd5\x83\x9e\xa3)C#@pF\xfb\xce9\r"@\xa0\x83\x9e\xa3)C#@\xc9\x83\x9e\xa3)C#@\xd5\x83\x9e\xa3)C#@\xdc\x83\x9e\xa3)C#@\xd5\x83\x9e\xa3)C#@\xd5\x83\x9e\xa3)C#@\x9dA\x87\x9a\xb9\xe1 @\xbb\x83\x9e\xa3)C#@\xc9\x83\x9e\xa3)C#@\xbb\x83\x9e\xa3)C#@\xb8A\x87\x9a\xb9\xe1 @\xc9\x83\x9e\xa3)C#@\xd5\x83\x9e\xa3)C#@\xa0\x9e&\xccrl\x1f@\xbb\x83\x9e\xa3)C#@\xb0\x83\x9e\xa3)C#@\xc1\x83\x9e\xa3)C#@\xb0A\x87\x9a\xb9\xe1 @\xc9\x83\x9e\xa3)C#@\x00\x1d\x08\xbc\xe7\xe2\x1c@\xd5\x83\x9e\xa3)C#@\xc9\x83\x9e\xa3)C#@\xc9\x83\x9e\xa3)C#@\xc9\x83\x9e\xa3)C#@\xbaA\x87\x9a\xb9\xe1 @\xd5\x83\x9e\xa3)C#@\xb5A\x87\x9a\xb9\xe1 @\xc1\x83\x9e\xa3)C#@\xc9\x83\x9e\xa3)C#@\x98\x85\xcb\xd3\xae\xec\x05@\xd5\x83\x9e\xa3)C#@\xa0\x83\x9e\xa3)C#@\xd5\x83\x9e\xa3)C#@\xc1\x83\x9e\xa3)C#@\xd5\x83\x9e\xa3)C#@\xb7A\x87\x9a\xb9\xe1 @\xbaA\x87\x9a\xb9\xe1 @\x1c\x04a\xe4Y\x90\x16@\x98\x85\xcb\xd3\xae\xec\x05@\xd5\x83\x9e\xa3)C#@\xb2A\x87\x9a\xb9\xe1 @\xe9\xedd\xf5\xb7\x88\x16@\xdc\x83\x9e\xa3)C#@\xbb\x83\x9e\xa3)C#@\xf6\x1c\x08\xbc\xe7\xe2\x1c@\xae7^|,\xa8\x19@\xbb\x83\x9e\xa3)C#@\xc8) S\xe7\x8b\x1e@\xc1\x83\x9e\xa3)C#@\xd5\x83\x9e\xa3)C#@\xd5\x83\x9e\xa3)C#@\xc9\x83\x9e\xa3)C#@\xfe\x1c\x08\xbc\xe7\xe2\x1c@\xc1\x83\x9e\xa3)C#@\xd5\x83\x9e\xa3)C#@\xe4\x1c\x08\xbc\xe7\xe2\x1c@\xc1\x83\x9e\xa3)C#@\xc9\x83\x9e\xa3)C#@\xc1\x83\x9e\xa3)C#@\xc1\x83\x9e\xa3)C#@\xc1\x83\x9e\xa3)C#@\xd5\x83\x9e\xa3)C#@\xd5\x83\x9e\xa3)C#@\xc1\x83\x9e\xa3)C#@\xc1\x83\x9e\xa3)C#@\xc1\x83\x9e\xa3)C#@\xd5\x83\x9e\xa3)C#@\xd5\x83\x9e\xa3)C#@\xadA\x87\x9a\xb9\xe1 @z\xc1d\xf5\xb7\x88\x1a@\xc9\x83\x9e\xa3)C#@\xabA\x87\x9a\xb9\xe1 @\xbb\x83\x9e\xa3)C#@\xc9\x83\x9e\xa3)C#@\xc1\x83\x9e\xa3)C#@\xbaA\x87\x9a\xb9\xe1 @\xa8A\x87\x9a\xb9\xe1 @\xbb\x83\x9e\xa3)C#@\xd5\x83\x9e\xa3)C#@\xb4\x83\x9e\xa3)C#@AO\x13f9\xb6!@\x8d\x9a?\xaa\xa7\x15\x16@\xc9\x83\x9e\xa3)C#@\xc1\x83\x9e\xa3)C#@\xc1\x83\x9e\xa3)C#@\xb4) S\xe7\x8b\x1e@\xabA\x87\x9a\xb9\xe1 @\xb0\x83\x9e\xa3)C#@\xc1\x83\x9e\xa3)C#@\x99\x9e&\xccrl\x1f@\xd5\x83\x9e\xa3)C#@\xc1\x83\x9e\xa3)C#@\xbb\x83\x9e\xa3)C#@\xc1\x83\x9e\xa3)C#@\xbb\x83\x9e\xa3)C#@-\xeed\xf5\xb7\x88\x16@\xc1\x83\x9e\xa3)C#@\xc1\x83\x9e\xa3)C#@\xc1\x83\x9e\xa3)C#@\xc1\x83\x9e\xa3)C#@\xc9\x83\x9e\xa3)C#@\xd5\x83\x9e\xa3)C#@\xd5\x83\x9e\xa3)C#@\xc1\x83\x9e\xa3)C#@d\x9d\x0e5s\xc3\x1d@\xc9\x83\x9e\xa3)C#@\xbb\x83\x9e\xa3)C#@\xdc\x83\x9e\xa3)C#@)2\x07\x92\xc1\x83\x0b@\xc9\x83\x9e\xa3)C#@\xadA\x87\x9a\xb9\xe1 @PO\x13f9\xb6!@\xbb\x83\x9e\xa3)C#@\xbb\x83\x9e\xa3)C#@\xc1\x83\x9e\xa3)C#@\xb2A\x87\x9a\xb9\xe1 @k>,\xd5\xd8\xb5\x05@\xdc\x83\x9e\xa3)C#@\xb2A\x87\x9a\xb9\xe1 @\xd5\x83\x9e\xa3)C#@\xd5\x83\x9e\xa3)C#@\x80\x85K7@\x99\x17@\xbb\x83\x9e\xa3)C#@\xc9\x83\x9e\xa3)C#@\x0f\nR\xb0\xcby\x18@\xbaA\x87\x9a\xb9\xe1 @\xd5\x83\x9e\xa3)C#@\xbb\x83\x9e\xa3)C#@\xbb\x83\x9e\xa3)C#@\xd5\x83\x9e\xa3)C#@\xc1\x83\x9e\xa3)C#@\xbb\x83\x9e\xa3)C#@\xc1\x83\x9e\xa3)C#@\xb4\x83\x9e\xa3)C#@o\x1by{Y9\x14@\xd5\x83\x9e\xa3)C#@\x91\xb3\x86.m\x7f\x15@\xc9\x83\x9e\xa3)C#@\xbb\x83\x9e\xa3)C#@\xc1\x83\x9e\xa3)C#@\xd5\x83\x9e\xa3)C#@\xc9\x83\x9e\xa3)C#@PO\x13f9\xb6!@\xa0\x9d\x0e5s\xc3\x1d@\xc1\x83\x9e\xa3)C#@\xc1\x83\x9e\xa3)C#@\xc1\x83\x9e\xa3)C#@\xd5\x83\x9e\xa3)C#@\xc9\x83\x9e\xa3)C#@\xd5\x83\x9e\xa3)C#@\xbb\x83\x9e\xa3)C#@\xb8A\x87\x9a\xb9\xe1 @\xd5\x83\x9e\xa3)C#@\xc1\x83\x9e\xa3)C#@\xc1\x83\x9e\xa3)C#@\xb0\x83\x9e\xa3)C#@\xc1\x83\x9e\xa3)C#@\xb0\x83\x9e\xa3)C#@\xc1\x83\x9e\xa3)C#@\xc9\x83\x9e\xa3)C#@\xc1\x83\x9e\xa3)C#@a\xc9\x1di\x01\xda\x17@\xb2A\x87\x9a\xb9\xe1 @\xd5\x83\x9e\xa3)C#@\x86\x9d\x0e5s\xc3\x1d@\xc1\x83\x9e\xa3)C#@\xbaA\x87\x9a\xb9\xe1 @\xb0A\x87\x9a\xb9\xe1 @\xa4A\x87\x9a\xb9\xe1 @\xbb\x83\x9e\xa3)C#@\xbaA\x87\x9a\xb9\xe1 @\xc1\x83\x9e\xa3)C#@\xb0\x83\x9e\xa3)C#@\xc9\x83\x9e\xa3)C#@\xc1\x83\x9e\xa3)C#@\xbb\x83\x9e\xa3)C#@\xbaA\x87\x9a\xb9\xe1 @\xc1\x83\x9e\xa3)C#@\xbb\x83\x9e\xa3)C#@\xbaA\x87\x9a\xb9\xe1 @\xd5\x83\x9e\xa3)C#@\xd5\x83\x9e\xa3)C#@\xadA\x87\x9a\xb9\xe1 @\xd5\x83\x9e\xa3)C#@\xa0\x83\x9e\xa3)C#@\xdc\x83\x9e\xa3)C#@\x83SK7@\x99\x1b@\xd5\x83\x9e\xa3)C#@\xc1\x83\x9e\xa3)C#@\x7f\xc9&\xccrl\x1b@\x96\x9d\x0e5s\xc3\x1d@\xc1\x83\x9e\xa3)C#@n\x9d\x0e5s\xc3\x1d@\xbaA\x87\x9a\xb9\xe1 @\xd5\x83\x9e\xa3)C#@\xc1\x83\x9e\xa3)C#@\xb2A\x87\x9a\xb9\xe1 @\xa0\x83\x9e\xa3)C#@\xbaA\x87\x9a\xb9\xe1 @\xaeA\x87\x9a\xb9\xe1 @\xc9\x83\x9e\xa3)C#@\xc1\x83\x9e\xa3)C#@\xc1\x83\x9e\xa3)C#@\xbaA\x87\x9a\xb9\xe1 @\xbb\x83\x9e\xa3)C#@\xa8A\x87\x9a\xb9\xe1 @,\x0f6\x00\x01\x83\x15@\xadA\x87\x9a\xb9\xe1 @\xb2A\x87\x9a\xb9\xe1 @\xc1\x83\x9e\xa3)C#@-~?\xaa\xa7\x15\x16@\xa0\x83\x9e\xa3)C#@\xc1\x83\x9e\xa3)C#@\xc1\x83\x9e\xa3)C#@\xd0\xfaE#3\xf6\x16@\xbb\x83\x9e\xa3)C#@\xd5\x83\x9e\xa3)C#@\xc1\x83\x9e\xa3)C#@\xc9\x83\x9e\xa3)C#@\xc9\x83\x9e\xa3)C#@\xc1\x83\x9e\xa3)C#@\xc9\x83\x9e\xa3)C#@\xc1\x83\x9e\xa3)C#@\xd5\x83\x9e\xa3)C#@\xbb\x83\x9e\xa3)C#@\xd5\x83\x9e\xa3)C#@\xc9\x83\x9e\xa3)C#@\xc9\x83\x9e\xa3)C#@\xd5\x83\x9e\xa3)C#@\xadA\x87\x9a\xb9\xe1 @\x93IK7@\x99\x1b@\xc4\xe7\x97\x8a6D\x0b@\xd5\x83\x9e\xa3)C#@\xc1\x83\x9e\xa3)C#@\xc1\x83\x9e\xa3)C#@\xc1\x83\x9e\xa3)C#@\xb5A\x87\x9a\xb9\xe1 @\xc9\x83\x9e\xa3)C#@\xb4\x83\x9e\xa3)C#@\xadA\x87\x9a\xb9\xe1 @\xd5\x83\x9e\xa3)C#@-~?\xaa\xa7\x15\x16@\xbb\x83\x9e\xa3)C#@\xd5\x83\x9e\xa3)C#@\xd5\x83\x9e\xa3)C#@\xd5\x83\x9e\xa3)C#@\xc9\x83\x9e\xa3)C#@\xd5\x83\x9e\xa3)C#@\xbb\x83\x9e\xa3)C#@\xc8) S\xe7\x8b\x1e@\xd5\x83\x9e\xa3)C#@\xb4\x83\x9e\xa3)C#@\x96\x9e&\xccrl\x1f@\xc1\x83\x9e\xa3)C#@\xc1\x83\x9e\xa3)C#@\xbb\x83\x9e\xa3)C#@\xc9\x83\x9e\xa3)C#@\xc1\x83\x9e\xa3)C#@\xa4) S\xe7\x8b\x1e@\xd5\x83\x9e\xa3)C#@\xc1\x83\x9e\xa3)C#@\xc1\x83\x9e\xa3)C#@\xbb\x83\x9e\xa3)C#@\xc1\x83\x9e\xa3)C#@\xadA\x87\x9a\xb9\xe1 @\xd5\x83\x9e\xa3)C#@\xbaA\x87\x9a\xb9\xe1 @\xc1\x83\x9e\xa3)C#@\xd5\x83\x9e\xa3)C#@\xa0\x83\x9e\xa3)C#@\xd5\x83\x9e\xa3)C#@\xa5A\x87\x9a\xb9\xe1 @\xa2\x9d\x0e5s\xc3\x1d@\xd5\x83\x9e\xa3)C#@\xc1\x83\x9e\xa3)C#@\xd5\x83\x9e\xa3)C#@\xc1\x83\x9e\xa3)C#@\xc1\x83\x9e\xa3)C#@\xd5\x83\x9e\xa3)C#@\xd0. S\xe7\x8b\x1a@\xbb\x83\x9e\xa3)C#@\xb5A\x87\x9a\xb9\xe1 @\xadA\x87\x9a\xb9\xe1 @\xc1\x83\x9e\xa3)C#@\xbb\x83\x9e\xa3)C#@\xc9\x83\x9e\xa3)C#@\xc1\x83\x9e\xa3)C#@\xbb\x83\x9e\xa3)C#@w\xdaQ\xb0\xcby\x1c@\xbb\x83\x9e\xa3)C#@\xd5\x83\x9e\xa3)C#@\xd5\x83\x9e\xa3)C#@\xc1\x83\x9e\xa3)C#@\xc9\x83\x9e\xa3)C#@\xb5A\x87\x9a\xb9\xe1 @\xc1\x83\x9e\xa3)C#@r\x0e\x04\xdesq @\xb0\x83\x9e\xa3)C#@\xc1\x83\x9e\xa3)C#@\xc1\x83\x9e\xa3)C#@\xbaA\x87\x9a\xb9\xe1 @\xc1\x83\x9e\xa3)C#@\xd5\x83\x9e\xa3)C#@\xd5\x83\x9e\xa3)C#@\xc9\x83\x9e\xa3)C#@\xc1\x83\x9e\xa3)C#@\xc9\x83\x9e\xa3)C#@\xb4\x83\x9e\xa3)C#@\xc9\x83\x9e\xa3)C#@\xb2A\x87\x9a\xb9\xe1 @\xd5\x83\x9e\xa3)C#@\xa0\x83\x9e\xa3)C#@\xd5\x83\x9e\xa3)C#@\xd5\x83\x9e\xa3)C#@\xc1\x83\x9e\xa3)C#@\xbe\tR\xb0\xcby\x18@\xc9\x83\x9e\xa3)C#@\xbb\x83\x9e\xa3)C#@\xc1\x83\x9e\xa3)C#@\xb0\x83\x9e\xa3)C#@\xd5\x83\x9e\xa3)C#@\xc1\x83\x9e\xa3)C#@\xc1\x83\x9e\xa3)C#@\xd5\x83\x9e\xa3)C#@\xb5A\x87\x9a\xb9\xe1 @\xc1\x83\x9e\xa3)C#@\xc1\x83\x9e\xa3)C#@\xd5\x83\x9e\xa3)C#@Z\xd25\x00\x01\x83\x19@\xc1\x83\x9e\xa3)C#@\xc1\x83\x9e\xa3)C#@\xd5\x83\x9e\xa3)C#@YO\x13f9\xb6!@\xd5\x83\x9e\xa3)C#@\xc1\x83\x9e\xa3)C#@\xa8A\x87\x9a\xb9\xe1 @\xbb\x83\x9e\xa3)C#@\xd5\x83\x9e\xa3)C#@\xc1\x83\x9e\xa3)C#@\xbaA\x87\x9a\xb9\xe1 @\xbb\x83\x9e\xa3)C#@\xc1\x83\x9e\xa3)C#@\xc1\x83\x9e\xa3)C#@\xbb\x83\x9e\xa3)C#@\xc1\x83\x9e\xa3)C#@\xbb\x83\x9e\xa3)C#@\xc1\x83\x9e\xa3)C#@\xc9\x83\x9e\xa3)C#@\xb4) S\xe7\x8b\x1e@\xd5\x83\x9e\xa3)C#@\xcb\xf7&\xccrl\x17@\xc1\x83\x9e\xa3)C#@\xb0\x83\x9e\xa3)C#@\xbb\x83\x9e\xa3)C#@\xc1\x83\x9e\xa3)C#@\xb5A\x87\x9a\xb9\xe1 @d\x9d\x0e5s\xc3\x1d@\xf6\x1c\x08\xbc\xe7\xe2\x1c@\xc1\x83\x9e\xa3)C#@\xa8A\x87\x9a\xb9\xe1 @\xc1\x83\x9e\xa3)C#@\xdc\x83\x9e\xa3)C#@\xbb\x83\x9e\xa3)C#@\xbb\x83\x9e\xa3)C#@\xc9\x83\x9e\xa3)C#@\xb2A\x87\x9a\xb9\xe1 @\xc1\x83\x9e\xa3)C#@\xb2A\x87\x9a\xb9\xe1 @\xd5\x83\x9e\xa3)C#@y\xc9&\xccrl\x1b@)2\x07\x92\xc1\x83\x0b@\x83\x9e&\xccrl\x1f@\xd5\x83\x9e\xa3)C#@\xc1\x83\x9e\xa3)C#@\xb4\x83\x9e\xa3)C#@\xbb\x83\x9e\xa3)C#@\xc9\x83\x9e\xa3)C#@\xa0\x83\x9e\xa3)C#@\xb0\x83\x9e\xa3)C#@\xc9\x83\x9e\xa3)C#@\xbb\x83\x9e\xa3)C#@\xc1\x83\x9e\xa3)C#@\xd5\x83\x9e\xa3)C#@\xd0. S\xe7\x8b\x1a@\xb4\x83\x9e\xa3)C#@\xd5\x83\x9e\xa3)C#@\xb8A\x87\x9a\xb9\xe1 @\x8c\x9e&\xccrl\x1f@\xa0\x83\x9e\xa3)C#@\xd5\x83\x9e\xa3)C#@\xd5\x83\x9e\xa3)C#@\xc9\x83\x9e\xa3)C#@\xd5\x83\x9e\xa3)C#@\xc1\x83\x9e\xa3)C#@\xb8A\x87\x9a\xb9\xe1 @\x8c\x9e&\xccrl\x1f@\xb0\x83\x9e\xa3)C#@\xd5\x83\x9e\xa3)C#@\xc1\x83\x9e\xa3)C#@\xc1\x83\x9e\xa3)C#@\xbb\x83\x9e\xa3)C#@\xd5\x83\x9e\xa3)C#@\xc9\x83\x9e\xa3)C#@\xc1\x83\x9e\xa3)C#@\xd5\x83\x9e\xa3)C#@\xc1\x83\x9e\xa3)C#@\xd5\x83\x9e\xa3)C#@\x18\nR\xb0\xcby\x18@\xc1\x83\x9e\xa3)C#@\xbb\x83\x9e\xa3)C#@\xa6A\x87\x9a\xb9\xe1 @\xa0\x83\x9e\xa3)C#@\xfe\x1c\x08\xbc\xe7\xe2\x1c@\xadA\x87\x9a\xb9\xe1 @\xbb\x83\x9e\xa3)C#@\xb2A\x87\x9a\xb9\xe1 @\xc1\x83\x9e\xa3)C#@\xc9\xd7TW\xc1\x0c\x15@\xda? S\xe7\x8b\x1a@\xc1\x83\x9e\xa3)C#@\xbaA\x87\x9a\xb9\xe1 @\xa8A\x87\x9a\xb9\xe1 @\xb0\x83\x9e\xa3)C#@\xc1\x83\x9e\xa3)C#@\xc1\x83\x9e\xa3)C#@\xc1\x83\x9e\xa3)C#@\xbb\x83\x9e\xa3)C#@\xa0\x83\x9e\xa3)C#@\xc9\x83\x9e\xa3)C#@\xd5\x83\x9e\xa3)C#@\xb6) S\xe7\x8b\x1e@\xc1\x83\x9e\xa3)C#@\xb5A\x87\x9a\xb9\xe1 @\nt\xdf\x17D\\\x13@\xb0\x83\x9e\xa3)C#@\xb5A\x87\x9a\xb9\xe1 @\xc1\x83\x9e\xa3)C#@\xaeA\x87\x9a\xb9\xe1 @\xa0\x9e&\xccrl\x1f@\xb0A\x87\x9a\xb9\xe1 @\xc9\x83\x9e\xa3)C#@\xc9\x83\x9e\xa3)C#@\xb4\x83\x9e\xa3)C#@\xd5\x83\x9e\xa3)C#@\xbaA\x87\x9a\xb9\xe1 @\xbaA\x87\x9a\xb9\xe1 @\xd5\x83\x9e\xa3)C#@\xa4) S\xe7\x8b\x1e@\xa0\x9d\x0e5s\xc3\x1d@\xa8A\x87\x9a\xb9\xe1 @\x82\x9e&\xccrl\x1f@\xd5\x83\x9e\xa3)C#@\xd5\x83\x9e\xa3)C#@\xb0\x83\x9e\xa3)C#@\xd5\x83\x9e\xa3)C#@\xd5\x83\x9e\xa3)C#@\xc1\x83\x9e\xa3)C#@\xd5\x83\x9e\xa3)C#@\xb4\x83\x9e\xa3)C#@\xc9\x83\x9e\xa3)C#@\xc1\x83\x9e\xa3)C#@\xc1\x83\x9e\xa3)C#@\xadA\x87\x9a\xb9\xe1 @\xb0\x83\x9e\xa3)C#@\xb2A\x87\x9a\xb9\xe1 @\xc9\x83\x9e\xa3)C#@\xd5\x83\x9e\xa3)C#@\xc1\x83\x9e\xa3)C#@\xd5\x83\x9e\xa3)C#@\xbb\x83\x9e\xa3)C#@\xa0\x9e&\xccrl\x1f@\xc9\x83\x9e\xa3)C#@\xc1\x83\x9e\xa3)C#@\xb0\x83\x9e\xa3)C#@\xc9\x83\x9e\xa3)C#@\xc9\x83\x9e\xa3)C#@\xa5A\x87\x9a\xb9\xe1 @\xa0\x9e&\xccrl\x1f@\xc1\x83\x9e\xa3)C#@'
p5356
tp5357
bsb.