ccopy_reg
_reconstructor
p0
(cnltk.classify.naivebayes
NaiveBayesClassifier
p1
c__builtin__
object
p2
Ntp3
Rp4
(dp5
S'_labels'
p6
(lp7
S'OTHER'
p8
aS'PERSON'
p9
aS'LOCATION'
p10
aS'NUMBER'
p11
aS'DATE'
p12
aS'ORGANIZATION'
p13
aS'TIME'
p14
aS'MONEY'
p15
aS'PERCENT'
p16
asS'_feature_probdist'
p17
(dp18
(g14
S'noun'
p19
tp20
g0
(cnltk.probability
ELEProbDist
p21
g2
Ntp22
Rp23
(dp24
S'_gamma'
p25
F0.5
sS'_N'
p26
I75
sS'_freqdist'
p27
g0
(cnltk.probability
FreqDist
p28
c__builtin__
dict
p29
(dp30
S''
p31
I15
sS'flies'
p32
I1
sS'revolution'
p33
I1
sS'office'
p34
I1
sS'show'
p35
I1
sS'community'
p36
I1
sS'pig'
p37
I1
sS'sunlight'
p38
I1
sS'human'
p39
I1
sS'church'
p40
I1
sS'cocaine'
p41
I1
sS'web'
p42
I1
sS'intercourse'
p43
I1
sS'person'
p44
I1
sS'tv'
p45
I1
sS'sun'
p46
I1
sS'decision'
p47
I1
sS'been'
p48
I1
sS'moon'
p49
I1
sS'attack'
p50
I1
sS'hen'
p51
I1
sS'puppy'
p52
I1
sS'eggs'
p53
I2
sS'hermit'
p54
I1
sS'body'
p55
I1
sS'life'
p56
I4
sS'quarts'
p57
I1
sS'gestation'
p58
I2
sS'ferret'
p59
I1
sS'blood'
p60
I2
sS'child'
p61
I1
sS'debt'
p62
I1
sS'artist'
p63
I2
sS'did'
p64
I4
sS'universe'
p65
I1
sS'age'
p66
I7
sS'dog'
p67
I1
sS'hiccup'
p68
I1
sS'trial'
p69
I1
sS'savings'
p70
I1
sS'materials'
p71
I1
sS'time'
p72
I4
stp73
Rp74
(dp75
g26
I75
sS'_max_cache'
p76
NsS'_item_cache'
p77
NsS'_Nr_cache'
p78
NsbsS'_bins'
p79
I1449
sS'_divisor'
p80
F799.5
sbs(g8
S'first'
p81
tp82
g0
(g21
g2
Ntp83
Rp84
(dp85
g25
F0.5
sg26
I1250
sg27
g0
(g28
g29
(dp86
S'musician'
p87
I1
sS'names'
p88
I1
sS'winnie'
p89
I1
sS'who'
p90
I2
sS'mississippi'
p91
I1
sS'at'
p92
I1
sS'in'
p93
I19
sS'madonna'
p94
I2
sS'ray'
p95
I2
sS'a'
p96
I1
sS'on'
p97
I2
sS'what'
p98
I1112
sS'italy'
p99
I1
sS'name'
p100
I34
sS'for'
p101
I1
sS'how'
p102
I7
sS'when'
p103
I1
sS'jude'
p104
I2
sS'to'
p105
I2
sS'garry'
p106
I1
sS'which'
p107
I43
sS'stuart'
p108
I2
sS'the'
p109
I6
sS'where'
p110
I2
sS'aspartame'
p111
I3
stp112
Rp113
(dp114
g26
I1250
sg76
Nsg77
Nsg78
Nsbsg79
I48
sg80
F1274.0
sbs(g11
S'head'
p115
tp116
g0
(g21
g2
Ntp117
Rp118
(dp119
g25
F0.5
sg26
I505
sg27
g0
(g28
g29
(dp120
g31
I142
sS'colleges'
p121
I1
sS'code'
p122
I1
sS'office'
p123
I1
sS'queen'
p124
I1
sS'astronauts'
p125
I2
sS'years'
p126
I9
sS'sperm'
p127
I1
sS'colors'
p128
I4
sS'spaces'
p129
I2
sS'businesses'
p130
I1
sS'questions'
p131
I2
sS'cds'
p132
I1
sS'soldiers'
p133
I6
sS'speed'
p134
I3
sS'children'
p135
I1
sS'superbowls'
p136
I1
sS'layers'
p137
I1
sS'web'
p138
I1
sS'votes'
p139
I1
sS'vietnamese'
p140
I1
sS'electricity'
p141
I1
sS'megawatts'
p142
I1
sS'day'
p143
I3
sS'languages'
p144
I3
sS'degrees'
p145
I2
sS'teaspoon'
p146
I1
sS'thousands'
p147
I1
sS'wingspan'
p148
I1
sS'tiles'
p149
I1
sS'beatles'
p150
I1
sS'referees'
p151
I1
sS'runs'
p152
I2
sS'acreage'
p153
I1
sS'fingers'
p154
I1
sS'penny-farthings'
p155
I1
sS'words'
p156
I1
sS'hands'
p157
I1
sS'schools'
p158
I1
sS'quarters'
p159
I1
sS'wings'
p160
I1
sS'verses'
p161
I1
sS'school'
p162
I1
sS'sizes'
p163
I1
sS'chairs'
p164
I1
sS'james'
p165
I1
sS'countries'
p166
I4
sS'grammys'
p167
I1
sS'casinos'
p168
I1
sS'shots'
p169
I1
sS'corners'
p170
I1
sS'pizza'
p171
I1
sS'disks'
p172
I1
sS'jews'
p173
I1
sS'weight'
p174
I5
sS'people'
p175
I30
sS'elevators'
p176
I1
sS'energy'
p177
I1
sS'seats'
p178
I1
sS'villi'
p179
I1
sS'rate'
p180
I3
sS'frequency'
p181
I2
sS'meters'
p182
I2
sS'year'
p183
I1
sS'grooves'
p184
I2
sS'acid'
p185
I2
sS'dimensions'
p186
I1
sS'calcium'
p187
I1
sS'rings'
p188
I1
sS'mines'
p189
I1
sS'score'
p190
I3
sS'toll'
p191
I4
sS'squares'
p192
I1
sS'equivalent'
p193
I3
sS'u.s.'
p194
I3
sS'lakes'
p195
I1
sS'answers'
p196
I1
sS'hours'
p197
I1
sS'caffeine'
p198
I2
sS'englishmen'
p199
I1
sS'baseball'
p200
I1
sS'hostages'
p201
I1
sS'teaspoons'
p202
I1
sS'pitchers'
p203
I1
sS'cities'
p204
I1
sS'counties'
p205
I1
sS'digits'
p206
I3
sS'watts'
p207
I1
sS'generals'
p208
I1
sS'engines'
p209
I1
sS'stations'
p210
I1
sS'leos'
p211
I1
sS'months'
p212
I2
sS'calories'
p213
I4
sS'days'
p214
I1
sS'times'
p215
I6
sS'length'
p216
I2
sS'games'
p217
I1
sS'canadians'
p218
I1
sS'islands'
p219
I2
sS'size'
p220
I3
sS'members'
p221
I1
sS'scales'
p222
I1
sS'presidents'
p223
I1
sS'number'
p224
I13
sS'community'
p225
I1
sS'feet'
p226
I5
sS'newtons'
p227
I1
sS'americans'
p228
I3
sS'names'
p229
I1
sS'frames'
p230
I1
sS'earthworms'
p231
I1
sS'bends'
p232
I1
sS'flavors'
p233
I1
sS'statistics'
p234
I3
sS'temperature'
p235
I3
sS'zip'
p236
I1
sS'elephants'
p237
I1
sS'shillings'
p238
I1
sS'zeros'
p239
I1
sS'stars'
p240
I2
sS'films'
p241
I2
sS'syllables'
p242
I1
sS'sonnets'
p243
I1
sS'dogs'
p244
I1
sS'today'
p245
I1
sS'horses'
p246
I2
sS'mountains'
p247
I1
sS'head'
p248
I1
sS'stradivarius'
p249
I1
sS'continents'
p250
I1
sS'inches'
p251
I2
sS'brand'
p252
I1
sS'pitches'
p253
I1
sS'movies'
p254
I1
sS'boys'
p255
I1
sS'angles'
p256
I1
sS'7847'
p257
I1
sS'population'
p258
I19
sS'yards'
p259
I1
sS'states'
p260
I4
sS'waste'
p261
I1
sS'milligrams'
p262
I1
sS'longitude'
p263
I3
sS'record'
p264
I1
sS'iron'
p265
I1
sS'cards'
p266
I2
sS'college'
p267
I1
sS'minutes'
p268
I1
sS'dots'
p269
I2
sS'iq'
p270
I2
sS'pounds'
p271
I1
sS'eyes'
p272
I1
sS'high'
p273
I1
sS'horsepower'
p274
I2
sS'muscles'
p275
I2
sS'numbers'
p276
I1
sS'fiddlers'
p277
I1
sS'bones'
p278
I2
sS'cables'
p279
I1
sS'species'
p280
I1
sS'innings'
p281
I2
sS'par'
p282
I2
sS'revolutions'
p283
I1
sS'russians'
p284
I1
sS'lengths'
p285
I1
sS'snow'
p286
I1
sS'reactivity'
p287
I4
sS'actors'
p288
I1
sS'pins'
p289
I1
sS'colonies'
p290
I2
sS'events'
p291
I1
sS'vegetation'
p292
I1
sS'bells'
p293
I1
sS'elements'
p294
I1
sS'lawyers'
p295
I1
sS'brothers'
p296
I1
sS'students'
p297
I2
sS'juices'
p298
I1
sS'gutenberg'
p299
I1
sS'characters'
p300
I2
sS'oceans'
p301
I1
sS'sides'
p302
I3
sS'beanie'
p303
I1
sS'miles'
p304
I6
sS'phone'
p305
I1
sS'url'
p306
I2
sS'salt'
p307
I1
sS'holes'
p308
I1
sS'cherubs'
p309
I1
sS'points'
p310
I4
sS'time'
p311
I1
sS'hearts'
p312
I1
sS'wives'
p313
I1
sS'athletes'
p314
I1
sS'quantity'
p315
I1
stp316
Rp317
(dp318
g26
I505
sg76
Nsg77
Nsg78
Nsbsg79
I1487
sg80
F1248.5
sbs(g14
g81
tp319
g0
(g21
g2
Ntp320
Rp321
(dp322
g25
F0.5
sg26
I75
sg27
g0
(g28
g29
(dp323
S'on'
p324
I1
sS'what'
p325
I14
sS'at'
p326
I1
sS'how'
p327
I57
sS'shea'
p328
I1
sS'the'
p329
I1
stp330
Rp331
(dp332
g26
I75
sg76
Nsg77
Nsg78
Nsbsg79
I48
sg80
F99.0
sbs(g13
g81
tp333
g0
(g21
g2
Ntp334
Rp335
(dp336
g25
F0.5
sg26
I189
sg27
g0
(g28
g29
(dp337
S'what'
p338
I137
sS'name'
p339
I14
sS'who'
p340
I15
sS'when'
p341
I1
sS'rotary'
p342
I2
sS'woodrow'
p343
I1
sS'whom'
p344
I1
sS'which'
p345
I16
sS'in'
p346
I1
sS'the'
p347
I1
stp348
Rp349
(dp350
g26
I189
sg76
Nsg77
Nsg78
Nsbsg79
I48
sg80
F213.0
sbs(g15
g115
tp351
g0
(g21
g2
Ntp352
Rp353
(dp354
g25
F0.5
sg26
I71
sg27
g0
(g28
g29
(dp355
g31
I30
sS'fare'
p356
I2
sS'money'
p357
I7
sS'price'
p358
I4
sS'provider'
p359
I2
sS'tax'
p360
I1
sS'caps'
p361
I1
sS'rate'
p362
I2
sS'cost'
p363
I4
sS'fine'
p364
I1
sS'salary'
p365
I6
sS'wage'
p366
I4
sS'debts'
p367
I1
sS'increase'
p368
I1
sS'amount'
p369
I1
sS'income'
p370
I3
sS'worth'
p371
I1
stp372
Rp373
(dp374
g26
I71
sg76
Nsg77
Nsg78
Nsbsg79
I1487
sg80
F814.5
sbs(g9
g81
tp375
g0
(g21
g2
Ntp376
Rp377
(dp378
g25
F0.5
sg26
I1034
sg27
g0
(g28
g29
(dp379
S'whose'
p380
I14
sS'what'
p381
I396
sS'name'
p382
I35
sS'saddam'
p383
I1
sS'who'
p384
I542
sS'when'
p385
I3
sS'rotary'
p386
I1
sS'whom'
p387
I3
sS'silly'
p388
I1
sS'which'
p389
I30
sS'in'
p390
I3
sS'cnn'
p391
I1
sS'president'
p392
I1
sS'the'
p393
I2
sS'with'
p394
I1
stp395
Rp396
(dp397
g26
I1034
sg76
Nsg77
Nsg78
Nsbsg79
I48
sg80
F1058.0
sbs(g10
g19
tp398
g0
(g21
g2
Ntp399
Rp400
(dp401
g25
F0.5
sg26
I835
sg27
g0
(g28
g29
(dp402
g31
I97
sS'lobsters'
p403
I1
sS'lyrics'
p404
I3
sS'bocci'
p405
I1
sS'actress'
p406
I1
sS'hamlet'
p407
I1
sS'seaport'
p408
I3
sS'avenue'
p409
I1
sS'find'
p410
I1
sS'cartoon'
p411
I1
sS'web'
p412
I3
sS'birthplace'
p413
I3
sS'group'
p414
I3
sS'office'
p415
I1
sS'gulf'
p416
I1
sS'title'
p417
I1
sS'point'
p418
I1
sS'royal'
p419
I1
sS'lake'
p420
I2
sS'civil'
p421
I1
sS'source'
p422
I1
sS'book'
p423
I1
sS'tape'
p424
I1
sS'location'
p425
I4
sS'prison'
p426
I1
sS'piano'
p427
I1
sS'soccer'
p428
I1
sS'hat'
p429
I1
sS'resources'
p430
I1
sS'merchant'
p431
I1
sS'case'
p432
I2
sS'screensaver'
p433
I1
sS'myth'
p434
I1
sS'get'
p435
I2
sS'surrounds'
p436
I2
sS'dam'
p437
I2
sS'capital'
p438
I18
sS'photograph'
p439
I1
sS'arch'
p440
I1
sS'nation'
p441
I3
sS'department'
p442
I1
sS'tuberculosis'
p443
I1
sS'world'
p444
I10
sS'fractal'
p445
I1
sS'suey'
p446
I1
sS'room'
p447
I1
sS'airports'
p448
I1
sS'name'
p449
I15
sS'countries'
p450
I24
sS'opera'
p451
I1
sS'glitters'
p452
I1
sS'list'
p453
I3
sS'hole'
p454
I1
sS'bay'
p455
I3
sS'miles'
p456
I1
sS'steps'
p457
I1
sS'cartoons'
p458
I1
sS'rock'
p459
I1
sS'found'
p460
I1
sS'river'
p461
I9
sS'ports'
p462
I1
sS'province'
p463
I2
sS'breweries'
p464
I1
sS'art'
p465
I1
sS'telescope'
p466
I1
sS'ten'
p467
I1
sS'apartments'
p468
I1
sS'seas'
p469
I1
sS'back'
p470
I1
sS'rivers'
p471
I2
sS'born'
p472
I7
sS'street'
p473
I3
sS'examples'
p474
I1
sS'sea'
p475
I5
sS'erupts'
p476
I1
sS'home'
p477
I6
sS'calendar'
p478
I1
sS'sport'
p479
I1
sS'constellation'
p480
I3
sS'wander'
p481
I1
sS'textiles'
p482
I1
sS'guinea'
p483
I1
sS'review'
p484
I1
sS'sites'
p485
I1
sS'research'
p486
I1
sS'libraries'
p487
I1
sS'state'
p488
I54
sS'diamonds'
p489
I1
sS'email'
p490
I2
sS'subway'
p491
I1
sS'body'
p492
I3
sS'monarchs'
p493
I1
sS'cars'
p494
I1
sS'answers'
p495
I1
sS'monsters'
p496
I1
sS'statistics'
p497
I1
sS'sink'
p498
I1
sS'groups'
p499
I1
sS'address'
p500
I6
sS'directions'
p501
I1
sS'nationality'
p502
I8
sS'canals'
p503
I1
sS'cities'
p504
I9
sS'come'
p505
I2
sS'flytrap'
p506
I1
sS'deserts'
p507
I1
sS'publisher'
p508
I1
sS'zoo'
p509
I1
sS'anything'
p510
I1
sS'restaurant'
p511
I2
sS'country'
p512
I118
sS'region'
p513
I1
sS'adventures'
p514
I1
sS'thing'
p515
I1
sS'airport'
p516
I1
sS'place'
p517
I3
sS'islands'
p518
I1
sS'weird'
p519
I1
sS'hospital'
p520
I1
sS'seeing'
p521
I1
sS'tennis'
p522
I1
sS'bell'
p523
I1
sS'wall'
p524
I1
sS'attractions'
p525
I2
sS'county'
p526
I3
sS'snowboard'
p527
I1
sS'names'
p528
I3
sS'coastal'
p529
I1
sS'strip'
p530
I1
sS'schematics'
p531
I1
sS'lesson'
p532
I1
sS'continent'
p533
I7
sS'post'
p534
I1
sS'city'
p535
I89
sS'basketball'
p536
I1
sS'span'
p537
I1
sS'habitat'
p538
I1
sS'quality'
p539
I1
sS'area'
p540
I3
sS'remains'
p541
I1
sS'nickname'
p542
I2
sS'museum'
p543
I3
sS'people'
p544
I3
sS'desert'
p545
I5
sS'draft'
p546
I1
sS'seafaring'
p547
I1
sS'way'
p548
I1
sS'ridge'
p549
I1
sS'corpus'
p550
I2
sS'territory'
p551
I1
sS'meeting'
p552
I1
sS'tourists'
p553
I1
sS'empty'
p554
I1
sS'possession'
p555
I1
sS'mountains'
p556
I2
sS'direction'
p557
I3
sS'stadium'
p558
I1
sS'ash'
p559
I1
sS'flying'
p560
I1
sS'contains'
p561
I1
sS'listing'
p562
I1
sS'waterways'
p563
I1
sS'lists'
p564
I1
sS'site'
p565
I4
sS'chemicals'
p566
I1
sS'part'
p567
I3
sS'pecan'
p568
I1
sS'line'
p569
I1
sS'surrender'
p570
I1
sS'dialing'
p571
I1
sS'town'
p572
I3
sS'wide'
p573
I1
sS'kind'
p574
I1
sS'target'
p575
I1
sS'science'
p576
I1
sS'ride'
p577
I1
sS'originate'
p578
I2
sS'tree'
p579
I1
sS'devices'
p580
I1
sS'nations'
p581
I1
sS'planet'
p582
I4
sS'movies'
p583
I1
sS'mall'
p584
I1
sS'individual'
p585
I1
sS'wrestler'
p586
I1
sS'island'
p587
I3
sS'mountain'
p588
I12
sS'mythology'
p589
I1
sS'display'
p590
I1
sS'history'
p591
I2
sS'bridge'
p592
I3
sS'president'
p593
I1
sS'pony'
p594
I1
sS'tabs'
p595
I1
sS'strait'
p596
I1
sS'marijuana'
p597
I1
sS'evidence'
p598
I1
sS'states'
p599
I5
sS'want'
p600
I1
sS'southern'
p601
I2
sS'concentration'
p602
I1
sS'border'
p603
I1
sS'eels'
p604
I1
sS'tallest'
p605
I1
sS'ukulele'
p606
I1
sS'helium'
p607
I1
sS'graduate'
p608
I1
sS'website'
p609
I1
sS'setting'
p610
I1
sS'take'
p611
I2
sS'online'
p612
I2
sS'test'
p613
I1
sS'residence'
p614
I1
sS'status'
p615
I1
sS'map'
p616
I1
sS'begin'
p617
I1
sS'hotel'
p618
I1
sS'star'
p619
I2
sS'brothers'
p620
I2
sS'information'
p621
I18
sS'singles'
p622
I1
sS'park'
p623
I2
sS'rail'
p624
I1
sS'rain'
p625
I1
sS'aborigines'
p626
I1
sS'waterfall'
p627
I1
sS'peak'
p628
I1
sS'court'
p629
I2
sS'stocks'
p630
I1
sS'data'
p631
I1
sS'grow'
p632
I1
sS'building'
p633
I4
sS'picture'
p634
I1
sS'center'
p635
I3
sS'attracts'
p636
I1
sS'hang'
p637
I1
sS'headquarters'
p638
I4
sS'rule'
p639
I1
sS'midi'
p640
I1
sS'freeway'
p641
I1
sS'person'
p642
I1
sS'maintain'
p643
I1
sS'official'
p644
I1
sS'nuclear'
p645
I1
sS'landmark'
p646
I1
sS'comparisons'
p647
I1
sS'spend'
p648
I1
sS'bodies'
p649
I1
sS'marvel'
p650
I1
stp651
Rp652
(dp653
g26
I835
sg76
Nsg77
Nsg78
Nsbsg79
I1449
sg80
F1559.5
sbs(g16
g19
tp654
g0
(g21
g2
Ntp655
Rp656
(dp657
g25
F0.5
sg26
I27
sg27
g0
(g28
g29
(dp658
S'account'
p659
I1
sS'target'
p660
I1
sS'probability'
p661
I2
sS'unemployment'
p662
I1
sS'chances'
p663
I2
sS'odds'
p664
I3
sS'percent'
p665
I2
sS'chance'
p666
I1
sS'state'
p667
I1
sS'fraction'
p668
I2
sS'approval'
p669
I1
sS'percentage'
p670
I8
sS'children'
p671
I2
stp672
Rp673
(dp674
g26
I27
sg76
Nsg77
Nsg78
Nsbsg79
I1449
sg80
F751.5
sbs(g12
g115
tp675
g0
(g21
g2
Ntp676
Rp677
(dp678
g25
F0.5
sg26
I218
sg27
g0
(g28
g29
(dp679
g31
I14
sS'ambassador'
p680
I1
sS'helens'
p681
I1
sS'clark'
p682
I1
sS'show'
p683
I1
sS'wall'
p684
I1
sS'revolutionaries'
p685
I1
sS'charles'
p686
I1
sS'period'
p687
I2
sS'month'
p688
I3
sS'muhammad'
p689
I1
sS'ussr'
p690
I1
sS'americans'
p691
I1
sS'hugo'
p692
I1
sS'battle'
p693
I2
sS'mill'
p694
I1
sS'hitler'
p695
I1
sS'transplant'
p696
I1
sS'use'
p697
I1
sS'group'
p698
I1
sS'troops'
p699
I1
sS'festival'
p700
I1
sS'ruby'
p701
I1
sS'attack'
p702
I1
sS'labor'
p703
I1
sS'window'
p704
I1
sS'music'
p705
I1
sS'teenager'
p706
I1
sS'mutiny'
p707
I1
sS'bill'
p708
I1
sS'war'
p709
I1
sS'engine'
p710
I1
sS'israel'
p711
I1
sS'woman'
p712
I1
sS'fire'
p713
I2
sS'dam'
p714
I1
sS'company'
p715
I1
sS'thatcher'
p716
I1
sS'test'
p717
I1
sS'slinky'
p718
I1
sS'bible'
p719
I1
sS'wedding'
p720
I1
sS'railroad'
p721
I1
sS'erected'
p722
I1
sS'banner'
p723
I1
sS'day'
p724
I8
sS'bar-code'
p725
I1
sS'nfl'
p726
I1
sS'encyclopedia'
p727
I1
sS'birthdate'
p728
I1
sS'helen'
p729
I2
sS'architecture'
p730
I2
sS'man'
p731
I1
sS'yemen'
p732
I1
sS'amendment'
p733
I1
sS'menstruation'
p734
I1
sS'beethoven'
p735
I2
sS'art'
p736
I1
sS'osbourne'
p737
I1
sS'century'
p738
I3
sS'rousseau'
p739
I1
sS'house'
p740
I1
sS'fish'
p741
I1
sS'humans'
p742
I1
sS'spielberg'
p743
I1
sS'mormons'
p744
I1
sS'roosevelt'
p745
I1
sS'year'
p746
I45
sS'aeul'
p747
I1
sS'depression'
p748
I1
sS'toilet'
p749
I1
sS'nostradamus'
p750
I2
sS'christ'
p751
I1
sS'amtrak'
p752
I1
sS'barbie'
p753
I1
sS'sun'
p754
I1
sS'fraze'
p755
I1
sS'concert'
p756
I1
sS'www.questions.com'
p757
I1
sS'flood'
p758
I1
sS'millennium'
p759
I1
sS'huxley'
p760
I1
sS'season'
p761
I4
sS'cnn'
p762
I2
sS'gate'
p763
I2
sS'ruth'
p764
I1
sS'pastorius'
p765
I1
sS'typewriter'
p766
I1
sS'parthenon'
p767
I1
sS'korea'
p768
I1
sS'congress'
p769
I1
sS'noriega'
p770
I1
sS'journal'
p771
I1
sS'eruption'
p772
I1
sS'victoria'
p773
I1
sS'control'
p774
I1
sS'birthday'
p775
I4
sS'awards'
p776
I1
sS'date'
p777
I13
sS'vesuvius'
p778
I1
sS'weekend'
p779
I1
sS'lindbergh'
p780
I1
sS'camcorders'
p781
I1
sS'broadcast'
p782
I1
sS'dates'
p783
I1
sS'accident'
p784
I1
sS'pangaea'
p785
I1
sS'i'
p786
I1
sS'months'
p787
I1
sS'florida'
p788
I1
sS'rockefeller'
p789
I1
sS'dow'
p790
I1
sS'games'
p791
I1
sS'advertising'
p792
I1
sS'time'
p793
I2
sS'shorn'
p794
I1
sS'railway'
p795
I1
sS'swimming'
p796
I1
sS'microsoft'
p797
I1
sS'nixon'
p798
I3
stp799
Rp800
(dp801
g26
I218
sg76
Nsg77
Nsg78
Nsbsg79
I1487
sg80
F961.5
sbs(g15
g19
tp802
g0
(g21
g2
Ntp803
Rp804
(dp805
g25
F0.5
sg26
I71
sg27
g0
(g28
g29
(dp806
S'money'
p807
I7
sS'cost'
p808
I3
sS'year'
p809
I1
sS'fine'
p810
I1
sS'railroad'
p811
I1
sS'wage'
p812
I5
sS'beef'
p813
I1
sS'stamp'
p814
I2
sS'twenty'
p815
I1
sS'debts'
p816
I1
sS'increase'
p817
I1
sS'state'
p818
I1
sS'ton'
p819
I1
sS'income'
p820
I3
sS'party'
p821
I1
sS'get'
p822
I1
sS'fare'
p823
I1
sS'junk'
p824
I1
sS'exchange'
p825
I2
sS'drugs'
p826
I1
sS'price'
p827
I4
sS'gas'
p828
I1
sS'utilities'
p829
I1
sS'tuberculosis'
p830
I1
sS'ticket'
p831
I2
sS'presidents'
p832
I1
sS'bug'
p833
I1
sS'salary'
p834
I6
sS'daycare'
p835
I2
sS'did'
p836
I9
sS'tree'
p837
I2
sS'contract'
p838
I1
sS'person'
p839
I1
sS'amount'
p840
I2
sS'having'
p841
I1
stp842
Rp843
(dp844
g26
I71
sg76
Nsg77
Nsg78
Nsbsg79
I1449
sg80
F795.5
sbs(g9
g19
tp845
g0
(g21
g2
Ntp846
Rp847
(dp848
g25
F0.5
sg26
I1034
sg27
g0
(g28
g29
(dp849
g31
I207
sS'husband-and-wife'
p850
I1
sS'coach'
p851
I3
sS'founder'
p852
I2
sS'show'
p853
I2
sS'authors'
p854
I1
sS'celebrities'
p855
I2
sS'resistance'
p856
I1
sS'invent'
p857
I1
sS'leads'
p858
I1
sS'code'
p859
I1
sS'radio'
p860
I2
sS'liberty'
p861
I1
sS'soldiers'
p862
I2
sS'chair'
p863
I1
sS'captain'
p864
I1
sS'milk'
p865
I1
sS'staff'
p866
I1
sS'apartment'
p867
I1
sS'chain'
p868
I1
sS'title'
p869
I8
sS'electricity'
p870
I1
sS'writer'
p871
I4
sS'father'
p872
I8
sS'fans'
p873
I1
sS'literary'
p874
I1
sS'theme'
p875
I1
sS'program'
p876
I1
sS'black'
p877
I5
sS'present'
p878
I2
sS'crooner'
p879
I1
sS'communist'
p880
I1
sS'quotation'
p881
I1
sS'fences'
p882
I1
sS'fax'
p883
I1
sS'woman'
p884
I12
sS'hit'
p885
I3
sS'citizen'
p886
I2
sS'translations'
p887
I1
sS'kind'
p888
I1
sS'bear'
p889
I1
sS'millionaire'
p890
I1
sS'sons'
p891
I2
sS'diary'
p892
I1
sS'borrower'
p893
I1
sS'entries'
p894
I1
sS'races'
p895
I1
sS'surgeon'
p896
I1
sS'dose'
p897
I1
sS'prime'
p898
I4
sS'bestselling'
p899
I1
sS'artist'
p900
I1
sS'positions'
p901
I1
sS'marry'
p902
I1
sS'brother'
p903
I1
sS'grandfather'
p904
I1
sS'yougurt'
p905
I1
sS'sang'
p906
I2
sS'shoplifts'
p907
I1
sS'delegate'
p908
I1
sS'barroom'
p909
I1
sS'guy'
p910
I1
sS'round'
p911
I1
sS'husband'
p912
I2
sS'secretary'
p913
I1
sS'official'
p914
I1
sS'temperance'
p915
I1
sS'leaders'
p916
I1
sS'ten'
p917
I2
sS'creator'
p918
I2
sS'canine'
p919
I1
sS'seat'
p920
I1
sS'trilogy'
p921
I1
sS'governor'
p922
I2
sS'lawyer'
p923
I9
sS'wife'
p924
I2
sS'tender'
p925
I1
sS'folk'
p926
I1
sS'cricketer'
p927
I1
sS'stardom'
p928
I1
sS'movie'
p929
I4
sS'section'
p930
I1
sS'havoc'
p931
I1
sS'uniform'
p932
I1
sS'election'
p933
I2
sS'genius'
p934
I1
sS'state'
p935
I1
sS'won'
p936
I1
sS'suspect'
p937
I1
sS'finger'
p938
I1
sS'occupation'
p939
I5
sS'advertizing'
p940
I1
sS'hero'
p941
I1
sS'degree'
p942
I1
sS'faith'
p943
I2
sS'men'
p944
I2
sS'boss'
p945
I1
sS'guitar'
p946
I1
sS'wild'
p947
I1
sS'job'
p948
I3
sS'dubliners'
p949
I1
sS'baseball'
p950
I10
sS'opposition'
p951
I1
sS'boy'
p952
I2
sS'voice'
p953
I1
sS'daughter'
p954
I2
sS'naval'
p955
I1
sS'survivor'
p956
I1
sS'money'
p957
I1
sS'joke'
p958
I1
sS'trader'
p959
I1
sS'host'
p960
I2
sS'reports'
p961
I1
sS'tv'
p962
I12
sS'jogging'
p963
I1
sS'games'
p964
I1
sS'defeat'
p965
I1
sS'senator'
p966
I1
sS'makes'
p967
I1
sS'maker'
p968
I1
sS'patents'
p969
I1
sS'conservationist'
p970
I1
sS'cruiser'
p971
I1
sS'presidents'
p972
I3
sS'lyricist'
p973
I1
sS'colony'
p974
I1
sS'supreme'
p975
I1
sS'pop'
p976
I1
sS'twin'
p977
I1
sS'martyrs'
p978
I1
sS'husbands'
p979
I1
sS'names'
p980
I6
sS'composer'
p981
I3
sS'toys'
p982
I1
sS'resident'
p983
I1
sS'singing'
p984
I2
sS'rugby'
p985
I1
sS'conference'
p986
I1
sS'poem'
p987
I2
sS'spoke'
p988
I1
sS'engines'
p989
I1
sS'army'
p990
I2
sS'acceptance'
p991
I1
sS'newscast'
p992
I1
sS'commission'
p993
I1
sS'secret'
p994
I1
sS'wood'
p995
I1
sS'music'
p996
I1
sS'films'
p997
I2
sS'markets'
p998
I1
sS'abstract'
p999
I1
sS'empty'
p1000
I1
sS'door'
p1001
I1
sS'conductor'
p1002
I1
sS'cop'
p1003
I1
sS'tennis'
p1004
I1
sS'honorary'
p1005
I1
sS'inventions'
p1006
I1
sS'gas'
p1007
I1
sS'buxom'
p1008
I1
sS'pugilist'
p1009
I1
sS'train'
p1010
I1
sS'stethoscope'
p1011
I1
sS'minister'
p1012
I5
sS'child'
p1013
I1
sS'superstar'
p1014
I2
sS'gold'
p1015
I2
sS'instructor'
p1016
I1
sS'painter'
p1017
I3
sS'women'
p1018
I1
sS'sound'
p1019
I1
sS'novel'
p1020
I1
sS'look'
p1021
I1
sS'presidency'
p1022
I1
sS'rights'
p1023
I1
sS'car'
p1024
I1
sS'work'
p1025
I1
sS'worm'
p1026
I1
sS'honeymooners'
p1027
I1
sS'criticizing'
p1028
I1
sS'male'
p1029
I1
sS'spy'
p1030
I1
sS'compare'
p1031
I1
sS'pyramid'
p1032
I1
sS'bandleader'
p1033
I1
sS'figures'
p1034
I1
sS'figure'
p1035
I2
sS'century'
p1036
I2
sS'process'
p1037
I1
sS'commander'
p1038
I1
sS'middle'
p1039
I2
sS'villain'
p1040
I2
sS'protects'
p1041
I1
sS'numbers'
p1042
I1
sS'partner'
p1043
I1
sS'founding'
p1044
I1
sS'astronaut'
p1045
I3
sS'biography'
p1046
I1
sS'information'
p1047
I1
sS'polio'
p1048
I1
sS'soldier'
p1049
I1
sS'holds'
p1050
I2
sS'administration'
p1051
I1
sS'tour'
p1052
I1
sS'endurance'
p1053
I1
sS'member'
p1054
I5
sS'winners'
p1055
I1
sS'monarch'
p1056
I3
sS'duel'
p1057
I1
sS'stock'
p1058
I1
sS'designer'
p1059
I2
sS'explorer'
p1060
I2
sS'autobiography'
p1061
I1
sS'kennedy-nixon'
p1062
I1
sS'appearances'
p1063
I1
sS'youngsters'
p1064
I1
sS'despondent'
p1065
I1
sS'companion'
p1066
I1
sS'shores'
p1067
I1
sS'kidnaping'
p1068
I1
sS'characters'
p1069
I1
sS'president'
p1070
I19
sS'data'
p1071
I1
sS'cartoon'
p1072
I5
sS'identity'
p1073
I1
sS'man'
p1074
I9
sS'task'
p1075
I1
sS'whores'
p1076
I1
sS'surfboard'
p1077
I1
sS'doctor'
p1078
I3
sS'children'
p1079
I1
sS'person'
p1080
I9
sS'road'
p1081
I1
sS'mother'
p1082
I2
sS'position'
p1083
I1
sS'model'
p1084
I1
sS'order'
p1085
I1
sS'ambassador'
p1086
I1
sS'abilities'
p1087
I1
sS'office'
p1088
I1
sS'gods'
p1089
I1
sS'wedding'
p1090
I1
sS'actress'
p1091
I12
sS'years'
p1092
I3
sS'batteries'
p1093
I1
sS'paper'
p1094
I1
sS'costume'
p1095
I2
sS'replies'
p1096
I1
sS'mayor'
p1097
I5
sS'bombing'
p1098
I1
sS'underwater'
p1099
I1
sS'self-portrait'
p1100
I1
sS'call'
p1101
I1
sS'queen'
p1102
I2
sS'character'
p1103
I11
sS'housewife'
p1104
I1
sS'labor'
p1105
I1
sS'blob'
p1106
I1
sS'personas'
p1107
I1
sS'founders'
p1108
I1
sS'role'
p1109
I4
sS'scoundrel'
p1110
I3
sS'chairman'
p1111
I2
sS'fool'
p1112
I1
sS'missions'
p1113
I1
sS'food'
p1114
I1
sS'chancellor'
p1115
I1
sS'wives'
p1116
I1
sS'band'
p1117
I1
sS'game'
p1118
I2
sS'boxer'
p1119
I3
sS'hands'
p1120
I1
sS'press'
p1121
I1
sS'world'
p1122
I7
sS'lady'
p1123
I1
sS'term'
p1124
I1
sS'panties'
p1125
I1
sS'attorneys'
p1126
I1
sS'name'
p1127
I61
sS'success'
p1128
I1
sS'commanders'
p1129
I1
sS'clown'
p1130
I1
sS'theory'
p1131
I1
sS'victory'
p1132
I1
sS'lawnmower'
p1133
I1
sS'loco-motion'
p1134
I1
sS'inventors'
p1135
I1
sS'celebrity'
p1136
I2
sS'x-man'
p1137
I1
sS'mean'
p1138
I1
sS'people'
p1139
I7
sS'aerodynamics'
p1140
I1
sS'stern'
p1141
I1
sS'back'
p1142
I1
sS'borrow'
p1143
I1
sS'books'
p1144
I1
sS'archenemy'
p1145
I1
sS'home'
p1146
I3
sS'girl'
p1147
I3
sS'perfume'
p1148
I1
sS'try'
p1149
I2
sS'lead'
p1150
I2
sS'space'
p1151
I1
sS'vacuum'
p1152
I1
sS'horoscope'
p1153
I1
sS'opener'
p1154
I1
sS'fountain'
p1155
I1
sS'leader'
p1156
I13
sS'maneuver'
p1157
I1
sS'monster'
p1158
I1
sS'power'
p1159
I2
sS'rock'
p1160
I1
sS'pub'
p1161
I1
sS'appointments'
p1162
I1
sS'protagonist'
p1163
I1
sS'plea'
p1164
I1
sS'poems'
p1165
I1
sS'pitchers'
p1166
I1
sS'explorers'
p1167
I1
sS'fondness'
p1168
I1
sS'director'
p1169
I6
sS'sister'
p1170
I2
sS'son-in-law'
p1171
I2
sS'deer'
p1172
I1
sS'cowboy'
p1173
I1
sS'jeep'
p1174
I1
sS'prophet'
p1175
I4
sS'newspapers'
p1176
I1
sS'door-to-door'
p1177
I1
sS'times'
p1178
I1
sS'thing'
p1179
I1
sS'islands'
p1180
I1
sS'block'
p1181
I1
sS'playwright'
p1182
I1
sS'image'
p1183
I1
sS'cross-your-heart'
p1184
I1
sS'profession'
p1185
I4
sS'comedienne'
p1186
I2
sS'obscene'
p1187
I1
sS'son'
p1188
I4
sS'feet'
p1189
I1
sS'female'
p1190
I1
sS'strip'
p1191
I3
sS'owner'
p1192
I1
sS'message'
p1193
I1
sS'swimmer'
p1194
I1
sS'engineer'
p1195
I2
sS'bull'
p1196
I1
sS'jockey'
p1197
I1
sS'nickname'
p1198
I6
sS'sculptress'
p1199
I1
sS'night'
p1200
I1
sS'question'
p1201
I1
sS'player'
p1202
I3
sS'fought'
p1203
I1
sS'master'
p1204
I1
sS'author'
p1205
I9
sS'bounty'
p1206
I1
sS'dictator'
p1207
I2
sS'speaking'
p1208
I1
sS'head'
p1209
I3
sS'airwaves'
p1210
I1
sS'circumnavigator'
p1211
I1
sS'pitcher'
p1212
I1
sS'cabinet'
p1213
I1
sS'poet'
p1214
I5
sS'part'
p1215
I3
sS'biochemists'
p1216
I1
sS'mules'
p1217
I1
sS'line'
p1218
I1
sS'surrender'
p1219
I1
sS'inventor'
p1220
I2
sS'count'
p1221
I1
sS'king'
p1222
I4
sS'television'
p1223
I3
sS'made'
p1224
I1
sS'glory'
p1225
I1
sS'players'
p1226
I2
sS'project'
p1227
I1
sS'listeners'
p1228
I1
sS'architect'
p1229
I2
sS'friend'
p1230
I2
sS'prankster'
p1231
I1
sS'promises'
p1232
I1
sS'surname'
p1233
I1
sS'nominee'
p1234
I1
sS'pro'
p1235
I1
sS'premier'
p1236
I1
sS'toothbrush'
p1237
I1
sS'strips'
p1238
I1
sS'voices'
p1239
I1
sS'talking'
p1240
I1
sS'regards'
p1241
I1
sS'rent'
p1242
I1
sS'girlfriend'
p1243
I1
sS'sells'
p1244
I1
sS'novelist'
p1245
I2
sS'film'
p1246
I6
sS'sings'
p1247
I4
sS'dancing'
p1248
I1
sS'come-on'
p1249
I1
sS'lyrics'
p1250
I1
sS'guitarist'
p1251
I1
sS'actor'
p1252
I18
sS'reality'
p1253
I1
sS'majority'
p1254
I2
sS'book'
p1255
I4
sS'actors'
p1256
I1
sS'niece'
p1257
I1
sS'forces'
p1258
I1
sS'department'
p1259
I1
sS'victor'
p1260
I1
sS'pseudonym'
p1261
I2
sS'star'
p1262
I6
sS'brothers'
p1263
I2
sS'living'
p1264
I3
sS'football'
p1265
I1
sS'phonograph'
p1266
I1
sS'heroine'
p1267
I2
sS'inspiration'
p1268
I1
sS'singer'
p1269
I1
sS'studio'
p1270
I1
sS'vice'
p1271
I2
sS'cover'
p1272
I1
sS'dog'
p1273
I1
sS'reputation'
p1274
I1
sS'lives'
p1275
I3
sS'buffalo'
p1276
I1
sS'once'
p1277
I1
stp1278
Rp1279
(dp1280
g26
I1034
sg76
Nsg77
Nsg78
Nsbsg79
I1449
sg80
F1758.5
sbs(g16
g115
tp1281
g0
(g21
g2
Ntp1282
Rp1283
(dp1284
g25
F0.5
sg26
I27
sg27
g0
(g28
g29
(dp1285
g31
I10
sS'rating'
p1286
I1
sS'account'
p1287
I1
sS'probability'
p1288
I2
sS'chances'
p1289
I2
sS'odds'
p1290
I3
sS'percent'
p1291
I1
sS'rate'
p1292
I3
sS'chance'
p1293
I1
sS'fraction'
p1294
I2
sS'percentage'
p1295
I1
stp1296
Rp1297
(dp1298
g26
I27
sg76
Nsg77
Nsg78
Nsbsg79
I1487
sg80
F770.5
sbs(g13
g19
tp1299
g0
(g21
g2
Ntp1300
Rp1301
(dp1302
g25
F0.5
sg26
I189
sg27
g0
(g28
g29
(dp1303
g31
I4
sS'tribe'
p1304
I1
sS'colleges'
p1305
I1
sS'agency'
p1306
I1
sS'producer'
p1307
I1
sS'produces'
p1308
I1
sS'football'
p1309
I1
sS'businesses'
p1310
I2
sS'president'
p1311
I1
sS'super-teams'
p1312
I1
sS'ballet'
p1313
I1
sS'toy'
p1314
I1
sS'group'
p1315
I7
sS'hunting'
p1316
I1
sS'fast'
p1317
I1
sS'sports'
p1318
I1
sS'camera'
p1319
I1
sS'manufactures'
p1320
I1
sS'engine'
p1321
I2
sS'diamond'
p1322
I3
sS'fast-food'
p1323
I1
sS'government'
p1324
I1
sS'food'
p1325
I1
sS'company'
p1326
I23
sS'railways'
p1327
I1
sS'school'
p1328
I3
sS'band'
p1329
I1
sS'races'
p1330
I1
sS'court'
p1331
I1
sS'schools'
p1332
I2
sS'world'
p1333
I3
sS'championship'
p1334
I1
sS'name'
p1335
I9
sS'distance'
p1336
I1
sS'kind'
p1337
I4
sS'middle'
p1338
I1
sS'meat'
p1339
I1
sS'level'
p1340
I1
sS'car'
p1341
I2
sS'university'
p1342
I5
sS'companies'
p1343
I2
sS'purveyor'
p1344
I1
sS'rock'
p1345
I1
sS'radio'
p1346
I2
sS'example'
p1347
I1
sS'exhibit'
p1348
I1
sS'supreme'
p1349
I1
sS'pyramid'
p1350
I1
sS'art'
p1351
I1
sS'ten'
p1352
I1
sS'people'
p1353
I2
sS'tree'
p1354
I1
sS'telephone'
p1355
I1
sS'culture'
p1356
I1
sS'computer'
p1357
I1
sS'college'
p1358
I9
sS'advertise'
p1359
I2
sS'airplane'
p1360
I2
sS'cocaine'
p1361
I1
sS'competitor'
p1362
I1
sS'network'
p1363
I1
sS'corporation'
p1364
I2
sS'manufacturers'
p1365
I1
sS'administration'
p1366
I1
sS'civilization'
p1367
I1
sS'party'
p1368
I2
sS'electronics'
p1369
I1
sS'play'
p1370
I1
sS'oil'
p1371
I1
sS'business'
p1372
I4
sS'fascist'
p1373
I1
sS'cars'
p1374
I1
sS'team'
p1375
I6
sS'cigarette'
p1376
I1
sS'baseball'
p1377
I6
sS'groups'
p1378
I1
sS'society'
p1379
I1
sS'police'
p1380
I5
sS'motto'
p1381
I1
sS'nickname'
p1382
I1
sS'television'
p1383
I1
sS'card'
p1384
I1
sS'manufacturer'
p1385
I1
sS'league'
p1386
I2
sS'engines'
p1387
I1
sS'wife'
p1388
I1
sS'airline'
p1389
I2
sS'time'
p1390
I1
sS'organization'
p1391
I8
sS'residents'
p1392
I1
sS'backup'
p1393
I1
sS'frequent'
p1394
I1
stp1395
Rp1396
(dp1397
g26
I189
sg76
Nsg77
Nsg78
Nsbsg79
I1449
sg80
F913.5
sbs(g8
g19
tp1398
g0
(g21
g2
Ntp1399
Rp1400
(dp1401
g25
F0.5
sg26
I1250
sg27
g0
(g28
g29
(dp1402
g31
I47
sS'melts'
p1403
I1
sS'invent'
p1404
I3
sS'crocodile'
p1405
I1
sS'disc'
p1406
I1
sS'publish'
p1407
I1
sS'migrates'
p1408
I1
sS'skin'
p1409
I1
sS'dish'
p1410
I1
sS'golf'
p1411
I3
sS'centers'
p1412
I1
sS'causes'
p1413
I1
sS'looking'
p1414
I1
sS'baseball'
p1415
I1
sS'referring'
p1416
I1
sS'tv'
p1417
I12
sS'hump'
p1418
I1
sS'technique'
p1419
I3
sS'languages'
p1420
I6
sS'fingernails'
p1421
I1
sS'tail'
p1422
I1
sS'program'
p1423
I2
sS'terror'
p1424
I1
sS'smile'
p1425
I1
sS'ingredient'
p1426
I1
sS'plants'
p1427
I2
sS'family'
p1428
I1
sS'woman'
p1429
I1
sS'translations'
p1430
I1
sS'jeroboams'
p1431
I1
sS'sons'
p1432
I1
sS'mixing'
p1433
I2
sS'word'
p1434
I14
sS'prize'
p1435
I1
sS'level'
p1436
I1
sS'did'
p1437
I1
sS'gender'
p1438
I1
sS'companies'
p1439
I1
sS'occurs'
p1440
I1
sS'race'
p1441
I4
sS'car'
p1442
I4
sS'refer'
p1443
I1
sS'athlete'
p1444
I1
sS'non-fiction'
p1445
I1
sS'magazine'
p1446
I6
sS'ten'
p1447
I1
sS'crop'
p1448
I2
sS'sign'
p1449
I2
sS'chef'
p1450
I1
sS'battle'
p1451
I2
sS'titles'
p1452
I1
sS'video'
p1453
I1
sS'lawyer'
p1454
I1
sS'fear'
p1455
I62
sS'hymn'
p1456
I1
sS'employ'
p1457
I1
sS'constitution'
p1458
I1
sS'clock'
p1459
I1
sS'section'
p1460
I1
sS'caffeine'
p1461
I1
sS'dangles'
p1462
I1
sS'tarantula'
p1463
I1
sS'tips'
p1464
I1
sS'tournaments'
p1465
I1
sS'bird'
p1466
I1
sS'body'
p1467
I1
sS'hero'
p1468
I2
sS'leg'
p1469
I1
sS'men'
p1470
I1
sS'commercial'
p1471
I1
sS'dipsomaniac'
p1472
I1
sS'operating'
p1473
I2
sS'tragedy'
p1474
I1
sS'box'
p1475
I1
sS'substance'
p1476
I3
sS'credit'
p1477
I1
sS'products'
p1478
I4
sS'advertising'
p1479
I1
sS'birthstone'
p1480
I1
sS'otters'
p1481
I1
sS'classification'
p1482
I1
sS'spermologer'
p1483
I1
sS'respirator'
p1484
I1
sS'names'
p1485
I3
sS'tools'
p1486
I1
sS'chefs'
p1487
I1
sS'ladybugs'
p1488
I1
sS'contains'
p1489
I1
sS'arms'
p1490
I1
sS'sports'
p1491
I3
sS'symphony'
p1492
I1
sS'call'
p1493
I6
sS'films'
p1494
I1
sS'type'
p1495
I11
sS'sort'
p1496
I1
sS'racoon'
p1497
I1
sS'phobophobe'
p1498
I1
sS'club'
p1499
I1
sS'company'
p1500
I2
sS'refrain'
p1501
I1
sS'missile'
p1502
I1
sS'glass'
p1503
I1
sS'flag'
p1504
I1
sS'rabbit'
p1505
I2
sS'known'
p1506
I2
sS'polyorchid'
p1507
I1
sS'mascot'
p1508
I1
sS'balls'
p1509
I1
sS'animals'
p1510
I8
sS'primate'
p1511
I1
sS'science'
p1512
I1
sS'ride'
p1513
I1
sS'work'
p1514
I1
sS'hardest'
p1515
I1
sS'example'
p1516
I2
sS'stubborn'
p1517
I1
sS'eczema'
p1518
I1
sS'assent'
p1519
I1
sS'currency'
p1520
I1
sS'foods'
p1521
I2
sS'airplane'
p1522
I2
sS'species'
p1523
I3
sS'ceremony'
p1524
I1
sS'damage'
p1525
I1
sS'write'
p1526
I3
sS'sword'
p1527
I1
sS'creature'
p1528
I3
sS'fare'
p1529
I1
sS'plant'
p1530
I4
sS'cocktail'
p1531
I2
sS'clone'
p1532
I1
sS'rites'
p1533
I1
sS'accessory'
p1534
I1
sS'conjugations'
p1535
I1
sS'blood'
p1536
I2
sS'philatelist'
p1537
I1
sS'softball'
p1538
I1
sS'date'
p1539
I1
sS'eighth'
p1540
I1
sS'types'
p1541
I4
sS'man'
p1542
I3
sS'noun'
p1543
I1
sS'commodity'
p1544
I2
sS'liner'
p1545
I2
sS'element'
p1546
I3
sS'tale'
p1547
I2
sS'writ'
p1548
I1
sS'keeps'
p1549
I1
sS'alloy'
p1550
I1
sS'swimming'
p1551
I2
sS'playing'
p1552
I1
sS'wine'
p1553
I1
sS'no.'
p1554
I1
sS'words'
p1555
I5
sS'producer'
p1556
I1
sS'produces'
p1557
I1
sS'move'
p1558
I1
sS'mission'
p1559
I1
sS'meter'
p1560
I2
sS'trade'
p1561
I1
sS'paper'
p1562
I1
sS'motorcycle'
p1563
I1
sS'oven'
p1564
I1
sS'signs'
p1565
I1
sS'birds'
p1566
I2
sS'limelight'
p1567
I1
sS'group'
p1568
I1
sS'handheld'
p1569
I1
sS'forms'
p1570
I1
sS'civil'
p1571
I1
sS'distinguishing'
p1572
I1
sS'constitutes'
p1573
I1
sS'travelling'
p1574
I1
sS'holiday'
p1575
I1
sS'diseases'
p1576
I1
sS'food'
p1577
I7
sS'auto'
p1578
I1
sS'killer'
p1579
I1
sS'therapy'
p1580
I1
sS'snake'
p1581
I1
sS'resource'
p1582
I1
sS'bread'
p1583
I1
sS'articles'
p1584
I2
sS'term'
p1585
I19
sS'name'
p1586
I70
sS'opera'
p1587
I2
sS'potatoes'
p1588
I1
sS'policeman'
p1589
I1
sS'events'
p1590
I4
sS'crops'
p1591
I1
sS'predators'
p1592
I1
sS'side'
p1593
I2
sS'bone'
p1594
I1
sS'mean'
p1595
I1
sS'week'
p1596
I1
sS'constipation'
p1597
I1
sS'generation'
p1598
I1
sS'series'
p1599
I3
sS'spider'
p1600
I1
sS'fires'
p1601
I1
sS'ball'
p1602
I1
sS'year'
p1603
I1
sS'aids'
p1604
I1
sS'event'
p1605
I1
sS'album'
p1606
I1
sS'gangland'
p1607
I1
sS'space'
p1608
I1
sS'four-player'
p1609
I1
sS'vessels'
p1610
I1
sS'research'
p1611
I1
sS'wolverine'
p1612
I1
sS'medicine'
p1613
I2
sS'formula'
p1614
I2
sS'correct'
p1615
I2
sS'achievements'
p1616
I1
sS'maneuver'
p1617
I1
sS'monster'
p1618
I1
sS'city'
p1619
I1
sS'delicacy'
p1620
I1
sS'seventh'
p1621
I1
sS'horse'
p1622
I2
sS'approaches'
p1623
I1
sS'put'
p1624
I1
sS'holidays'
p1625
I2
sS'card'
p1626
I7
sS'care'
p1627
I1
sS'language'
p1628
I9
sS'deck'
p1629
I1
sS'starts'
p1630
I1
sS'times'
p1631
I1
sS'counterpart'
p1632
I2
sS'thing'
p1633
I3
sS'tennis'
p1634
I2
sS'sentence'
p1635
I1
sS'hearing'
p1636
I1
sS'feet'
p1637
I1
sS'defects'
p1638
I1
sS'overalls'
p1639
I1
sS'millions'
p1640
I1
sS'razor'
p1641
I1
sS'story'
p1642
I1
sS'toy'
p1643
I1
sS'silent'
p1644
I1
sS'automobile'
p1645
I1
sS'system'
p1646
I3
sS'fiction'
p1647
I1
sS'paint'
p1648
I1
sS'corpus'
p1649
I1
sS'syrup'
p1650
I1
sS'dogs'
p1651
I1
sS'eyes'
p1652
I1
sS'murder'
p1653
I1
sS'stomach'
p1654
I1
sS'way'
p1655
I7
sS'chemicals'
p1656
I3
sS'part'
p1657
I5
sS'cereal'
p1658
I2
sS'translation'
p1659
I1
sS'flowers'
p1660
I1
sS'steel'
p1661
I1
sS'distance'
p1662
I1
sS'television'
p1663
I2
sS'domestica'
p1664
I1
sS'invention'
p1665
I1
sS'marriage'
p1666
I1
sS'cards'
p1667
I2
sS'feeling'
p1668
I1
sS'sculpture'
p1669
I2
sS'fowl'
p1670
I1
sS'modern'
p1671
I1
sS'ages'
p1672
I1
sS'mine'
p1673
I1
sS'pedometer'
p1674
I1
sS'tastes'
p1675
I1
sS'shrubs'
p1676
I1
sS'breakfast'
p1677
I1
sS'contact'
p1678
I1
sS'chess'
p1679
I1
sS'chiropodist'
p1680
I1
sS'divers'
p1681
I1
sS'play'
p1682
I4
sS'object'
p1683
I1
sS'cigarette'
p1684
I2
sS'letter'
p1685
I6
sS'exercises'
p1686
I1
sS'coin'
p1687
I1
sS'class'
p1688
I2
sS'synonym'
p1689
I1
sS'disease'
p1690
I10
sS'order'
p1691
I1
sS'flog'
p1692
I1
sS'dot'
p1693
I1
sS'bomb'
p1694
I1
sS'phenomenon'
p1695
I2
sS'gold'
p1696
I1
sS'tequila'
p1697
I1
sS'queen'
p1698
I1
sS'recipe'
p1699
I2
sS'colors'
p1700
I7
sS'radio'
p1701
I2
sS'laments'
p1702
I1
sS'chicken'
p1703
I1
sS'albums'
p1704
I1
sS'snack'
p1705
I1
sS'dice'
p1706
I1
sS'gulf'
p1707
I1
sS'title'
p1708
I1
sS'ruin'
p1709
I1
sS'winner'
p1710
I1
sS'penalty'
p1711
I1
sS'theme'
p1712
I2
sS'molecules'
p1713
I1
sS'fuel'
p1714
I2
sS'get'
p1715
I1
sS'kind'
p1716
I40
sS'bear'
p1717
I1
sS'da'
p1718
I1
sS'longest'
p1719
I1
sS'joins'
p1720
I1
sS'determines'
p1721
I1
sS'bar'
p1722
I1
sS'encounters'
p1723
I1
sS'saliva'
p1724
I1
sS'method'
p1725
I2
sS'penguins'
p1726
I1
sS'abolitionists'
p1727
I1
sS'corgi'
p1728
I1
sS'orca'
p1729
I1
sS'hairy'
p1730
I1
sS'disaster'
p1731
I1
sS'ancients'
p1732
I1
sS'humans'
p1733
I1
sS'sex'
p1734
I2
sS'computer'
p1735
I5
sS'seal'
p1736
I1
sS'sport'
p1737
I18
sS'draws'
p1738
I1
sS'ways'
p1739
I6
sS'movie'
p1740
I18
sS'exchange'
p1741
I1
sS'state'
p1742
I3
sS'gemstone'
p1743
I1
sS'ends'
p1744
I1
sS'ability'
p1745
I1
sS'incident'
p1746
I1
sS'wear'
p1747
I2
sS'come'
p1748
I1
sS'piece'
p1749
I2
sS'drug'
p1750
I3
sS'connection'
p1751
I1
sS'games'
p1752
I1
sS'berry'
p1753
I1
sS'faces'
p1754
I1
sS'witch'
p1755
I1
sS'heliologist'
p1756
I1
sS'statues'
p1757
I1
sS'cancer'
p1758
I2
sS'color'
p1759
I30
sS'period'
p1760
I1
sS'vessel'
p1761
I1
sS'poll'
p1762
I1
sS'belt'
p1763
I1
sS'quit'
p1764
I1
sS'cream'
p1765
I1
sS'instrument'
p1766
I7
sS'west'
p1767
I1
sS'trademark'
p1768
I2
sS'submarine'
p1769
I1
sS'beer'
p1770
I4
sS'treat'
p1771
I1
sS'poet'
p1772
I1
sS'incompetent'
p1773
I1
sS'board'
p1774
I1
sS'cyclist'
p1775
I1
sS'dialogue'
p1776
I1
sS'senses'
p1777
I1
sS'flight'
p1778
I1
sS'tiger'
p1779
I1
sS'craft'
p1780
I1
sS'lives'
p1781
I1
sS'folklore'
p1782
I1
sS'extant'
p1783
I1
sS'ravens'
p1784
I1
sS'sound'
p1785
I1
sS'novel'
p1786
I24
sS'gland'
p1787
I1
sS'frozen'
p1788
I1
sS'originate'
p1789
I1
sS'cash'
p1790
I1
sS'irate'
p1791
I1
sS'droppings'
p1792
I1
sS'newspaper'
p1793
I3
sS'procedure'
p1794
I1
sS'layer'
p1795
I1
sS'prayer'
p1796
I1
sS'player'
p1797
I1
sS'full-length'
p1798
I1
sS'haboob'
p1799
I1
sS'perform'
p1800
I1
sS'alphabet'
p1801
I3
sS'bowl'
p1802
I1
sS'member'
p1803
I1
sS'document'
p1804
I1
sS'composition'
p1805
I1
sS'wheel'
p1806
I1
sS'oil'
p1807
I1
sS'drink'
p1808
I14
sS'hand'
p1809
I2
sS'fruit'
p1810
I1
sS'vowel'
p1811
I2
sS'whale'
p1812
I1
sS'nickname'
p1813
I1
sS'cartoon'
p1814
I1
sS'tune'
p1815
I1
sS'kid'
p1816
I1
sS'peacocks'
p1817
I1
sS'variety'
p1818
I1
sS'materials'
p1819
I1
sS'chronicles'
p1820
I1
sS'components'
p1821
I1
sS'twirl'
p1822
I1
sS'deltiologist'
p1823
I1
sS'advertises'
p1824
I1
sS'plagues'
p1825
I1
sS'livestock'
p1826
I1
sS'camel'
p1827
I1
sS'money'
p1828
I3
sS'product'
p1829
I11
sS'shape'
p1830
I2
sS'fishing'
p1831
I1
sS'flavor'
p1832
I1
sS'adding'
p1833
I1
sS'death'
p1834
I1
sS'campaign'
p1835
I1
sS'alternate'
p1836
I1
sS'character'
p1837
I1
sS'source'
p1838
I1
sS'slits'
p1839
I1
sS'treatment'
p1840
I1
sS'crack'
p1841
I1
sS'grow'
p1842
I1
sS'tenses'
p1843
I1
sS'sailors'
p1844
I1
sS'bid'
p1845
I1
sS'game'
p1846
I8
sS'birth'
p1847
I1
sS'world'
p1848
I6
sS'wings'
p1849
I1
sS'insert'
p1850
I1
sS'nutrients'
p1851
I1
sS'soap'
p1852
I2
sS'communications'
p1853
I1
sS'eidologist'
p1854
I1
sS'clay'
p1855
I1
sS'become'
p1856
I1
sS'wonders'
p1857
I1
sS'vats'
p1858
I1
sS'pyramid-builders'
p1859
I1
sS'methods'
p1860
I1
sS'people'
p1861
I5
sS'begin'
p1862
I1
sS'competition'
p1863
I2
sS'hair'
p1864
I1
sS'brontosauruses'
p1865
I1
sS'scale'
p1866
I1
sS'lead'
p1867
I1
sS'singing'
p1868
I2
sS'hurricane'
p1869
I1
sS'ice'
p1870
I1
sS'religion'
p1871
I2
sS'anti-aids'
p1872
I1
sS'espionage'
p1873
I1
sS'thighs'
p1874
I1
sS'measures'
p1875
I1
sS'rum'
p1876
I2
sS'equivalent'
p1877
I1
sS'lose'
p1878
I1
sS'post'
p1879
I1
sS'refers'
p1880
I1
sS'vaccine'
p1881
I1
sS'trophy'
p1882
I1
sS'sister'
p1883
I1
sS'resurrectionist'
p1884
I1
sS'concerts'
p1885
I1
sS'carries'
p1886
I1
sS'camels'
p1887
I1
sS'ox'
p1888
I1
sS'emperor'
p1889
I1
sS'hocks'
p1890
I1
sS'software'
p1891
I1
sS'letters'
p1892
I1
sS'facility'
p1893
I1
sS'owe'
p1894
I1
sS'litmus'
p1895
I1
sS'device'
p1896
I2
sS'strip'
p1897
I3
sS'ailment'
p1898
I1
sS'vegetables'
p1899
I1
sS'flying'
p1900
I1
sS'secret'
p1901
I1
sS'indoor'
p1902
I1
sS'cats'
p1903
I1
sS'stars'
p1904
I1
sS'suit'
p1905
I1
sS'breeding'
p1906
I1
sS'war'
p1907
I11
sS'opens'
p1908
I1
sS'medium'
p1909
I3
sS'amateur'
p1910
I1
sS'form'
p1911
I3
sS'brand'
p1912
I6
sS'sequel'
p1913
I3
sS'vichyssoise'
p1914
I1
sS'principles'
p1915
I1
sS'needles'
p1916
I1
sS'line'
p1917
I4
sS'eat'
p1918
I2
sS'spice'
p1919
I1
sS'manatees'
p1920
I1
sS'middle'
p1921
I1
sS'consist'
p1922
I1
sS'devices'
p1923
I1
sS'books'
p1924
I1
sS'stories'
p1925
I1
sS'zodiac'
p1926
I1
sS'stages'
p1927
I1
sS'condiment'
p1928
I2
sS'taste'
p1929
I2
sS'strips'
p1930
I1
sS'dog'
p1931
I3
sS'utensils'
p1932
I1
sS'walks'
p1933
I1
sS'ship'
p1934
I2
sS'education'
p1935
I1
sS'film'
p1936
I25
sS'garment'
p1937
I1
sS'ingredients'
p1938
I1
sS'trials'
p1939
I3
sS'flora'
p1940
I1
sS'actor'
p1941
I1
sS'snakes'
p1942
I1
sS'book'
p1943
I21
sS'boom'
p1944
I1
sS'boob'
p1945
I1
sS'elements'
p1946
I4
sS'kinds'
p1947
I2
sS'symbol'
p1948
I3
sS'football'
p1949
I1
sS'lens'
p1950
I1
sS'chairbound'
p1951
I1
sS'structure'
p1952
I1
sS'age'
p1953
I1
sS'vehicles'
p1954
I1
sS'fastener'
p1955
I1
sS'came'
p1956
I1
sS'time'
p1957
I2
sS'menace'
p1958
I1
sS'requires'
p1959
I1
sS'songs'
p1960
I2
stp1961
Rp1962
(dp1963
g26
I1250
sg76
Nsg77
Nsg78
Nsbsg79
I1449
sg80
F1974.5
sbs(g12
g19
tp1964
g0
(g21
g2
Ntp1965
Rp1966
(dp1967
g25
F0.5
sg26
I218
sg27
g0
(g28
g29
(dp1968
g31
I35
sS'ambassador'
p1969
I1
sS'show'
p1970
I1
sS'royal'
p1971
I1
sS'revolutionaries'
p1972
I1
sS'period'
p1973
I1
sS'month'
p1974
I6
sS'battle'
p1975
I1
sS'www.questions.com'
p1976
I1
sS'use'
p1977
I1
sS'group'
p1978
I1
sS'troops'
p1979
I1
sS'start'
p1980
I2
sS'visit'
p1981
I1
sS'live'
p1982
I1
sS'labor'
p1983
I1
sS'paint'
p1984
I1
sS'attack'
p1985
I1
sS'music'
p1986
I1
sS'teenager'
p1987
I1
sS'mutiny'
p1988
I1
sS'woman'
p1989
I1
sS'get'
p1990
I2
sS'fire'
p1991
I2
sS'season'
p1992
I3
sS'company'
p1993
I1
sS'broadcast'
p1994
I2
sS'glass'
p1995
I1
sS'railroad'
p1996
I1
sS'believe'
p1997
I1
sS'day'
p1998
I9
sS'women'
p1999
I1
sS'steel'
p2000
I1
sS'die'
p2001
I1
sS'air'
p2002
I2
sS'heart'
p2003
I1
sS'erupt'
p2004
I1
sS'become'
p2005
I3
sS'supercontinent'
p2006
I1
sS'control'
p2007
I1
sS'menstruation'
p2008
I1
sS'art'
p2009
I2
sS'concert'
p2010
I1
sS'century'
p2011
I3
sS'house'
p2012
I1
sS'year'
p2013
I44
sS'humans'
p2014
I1
sS'direct'
p2015
I1
sS'mormons'
p2016
I1
sS'born'
p2017
I9
sS'flush'
p2018
I1
sS'film'
p2019
I1
sS'neanderthal'
p2020
I1
sS'end'
p2021
I2
sS'camcorders'
p2022
I1
sS'publish'
p2023
I1
sS'write'
p2024
I1
sS'flood'
p2025
I1
sS'millennium'
p2026
I1
sS'test'
p2027
I1
sS'gate'
p2028
I1
sS'leader'
p2029
I1
sS'begin'
p2030
I3
sS'power'
p2031
I1
sS'eruption'
p2032
I3
sS'commercial'
p2033
I1
sS'combustion'
p2034
I1
sS'shorn'
p2035
I1
sS'date'
p2036
I13
sS'seasons'
p2037
I1
sS'come'
p2038
I1
sS'winter'
p2039
I2
sS'dates'
p2040
I1
sS'accident'
p2041
I1
sS'stricken'
p2042
I1
sS'birthday'
p2043
I4
sS'encyclopedia'
p2044
I1
sS'advertising'
p2045
I1
sS'time'
p2046
I6
sS'built'
p2047
I1
sS'painting'
p2048
I1
sS'vesuvius'
p2049
I1
stp2050
Rp2051
(dp2052
g26
I218
sg76
Nsg77
Nsg78
Nsbsg79
I1449
sg80
F942.5
sbs(g16
g81
tp2053
g0
(g21
g2
Ntp2054
Rp2055
(dp2056
g25
F0.5
sg26
I27
sg27
g0
(g28
g29
(dp2057
S'of'
p2058
I1
sS'what'
p2059
I25
sS'independent'
p2060
I1
stp2061
Rp2062
(dp2063
g26
I27
sg76
Nsg77
Nsg78
Nsbsg79
I48
sg80
F51.0
sbs(g12
g81
tp2064
g0
(g21
g2
Ntp2065
Rp2066
(dp2067
g25
F0.5
sg26
I218
sg27
g0
(g28
g29
(dp2068
S'on'
p2069
I4
sS'what'
p2070
I63
sS'boxing'
p2071
I1
sS'when'
p2072
I124
sS'in'
p2073
I20
sS'cnn'
p2074
I2
sS'the'
p2075
I3
sS'hitler'
p2076
I1
stp2077
Rp2078
(dp2079
g26
I218
sg76
Nsg77
Nsg78
Nsbsg79
I48
sg80
F242.0
sbs(g14
g115
tp2080
g0
(g21
g2
Ntp2081
Rp2082
(dp2083
g25
F0.5
sg26
I75
sg27
g0
(g28
g29
(dp2084
g31
I58
sS'expectancy'
p2085
I3
sS'span'
p2086
I1
sS'office'
p2087
I1
sS'time'
p2088
I4
sS'age'
p2089
I7
sS'period'
p2090
I1
stp2091
Rp2092
(dp2093
g26
I75
sg76
Nsg77
Nsg78
Nsbsg79
I1487
sg80
F818.5
sbs(g9
g115
tp2094
g0
(g21
g2
Ntp2095
Rp2096
(dp2097
g25
F0.5
sg26
I1034
sg27
g0
(g28
g29
(dp2098
g31
I111
sS'detective'
p2099
I1
sS'coach'
p2100
I3
sS'founder'
p2101
I1
sS'ali'
p2102
I1
sS'feminist'
p2103
I1
sS'queen'
p2104
I3
sS'people'
p2105
I3
sS'hamlet'
p2106
I1
sS'themes'
p2107
I1
sS'manager'
p2108
I2
sS'radio'
p2109
I1
sS'finn'
p2110
I1
sS'battle'
p2111
I1
sS'nephew'
p2112
I1
sS'chair'
p2113
I1
sS'captain'
p2114
I1
sS'children'
p2115
I1
sS'occupation'
p2116
I5
sS'baseball'
p2117
I8
sS'chain'
p2118
I1
sS'title'
p2119
I4
sS'electricity'
p2120
I1
sS'jolson'
p2121
I1
sS'father'
p2122
I7
sS'viagra'
p2123
I1
sS'hockey'
p2124
I1
sS'crooner'
p2125
I1
sS'pride'
p2126
I1
sS'pickering'
p2127
I2
sS'bestselling'
p2128
I1
sS'lady'
p2129
I1
sS'count'
p2130
I1
sS'stonehenge'
p2131
I1
sS'woman'
p2132
I10
sS'hit'
p2133
I1
sS'song'
p2134
I2
sS'renaud'
p2135
I1
sS'sons'
p2136
I1
sS'diary'
p2137
I1
sS'tammy'
p2138
I1
sS'gogh'
p2139
I1
sS'surgeon'
p2140
I1
sS'tutu'
p2141
I2
sS'abby'
p2142
I1
sS'chapel'
p2143
I1
sS'prize'
p2144
I1
sS'airman'
p2145
I1
sS'artist'
p2146
I2
sS'positions'
p2147
I1
sS'celebrity'
p2148
I1
sS'macdowell'
p2149
I1
sS'brother'
p2150
I2
sS'grandfather'
p2151
I1
sS'team'
p2152
I3
sS'guy'
p2153
I1
sS'astronaut'
p2154
I3
sS'athlete'
p2155
I1
sS'husband'
p2156
I1
sS'secretary'
p2157
I2
sS'kemper'
p2158
I1
sS'advocate'
p2159
I1
sS'malick'
p2160
I1
sS'force'
p2161
I1
sS'leaders'
p2162
I1
sS'cohan'
p2163
I1
sS'creator'
p2164
I2
sS'maggio'
p2165
I1
sS'horsemen'
p2166
I1
sS'wrestling'
p2167
I1
sS'nun'
p2168
I1
sS'lion'
p2169
I1
sS'video'
p2170
I2
sS'lawyer'
p2171
I8
sS'nba'
p2172
I1
sS'monster'
p2173
I1
sS'golfer'
p2174
I3
sS'power'
p2175
I2
sS'laureate'
p2176
I1
sS'debate'
p2177
I1
sS'election'
p2178
I1
sS'genius'
p2179
I1
sS'fans'
p2180
I1
sS'finger'
p2181
I1
sS'new'
p2182
I1
sS'badge'
p2183
I1
sS'admiral'
p2184
I1
sS'advertizing'
p2185
I1
sS'hero'
p2186
I1
sS'astroturf'
p2187
I1
sS'faith'
p2188
I1
sS'funeral'
p2189
I1
sS'theresa'
p2190
I1
sS'boss'
p2191
I1
sS'guitar'
p2192
I1
sS'ranger'
p2193
I2
sS'job'
p2194
I3
sS'dubliners'
p2195
I1
sS'witch'
p2196
I1
sS'pub'
p2197
I1
sS'opposition'
p2198
I1
sS'jockey'
p2199
I2
sS'benson'
p2200
I1
sS'jfk'
p2201
I1
sS'toothbrush'
p2202
I1
sS'goodall'
p2203
I1
sS'daughter'
p2204
I2
sS'survivor'
p2205
I1
sS'career'
p2206
I1
sS'jinnah'
p2207
I1
sS'cup'
p2208
I1
sS'monk'
p2209
I1
sS'rams'
p2210
I1
sS'gymnast'
p2211
I1
sS'games'
p2212
I1
sS'mentor'
p2213
I2
sS'rose'
p2214
I1
sS'napolean'
p2215
I1
sS'patents'
p2216
I1
sS'andrews'
p2217
I1
sS'holmes'
p2218
I1
sS'writer'
p2219
I5
sS'members'
p2220
I1
sS'maclaine'
p2221
I1
sS'potlatch'
p2222
I1
sS'battery'
p2223
I1
sS'presidents'
p2224
I2
sS'lyricist'
p2225
I1
sS'colony'
p2226
I1
sS'mccain'
p2227
I1
sS'pyramid'
p2228
I1
sS'husbands'
p2229
I1
sS'names'
p2230
I11
sS'composer'
p2231
I3
sS'church'
p2232
I1
sS'table'
p2233
I1
sS'singing'
p2234
I3
sS'bra'
p2235
I1
sS'lime'
p2236
I1
sS'turkey'
p2237
I1
sS'poem'
p2238
I1
sS'dna'
p2239
I1
sS'nominee'
p2240
I1
sS'swimmer'
p2241
I1
sS'thor'
p2242
I1
sS'newscast'
p2243
I1
sS'resident'
p2244
I1
sS'wonderbra'
p2245
I1
sS'music'
p2246
I1
sS'mutiny'
p2247
I1
sS'tv'
p2248
I8
sS'butler'
p2249
I1
sS'nicolet'
p2250
I1
sS'angels'
p2251
I1
sS'naples'
p2252
I1
sS'teenager'
p2253
I1
sS'engine'
p2254
I1
sS'life'
p2255
I2
sS'deodorant'
p2256
I1
sS'fellow'
p2257
I1
sS'champion'
p2258
I1
sS'cobain'
p2259
I1
sS'cop'
p2260
I1
sS'tootsie'
p2261
I1
sS'company'
p2262
I1
sS'citizen'
p2263
I3
sS'award'
p2264
I2
sS'buxom'
p2265
I1
sS'bible'
p2266
I1
sS'stethoscope'
p2267
I1
sS'minister'
p2268
I7
sS'child'
p2269
I2
sS'baby'
p2270
I1
sS'antichrist'
p2271
I1
sS'general'
p2272
I8
sS'iii'
p2273
I1
sS'painter'
p2274
I4
sS'women'
p2275
I1
sS'physician'
p2276
I1
sS'hughes'
p2277
I1
sS'bernstein'
p2278
I1
sS'word'
p2279
I1
sS'room'
p2280
I1
sS'rights'
p2281
I1
sS'barroom'
p2282
I1
sS'confucius'
p2283
I1
sS'bill'
p2284
I1
sS'worm'
p2285
I1
sS'governor'
p2286
I3
sS'stalin'
p2287
I1
sS'morgan'
p2288
I1
sS'thrillers'
p2289
I1
sS'santos-dumont'
p2290
I1
sS'nino'
p2291
I1
sS'cone'
p2292
I1
sS'spy'
p2293
I2
sS'inventor'
p2294
I2
sS'performer'
p2295
I1
sS'figure'
p2296
I1
sS'hyatt'
p2297
I1
sS'process'
p2298
I1
sS'speech'
p2299
I1
sS'frickett'
p2300
I1
sS'commander'
p2301
I1
sS'player'
p2302
I1
sS'villain'
p2303
I2
sS'numbers'
p2304
I1
sS'partner'
p2305
I1
sS'voice'
p2306
I1
sS'freleng'
p2307
I1
sS'autobiography'
p2308
I3
sS'terrorist'
p2309
I1
sS'doctor'
p2310
I3
sS'wordsworth'
p2311
I1
sS'liston'
p2312
I1
sS'machine'
p2313
I1
sS'picts'
p2314
I1
sS'writers'
p2315
I1
sS'cardinal'
p2316
I1
sS'skater'
p2317
I1
sS'monarch'
p2318
I2
sS'nnp'
p2319
I1
sS'powell'
p2320
I1
sS'daughters'
p2321
I1
sS'inventors'
p2322
I1
sS'cyberspace'
p2323
I1
sS'designer'
p2324
I2
sS'cupboard'
p2325
I1
sS'explorer'
p2326
I2
sS'information'
p2327
I1
sS'appearances'
p2328
I1
sS'soldier'
p2329
I1
sS'youngsters'
p2330
I1
sS'collection'
p2331
I1
sS'shores'
p2332
I1
sS'director'
p2333
I5
sS'characters'
p2334
I1
sS'senator'
p2335
I2
sS'president'
p2336
I49
sS'lap'
p2337
I1
sS'cartoon'
p2338
I2
sS'identity'
p2339
I3
sS'man'
p2340
I6
sS'rommel'
p2341
I1
sS'muppets'
p2342
I2
sS'surfboard'
p2343
I1
sS'vice-president'
p2344
I3
sS'author'
p2345
I8
sS'volleyball'
p2346
I1
sS'antonio'
p2347
I1
sS'person'
p2348
I9
sS'nebbish'
p2349
I1
sS'mother'
p2350
I4
sS'genie'
p2351
I1
sS'lindbergh'
p2352
I1
sS'order'
p2353
I1
sS'ambassador'
p2354
I1
sS'no.'
p2355
I1
sS'guitarist'
p2356
I1
sS'monet'
p2357
I1
sS'khrushchev'
p2358
I1
sS'actress'
p2359
I13
sS'dose'
p2360
I1
sS'palpatine'
p2361
I1
sS'batteries'
p2362
I1
sS'tennis'
p2363
I1
sS'costume'
p2364
I1
sS'harrison'
p2365
I1
sS'world'
p2366
I1
sS'oswald'
p2367
I2
sS'mayor'
p2368
I4
sS'bunch'
p2369
I1
sS'member'
p2370
I4
sS'self-portrait'
p2371
I1
sS'superstar'
p2372
I1
sS'shortstop'
p2373
I1
sS'ticker'
p2374
I1
sS'character'
p2375
I13
sS'pines'
p2376
I1
sS'winners'
p2377
I1
sS'dwarfs'
p2378
I1
sS'personas'
p2379
I1
sS'founders'
p2380
I1
sS'speaker'
p2381
I1
sS'cinzano'
p2382
I1
sS'norway'
p2383
I1
sS'gestapo'
p2384
I1
sS'fool'
p2385
I1
sS'couple'
p2386
I1
sS'credit'
p2387
I1
sS'hunter'
p2388
I2
sS'comedienne'
p2389
I2
sS'game'
p2390
I2
sS'boxer'
p2391
I2
sS'thucydides'
p2392
I1
sS'press'
p2393
I1
sS'picasso'
p2394
I1
sS'brothers'
p2395
I2
sS'cage'
p2396
I1
sS'day'
p2397
I1
sS'd.a.'
p2398
I1
sS'mystery'
p2399
I1
sS'martyrs'
p2400
I1
sS'attorneys'
p2401
I1
sS'name'
p2402
I69
sS'kennedy'
p2403
I1
sS'mathematician'
p2404
I1
sS'pillar'
p2405
I1
sS'commanders'
p2406
I1
sS'clown'
p2407
I1
sS'officer'
p2408
I1
sS'lawnmower'
p2409
I1
sS'paganini'
p2410
I1
sS'pseudonym'
p2411
I2
sS'normans'
p2412
I1
sS'x-man'
p2413
I1
sS'fatman'
p2414
I1
sS'www'
p2415
I1
sS'commune'
p2416
I1
sS'series'
p2417
I1
sS'kane'
p2418
I1
sS'hawaii'
p2419
I1
sS'oscars'
p2420
I2
sS'scrabble'
p2421
I1
sS'archenemy'
p2422
I1
sS'biographer'
p2423
I1
sS'laboratory'
p2424
I1
sS'girl'
p2425
I1
sS'salesman'
p2426
I1
sS'message'
p2427
I1
sS'witness'
p2428
I1
sS'bacall'
p2429
I1
sS'arch-enemy'
p2430
I1
sS'actor'
p2431
I13
sS'god'
p2432
I2
sS'quotation'
p2433
I1
sS'horoscope'
p2434
I1
sS'opener'
p2435
I1
sS'fountain'
p2436
I1
sS'boat'
p2437
I1
sS'cnn'
p2438
I1
sS'yankee'
p2439
I1
sS'leader'
p2440
I14
sS'gandhi'
p2441
I1
sS'foundation'
p2442
I1
sS'theory'
p2443
I1
sS'barrier'
p2444
I1
sS'dracula'
p2445
I1
sS'bowling'
p2446
I1
sS'weir'
p2447
I1
sS'hulk'
p2448
I1
sS'darius'
p2449
I1
sS'host'
p2450
I1
sS'putty'
p2451
I1
sS'plea'
p2452
I1
sS'judson'
p2453
I1
sS'lyrics'
p2454
I1
sS'explorers'
p2455
I1
sS'vaccine'
p2456
I1
sS'revolutionary'
p2457
I1
sS'pike'
p2458
I1
sS'sister'
p2459
I2
sS'journalist'
p2460
I1
sS'hamed'
p2461
I1
sS'son-in-law'
p2462
I2
sS'cowboy'
p2463
I2
sS'prophet'
p2464
I5
sS'florida'
p2465
I1
sS'david'
p2466
I1
sS'strange'
p2467
I1
sS'american'
p2468
I2
sS'coronado'
p2469
I1
sS'editor'
p2470
I3
sS'gordon'
p2471
I1
sS'congressman'
p2472
I1
sS'emperor'
p2473
I1
sS'book'
p2474
I1
sS'nixon'
p2475
I1
sS'marlowe'
p2476
I1
sS'playwright'
p2477
I1
sS'superbowl'
p2478
I1
sS'fischer'
p2479
I1
sS'damocles'
p2480
I1
sS'image'
p2481
I1
sS'profession'
p2482
I4
sS'primary'
p2483
I1
sS'auh2o'
p2484
I1
sS'son'
p2485
I3
sS'feet'
p2486
I1
sS'rosanna-dana'
p2487
I1
sS'sailor'
p2488
I1
sS'weather'
p2489
I1
sS'ybarra'
p2490
I1
sS'owner'
p2491
I1
sS'comic'
p2492
I1
sS'engineer'
p2493
I2
sS'corporal'
p2494
I1
sS'grange'
p2495
I1
sS'story'
p2496
I2
sS'basketball'
p2497
I3
sS'lacan'
p2498
I1
sS'eriksen'
p2499
I1
sS'fields'
p2500
I1
sS'nickname'
p2501
I7
sS'sculptress'
p2502
I1
sS'night'
p2503
I3
sS'question'
p2504
I1
sS'vocalist'
p2505
I1
sS'carson'
p2506
I1
sS'synthesizer'
p2507
I1
sS'master'
p2508
I1
sS'sergeant'
p2509
I1
sS'way'
p2510
I2
sS'jaws'
p2511
I1
sS'dictator'
p2512
I3
sS'kid'
p2513
I2
sS'war'
p2514
I2
sS'friend'
p2515
I1
sS'beard'
p2516
I1
sS'jones'
p2517
I1
sS'eyes'
p2518
I1
sS'labianca'
p2519
I1
sS'hawking'
p2520
I1
sS'airwaves'
p2521
I1
sS'prewett'
p2522
I1
sS'circumnavigator'
p2523
I1
sS'make-up'
p2524
I1
sS'pitcher'
p2525
I1
sS'task'
p2526
I1
sS'poet'
p2527
I6
sS'part'
p2528
I3
sS'jordan'
p2529
I1
sS'tools'
p2530
I1
sS'mules'
p2531
I1
sS'boyfriend'
p2532
I1
sS'charcter'
p2533
I1
sS'king'
p2534
I12
sS'television'
p2535
I1
sS'ben'
p2536
I1
sS'dog'
p2537
I1
sS'players'
p2538
I1
sS'us'
p2539
I1
sS'record'
p2540
I2
sS'listeners'
p2541
I1
sS'architect'
p2542
I2
sS'williams'
p2543
I2
sS'vatican'
p2544
I2
sS'stardust'
p2545
I1
sS'prankster'
p2546
I1
sS'bridge'
p2547
I1
sS'surname'
p2548
I1
sS'moore'
p2549
I1
sS'clip'
p2550
I1
sS'look'
p2551
I1
sS'astaire'
p2552
I1
sS'premier'
p2553
I1
sS'unsafe'
p2554
I1
sS'head'
p2555
I2
sS'voices'
p2556
I1
sS'talking'
p2557
I1
sS'garfield'
p2558
I1
sS'comedian'
p2559
I9
sS'novelist'
p2560
I2
sS'quetzalcoatl'
p2561
I1
sS'realm'
p2562
I1
sS'cherokee'
p2563
I1
sS'collector'
p2564
I1
sS'steamboat'
p2565
I1
sS'parks'
p2566
I1
sS'bremer'
p2567
I1
sS'caesar'
p2568
I2
sS'role'
p2569
I6
sS'chairman'
p2570
I2
sS'forces'
p2571
I1
sS'president-to-be'
p2572
I1
sS'department'
p2573
I1
sS'panties'
p2574
I1
sS'medals'
p2575
I1
sS'dumpty'
p2576
I2
sS'conservationist'
p2577
I1
sS'star'
p2578
I4
sS'godfather'
p2579
I1
sS'death'
p2580
I1
sS'phonograph'
p2581
I1
sS'pendulum'
p2582
I1
sS'swampy'
p2583
I1
sS'reign'
p2584
I1
sS'letter'
p2585
I1
sS'nothing'
p2586
I1
sS'pope'
p2587
I2
sS'model'
p2588
I1
sS'ishmael'
p2589
I1
sS'brandt'
p2590
I1
sS'ghost'
p2591
I1
sS'dummy'
p2592
I1
sS'singer'
p2593
I5
sS'studio'
p2594
I1
sS'rogers'
p2595
I1
sS'wife'
p2596
I2
sS'duckling'
p2597
I1
sS'cover'
p2598
I1
sS'rockefeller'
p2599
I1
sS'ottawa'
p2600
I1
sS'almanac'
p2601
I1
sS'enterprise'
p2602
I1
sS'scoundrel'
p2603
I1
stp2604
Rp2605
(dp2606
g26
I1034
sg76
Nsg77
Nsg78
Nsbsg79
I1487
sg80
F1777.5
sbs(g8
g115
tp2607
g0
(g21
g2
Ntp2608
Rp2609
(dp2610
g25
F0.5
sg26
I1250
sg27
g0
(g28
g29
(dp2611
g31
I158
sS'lack'
p2612
I1
sS'four'
p2613
I1
sS'crocodile'
p2614
I1
sS'gang'
p2615
I1
sS'skin'
p2616
I1
sS'dish'
p2617
I1
sS'bomb'
p2618
I1
sS'children'
p2619
I1
sS'simon'
p2620
I1
sS'baseball'
p2621
I1
sS'tv'
p2622
I14
sS'technique'
p2623
I2
sS'languages'
p2624
I3
sS'fingernails'
p2625
I1
sS'tail'
p2626
I1
sS'program'
p2627
I3
sS'terror'
p2628
I1
sS'ingredient'
p2629
I1
sS'plants'
p2630
I2
sS'woman'
p2631
I1
sS'song'
p2632
I6
sS'translations'
p2633
I1
sS'jeroboams'
p2634
I1
sS'jack'
p2635
I1
sS'word'
p2636
I17
sS'magic'
p2637
I1
sS'prize'
p2638
I1
sS'level'
p2639
I1
sS'crops'
p2640
I1
sS'gender'
p2641
I2
sS'notes'
p2642
I1
sS'companies'
p2643
I1
sS'belushi'
p2644
I1
sS'car'
p2645
I3
sS'mammal'
p2646
I3
sS'stingers'
p2647
I1
sS'olympic'
p2648
I1
sS'carter'
p2649
I1
sS'japanese'
p2650
I1
sS'crop'
p2651
I3
sS'sign'
p2652
I3
sS'chef'
p2653
I1
sS'battle'
p2654
I2
sS'titles'
p2655
I1
sS'video'
p2656
I2
sS'hymn'
p2657
I2
sS'constitution'
p2658
I1
sS'clock'
p2659
I1
sS'tarantula'
p2660
I1
sS'net'
p2661
I1
sS'tournaments'
p2662
I1
sS'bird'
p2663
I3
sS'body'
p2664
I1
sS'leg'
p2665
I1
sS'men'
p2666
I1
sS'french'
p2667
I1
sS'dipsomaniac'
p2668
I1
sS'operating'
p2669
I2
sS'yards'
p2670
I1
sS'goldfish'
p2671
I1
sS'tragedy'
p2672
I2
sS'hass'
p2673
I1
sS'luther'
p2674
I1
sS'substance'
p2675
I4
sS'products'
p2676
I3
sS'franklin'
p2677
I1
sS'birthstone'
p2678
I1
sS'otters'
p2679
I1
sS'classification'
p2680
I1
sS'spermologer'
p2681
I1
sS'respirator'
p2682
I1
sS'italians'
p2683
I1
sS'names'
p2684
I3
sS'tools'
p2685
I1
sS'chefs'
p2686
I1
sS'ladybugs'
p2687
I1
sS'indians'
p2688
I1
sS'symphony'
p2689
I1
sS'music'
p2690
I1
sS'films'
p2691
I2
sS'type'
p2692
I1
sS'household'
p2693
I2
sS'ballad'
p2694
I1
sS'sort'
p2695
I1
sS'playboy'
p2696
I1
sS'phobophobe'
p2697
I1
sS'shipwreck'
p2698
I1
sS'club'
p2699
I1
sS'company'
p2700
I1
sS'award'
p2701
I1
sS'glass'
p2702
I1
sS'flag'
p2703
I1
sS'adult'
p2704
I1
sS'rabbit'
p2705
I2
sS'shostakovich'
p2706
I1
sS'mascot'
p2707
I1
sS'balls'
p2708
I1
sS'animals'
p2709
I8
sS'primate'
p2710
I1
sS'science'
p2711
I1
sS'athlete'
p2712
I1
sS'work'
p2713
I1
sS'foods'
p2714
I3
sS'sweeter'
p2715
I1
sS'entertainer'
p2716
I1
sS'seagull'
p2717
I1
sS'example'
p2718
I1
sS'nino'
p2719
I1
sS'chip'
p2720
I1
sS'currency'
p2721
I1
sS'stroke'
p2722
I1
sS'best-seller'
p2723
I1
sS'airplane'
p2724
I2
sS'species'
p2725
I3
sS'damage'
p2726
I1
sS'chemical'
p2727
I1
sS'animal'
p2728
I17
sS'creature'
p2729
I4
sS'gaming'
p2730
I1
sS'plant'
p2731
I4
sS'cocktail'
p2732
I2
sS'singular'
p2733
I1
sS'may'
p2734
I2
sS'clone'
p2735
I1
sS'rites'
p2736
I1
sS'conjugations'
p2737
I1
sS'philatelist'
p2738
I1
sS'softball'
p2739
I1
sS'types'
p2740
I3
sS'man'
p2741
I2
sS'noun'
p2742
I1
sS'liquid'
p2743
I1
sS'liner'
p2744
I1
sS'element'
p2745
I2
sS'tale'
p2746
I1
sS'bakery'
p2747
I1
sS'alloy'
p2748
I1
sS'wine'
p2749
I1
sS'producer'
p2750
I1
sS'move'
p2751
I1
sS'mission'
p2752
I1
sS'meter'
p2753
I2
sS'trade'
p2754
I1
sS'sperm'
p2755
I2
sS'course'
p2756
I1
sS'paper'
p2757
I1
sS'oven'
p2758
I1
sS'signs'
p2759
I1
sS'magoo'
p2760
I1
sS'birds'
p2761
I2
sS'golfing'
p2762
I1
sS'forms'
p2763
I1
sS'holiday'
p2764
I1
sS'diseases'
p2765
I1
sS'food'
p2766
I8
sS'auto'
p2767
I1
sS'killer'
p2768
I1
sS'amendements'
p2769
I1
sS'therapy'
p2770
I1
sS'snake'
p2771
I1
sS'compound'
p2772
I1
sS'satellites'
p2773
I1
sS'clouds'
p2774
I1
sS'day'
p2775
I1
sS'articles'
p2776
I1
sS'term'
p2777
I18
sS'name'
p2778
I75
sS'opera'
p2779
I2
sS'january'
p2780
I1
sS'policeman'
p2781
I1
sS'drake'
p2782
I1
sS'events'
p2783
I3
sS'habits'
p2784
I1
sS'predators'
p2785
I1
sS'side'
p2786
I1
sS'bone'
p2787
I1
sS'wheel'
p2788
I1
sS'ailment'
p2789
I1
sS'generation'
p2790
I1
sS'series'
p2791
I1
sS'fish'
p2792
I1
sS'spider'
p2793
I1
sS'books'
p2794
I1
sS'year'
p2795
I1
sS'aids'
p2796
I1
sS'ribavirin'
p2797
I1
sS'marley'
p2798
I1
sS'event'
p2799
I2
sS'album'
p2800
I1
sS'flower'
p2801
I1
sS'god'
p2802
I1
sS'vessels'
p2803
I2
sS'strokes'
p2804
I1
sS'race'
p2805
I3
sS'medicine'
p2806
I1
sS'formula'
p2807
I3
sS'plural'
p2808
I1
sS'achievements'
p2809
I1
sS'maneuver'
p2810
I1
sS'monster'
p2811
I1
sS'delicacy'
p2812
I1
sS'descendents'
p2813
I1
sS'story'
p2814
I1
sS'approaches'
p2815
I1
sS'basketball'
p2816
I1
sS'cookie'
p2817
I1
sS'hand'
p2818
I1
sS'card'
p2819
I7
sS'soundtrack'
p2820
I1
sS'language'
p2821
I10
sS'garment'
p2822
I1
sS'counterpart'
p2823
I2
sS'thing'
p2824
I3
sS'soda'
p2825
I1
sS'stewart'
p2826
I1
sS'vowel'
p2827
I2
sS'feet'
p2828
I1
sS'owner'
p2829
I1
sS'overalls'
p2830
I1
sS'millions'
p2831
I1
sS'paine'
p2832
I1
sS'razor'
p2833
I1
sS'horse'
p2834
I2
sS'toy'
p2835
I1
sS'automobile'
p2836
I1
sS'system'
p2837
I2
sS'syrup'
p2838
I1
sS'genesis'
p2839
I1
sS'stars'
p2840
I1
sS'chemicals'
p2841
I3
sS'part'
p2842
I4
sS'cereal'
p2843
I4
sS'translation'
p2844
I1
sS'flowers'
p2845
I1
sS'symptom'
p2846
I1
sS'milton'
p2847
I1
sS'kind'
p2848
I3
sS'domestica'
p2849
I1
sS'johnson'
p2850
I1
sS'shampoo'
p2851
I1
sS'dogs'
p2852
I1
sS'invention'
p2853
I1
sS'cards'
p2854
I2
sS'outcome'
p2855
I1
sS'sculpture'
p2856
I2
sS'bridge'
p2857
I1
sS'fowl'
p2858
I1
sS'deodorant'
p2859
I1
sS'ages'
p2860
I1
sS'mine'
p2861
I1
sS'pedometer'
p2862
I1
sS'tastes'
p2863
I1
sS'shrubs'
p2864
I1
sS'spectacle'
p2865
I1
sS'allen'
p2866
I1
sS'handicraft'
p2867
I1
sS'harper'
p2868
I1
sS'chiropodist'
p2869
I1
sS'soap'
p2870
I2
sS'play'
p2871
I4
sS'thrilled'
p2872
I1
sS'object'
p2873
I1
sS'cigarette'
p2874
I2
sS'regular'
p2875
I1
sS'letter'
p2876
I5
sS'exercises'
p2877
I1
sS'coin'
p2878
I1
sS'class'
p2879
I2
sS'synonym'
p2880
I1
sS'cover'
p2881
I1
sS'dog'
p2882
I2
sS'scotch'
p2883
I1
sS'dot'
p2884
I1
sS'charley'
p2885
I1
sS'golf'
p2886
I1
sS'phenomenon'
p2887
I2
sS'show'
p2888
I1
sS'queen'
p2889
I2
sS'recipe'
p2890
I1
sS'colors'
p2891
I7
sS'fear'
p2892
I62
sS'albums'
p2893
I1
sS'livestock'
p2894
I1
sS'resource'
p2895
I1
sS'ruin'
p2896
I1
sS'winner'
p2897
I1
sS'penalty'
p2898
I1
sS'molecules'
p2899
I1
sS'fuel'
p2900
I2
sS'circle'
p2901
I1
sS'hit'
p2902
I1
sS'commodity'
p2903
I1
sS'bear'
p2904
I1
sS'words'
p2905
I4
sS'tips'
p2906
I1
sS'bar'
p2907
I1
sS'organ'
p2908
I1
sS'encounters'
p2909
I1
sS'saliva'
p2910
I1
sS'method'
p2911
I2
sS'penguins'
p2912
I1
sS'roger'
p2913
I1
sS'abolitionists'
p2914
I1
sS'disaster'
p2915
I1
sS'tree'
p2916
I1
sS'farrier'
p2917
I1
sS'ancients'
p2918
I1
sS'humans'
p2919
I1
sS'sex'
p2920
I2
sS'cologne'
p2921
I1
sS'computer'
p2922
I2
sS'seal'
p2923
I1
sS'explosive'
p2924
I1
sS'sport'
p2925
I17
sS'ways'
p2926
I6
sS'movie'
p2927
I17
sS'review'
p2928
I1
sS'stories'
p2929
I1
sS'gemstone'
p2930
I1
sS'latin'
p2931
I1
sS'tristan'
p2932
I1
sS'ability'
p2933
I1
sS't.v.'
p2934
I1
sS'first-aid'
p2935
I1
sS'piece'
p2936
I2
sS'drug'
p2937
I4
sS'connection'
p2938
I1
sS'games'
p2939
I2
sS'berry'
p2940
I1
sS'faces'
p2941
I1
sS'witch'
p2942
I1
sS'heliologist'
p2943
I1
sS'statues'
p2944
I1
sS'cancer'
p2945
I2
sS'color'
p2946
I28
sS'period'
p2947
I1
sS'cult'
p2948
I1
sS'pole'
p2949
I1
sS'vessel'
p2950
I1
sS'belt'
p2951
I1
sS'conference'
p2952
I1
sS'hawkins'
p2953
I1
sS'instrument'
p2954
I5
sS'trilogy'
p2955
I1
sS'trademark'
p2956
I2
sS'mark'
p2957
I1
sS'submarine'
p2958
I1
sS'beer'
p2959
I4
sS'treat'
p2960
I1
sS'board'
p2961
I2
sS'flight'
p2962
I1
sS'ridder'
p2963
I1
sS'locations'
p2964
I1
sS'tiger'
p2965
I1
sS'bible'
p2966
I1
sS'expedition'
p2967
I1
sS'ravens'
p2968
I1
sS'jell-o'
p2969
I1
sS'sound'
p2970
I1
sS'novel'
p2971
I22
sS'value'
p2972
I1
sS'droppings'
p2973
I1
sS'newspaper'
p2974
I4
sS'procedure'
p2975
I1
sS'layer'
p2976
I1
sS'calculator'
p2977
I1
sS'player'
p2978
I1
sS'alphabet'
p2979
I1
sS'bowl'
p2980
I1
sS'member'
p2981
I1
sS'esquire'
p2982
I1
sS'vegetable'
p2983
I2
sS'document'
p2984
I1
sS'composition'
p2985
I1
sS'week'
p2986
I1
sS'ball'
p2987
I2
sS'drink'
p2988
I17
sS'huston'
p2989
I1
sS'holidays'
p2990
I1
sS'fruit'
p2991
I1
sS'statue'
p2992
I1
sS'whale'
p2993
I2
sS'nickname'
p2994
I1
sS'tune'
p2995
I1
sS'kid'
p2996
I1
sS'smokey'
p2997
I1
sS'peacocks'
p2998
I1
sS'weapon'
p2999
I4
sS'variety'
p3000
I1
sS'game'
p3001
I7
sS'ocean'
p3002
I1
sS'materials'
p3003
I1
sS'components'
p3004
I1
sS'model'
p3005
I1
sS'musical'
p3006
I2
sS'deltiologist'
p3007
I1
sS'plagues'
p3008
I1
sS'traditions'
p3009
I1
sS'money'
p3010
I3
sS'racehorse'
p3011
I1
sS'basophobic'
p3012
I1
sS'product'
p3013
I8
sS'shape'
p3014
I2
sS'flavor'
p3015
I1
sS'ads'
p3016
I1
sS'alternate'
p3017
I1
sS'source'
p3018
I1
sS'treatment'
p3019
I1
sS'crack'
p3020
I1
sS'visine'
p3021
I1
sS'earthquakes'
p3022
I1
sS'metalious'
p3023
I1
sS'tenses'
p3024
I1
sS'format'
p3025
I2
sS'sailors'
p3026
I1
sS'bands'
p3027
I1
sS'bid'
p3028
I1
sS'suffering'
p3029
I1
sS'gama'
p3030
I1
sS'world'
p3031
I1
sS'knox'
p3032
I1
sS'boob'
p3033
I1
sS'meat'
p3034
I1
sS'kennedy'
p3035
I1
sS'eidologist'
p3036
I1
sS'clay'
p3037
I1
sS'wonders'
p3038
I2
sS'pyramid-builders'
p3039
I1
sS'jews'
p3040
I1
sS'people'
p3041
I1
sS'hair'
p3042
I3
sS'export'
p3043
I1
sS'brontosauruses'
p3044
I1
sS'hurricane'
p3045
I1
sS'ice'
p3046
I1
sS'religion'
p3047
I2
sS'shakespeare'
p3048
I1
sS'epic'
p3049
I1
sS'measures'
p3050
I1
sS'rum'
p3051
I1
sS'equivalent'
p3052
I1
sS'slaughter'
p3053
I1
sS'vaccine'
p3054
I1
sS'trophy'
p3055
I2
sS'maclaine'
p3056
I1
sS'resurrectionist'
p3057
I1
sS'concerts'
p3058
I1
sS'magazine'
p3059
I7
sS'camels'
p3060
I1
sS'cartier'
p3061
I1
sS'emperor'
p3062
I1
sS'software'
p3063
I1
sS'letters'
p3064
I1
sS'washington'
p3065
I1
sS'device'
p3066
I2
sS'brush'
p3067
I1
sS'strip'
p3068
I3
sS'methods'
p3069
I1
sS'vegetables'
p3070
I1
sS'tennis'
p3071
I1
sS'cats'
p3072
I2
sS'bros.'
p3073
I1
sS'way'
p3074
I9
sS'suit'
p3075
I1
sS'war'
p3076
I12
sS'warlock'
p3077
I1
sS'medium'
p3078
I3
sS'form'
p3079
I2
sS'brand'
p3080
I1
sS'sequel'
p3081
I3
sS'oil'
p3082
I1
sS'principles'
p3083
I1
sS'observances'
p3084
I1
sS'line'
p3085
I1
sS'ear'
p3086
I1
sS'spice'
p3087
I1
sS'manatees'
p3088
I1
sS'limit'
p3089
I1
sS'stages'
p3090
I1
sS'condiment'
p3091
I2
sS'palate'
p3092
I1
sS'classic'
p3093
I1
sS'taste'
p3094
I1
sS'strips'
p3095
I1
sS'disease'
p3096
I11
sS'gland'
p3097
I1
sS'majal'
p3098
I1
sS'ship'
p3099
I3
sS'film'
p3100
I23
sS'ingredients'
p3101
I1
sS'trials'
p3102
I2
sS'actor'
p3103
I1
sS'snakes'
p3104
I1
sS'field'
p3105
I1
sS'book'
p3106
I21
sS'jong'
p3107
I1
sS'mayonnaise'
p3108
I1
sS'elements'
p3109
I4
sS'kinds'
p3110
I1
sS'brothers'
p3111
I1
sS'congress'
p3112
I1
sS'symbol'
p3113
I3
sS'lens'
p3114
I1
sS'structure'
p3115
I1
sS'age'
p3116
I1
sS'vehicles'
p3117
I1
sS'flatfish'
p3118
I1
sS'feud'
p3119
I1
sS'fastener'
p3120
I1
sS'craft'
p3121
I1
sS'menace'
p3122
I1
sS'songs'
p3123
I2
stp3124
Rp3125
(dp3126
g26
I1250
sg76
Nsg77
Nsg78
Nsbsg79
I1487
sg80
F1993.5
sbs(g15
g81
tp3127
g0
(g21
g2
Ntp3128
Rp3129
(dp3130
g25
F0.5
sg26
I71
sg27
g0
(g28
g29
(dp3131
S'how'
p3132
I32
sS'what'
p3133
I37
sS'dialing'
p3134
I1
sS'by'
p3135
I1
stp3136
Rp3137
(dp3138
g26
I71
sg76
Nsg77
Nsg78
Nsbsg79
I48
sg80
F95.0
sbs(g13
g115
tp3139
g0
(g21
g2
Ntp3140
Rp3141
(dp3142
g25
F0.5
sg26
I189
sg27
g0
(g28
g29
(dp3143
g31
I21
sS'tribe'
p3144
I2
sS'colleges'
p3145
I1
sS'agency'
p3146
I1
sS'chain'
p3147
I1
sS'photoshop'
p3148
I1
sS'money'
p3149
I1
sS'seizure'
p3150
I1
sS'county'
p3151
I1
sS'businesses'
p3152
I1
sS'president'
p3153
I1
sS'super-teams'
p3154
I1
sS'toy'
p3155
I1
sS'group'
p3156
I9
sS'producer'
p3157
I3
sS'service'
p3158
I1
sS'army'
p3159
I1
sS'automobile'
p3160
I1
sS'trademark'
p3161
I1
sS'hockey'
p3162
I1
sS'piano'
p3163
I1
sS'store'
p3164
I3
sS'government'
p3165
I1
sS'company'
p3166
I23
sS'spumante'
p3167
I1
sS'railways'
p3168
I1
sS'chocolate'
p3169
I1
sS'band'
p3170
I1
sS'races'
p3171
I1
sS'schools'
p3172
I1
sS'line'
p3173
I1
sS'school'
p3174
I5
sS'name'
p3175
I10
sS'society'
p3176
I1
sS'car'
p3177
I1
sS'university'
p3178
I5
sS'companies'
p3179
I2
sS'record'
p3180
I2
sS'offices'
p3181
I1
sS'team'
p3182
I7
sS'radio'
p3183
I2
sS'nickname'
p3184
I1
sS'example'
p3185
I1
sS'pyramid'
p3186
I1
sS'force'
p3187
I1
sS'people'
p3188
I2
sS'culture'
p3189
I1
sS'college'
p3190
I10
sS'logo'
p3191
I1
sS'airplane'
p3192
I2
sS'enemies'
p3193
I1
sS'competitor'
p3194
I1
sS'network'
p3195
I1
sS'corporation'
p3196
I2
sS'manufacturers'
p3197
I1
sS'administration'
p3198
I1
sS'civilization'
p3199
I1
sS'bureau'
p3200
I1
sS'department'
p3201
I1
sS'party'
p3202
I3
sS'oil'
p3203
I1
sS'business'
p3204
I4
sS'court'
p3205
I1
sS'agencies'
p3206
I1
sS'isps'
p3207
I1
sS'cigarette'
p3208
I1
sS'baseball'
p3209
I2
sS'groups'
p3210
I1
sS'police'
p3211
I2
sS'motto'
p3212
I1
sS'bulls'
p3213
I1
sS'super'
p3214
I1
sS'card'
p3215
I1
sS'manufacturer'
p3216
I2
sS'league'
p3217
I3
sS'stereo'
p3218
I1
sS'challengers'
p3219
I1
sS'airline'
p3220
I1
sS'organization'
p3221
I7
sS'residents'
p3222
I1
stp3223
Rp3224
(dp3225
g26
I189
sg76
Nsg77
Nsg78
Nsbsg79
I1487
sg80
F932.5
sbs(g11
g81
tp3226
g0
(g21
g2
Ntp3227
Rp3228
(dp3229
g25
F0.5
sg26
I505
sg27
g0
(g28
g29
(dp3230
S'a'
p3231
I1
sS'on'
p3232
I1
sS'what'
p3233
I105
sS'about'
p3234
I2
sS'approximately'
p3235
I2
sS'how'
p3236
I390
sS'in'
p3237
I1
sS'the'
p3238
I1
sS'where'
p3239
I2
stp3240
Rp3241
(dp3242
g26
I505
sg76
Nsg77
Nsg78
Nsbsg79
I48
sg80
F529.0
sbs(g11
g19
tp3243
g0
(g21
g2
Ntp3244
Rp3245
(dp3246
g25
F0.5
sg26
I505
sg27
g0
(g28
g29
(dp3247
g31
I28
sS'colleges'
p3248
I1
sS'dollar'
p3249
I2
sS'astronauts'
p3250
I2
sS'fathom'
p3251
I3
sS'spacecraft'
p3252
I1
sS'spaces'
p3253
I2
sS'businesses'
p3254
I2
sS'shoe'
p3255
I1
sS'cds'
p3256
I1
sS'go'
p3257
I1
sS'soldiers'
p3258
I6
sS'kilamanjaro'
p3259
I1
sS'children'
p3260
I2
sS'layers'
p3261
I2
sS'votes'
p3262
I2
sS'electricity'
p3263
I1
sS'megawatts'
p3264
I1
sS'languages'
p3265
I3
sS'teaspoon'
p3266
I2
sS'thousands'
p3267
I1
sS'tiles'
p3268
I1
sS'oceans'
p3269
I1
sS'trees'
p3270
I1
sS'acreage'
p3271
I1
sS'penny-farthings'
p3272
I1
sS'words'
p3273
I1
sS'years'
p3274
I11
sS'verses'
p3275
I1
sS'school'
p3276
I1
sS'countries'
p3277
I4
sS'did'
p3278
I1
sS'bytes'
p3279
I1
sS'colors'
p3280
I4
sS'casinos'
p3281
I1
sS'shots'
p3282
I1
sS'inside'
p3283
I1
sS'tenths'
p3284
I1
sS'leaders'
p3285
I1
sS'cheetahs'
p3286
I1
sS'villi'
p3287
I1
sS'rate'
p3288
I1
sS'college'
p3289
I1
sS'grooves'
p3290
I2
sS'acid'
p3291
I2
sS'movies'
p3292
I1
sS'thunder'
p3293
I1
sS'rings'
p3294
I1
sS'fingers'
p3295
I1
sS'liberty'
p3296
I1
sS'score'
p3297
I3
sS'galaxy'
p3298
I1
sS'referees'
p3299
I1
sS'claws'
p3300
I1
sS'human'
p3301
I2
sS'men'
p3302
I3
sS'answers'
p3303
I1
sS'hours'
p3304
I2
sS'protection'
p3305
I1
sS'baseball'
p3306
I1
sS'yards'
p3307
I1
sS'furlongs'
p3308
I1
sS'cities'
p3309
I1
sS'digits'
p3310
I3
sS'tractors'
p3311
I1
sS'airport'
p3312
I1
sS'objects'
p3313
I1
sS'games'
p3314
I1
sS'canadians'
p3315
I1
sS'kinds'
p3316
I1
sS'members'
p3317
I3
sS'scales'
p3318
I1
sS'presidents'
p3319
I2
sS'names'
p3320
I1
sS'flavors'
p3321
I2
sS'attendance'
p3322
I1
sS'zip'
p3323
I1
sS'poodle'
p3324
I1
sS'vineyard'
p3325
I1
sS'bees'
p3326
I1
sS'counties'
p3327
I1
sS'films'
p3328
I2
sS'sonnets'
p3329
I1
sS'milliseconds'
p3330
I1
sS'dots'
p3331
I2
sS'resting'
p3332
I1
sS'diamond'
p3333
I1
sS'propellers'
p3334
I1
sS'pairs'
p3335
I2
sS'telephone'
p3336
I1
sS'phone'
p3337
I4
sS'angles'
p3338
I1
sS'baby'
p3339
I1
sS'hole'
p3340
I1
sS'emperors'
p3341
I1
sS'car'
p3342
I1
sS'calcium'
p3343
I1
sS'gallons'
p3344
I2
sS'pound'
p3345
I1
sS'permutations'
p3346
I1
sS'teaspoons'
p3347
I1
sS'surface'
p3348
I1
sS'states'
p3349
I3
sS'neurons'
p3350
I1
sS'numbers'
p3351
I1
sS'bones'
p3352
I2
sS'species'
p3353
I3
sS'revolutions'
p3354
I1
sS'bottles'
p3355
I1
sS'lengths'
p3356
I1
sS'maids'
p3357
I1
sS'oven'
p3358
I2
sS'amount'
p3359
I1
sS'member'
p3360
I1
sS'pins'
p3361
I1
sS'colonies'
p3362
I2
sS'spears'
p3363
I1
sS'events'
p3364
I1
sS'stock'
p3365
I1
sS'cherubs'
p3366
I1
sS'lawyers'
p3367
I1
sS'mountain'
p3368
I1
sS'fruit'
p3369
I1
sS'characters'
p3370
I2
sS'law'
p3371
I1
sS'types'
p3372
I4
sS'man'
p3373
I1
sS'varieties'
p3374
I2
sS'hearts'
p3375
I1
sS'wives'
p3376
I1
sS'athletes'
p3377
I1
sS'unemployment'
p3378
I2
sS'freckles'
p3379
I1
sS'quarters'
p3380
I1
sS'sperm'
p3381
I1
sS'questions'
p3382
I2
sS'seats'
p3383
I1
sS'speed'
p3384
I3
sS'superbowls'
p3385
I1
sS'web'
p3386
I1
sS'death'
p3387
I2
sS'drunk'
p3388
I1
sS'acres'
p3389
I1
sS'degrees'
p3390
I2
sS'latitude'
p3391
I3
sS'weeks'
p3392
I1
sS'wingspan'
p3393
I1
sS'bails'
p3394
I1
sS'nation'
p3395
I1
sS'records'
p3396
I1
sS'giraffe'
p3397
I1
sS'hands'
p3398
I1
sS'world'
p3399
I3
sS'wings'
p3400
I1
sS'pounds'
p3401
I1
sS'chairs'
p3402
I1
sS'corners'
p3403
I1
sS'disks'
p3404
I1
sS'cullions'
p3405
I1
sS'pizza'
p3406
I1
sS'jews'
p3407
I1
sS'weight'
p3408
I4
sS'people'
p3409
I35
sS'elevators'
p3410
I1
sS'companies'
p3411
I1
sS'energy'
p3412
I1
sS'frequency'
p3413
I2
sS'meters'
p3414
I2
sS'year'
p3415
I1
sS'home'
p3416
I3
sS'dimensions'
p3417
I1
sS'blacks'
p3418
I1
sS'mines'
p3419
I1
sS'moon'
p3420
I1
sS'students'
p3421
I2
sS'miles'
p3422
I9
sS'squares'
p3423
I1
sS'eggs'
p3424
I1
sS'highway'
p3425
I2
sS'millimeters'
p3426
I1
sS'equivalent'
p3427
I1
sS'lakes'
p3428
I1
sS'quart'
p3429
I1
sS'caffeine'
p3430
I2
sS'statistics'
p3431
I1
sS'hostages'
p3432
I1
sS'pitchers'
p3433
I1
sS'refuge'
p3434
I1
sS'chapter'
p3435
I4
sS'watts'
p3436
I1
sS'engines'
p3437
I1
sS'stations'
p3438
I1
sS'universe'
p3439
I2
sS'dollars'
p3440
I1
sS'months'
p3441
I2
sS'calories'
p3442
I4
sS'days'
p3443
I1
sS'times'
p3444
I11
sS'whitetail'
p3445
I1
sS'length'
p3446
I1
sS'extensions'
p3447
I2
sS'airline'
p3448
I1
sS'islands'
p3449
I2
sS'processor'
p3450
I1
sS'silver'
p3451
I1
sS'size'
p3452
I4
sS'letters'
p3453
I1
sS'student'
p3454
I1
sS'number'
p3455
I7
sS'rank'
p3456
I2
sS'copies'
p3457
I1
sS'feet'
p3458
I6
sS'frames'
p3459
I1
sS'earthworms'
p3460
I1
sS'bends'
p3461
I1
sS'city'
p3462
I1
sS'rows'
p3463
I2
sS'temperature'
p3464
I4
sS'elephants'
p3465
I1
sS'approximate'
p3466
I2
sS'shillings'
p3467
I1
sS'zeros'
p3468
I1
sS'stars'
p3469
I2
sS'syllables'
p3470
I1
sS'dogs'
p3471
I1
sS'mountains'
p3472
I1
sS'eyes'
p3473
I2
sS'muscles'
p3474
I2
sS'continents'
p3475
I1
sS'inches'
p3476
I4
sS'brand'
p3477
I1
sS'boys'
p3478
I1
sS'population'
p3479
I15
sS'waste'
p3480
I1
sS'warmup'
p3481
I1
sS'cells'
p3482
I1
sS'milligrams'
p3483
I1
sS'maximum'
p3484
I2
sS'war'
p3485
I1
sS'iron'
p3486
I1
sS'cards'
p3487
I3
sS'quadruplets'
p3488
I1
sS'minutes'
p3489
I1
sS'horses'
p3490
I2
sS'holes'
p3491
I1
sS'head'
p3492
I1
sS'pig'
p3493
I1
sS'boardwalk'
p3494
I1
sS'replica'
p3495
I1
sS'fiddlers'
p3496
I1
sS'horsepower'
p3497
I2
sS'border'
p3498
I1
sS'chromosome'
p3499
I2
sS'innings'
p3500
I2
sS'russians'
p3501
I1
sS'snow'
p3502
I1
sS'reactivity'
p3503
I4
sS'actors'
p3504
I1
sS'grammys'
p3505
I1
sS'vegetation'
p3506
I1
sS'elements'
p3507
I1
sS'star'
p3508
I1
sS'teats'
p3509
I1
sS'quarts'
p3510
I1
sS'teeth'
p3511
I1
sS'visitors'
p3512
I1
sS'sides'
p3513
I3
sS'cables'
p3514
I1
sS'stronger'
p3515
I1
sS'websites'
p3516
I1
sS'points'
p3517
I4
sS'time'
p3518
I1
sS'weigh'
p3519
I1
sS'salt'
p3520
I1
sS'quantity'
p3521
I1
stp3522
Rp3523
(dp3524
g26
I505
sg76
Nsg77
Nsg78
Nsbsg79
I1449
sg80
F1229.5
sbs(g10
g115
tp3525
g0
(g21
g2
Ntp3526
Rp3527
(dp3528
g25
F0.5
sg26
I835
sg27
g0
(g28
g29
(dp3529
g31
I121
sS'gates'
p3530
I2
sS'thomas'
p3531
I1
sS'mccheese'
p3532
I1
sS'bocci'
p3533
I1
sS'nations'
p3534
I1
sS'clinic'
p3535
I1
sS'tours'
p3536
I1
sS'makeup'
p3537
I1
sS'battle'
p3538
I1
sS'schoolhouse'
p3539
I1
sS'avenue'
p3540
I1
sS'continent'
p3541
I5
sS'web'
p3542
I1
sS'birthplace'
p3543
I3
sS'deserts'
p3544
I1
sS'gulf'
p3545
I1
sS'point'
p3546
I1
sS'lake'
p3547
I5
sS'woodstock'
p3548
I1
sS'location'
p3549
I4
sS'prison'
p3550
I1
sS'team'
p3551
I1
sS'goalie'
p3552
I1
sS'resources'
p3553
I1
sS'steel'
p3554
I1
sS'goes'
p3555
I1
sS'myth'
p3556
I1
sS'dam'
p3557
I1
sS'oceans'
p3558
I2
sS'nation'
p3559
I3
sS'stadium'
p3560
I2
sS'vegas'
p3561
I1
sS'tuberculosis'
p3562
I1
sS'world'
p3563
I1
sS'lincoln'
p3564
I1
sS'airports'
p3565
I1
sS'name'
p3566
I17
sS'countries'
p3567
I22
sS'university'
p3568
I2
sS'shape'
p3569
I1
sS'bay'
p3570
I2
sS'race'
p3571
I1
sS'steps'
p3572
I1
sS'explorer'
p3573
I1
sS'rock'
p3574
I1
sS'volcano'
p3575
I1
sS'river'
p3576
I17
sS'page'
p3577
I3
sS'battlefield'
p3578
I1
sS'square'
p3579
I1
sS'telescope'
p3580
I1
sS'reference'
p3581
I1
sS'apartments'
p3582
I1
sS'seas'
p3583
I1
sS'house'
p3584
I1
sS'library'
p3585
I1
sS'rivers'
p3586
I2
sS'orinoco'
p3587
I1
sS'zero'
p3588
I1
sS'street'
p3589
I3
sS'college'
p3590
I3
sS'sea'
p3591
I4
sS'home'
p3592
I1
sS'danube'
p3593
I1
sS'constellation'
p3594
I3
sS'aldrin'
p3595
I1
sS'zebras'
p3596
I1
sS'planet'
p3597
I4
sS'qatar'
p3598
I1
sS'mutombo'
p3599
I1
sS'sites'
p3600
I3
sS'stops'
p3601
I1
sS'seaport'
p3602
I3
sS'libraries'
p3603
I1
sS'state'
p3604
I51
sS'daniel'
p3605
I1
sS'olympics'
p3606
I2
sS'cobb'
p3607
I1
sS'diamonds'
p3608
I1
sS'nicholas'
p3609
I1
sS'glasgow'
p3610
I1
sS'body'
p3611
I1
sS'columbus'
p3612
I1
sS'stockyards'
p3613
I1
sS'pythagoras'
p3614
I1
sS'dwarf'
p3615
I1
sS'cars'
p3616
I1
sS'u.s.'
p3617
I2
sS'seine'
p3618
I1
sS'ranges'
p3619
I2
sS'groups'
p3620
I1
sS'address'
p3621
I9
sS'nationality'
p3622
I7
sS'canals'
p3623
I1
sS'cities'
p3624
I10
sS'luther'
p3625
I1
sS'stations'
p3626
I1
sS'institute'
p3627
I1
sS'country'
p3628
I104
sS'region'
p3629
I1
sS'adventures'
p3630
I1
sS'eels'
p3631
I1
sS'ports'
p3632
I1
sS'melbourne'
p3633
I1
sS'thing'
p3634
I1
sS'airport'
p3635
I5
sS'waterfall'
p3636
I1
sS'place'
p3637
I1
sS'islands'
p3638
I1
sS'castle'
p3639
I2
sS'hospital'
p3640
I1
sS'block'
p3641
I1
sS'nixon'
p3642
I1
sS'burma'
p3643
I1
sS'romania'
p3644
I1
sS'indians'
p3645
I1
sS'clinton'
p3646
I1
sS'tourists'
p3647
I2
sS'bell'
p3648
I1
sS'wall'
p3649
I1
sS'attractions'
p3650
I2
sS'guam'
p3651
I1
sS'washington'
p3652
I2
sS'county'
p3653
I3
sS'canyon'
p3654
I1
sS'blackhawks'
p3655
I1
sS'names'
p3656
I2
sS'amsterdam'
p3657
I1
sS'poe'
p3658
I1
sS'george'
p3659
I1
sS'coastlines'
p3660
I1
sS'trinidad'
p3661
I1
sS'canal'
p3662
I1
sS'city'
p3663
I75
sS'belize'
p3664
I1
sS'habitat'
p3665
I1
sS'area'
p3666
I2
sS'remains'
p3667
I1
sS'arch'
p3668
I1
sS'museum'
p3669
I5
sS'people'
p3670
I4
sS'desert'
p3671
I5
sS'snowman'
p3672
I1
sS'cotrubas'
p3673
I1
sS'valley'
p3674
I2
sS'meeting'
p3675
I1
sS'capital'
p3676
I19
sS'store'
p3677
I1
sS'website'
p3678
I6
sS'mountains'
p3679
I1
sS'direction'
p3680
I2
sS'strait'
p3681
I1
sS'way'
p3682
I1
sS'inuits'
p3683
I1
sS'passenger'
p3684
I1
sS'hotel'
p3685
I2
sS'montenegro'
p3686
I1
sS'singer'
p3687
I1
sS'landmark'
p3688
I2
sS'chocolate'
p3689
I1
sS'possession'
p3690
I1
sS'trail'
p3691
I1
sS'flag'
p3692
I1
sS'inoco'
p3693
I1
sS'coyote'
p3694
I1
sS'hole'
p3695
I1
sS'sound'
p3696
I1
sS'mahal'
p3697
I1
sS'room'
p3698
I1
sS'hour'
p3699
I1
sS'louisiana'
p3700
I1
sS'hyenas'
p3701
I1
sS'restaurant'
p3702
I2
sS'natick'
p3703
I1
sS'worth'
p3704
I1
sS'project'
p3705
I1
sS'mall'
p3706
I1
sS'individual'
p3707
I1
sS'island'
p3708
I14
sS'waterways'
p3709
I1
sS'mozambique'
p3710
I1
sS'loop'
p3711
I1
sS'bridge'
p3712
I4
sS'edberg'
p3713
I1
sS'gulliver'
p3714
I1
sS'palace'
p3715
I1
sS'rios'
p3716
I1
sS'tesla'
p3717
I1
sS'abstract'
p3718
I1
sS'breweries'
p3719
I1
sS'rubble'
p3720
I1
sS'site'
p3721
I4
sS'alley'
p3722
I1
sS'general'
p3723
I1
sS'states'
p3724
I6
sS'dew'
p3725
I1
sS'sport'
p3726
I1
sS'bend'
p3727
I1
sS'showers'
p3728
I1
sS'cathedral'
p3729
I2
sS'distributions'
p3730
I1
sS'chop'
p3731
I1
sS'native'
p3732
I1
sS'angelica'
p3733
I1
sS'information'
p3734
I1
sS'monarchy'
p3735
I1
sS'court'
p3736
I1
sS'ukulele'
p3737
I1
sS'helium'
p3738
I1
sS'hugo'
p3739
I1
sS'bowl'
p3740
I2
sS'davies'
p3741
I1
sS'hampshire'
p3742
I1
sS'zoo'
p3743
I1
sS'complex'
p3744
I1
sS'republic'
p3745
I2
sS'forest'
p3746
I1
sS'forces'
p3747
I1
sS'gate'
p3748
I1
sS'residence'
p3749
I1
sS'isle'
p3750
I1
sS'gamble'
p3751
I2
sS'province'
p3752
I2
sS'buildings'
p3753
I1
sS'star'
p3754
I2
sS'brothers'
p3755
I1
sS'mountain'
p3756
I10
sS'park'
p3757
I3
sS'town'
p3758
I4
sS'lucia'
p3759
I1
sS'callosum'
p3760
I2
sS'pigs'
p3761
I1
sS'peak'
p3762
I4
sS'stocks'
p3763
I1
sS'nickname'
p3764
I3
sS'gallery'
p3765
I1
sS'honecker'
p3766
I1
sS'building'
p3767
I8
sS'badu'
p3768
I1
sS'surfing'
p3769
I1
sS'center'
p3770
I2
sS'i'
p3771
I1
sS'camp'
p3772
I1
sS'drinks'
p3773
I1
sS'headquarters'
p3774
I4
sS'websites'
p3775
I1
sS'ocean'
p3776
I6
sS'lobsters'
p3777
I1
sS'chronicles'
p3778
I1
sS'walker'
p3779
I1
sS'bodies'
p3780
I1
sS'marvel'
p3781
I1
stp3782
Rp3783
(dp3784
g26
I835
sg76
Nsg77
Nsg78
Nsbsg79
I1487
sg80
F1578.5
sbs(g10
g81
tp3785
g0
(g21
g2
Ntp3786
Rp3787
(dp3788
g25
F0.5
sg26
I835
sg27
g0
(g28
g29
(dp3789
S'on'
p3790
I5
sS'what'
p3791
I523
sS'jackson'
p3792
I2
sS'name'
p3793
I7
sS'kosovo'
p3794
I1
sS'when'
p3795
I1
sS'mississippi'
p3796
I1
sS'which'
p3797
I16
sS'in'
p3798
I18
sS'mccarren'
p3799
I1
sS'the'
p3800
I4
sS'where'
p3801
I255
sS'tell'
p3802
I1
stp3803
Rp3804
(dp3805
g26
I835
sg76
Nsg77
Nsg78
Nsbsg79
I48
sg80
F859.0
sbssS'_label_probdist'
p3806
g0
(g21
g2
Ntp3807
Rp3808
(dp3809
g25
F0.5
sg26
I4204
sg27
g0
(g28
g29
(dp3810
g15
I71
sg16
I27
sg11
I505
sg9
I1034
sg8
I1250
sg10
I835
sg14
I75
sg12
I218
sg13
I189
stp3811
Rp3812
(dp3813
g26
I4204
sg76
Nsg77
(lp3814
(g8
I1250
tp3815
a(g9
I1034
tp3816
a(g10
I835
tp3817
a(g11
I505
tp3818
a(g12
I218
tp3819
a(g13
I189
tp3820
a(g14
I75
tp3821
a(g15
I71
tp3822
a(g16
I27
tp3823
asg78
Nsbsg79
I9
sg80
F4208.5
sbsb.