ccopy_reg
_reconstructor
p0
(cnltk.classify.naivebayes
NaiveBayesClassifier
p1
c__builtin__
object
p2
Ntp3
Rp4
(dp5
S'_labels'
p6
(lp7
S'OTHER'
p8
aS'PERSON'
p9
aS'LOCATION'
p10
aS'NUMBER'
p11
aS'DATE'
p12
aS'TIME'
p13
aS'MONEY'
p14
aS'PERCENT'
p15
asS'_feature_probdist'
p16
(dp17
(g13
S'noun'
p18
tp19
g0
(cnltk.probability
ELEProbDist
p20
g2
Ntp21
Rp22
(dp23
S'_gamma'
p24
F0.5
sS'_N'
p25
I75
sS'_freqdist'
p26
g0
(cnltk.probability
FreqDist
p27
c__builtin__
dict
p28
(dp29
S''
p30
I15
sS'flies'
p31
I1
sS'revolution'
p32
I1
sS'office'
p33
I1
sS'show'
p34
I1
sS'community'
p35
I1
sS'pig'
p36
I1
sS'sunlight'
p37
I1
sS'human'
p38
I1
sS'church'
p39
I1
sS'cocaine'
p40
I1
sS'web'
p41
I1
sS'intercourse'
p42
I1
sS'person'
p43
I1
sS'tv'
p44
I1
sS'sun'
p45
I1
sS'decision'
p46
I1
sS'been'
p47
I1
sS'moon'
p48
I1
sS'attack'
p49
I1
sS'hen'
p50
I1
sS'puppy'
p51
I1
sS'eggs'
p52
I2
sS'hermit'
p53
I1
sS'body'
p54
I1
sS'life'
p55
I4
sS'quarts'
p56
I1
sS'gestation'
p57
I2
sS'ferret'
p58
I1
sS'blood'
p59
I2
sS'child'
p60
I1
sS'debt'
p61
I1
sS'artist'
p62
I2
sS'did'
p63
I4
sS'universe'
p64
I1
sS'age'
p65
I7
sS'dog'
p66
I1
sS'hiccup'
p67
I1
sS'trial'
p68
I1
sS'savings'
p69
I1
sS'materials'
p70
I1
sS'time'
p71
I4
stp72
Rp73
(dp74
g25
I75
sS'_max_cache'
p75
NsS'_item_cache'
p76
NsS'_Nr_cache'
p77
NsbsS'_bins'
p78
I1449
sS'_divisor'
p79
F799.5
sbs(g8
S'first'
p80
tp81
g0
(g20
g2
Ntp82
Rp83
(dp84
g24
F0.5
sg25
I1250
sg26
g0
(g27
g28
(dp85
S'musician'
p86
I1
sS'names'
p87
I1
sS'winnie'
p88
I1
sS'who'
p89
I2
sS'mississippi'
p90
I1
sS'at'
p91
I1
sS'in'
p92
I19
sS'madonna'
p93
I2
sS'ray'
p94
I2
sS'a'
p95
I1
sS'on'
p96
I2
sS'what'
p97
I1112
sS'italy'
p98
I1
sS'name'
p99
I34
sS'for'
p100
I1
sS'how'
p101
I7
sS'when'
p102
I1
sS'jude'
p103
I2
sS'to'
p104
I2
sS'garry'
p105
I1
sS'which'
p106
I43
sS'stuart'
p107
I2
sS'the'
p108
I6
sS'where'
p109
I2
sS'aspartame'
p110
I3
stp111
Rp112
(dp113
g25
I1250
sg75
Nsg76
Nsg77
Nsbsg78
I48
sg79
F1274.0
sbs(g11
S'head'
p114
tp115
g0
(g20
g2
Ntp116
Rp117
(dp118
g24
F0.5
sg25
I505
sg26
g0
(g27
g28
(dp119
g30
I142
sS'colleges'
p120
I1
sS'code'
p121
I1
sS'office'
p122
I1
sS'queen'
p123
I1
sS'astronauts'
p124
I2
sS'years'
p125
I9
sS'sperm'
p126
I1
sS'colors'
p127
I4
sS'spaces'
p128
I2
sS'businesses'
p129
I1
sS'questions'
p130
I2
sS'cds'
p131
I1
sS'soldiers'
p132
I6
sS'speed'
p133
I3
sS'children'
p134
I1
sS'superbowls'
p135
I1
sS'layers'
p136
I1
sS'web'
p137
I1
sS'votes'
p138
I1
sS'vietnamese'
p139
I1
sS'electricity'
p140
I1
sS'megawatts'
p141
I1
sS'day'
p142
I3
sS'languages'
p143
I3
sS'degrees'
p144
I2
sS'teaspoon'
p145
I1
sS'thousands'
p146
I1
sS'wingspan'
p147
I1
sS'tiles'
p148
I1
sS'beatles'
p149
I1
sS'referees'
p150
I1
sS'runs'
p151
I2
sS'acreage'
p152
I1
sS'fingers'
p153
I1
sS'penny-farthings'
p154
I1
sS'words'
p155
I1
sS'hands'
p156
I1
sS'schools'
p157
I1
sS'quarters'
p158
I1
sS'wings'
p159
I1
sS'verses'
p160
I1
sS'school'
p161
I1
sS'sizes'
p162
I1
sS'chairs'
p163
I1
sS'james'
p164
I1
sS'countries'
p165
I4
sS'grammys'
p166
I1
sS'casinos'
p167
I1
sS'shots'
p168
I1
sS'corners'
p169
I1
sS'pizza'
p170
I1
sS'disks'
p171
I1
sS'jews'
p172
I1
sS'weight'
p173
I5
sS'people'
p174
I30
sS'elevators'
p175
I1
sS'energy'
p176
I1
sS'seats'
p177
I1
sS'villi'
p178
I1
sS'rate'
p179
I3
sS'frequency'
p180
I2
sS'meters'
p181
I2
sS'year'
p182
I1
sS'grooves'
p183
I2
sS'acid'
p184
I2
sS'dimensions'
p185
I1
sS'calcium'
p186
I1
sS'rings'
p187
I1
sS'mines'
p188
I1
sS'score'
p189
I3
sS'toll'
p190
I4
sS'squares'
p191
I1
sS'equivalent'
p192
I3
sS'u.s.'
p193
I3
sS'lakes'
p194
I1
sS'answers'
p195
I1
sS'hours'
p196
I1
sS'caffeine'
p197
I2
sS'englishmen'
p198
I1
sS'baseball'
p199
I1
sS'hostages'
p200
I1
sS'teaspoons'
p201
I1
sS'pitchers'
p202
I1
sS'cities'
p203
I1
sS'counties'
p204
I1
sS'digits'
p205
I3
sS'watts'
p206
I1
sS'generals'
p207
I1
sS'engines'
p208
I1
sS'stations'
p209
I1
sS'leos'
p210
I1
sS'months'
p211
I2
sS'calories'
p212
I4
sS'days'
p213
I1
sS'times'
p214
I6
sS'length'
p215
I2
sS'games'
p216
I1
sS'canadians'
p217
I1
sS'islands'
p218
I2
sS'size'
p219
I3
sS'members'
p220
I1
sS'scales'
p221
I1
sS'presidents'
p222
I1
sS'number'
p223
I13
sS'community'
p224
I1
sS'feet'
p225
I5
sS'newtons'
p226
I1
sS'americans'
p227
I3
sS'names'
p228
I1
sS'frames'
p229
I1
sS'earthworms'
p230
I1
sS'bends'
p231
I1
sS'flavors'
p232
I1
sS'statistics'
p233
I3
sS'temperature'
p234
I3
sS'zip'
p235
I1
sS'elephants'
p236
I1
sS'shillings'
p237
I1
sS'zeros'
p238
I1
sS'stars'
p239
I2
sS'films'
p240
I2
sS'syllables'
p241
I1
sS'sonnets'
p242
I1
sS'dogs'
p243
I1
sS'today'
p244
I1
sS'horses'
p245
I2
sS'mountains'
p246
I1
sS'head'
p247
I1
sS'stradivarius'
p248
I1
sS'continents'
p249
I1
sS'inches'
p250
I2
sS'brand'
p251
I1
sS'pitches'
p252
I1
sS'movies'
p253
I1
sS'boys'
p254
I1
sS'angles'
p255
I1
sS'7847'
p256
I1
sS'population'
p257
I19
sS'yards'
p258
I1
sS'states'
p259
I4
sS'waste'
p260
I1
sS'milligrams'
p261
I1
sS'longitude'
p262
I3
sS'record'
p263
I1
sS'iron'
p264
I1
sS'cards'
p265
I2
sS'college'
p266
I1
sS'minutes'
p267
I1
sS'dots'
p268
I2
sS'iq'
p269
I2
sS'pounds'
p270
I1
sS'eyes'
p271
I1
sS'high'
p272
I1
sS'horsepower'
p273
I2
sS'muscles'
p274
I2
sS'numbers'
p275
I1
sS'fiddlers'
p276
I1
sS'bones'
p277
I2
sS'cables'
p278
I1
sS'species'
p279
I1
sS'innings'
p280
I2
sS'par'
p281
I2
sS'revolutions'
p282
I1
sS'russians'
p283
I1
sS'lengths'
p284
I1
sS'snow'
p285
I1
sS'reactivity'
p286
I4
sS'actors'
p287
I1
sS'pins'
p288
I1
sS'colonies'
p289
I2
sS'events'
p290
I1
sS'vegetation'
p291
I1
sS'bells'
p292
I1
sS'elements'
p293
I1
sS'lawyers'
p294
I1
sS'brothers'
p295
I1
sS'students'
p296
I2
sS'juices'
p297
I1
sS'gutenberg'
p298
I1
sS'characters'
p299
I2
sS'oceans'
p300
I1
sS'sides'
p301
I3
sS'beanie'
p302
I1
sS'miles'
p303
I6
sS'phone'
p304
I1
sS'url'
p305
I2
sS'salt'
p306
I1
sS'holes'
p307
I1
sS'cherubs'
p308
I1
sS'points'
p309
I4
sS'time'
p310
I1
sS'hearts'
p311
I1
sS'wives'
p312
I1
sS'athletes'
p313
I1
sS'quantity'
p314
I1
stp315
Rp316
(dp317
g25
I505
sg75
Nsg76
Nsg77
Nsbsg78
I1487
sg79
F1248.5
sbs(g13
g80
tp318
g0
(g20
g2
Ntp319
Rp320
(dp321
g24
F0.5
sg25
I75
sg26
g0
(g27
g28
(dp322
S'on'
p323
I1
sS'what'
p324
I14
sS'at'
p325
I1
sS'how'
p326
I57
sS'shea'
p327
I1
sS'the'
p328
I1
stp329
Rp330
(dp331
g25
I75
sg75
Nsg76
Nsg77
Nsbsg78
I48
sg79
F99.0
sbs(g14
g114
tp332
g0
(g20
g2
Ntp333
Rp334
(dp335
g24
F0.5
sg25
I71
sg26
g0
(g27
g28
(dp336
g30
I30
sS'fare'
p337
I2
sS'money'
p338
I7
sS'price'
p339
I4
sS'provider'
p340
I2
sS'tax'
p341
I1
sS'caps'
p342
I1
sS'rate'
p343
I2
sS'cost'
p344
I4
sS'fine'
p345
I1
sS'salary'
p346
I6
sS'wage'
p347
I4
sS'debts'
p348
I1
sS'increase'
p349
I1
sS'amount'
p350
I1
sS'income'
p351
I3
sS'worth'
p352
I1
stp353
Rp354
(dp355
g25
I71
sg75
Nsg76
Nsg77
Nsbsg78
I1487
sg79
F814.5
sbs(g9
g80
tp356
g0
(g20
g2
Ntp357
Rp358
(dp359
g24
F0.5
sg25
I1223
sg26
g0
(g27
g28
(dp360
S'saddam'
p361
I1
sS'who'
p362
I557
sS'woodrow'
p363
I1
sS'in'
p364
I4
sS'president'
p365
I1
sS'with'
p366
I1
sS'whose'
p367
I14
sS'what'
p368
I533
sS'name'
p369
I49
sS'when'
p370
I4
sS'rotary'
p371
I3
sS'whom'
p372
I4
sS'silly'
p373
I1
sS'which'
p374
I46
sS'cnn'
p375
I1
sS'the'
p376
I3
stp377
Rp378
(dp379
g25
I1223
sg75
Nsg76
Nsg77
Nsbsg78
I48
sg79
F1247.0
sbs(g10
g18
tp380
g0
(g20
g2
Ntp381
Rp382
(dp383
g24
F0.5
sg25
I835
sg26
g0
(g27
g28
(dp384
g30
I97
sS'lobsters'
p385
I1
sS'lyrics'
p386
I3
sS'bocci'
p387
I1
sS'actress'
p388
I1
sS'hamlet'
p389
I1
sS'seaport'
p390
I3
sS'avenue'
p391
I1
sS'find'
p392
I1
sS'cartoon'
p393
I1
sS'web'
p394
I3
sS'birthplace'
p395
I3
sS'group'
p396
I3
sS'office'
p397
I1
sS'gulf'
p398
I1
sS'title'
p399
I1
sS'point'
p400
I1
sS'royal'
p401
I1
sS'lake'
p402
I2
sS'civil'
p403
I1
sS'source'
p404
I1
sS'book'
p405
I1
sS'tape'
p406
I1
sS'location'
p407
I4
sS'prison'
p408
I1
sS'piano'
p409
I1
sS'soccer'
p410
I1
sS'hat'
p411
I1
sS'resources'
p412
I1
sS'merchant'
p413
I1
sS'case'
p414
I2
sS'screensaver'
p415
I1
sS'myth'
p416
I1
sS'get'
p417
I2
sS'surrounds'
p418
I2
sS'dam'
p419
I2
sS'capital'
p420
I18
sS'photograph'
p421
I1
sS'arch'
p422
I1
sS'nation'
p423
I3
sS'department'
p424
I1
sS'tuberculosis'
p425
I1
sS'world'
p426
I10
sS'fractal'
p427
I1
sS'suey'
p428
I1
sS'room'
p429
I1
sS'airports'
p430
I1
sS'name'
p431
I15
sS'countries'
p432
I24
sS'opera'
p433
I1
sS'glitters'
p434
I1
sS'list'
p435
I3
sS'hole'
p436
I1
sS'bay'
p437
I3
sS'miles'
p438
I1
sS'steps'
p439
I1
sS'cartoons'
p440
I1
sS'rock'
p441
I1
sS'found'
p442
I1
sS'river'
p443
I9
sS'ports'
p444
I1
sS'province'
p445
I2
sS'breweries'
p446
I1
sS'art'
p447
I1
sS'telescope'
p448
I1
sS'ten'
p449
I1
sS'apartments'
p450
I1
sS'seas'
p451
I1
sS'back'
p452
I1
sS'rivers'
p453
I2
sS'born'
p454
I7
sS'street'
p455
I3
sS'examples'
p456
I1
sS'sea'
p457
I5
sS'erupts'
p458
I1
sS'home'
p459
I6
sS'calendar'
p460
I1
sS'sport'
p461
I1
sS'constellation'
p462
I3
sS'wander'
p463
I1
sS'textiles'
p464
I1
sS'guinea'
p465
I1
sS'review'
p466
I1
sS'sites'
p467
I1
sS'research'
p468
I1
sS'libraries'
p469
I1
sS'state'
p470
I54
sS'diamonds'
p471
I1
sS'email'
p472
I2
sS'subway'
p473
I1
sS'body'
p474
I3
sS'monarchs'
p475
I1
sS'cars'
p476
I1
sS'answers'
p477
I1
sS'monsters'
p478
I1
sS'statistics'
p479
I1
sS'sink'
p480
I1
sS'groups'
p481
I1
sS'address'
p482
I6
sS'directions'
p483
I1
sS'nationality'
p484
I8
sS'canals'
p485
I1
sS'cities'
p486
I9
sS'come'
p487
I2
sS'flytrap'
p488
I1
sS'deserts'
p489
I1
sS'publisher'
p490
I1
sS'zoo'
p491
I1
sS'anything'
p492
I1
sS'restaurant'
p493
I2
sS'country'
p494
I118
sS'region'
p495
I1
sS'adventures'
p496
I1
sS'thing'
p497
I1
sS'airport'
p498
I1
sS'place'
p499
I3
sS'islands'
p500
I1
sS'weird'
p501
I1
sS'hospital'
p502
I1
sS'seeing'
p503
I1
sS'tennis'
p504
I1
sS'bell'
p505
I1
sS'wall'
p506
I1
sS'attractions'
p507
I2
sS'county'
p508
I3
sS'snowboard'
p509
I1
sS'names'
p510
I3
sS'coastal'
p511
I1
sS'strip'
p512
I1
sS'schematics'
p513
I1
sS'lesson'
p514
I1
sS'continent'
p515
I7
sS'post'
p516
I1
sS'city'
p517
I89
sS'basketball'
p518
I1
sS'span'
p519
I1
sS'habitat'
p520
I1
sS'quality'
p521
I1
sS'area'
p522
I3
sS'remains'
p523
I1
sS'nickname'
p524
I2
sS'museum'
p525
I3
sS'people'
p526
I3
sS'desert'
p527
I5
sS'draft'
p528
I1
sS'seafaring'
p529
I1
sS'way'
p530
I1
sS'ridge'
p531
I1
sS'corpus'
p532
I2
sS'territory'
p533
I1
sS'meeting'
p534
I1
sS'tourists'
p535
I1
sS'empty'
p536
I1
sS'possession'
p537
I1
sS'mountains'
p538
I2
sS'direction'
p539
I3
sS'stadium'
p540
I1
sS'ash'
p541
I1
sS'flying'
p542
I1
sS'contains'
p543
I1
sS'listing'
p544
I1
sS'waterways'
p545
I1
sS'lists'
p546
I1
sS'site'
p547
I4
sS'chemicals'
p548
I1
sS'part'
p549
I3
sS'pecan'
p550
I1
sS'line'
p551
I1
sS'surrender'
p552
I1
sS'dialing'
p553
I1
sS'town'
p554
I3
sS'wide'
p555
I1
sS'kind'
p556
I1
sS'target'
p557
I1
sS'science'
p558
I1
sS'ride'
p559
I1
sS'originate'
p560
I2
sS'tree'
p561
I1
sS'devices'
p562
I1
sS'nations'
p563
I1
sS'planet'
p564
I4
sS'movies'
p565
I1
sS'mall'
p566
I1
sS'individual'
p567
I1
sS'wrestler'
p568
I1
sS'island'
p569
I3
sS'mountain'
p570
I12
sS'mythology'
p571
I1
sS'display'
p572
I1
sS'history'
p573
I2
sS'bridge'
p574
I3
sS'president'
p575
I1
sS'pony'
p576
I1
sS'tabs'
p577
I1
sS'strait'
p578
I1
sS'marijuana'
p579
I1
sS'evidence'
p580
I1
sS'states'
p581
I5
sS'want'
p582
I1
sS'southern'
p583
I2
sS'concentration'
p584
I1
sS'border'
p585
I1
sS'eels'
p586
I1
sS'tallest'
p587
I1
sS'ukulele'
p588
I1
sS'helium'
p589
I1
sS'graduate'
p590
I1
sS'website'
p591
I1
sS'setting'
p592
I1
sS'take'
p593
I2
sS'online'
p594
I2
sS'test'
p595
I1
sS'residence'
p596
I1
sS'status'
p597
I1
sS'map'
p598
I1
sS'begin'
p599
I1
sS'hotel'
p600
I1
sS'star'
p601
I2
sS'brothers'
p602
I2
sS'information'
p603
I18
sS'singles'
p604
I1
sS'park'
p605
I2
sS'rail'
p606
I1
sS'rain'
p607
I1
sS'aborigines'
p608
I1
sS'waterfall'
p609
I1
sS'peak'
p610
I1
sS'court'
p611
I2
sS'stocks'
p612
I1
sS'data'
p613
I1
sS'grow'
p614
I1
sS'building'
p615
I4
sS'picture'
p616
I1
sS'center'
p617
I3
sS'attracts'
p618
I1
sS'hang'
p619
I1
sS'headquarters'
p620
I4
sS'rule'
p621
I1
sS'midi'
p622
I1
sS'freeway'
p623
I1
sS'person'
p624
I1
sS'maintain'
p625
I1
sS'official'
p626
I1
sS'nuclear'
p627
I1
sS'landmark'
p628
I1
sS'comparisons'
p629
I1
sS'spend'
p630
I1
sS'bodies'
p631
I1
sS'marvel'
p632
I1
stp633
Rp634
(dp635
g25
I835
sg75
Nsg76
Nsg77
Nsbsg78
I1449
sg79
F1559.5
sbs(g15
g18
tp636
g0
(g20
g2
Ntp637
Rp638
(dp639
g24
F0.5
sg25
I27
sg26
g0
(g27
g28
(dp640
S'account'
p641
I1
sS'target'
p642
I1
sS'probability'
p643
I2
sS'unemployment'
p644
I1
sS'chances'
p645
I2
sS'odds'
p646
I3
sS'percent'
p647
I2
sS'chance'
p648
I1
sS'state'
p649
I1
sS'fraction'
p650
I2
sS'approval'
p651
I1
sS'percentage'
p652
I8
sS'children'
p653
I2
stp654
Rp655
(dp656
g25
I27
sg75
Nsg76
Nsg77
Nsbsg78
I1449
sg79
F751.5
sbs(g12
g114
tp657
g0
(g20
g2
Ntp658
Rp659
(dp660
g24
F0.5
sg25
I218
sg26
g0
(g27
g28
(dp661
g30
I14
sS'ambassador'
p662
I1
sS'helens'
p663
I1
sS'clark'
p664
I1
sS'show'
p665
I1
sS'wall'
p666
I1
sS'revolutionaries'
p667
I1
sS'charles'
p668
I1
sS'period'
p669
I2
sS'month'
p670
I3
sS'muhammad'
p671
I1
sS'ussr'
p672
I1
sS'americans'
p673
I1
sS'hugo'
p674
I1
sS'battle'
p675
I2
sS'mill'
p676
I1
sS'hitler'
p677
I1
sS'transplant'
p678
I1
sS'use'
p679
I1
sS'group'
p680
I1
sS'troops'
p681
I1
sS'festival'
p682
I1
sS'ruby'
p683
I1
sS'attack'
p684
I1
sS'labor'
p685
I1
sS'window'
p686
I1
sS'music'
p687
I1
sS'teenager'
p688
I1
sS'mutiny'
p689
I1
sS'bill'
p690
I1
sS'war'
p691
I1
sS'engine'
p692
I1
sS'israel'
p693
I1
sS'woman'
p694
I1
sS'fire'
p695
I2
sS'dam'
p696
I1
sS'company'
p697
I1
sS'thatcher'
p698
I1
sS'test'
p699
I1
sS'slinky'
p700
I1
sS'bible'
p701
I1
sS'wedding'
p702
I1
sS'railroad'
p703
I1
sS'erected'
p704
I1
sS'banner'
p705
I1
sS'day'
p706
I8
sS'bar-code'
p707
I1
sS'nfl'
p708
I1
sS'encyclopedia'
p709
I1
sS'birthdate'
p710
I1
sS'helen'
p711
I2
sS'architecture'
p712
I2
sS'man'
p713
I1
sS'yemen'
p714
I1
sS'amendment'
p715
I1
sS'menstruation'
p716
I1
sS'beethoven'
p717
I2
sS'art'
p718
I1
sS'osbourne'
p719
I1
sS'century'
p720
I3
sS'rousseau'
p721
I1
sS'house'
p722
I1
sS'fish'
p723
I1
sS'humans'
p724
I1
sS'spielberg'
p725
I1
sS'mormons'
p726
I1
sS'roosevelt'
p727
I1
sS'year'
p728
I45
sS'aeul'
p729
I1
sS'depression'
p730
I1
sS'toilet'
p731
I1
sS'nostradamus'
p732
I2
sS'christ'
p733
I1
sS'amtrak'
p734
I1
sS'barbie'
p735
I1
sS'sun'
p736
I1
sS'fraze'
p737
I1
sS'concert'
p738
I1
sS'www.questions.com'
p739
I1
sS'flood'
p740
I1
sS'millennium'
p741
I1
sS'huxley'
p742
I1
sS'season'
p743
I4
sS'cnn'
p744
I2
sS'gate'
p745
I2
sS'ruth'
p746
I1
sS'pastorius'
p747
I1
sS'typewriter'
p748
I1
sS'parthenon'
p749
I1
sS'korea'
p750
I1
sS'congress'
p751
I1
sS'noriega'
p752
I1
sS'journal'
p753
I1
sS'eruption'
p754
I1
sS'victoria'
p755
I1
sS'control'
p756
I1
sS'birthday'
p757
I4
sS'awards'
p758
I1
sS'date'
p759
I13
sS'vesuvius'
p760
I1
sS'weekend'
p761
I1
sS'lindbergh'
p762
I1
sS'camcorders'
p763
I1
sS'broadcast'
p764
I1
sS'dates'
p765
I1
sS'accident'
p766
I1
sS'pangaea'
p767
I1
sS'i'
p768
I1
sS'months'
p769
I1
sS'florida'
p770
I1
sS'rockefeller'
p771
I1
sS'dow'
p772
I1
sS'games'
p773
I1
sS'advertising'
p774
I1
sS'time'
p775
I2
sS'shorn'
p776
I1
sS'railway'
p777
I1
sS'swimming'
p778
I1
sS'microsoft'
p779
I1
sS'nixon'
p780
I3
stp781
Rp782
(dp783
g25
I218
sg75
Nsg76
Nsg77
Nsbsg78
I1487
sg79
F961.5
sbs(g14
g18
tp784
g0
(g20
g2
Ntp785
Rp786
(dp787
g24
F0.5
sg25
I71
sg26
g0
(g27
g28
(dp788
S'money'
p789
I7
sS'cost'
p790
I3
sS'year'
p791
I1
sS'fine'
p792
I1
sS'railroad'
p793
I1
sS'wage'
p794
I5
sS'beef'
p795
I1
sS'stamp'
p796
I2
sS'twenty'
p797
I1
sS'debts'
p798
I1
sS'increase'
p799
I1
sS'state'
p800
I1
sS'ton'
p801
I1
sS'income'
p802
I3
sS'party'
p803
I1
sS'get'
p804
I1
sS'fare'
p805
I1
sS'junk'
p806
I1
sS'exchange'
p807
I2
sS'drugs'
p808
I1
sS'price'
p809
I4
sS'gas'
p810
I1
sS'utilities'
p811
I1
sS'tuberculosis'
p812
I1
sS'ticket'
p813
I2
sS'presidents'
p814
I1
sS'bug'
p815
I1
sS'salary'
p816
I6
sS'daycare'
p817
I2
sS'did'
p818
I9
sS'tree'
p819
I2
sS'contract'
p820
I1
sS'person'
p821
I1
sS'amount'
p822
I2
sS'having'
p823
I1
stp824
Rp825
(dp826
g25
I71
sg75
Nsg76
Nsg77
Nsbsg78
I1449
sg79
F795.5
sbs(g9
g18
tp827
g0
(g20
g2
Ntp828
Rp829
(dp830
g24
F0.5
sg25
I1223
sg26
g0
(g27
g28
(dp831
g30
I211
sS'husband-and-wife'
p832
I1
sS'colleges'
p833
I1
sS'coach'
p834
I3
sS'founder'
p835
I2
sS'show'
p836
I2
sS'hands'
p837
I1
sS'authors'
p838
I1
sS'celebrities'
p839
I2
sS'resistance'
p840
I1
sS'invent'
p841
I1
sS'leads'
p842
I1
sS'code'
p843
I1
sS'businesses'
p844
I2
sS'liberty'
p845
I1
sS'soldiers'
p846
I2
sS'chair'
p847
I1
sS'captain'
p848
I1
sS'milk'
p849
I1
sS'staff'
p850
I1
sS'ballet'
p851
I1
sS'apartment'
p852
I1
sS'chain'
p853
I1
sS'hunting'
p854
I1
sS'title'
p855
I8
sS'electricity'
p856
I1
sS'writer'
p857
I4
sS'father'
p858
I8
sS'fans'
p859
I1
sS'literary'
p860
I1
sS'theme'
p861
I1
sS'program'
p862
I1
sS'black'
p863
I5
sS'present'
p864
I2
sS'crooner'
p865
I1
sS'communist'
p866
I1
sS'quotation'
p867
I1
sS'fences'
p868
I1
sS'road'
p869
I1
sS'fax'
p870
I1
sS'woman'
p871
I12
sS'founding'
p872
I1
sS'citizen'
p873
I2
sS'king'
p874
I4
sS'translations'
p875
I1
sS'television'
p876
I4
sS'bear'
p877
I1
sS'millionaire'
p878
I1
sS'sons'
p879
I2
sS'diary'
p880
I1
sS'borrower'
p881
I1
sS'entries'
p882
I1
sS'races'
p883
I2
sS'surgeon'
p884
I1
sS'dose'
p885
I1
sS'prime'
p886
I4
sS'school'
p887
I3
sS'bestselling'
p888
I1
sS'level'
p889
I1
sS'positions'
p890
I1
sS'marry'
p891
I1
sS'companies'
p892
I2
sS'brother'
p893
I1
sS'grandfather'
p894
I1
sS'yougurt'
p895
I1
sS'sang'
p896
I2
sS'shoplifts'
p897
I1
sS'delegate'
p898
I1
sS'team'
p899
I6
sS'strip'
p900
I3
sS'radio'
p901
I4
sS'guy'
p902
I1
sS'round'
p903
I1
sS'husband'
p904
I2
sS'secretary'
p905
I1
sS'official'
p906
I1
sS'temperance'
p907
I1
sS'leaders'
p908
I1
sS'ten'
p909
I3
sS'creator'
p910
I2
sS'canine'
p911
I1
sS'seat'
p912
I1
sS'culture'
p913
I1
sS'computer'
p914
I1
sS'college'
p915
I9
sS'governor'
p916
I2
sS'lawyer'
p917
I9
sS'tender'
p918
I1
sS'folk'
p919
I1
sS'victor'
p920
I1
sS'super-teams'
p921
I1
sS'business'
p922
I4
sS'movie'
p923
I4
sS'section'
p924
I1
sS'corporation'
p925
I2
sS'havoc'
p926
I1
sS'uniform'
p927
I1
sS'election'
p928
I2
sS'genius'
p929
I1
sS'state'
p930
I1
sS'won'
p931
I1
sS'suspect'
p932
I1
sS'finger'
p933
I1
sS'leader'
p934
I13
sS'occupation'
p935
I5
sS'advertizing'
p936
I1
sS'hero'
p937
I1
sS'degree'
p938
I1
sS'faith'
p939
I2
sS'men'
p940
I2
sS'boss'
p941
I1
sS'guitar'
p942
I1
sS'wild'
p943
I1
sS'job'
p944
I3
sS'dubliners'
p945
I1
sS'baseball'
p946
I16
sS'groups'
p947
I1
sS'vice'
p948
I2
sS'group'
p949
I7
sS'motto'
p950
I1
sS'boy'
p951
I2
sS'voice'
p952
I1
sS'daughter'
p953
I2
sS'naval'
p954
I1
sS'survivor'
p955
I1
sS'joke'
p956
I1
sS'trader'
p957
I1
sS'host'
p958
I2
sS'reports'
p959
I1
sS'soldier'
p960
I1
sS'jogging'
p961
I1
sS'jockey'
p962
I1
sS'figures'
p963
I1
sS'defeat'
p964
I1
sS'senator'
p965
I1
sS'residents'
p966
I1
sS'makes'
p967
I1
sS'maker'
p968
I1
sS'patents'
p969
I1
sS'opposition'
p970
I1
sS'cruiser'
p971
I1
sS'presidents'
p972
I3
sS'lyricist'
p973
I1
sS'colony'
p974
I1
sS'supreme'
p975
I2
sS'pop'
p976
I1
sS'twin'
p977
I1
sS'names'
p978
I6
sS'composer'
p979
I3
sS'toys'
p980
I1
sS'resident'
p981
I1
sS'cocaine'
p982
I1
sS'singing'
p983
I2
sS'rugby'
p984
I1
sS'conference'
p985
I1
sS'poem'
p986
I2
sS'spoke'
p987
I1
sS'engines'
p988
I2
sS'army'
p989
I2
sS'acceptance'
p990
I1
sS'sports'
p991
I1
sS'newscast'
p992
I1
sS'commission'
p993
I1
sS'secret'
p994
I1
sS'camera'
p995
I1
sS'music'
p996
I1
sS'card'
p997
I1
sS'tv'
p998
I12
sS'films'
p999
I2
sS'markets'
p1000
I1
sS'abstract'
p1001
I1
sS'empty'
p1002
I1
sS'engine'
p1003
I2
sS'diamond'
p1004
I3
sS'door'
p1005
I1
sS'conductor'
p1006
I1
sS'league'
p1007
I2
sS'tennis'
p1008
I1
sS'company'
p1009
I23
sS'inventions'
p1010
I1
sS'gas'
p1011
I1
sS'buxom'
p1012
I1
sS'pugilist'
p1013
I1
sS'train'
p1014
I1
sS'stethoscope'
p1015
I1
sS'minister'
p1016
I5
sS'child'
p1017
I1
sS'superstar'
p1018
I2
sS'gold'
p1019
I2
sS'instructor'
p1020
I1
sS'painter'
p1021
I3
sS'women'
p1022
I1
sS'sound'
p1023
I1
sS'wood'
p1024
I1
sS'novel'
p1025
I1
sS'look'
p1026
I1
sS'presidency'
p1027
I1
sS'rights'
p1028
I1
sS'barroom'
p1029
I1
sS'work'
p1030
I1
sS'worm'
p1031
I1
sS'honeymooners'
p1032
I1
sS'monster'
p1033
I1
sS'criticizing'
p1034
I1
sS'male'
p1035
I1
sS'example'
p1036
I1
sS'spy'
p1037
I1
sS'compare'
p1038
I1
sS'pyramid'
p1039
I2
sS'bandleader'
p1040
I1
sS'figure'
p1041
I2
sS'century'
p1042
I2
sS'process'
p1043
I1
sS'telephone'
p1044
I1
sS'commander'
p1045
I1
sS'middle'
p1046
I3
sS'villain'
p1047
I2
sS'protects'
p1048
I1
sS'numbers'
p1049
I1
sS'partner'
p1050
I1
sS'hit'
p1051
I3
sS'airplane'
p1052
I2
sS'astronaut'
p1053
I3
sS'biography'
p1054
I1
sS'information'
p1055
I1
sS'court'
p1056
I1
sS'doctor'
p1057
I3
sS'holds'
p1058
I2
sS'administration'
p1059
I2
sS'tour'
p1060
I1
sS'endurance'
p1061
I1
sS'member'
p1062
I5
sS'winners'
p1063
I1
sS'monarch'
p1064
I3
sS'duel'
p1065
I1
sS'stock'
p1066
I1
sS'designer'
p1067
I2
sS'explorer'
p1068
I2
sS'autobiography'
p1069
I1
sS'fascist'
p1070
I1
sS'railways'
p1071
I1
sS'office'
p1072
I1
sS'youngsters'
p1073
I1
sS'despondent'
p1074
I1
sS'companion'
p1075
I1
sS'shores'
p1076
I1
sS'kidnaping'
p1077
I1
sS'director'
p1078
I6
sS'characters'
p1079
I1
sS'advertise'
p1080
I2
sS'polio'
p1081
I1
sS'data'
p1082
I1
sS'cartoon'
p1083
I5
sS'identity'
p1084
I1
sS'man'
p1085
I9
sS'task'
p1086
I1
sS'whores'
p1087
I1
sS'surfboard'
p1088
I1
sS'try'
p1089
I2
sS'author'
p1090
I9
sS'children'
p1091
I1
sS'person'
p1092
I9
sS'frequent'
p1093
I1
sS'mother'
p1094
I2
sS'organization'
p1095
I8
sS'model'
p1096
I1
sS'order'
p1097
I1
sS'ambassador'
p1098
I1
sS'abilities'
p1099
I1
sS'producer'
p1100
I1
sS'produces'
p1101
I1
sS'money'
p1102
I1
sS'wedding'
p1103
I1
sS'guitarist'
p1104
I1
sS'actress'
p1105
I12
sS'years'
p1106
I3
sS'press'
p1107
I1
sS'batteries'
p1108
I1
sS'paper'
p1109
I1
sS'costume'
p1110
I2
sS'replies'
p1111
I1
sS'mayor'
p1112
I5
sS'bombing'
p1113
I1
sS'underwater'
p1114
I1
sS'self-portrait'
p1115
I1
sS'police'
p1116
I5
sS'call'
p1117
I1
sS'queen'
p1118
I2
sS'character'
p1119
I11
sS'housewife'
p1120
I1
sS'labor'
p1121
I1
sS'blob'
p1122
I1
sS'personas'
p1123
I1
sS'founders'
p1124
I1
sS'role'
p1125
I4
sS'scoundrel'
p1126
I3
sS'niece'
p1127
I1
sS'fool'
p1128
I1
sS'missions'
p1129
I1
sS'gods'
p1130
I1
sS'government'
p1131
I1
sS'food'
p1132
I2
sS'chancellor'
p1133
I1
sS'wives'
p1134
I1
sS'band'
p1135
I2
sS'game'
p1136
I2
sS'boxer'
p1137
I3
sS'party'
p1138
I2
sS'schools'
p1139
I2
sS'world'
p1140
I10
sS'lady'
p1141
I1
sS'name'
p1142
I70
sS'cop'
p1143
I1
sS'term'
p1144
I1
sS'martyrs'
p1145
I1
sS'attorneys'
p1146
I1
sS'meat'
p1147
I1
sS'success'
p1148
I1
sS'university'
p1149
I5
sS'artist'
p1150
I1
sS'clown'
p1151
I1
sS'purveyor'
p1152
I1
sS'theory'
p1153
I1
sS'victory'
p1154
I1
sS'lawnmower'
p1155
I1
sS'loco-motion'
p1156
I1
sS'inventors'
p1157
I1
sS'celebrity'
p1158
I2
sS'x-man'
p1159
I1
sS'mean'
p1160
I1
sS'commanders'
p1161
I1
sS'people'
p1162
I9
sS'aerodynamics'
p1163
I1
sS'stern'
p1164
I1
sS'back'
p1165
I1
sS'borrow'
p1166
I1
sS'society'
p1167
I1
sS'books'
p1168
I1
sS'archenemy'
p1169
I1
sS'home'
p1170
I3
sS'girl'
p1171
I3
sS'perfume'
p1172
I1
sS'brothers'
p1173
I2
sS'living'
p1174
I3
sS'competitor'
p1175
I1
sS'network'
p1176
I1
sS'lead'
p1177
I2
sS'space'
p1178
I1
sS'trilogy'
p1179
I1
sS'vacuum'
p1180
I1
sS'horoscope'
p1181
I1
sS'opener'
p1182
I1
sS'fountain'
p1183
I1
sS'civilization'
p1184
I1
sS'electronics'
p1185
I1
sS'appearances'
p1186
I1
sS'maneuver'
p1187
I1
sS'cricketer'
p1188
I1
sS'power'
p1189
I2
sS'cars'
p1190
I1
sS'rock'
p1191
I2
sS'pub'
p1192
I1
sS'appointments'
p1193
I1
sS'protagonist'
p1194
I1
sS'plea'
p1195
I1
sS'poems'
p1196
I1
sS'pitchers'
p1197
I1
sS'explorers'
p1198
I1
sS'manufactures'
p1199
I1
sS'manufacturer'
p1200
I1
sS'husbands'
p1201
I1
sS'sister'
p1202
I2
sS'son-in-law'
p1203
I2
sS'deer'
p1204
I1
sS'cowboy'
p1205
I1
sS'jeep'
p1206
I1
sS'prophet'
p1207
I4
sS'newspapers'
p1208
I1
sS'door-to-door'
p1209
I1
sS'times'
p1210
I1
sS'thing'
p1211
I1
sS'airline'
p1212
I2
sS'islands'
p1213
I1
sS'backup'
p1214
I1
sS'block'
p1215
I1
sS'tribe'
p1216
I1
sS'playwright'
p1217
I1
sS'image'
p1218
I1
sS'cross-your-heart'
p1219
I1
sS'profession'
p1220
I4
sS'comedienne'
p1221
I2
sS'obscene'
p1222
I1
sS'son'
p1223
I4
sS'feet'
p1224
I1
sS'female'
p1225
I1
sS'president'
p1226
I20
sS'owner'
p1227
I1
sS'art'
p1228
I1
sS'message'
p1229
I1
sS'swimmer'
p1230
I1
sS'engineer'
p1231
I2
sS'bull'
p1232
I1
sS'toy'
p1233
I1
sS'nickname'
p1234
I7
sS'sculptress'
p1235
I1
sS'night'
p1236
I1
sS'question'
p1237
I1
sS'fast'
p1238
I1
sS'player'
p1239
I3
sS'fought'
p1240
I1
sS'master'
p1241
I1
sS'bounty'
p1242
I1
sS'dictator'
p1243
I2
sS'speaking'
p1244
I1
sS'head'
p1245
I3
sS'airwaves'
p1246
I1
sS'manufacturers'
p1247
I1
sS'circumnavigator'
p1248
I1
sS'pitcher'
p1249
I1
sS'oil'
p1250
I1
sS'cabinet'
p1251
I1
sS'poet'
p1252
I5
sS'part'
p1253
I3
sS'biochemists'
p1254
I1
sS'mules'
p1255
I1
sS'line'
p1256
I1
sS'surrender'
p1257
I1
sS'inventor'
p1258
I2
sS'count'
p1259
I1
sS'distance'
p1260
I1
sS'kind'
p1261
I5
sS'made'
p1262
I1
sS'glory'
p1263
I1
sS'players'
p1264
I2
sS'tree'
p1265
I1
sS'project'
p1266
I1
sS'listeners'
p1267
I1
sS'architect'
p1268
I2
sS'friend'
p1269
I2
sS'prankster'
p1270
I1
sS'exhibit'
p1271
I1
sS'promises'
p1272
I1
sS'surname'
p1273
I1
sS'nominee'
p1274
I1
sS'pro'
p1275
I1
sS'premier'
p1276
I1
sS'toothbrush'
p1277
I1
sS'strips'
p1278
I1
sS'voices'
p1279
I1
sS'talking'
p1280
I1
sS'regards'
p1281
I1
sS'rent'
p1282
I1
sS'girlfriend'
p1283
I1
sS'sells'
p1284
I1
sS'novelist'
p1285
I2
sS'film'
p1286
I6
sS'car'
p1287
I3
sS'sings'
p1288
I4
sS'fast-food'
p1289
I1
sS'dancing'
p1290
I1
sS'come-on'
p1291
I1
sS'lyrics'
p1292
I1
sS'agency'
p1293
I1
sS'fondness'
p1294
I1
sS'actor'
p1295
I18
sS'reality'
p1296
I1
sS'kennedy-nixon'
p1297
I1
sS'majority'
p1298
I2
sS'book'
p1299
I4
sS'actors'
p1300
I1
sS'chairman'
p1301
I2
sS'forces'
p1302
I1
sS'department'
p1303
I1
sS'panties'
p1304
I1
sS'honorary'
p1305
I1
sS'pseudonym'
p1306
I2
sS'conservationist'
p1307
I1
sS'play'
p1308
I1
sS'championship'
p1309
I1
sS'star'
p1310
I6
sS'games'
p1311
I1
sS'football'
p1312
I2
sS'phonograph'
p1313
I1
sS'cigarette'
p1314
I1
sS'stardom'
p1315
I1
sS'position'
p1316
I1
sS'heroine'
p1317
I2
sS'inspiration'
p1318
I1
sS'singer'
p1319
I1
sS'studio'
p1320
I1
sS'wife'
p1321
I3
sS'cover'
p1322
I1
sS'dog'
p1323
I1
sS'reputation'
p1324
I1
sS'time'
p1325
I1
sS'lives'
p1326
I3
sS'buffalo'
p1327
I1
sS'once'
p1328
I1
stp1329
Rp1330
(dp1331
g25
I1223
sg75
Nsg76
Nsg77
Nsbsg78
I1449
sg79
F1947.5
sbs(g15
g114
tp1332
g0
(g20
g2
Ntp1333
Rp1334
(dp1335
g24
F0.5
sg25
I27
sg26
g0
(g27
g28
(dp1336
g30
I10
sS'rating'
p1337
I1
sS'account'
p1338
I1
sS'probability'
p1339
I2
sS'chances'
p1340
I2
sS'odds'
p1341
I3
sS'percent'
p1342
I1
sS'rate'
p1343
I3
sS'chance'
p1344
I1
sS'fraction'
p1345
I2
sS'percentage'
p1346
I1
stp1347
Rp1348
(dp1349
g25
I27
sg75
Nsg76
Nsg77
Nsbsg78
I1487
sg79
F770.5
sbs(g8
g18
tp1350
g0
(g20
g2
Ntp1351
Rp1352
(dp1353
g24
F0.5
sg25
I1250
sg26
g0
(g27
g28
(dp1354
g30
I47
sS'melts'
p1355
I1
sS'invent'
p1356
I3
sS'crocodile'
p1357
I1
sS'disc'
p1358
I1
sS'publish'
p1359
I1
sS'migrates'
p1360
I1
sS'skin'
p1361
I1
sS'dish'
p1362
I1
sS'golf'
p1363
I3
sS'centers'
p1364
I1
sS'causes'
p1365
I1
sS'looking'
p1366
I1
sS'baseball'
p1367
I1
sS'referring'
p1368
I1
sS'tv'
p1369
I12
sS'hump'
p1370
I1
sS'technique'
p1371
I3
sS'languages'
p1372
I6
sS'fingernails'
p1373
I1
sS'tail'
p1374
I1
sS'program'
p1375
I2
sS'terror'
p1376
I1
sS'smile'
p1377
I1
sS'ingredient'
p1378
I1
sS'plants'
p1379
I2
sS'family'
p1380
I1
sS'woman'
p1381
I1
sS'translations'
p1382
I1
sS'jeroboams'
p1383
I1
sS'sons'
p1384
I1
sS'mixing'
p1385
I2
sS'word'
p1386
I14
sS'prize'
p1387
I1
sS'level'
p1388
I1
sS'did'
p1389
I1
sS'gender'
p1390
I1
sS'companies'
p1391
I1
sS'occurs'
p1392
I1
sS'race'
p1393
I4
sS'car'
p1394
I4
sS'refer'
p1395
I1
sS'athlete'
p1396
I1
sS'non-fiction'
p1397
I1
sS'magazine'
p1398
I6
sS'ten'
p1399
I1
sS'crop'
p1400
I2
sS'sign'
p1401
I2
sS'chef'
p1402
I1
sS'battle'
p1403
I2
sS'titles'
p1404
I1
sS'video'
p1405
I1
sS'lawyer'
p1406
I1
sS'fear'
p1407
I62
sS'hymn'
p1408
I1
sS'employ'
p1409
I1
sS'constitution'
p1410
I1
sS'clock'
p1411
I1
sS'section'
p1412
I1
sS'caffeine'
p1413
I1
sS'dangles'
p1414
I1
sS'tarantula'
p1415
I1
sS'tips'
p1416
I1
sS'tournaments'
p1417
I1
sS'bird'
p1418
I1
sS'body'
p1419
I1
sS'hero'
p1420
I2
sS'leg'
p1421
I1
sS'men'
p1422
I1
sS'commercial'
p1423
I1
sS'dipsomaniac'
p1424
I1
sS'operating'
p1425
I2
sS'tragedy'
p1426
I1
sS'box'
p1427
I1
sS'substance'
p1428
I3
sS'credit'
p1429
I1
sS'products'
p1430
I4
sS'advertising'
p1431
I1
sS'birthstone'
p1432
I1
sS'otters'
p1433
I1
sS'classification'
p1434
I1
sS'spermologer'
p1435
I1
sS'respirator'
p1436
I1
sS'names'
p1437
I3
sS'tools'
p1438
I1
sS'chefs'
p1439
I1
sS'ladybugs'
p1440
I1
sS'contains'
p1441
I1
sS'arms'
p1442
I1
sS'sports'
p1443
I3
sS'symphony'
p1444
I1
sS'call'
p1445
I6
sS'films'
p1446
I1
sS'type'
p1447
I11
sS'sort'
p1448
I1
sS'racoon'
p1449
I1
sS'phobophobe'
p1450
I1
sS'club'
p1451
I1
sS'company'
p1452
I2
sS'refrain'
p1453
I1
sS'missile'
p1454
I1
sS'glass'
p1455
I1
sS'flag'
p1456
I1
sS'rabbit'
p1457
I2
sS'known'
p1458
I2
sS'polyorchid'
p1459
I1
sS'mascot'
p1460
I1
sS'balls'
p1461
I1
sS'animals'
p1462
I8
sS'primate'
p1463
I1
sS'science'
p1464
I1
sS'ride'
p1465
I1
sS'work'
p1466
I1
sS'hardest'
p1467
I1
sS'example'
p1468
I2
sS'stubborn'
p1469
I1
sS'eczema'
p1470
I1
sS'assent'
p1471
I1
sS'currency'
p1472
I1
sS'foods'
p1473
I2
sS'airplane'
p1474
I2
sS'species'
p1475
I3
sS'ceremony'
p1476
I1
sS'damage'
p1477
I1
sS'write'
p1478
I3
sS'sword'
p1479
I1
sS'creature'
p1480
I3
sS'fare'
p1481
I1
sS'plant'
p1482
I4
sS'cocktail'
p1483
I2
sS'clone'
p1484
I1
sS'rites'
p1485
I1
sS'accessory'
p1486
I1
sS'conjugations'
p1487
I1
sS'blood'
p1488
I2
sS'philatelist'
p1489
I1
sS'softball'
p1490
I1
sS'date'
p1491
I1
sS'eighth'
p1492
I1
sS'types'
p1493
I4
sS'man'
p1494
I3
sS'noun'
p1495
I1
sS'commodity'
p1496
I2
sS'liner'
p1497
I2
sS'element'
p1498
I3
sS'tale'
p1499
I2
sS'writ'
p1500
I1
sS'keeps'
p1501
I1
sS'alloy'
p1502
I1
sS'swimming'
p1503
I2
sS'playing'
p1504
I1
sS'wine'
p1505
I1
sS'no.'
p1506
I1
sS'words'
p1507
I5
sS'producer'
p1508
I1
sS'produces'
p1509
I1
sS'move'
p1510
I1
sS'mission'
p1511
I1
sS'meter'
p1512
I2
sS'trade'
p1513
I1
sS'paper'
p1514
I1
sS'motorcycle'
p1515
I1
sS'oven'
p1516
I1
sS'signs'
p1517
I1
sS'birds'
p1518
I2
sS'limelight'
p1519
I1
sS'group'
p1520
I1
sS'handheld'
p1521
I1
sS'forms'
p1522
I1
sS'civil'
p1523
I1
sS'distinguishing'
p1524
I1
sS'constitutes'
p1525
I1
sS'travelling'
p1526
I1
sS'holiday'
p1527
I1
sS'diseases'
p1528
I1
sS'food'
p1529
I7
sS'auto'
p1530
I1
sS'killer'
p1531
I1
sS'therapy'
p1532
I1
sS'snake'
p1533
I1
sS'resource'
p1534
I1
sS'bread'
p1535
I1
sS'articles'
p1536
I2
sS'term'
p1537
I19
sS'name'
p1538
I70
sS'opera'
p1539
I2
sS'potatoes'
p1540
I1
sS'policeman'
p1541
I1
sS'events'
p1542
I4
sS'crops'
p1543
I1
sS'predators'
p1544
I1
sS'side'
p1545
I2
sS'bone'
p1546
I1
sS'mean'
p1547
I1
sS'week'
p1548
I1
sS'constipation'
p1549
I1
sS'generation'
p1550
I1
sS'series'
p1551
I3
sS'spider'
p1552
I1
sS'fires'
p1553
I1
sS'ball'
p1554
I1
sS'year'
p1555
I1
sS'aids'
p1556
I1
sS'event'
p1557
I1
sS'album'
p1558
I1
sS'gangland'
p1559
I1
sS'space'
p1560
I1
sS'four-player'
p1561
I1
sS'vessels'
p1562
I1
sS'research'
p1563
I1
sS'wolverine'
p1564
I1
sS'medicine'
p1565
I2
sS'formula'
p1566
I2
sS'correct'
p1567
I2
sS'achievements'
p1568
I1
sS'maneuver'
p1569
I1
sS'monster'
p1570
I1
sS'city'
p1571
I1
sS'delicacy'
p1572
I1
sS'seventh'
p1573
I1
sS'horse'
p1574
I2
sS'approaches'
p1575
I1
sS'put'
p1576
I1
sS'holidays'
p1577
I2
sS'card'
p1578
I7
sS'care'
p1579
I1
sS'language'
p1580
I9
sS'deck'
p1581
I1
sS'starts'
p1582
I1
sS'times'
p1583
I1
sS'counterpart'
p1584
I2
sS'thing'
p1585
I3
sS'tennis'
p1586
I2
sS'sentence'
p1587
I1
sS'hearing'
p1588
I1
sS'feet'
p1589
I1
sS'defects'
p1590
I1
sS'overalls'
p1591
I1
sS'millions'
p1592
I1
sS'razor'
p1593
I1
sS'story'
p1594
I1
sS'toy'
p1595
I1
sS'silent'
p1596
I1
sS'automobile'
p1597
I1
sS'system'
p1598
I3
sS'fiction'
p1599
I1
sS'paint'
p1600
I1
sS'corpus'
p1601
I1
sS'syrup'
p1602
I1
sS'dogs'
p1603
I1
sS'eyes'
p1604
I1
sS'murder'
p1605
I1
sS'stomach'
p1606
I1
sS'way'
p1607
I7
sS'chemicals'
p1608
I3
sS'part'
p1609
I5
sS'cereal'
p1610
I2
sS'translation'
p1611
I1
sS'flowers'
p1612
I1
sS'steel'
p1613
I1
sS'distance'
p1614
I1
sS'television'
p1615
I2
sS'domestica'
p1616
I1
sS'invention'
p1617
I1
sS'marriage'
p1618
I1
sS'cards'
p1619
I2
sS'feeling'
p1620
I1
sS'sculpture'
p1621
I2
sS'fowl'
p1622
I1
sS'modern'
p1623
I1
sS'ages'
p1624
I1
sS'mine'
p1625
I1
sS'pedometer'
p1626
I1
sS'tastes'
p1627
I1
sS'shrubs'
p1628
I1
sS'breakfast'
p1629
I1
sS'contact'
p1630
I1
sS'chess'
p1631
I1
sS'chiropodist'
p1632
I1
sS'divers'
p1633
I1
sS'play'
p1634
I4
sS'object'
p1635
I1
sS'cigarette'
p1636
I2
sS'letter'
p1637
I6
sS'exercises'
p1638
I1
sS'coin'
p1639
I1
sS'class'
p1640
I2
sS'synonym'
p1641
I1
sS'disease'
p1642
I10
sS'order'
p1643
I1
sS'flog'
p1644
I1
sS'dot'
p1645
I1
sS'bomb'
p1646
I1
sS'phenomenon'
p1647
I2
sS'gold'
p1648
I1
sS'tequila'
p1649
I1
sS'queen'
p1650
I1
sS'recipe'
p1651
I2
sS'colors'
p1652
I7
sS'radio'
p1653
I2
sS'laments'
p1654
I1
sS'chicken'
p1655
I1
sS'albums'
p1656
I1
sS'snack'
p1657
I1
sS'dice'
p1658
I1
sS'gulf'
p1659
I1
sS'title'
p1660
I1
sS'ruin'
p1661
I1
sS'winner'
p1662
I1
sS'penalty'
p1663
I1
sS'theme'
p1664
I2
sS'molecules'
p1665
I1
sS'fuel'
p1666
I2
sS'get'
p1667
I1
sS'kind'
p1668
I40
sS'bear'
p1669
I1
sS'da'
p1670
I1
sS'longest'
p1671
I1
sS'joins'
p1672
I1
sS'determines'
p1673
I1
sS'bar'
p1674
I1
sS'encounters'
p1675
I1
sS'saliva'
p1676
I1
sS'method'
p1677
I2
sS'penguins'
p1678
I1
sS'abolitionists'
p1679
I1
sS'corgi'
p1680
I1
sS'orca'
p1681
I1
sS'hairy'
p1682
I1
sS'disaster'
p1683
I1
sS'ancients'
p1684
I1
sS'humans'
p1685
I1
sS'sex'
p1686
I2
sS'computer'
p1687
I5
sS'seal'
p1688
I1
sS'sport'
p1689
I18
sS'draws'
p1690
I1
sS'ways'
p1691
I6
sS'movie'
p1692
I18
sS'exchange'
p1693
I1
sS'state'
p1694
I3
sS'gemstone'
p1695
I1
sS'ends'
p1696
I1
sS'ability'
p1697
I1
sS'incident'
p1698
I1
sS'wear'
p1699
I2
sS'come'
p1700
I1
sS'piece'
p1701
I2
sS'drug'
p1702
I3
sS'connection'
p1703
I1
sS'games'
p1704
I1
sS'berry'
p1705
I1
sS'faces'
p1706
I1
sS'witch'
p1707
I1
sS'heliologist'
p1708
I1
sS'statues'
p1709
I1
sS'cancer'
p1710
I2
sS'color'
p1711
I30
sS'period'
p1712
I1
sS'vessel'
p1713
I1
sS'poll'
p1714
I1
sS'belt'
p1715
I1
sS'quit'
p1716
I1
sS'cream'
p1717
I1
sS'instrument'
p1718
I7
sS'west'
p1719
I1
sS'trademark'
p1720
I2
sS'submarine'
p1721
I1
sS'beer'
p1722
I4
sS'treat'
p1723
I1
sS'poet'
p1724
I1
sS'incompetent'
p1725
I1
sS'board'
p1726
I1
sS'cyclist'
p1727
I1
sS'dialogue'
p1728
I1
sS'senses'
p1729
I1
sS'flight'
p1730
I1
sS'tiger'
p1731
I1
sS'craft'
p1732
I1
sS'lives'
p1733
I1
sS'folklore'
p1734
I1
sS'extant'
p1735
I1
sS'ravens'
p1736
I1
sS'sound'
p1737
I1
sS'novel'
p1738
I24
sS'gland'
p1739
I1
sS'frozen'
p1740
I1
sS'originate'
p1741
I1
sS'cash'
p1742
I1
sS'irate'
p1743
I1
sS'droppings'
p1744
I1
sS'newspaper'
p1745
I3
sS'procedure'
p1746
I1
sS'layer'
p1747
I1
sS'prayer'
p1748
I1
sS'player'
p1749
I1
sS'full-length'
p1750
I1
sS'haboob'
p1751
I1
sS'perform'
p1752
I1
sS'alphabet'
p1753
I3
sS'bowl'
p1754
I1
sS'member'
p1755
I1
sS'document'
p1756
I1
sS'composition'
p1757
I1
sS'wheel'
p1758
I1
sS'oil'
p1759
I1
sS'drink'
p1760
I14
sS'hand'
p1761
I2
sS'fruit'
p1762
I1
sS'vowel'
p1763
I2
sS'whale'
p1764
I1
sS'nickname'
p1765
I1
sS'cartoon'
p1766
I1
sS'tune'
p1767
I1
sS'kid'
p1768
I1
sS'peacocks'
p1769
I1
sS'variety'
p1770
I1
sS'materials'
p1771
I1
sS'chronicles'
p1772
I1
sS'components'
p1773
I1
sS'twirl'
p1774
I1
sS'deltiologist'
p1775
I1
sS'advertises'
p1776
I1
sS'plagues'
p1777
I1
sS'livestock'
p1778
I1
sS'camel'
p1779
I1
sS'money'
p1780
I3
sS'product'
p1781
I11
sS'shape'
p1782
I2
sS'fishing'
p1783
I1
sS'flavor'
p1784
I1
sS'adding'
p1785
I1
sS'death'
p1786
I1
sS'campaign'
p1787
I1
sS'alternate'
p1788
I1
sS'character'
p1789
I1
sS'source'
p1790
I1
sS'slits'
p1791
I1
sS'treatment'
p1792
I1
sS'crack'
p1793
I1
sS'grow'
p1794
I1
sS'tenses'
p1795
I1
sS'sailors'
p1796
I1
sS'bid'
p1797
I1
sS'game'
p1798
I8
sS'birth'
p1799
I1
sS'world'
p1800
I6
sS'wings'
p1801
I1
sS'insert'
p1802
I1
sS'nutrients'
p1803
I1
sS'soap'
p1804
I2
sS'communications'
p1805
I1
sS'eidologist'
p1806
I1
sS'clay'
p1807
I1
sS'become'
p1808
I1
sS'wonders'
p1809
I1
sS'vats'
p1810
I1
sS'pyramid-builders'
p1811
I1
sS'methods'
p1812
I1
sS'people'
p1813
I5
sS'begin'
p1814
I1
sS'competition'
p1815
I2
sS'hair'
p1816
I1
sS'brontosauruses'
p1817
I1
sS'scale'
p1818
I1
sS'lead'
p1819
I1
sS'singing'
p1820
I2
sS'hurricane'
p1821
I1
sS'ice'
p1822
I1
sS'religion'
p1823
I2
sS'anti-aids'
p1824
I1
sS'espionage'
p1825
I1
sS'thighs'
p1826
I1
sS'measures'
p1827
I1
sS'rum'
p1828
I2
sS'equivalent'
p1829
I1
sS'lose'
p1830
I1
sS'post'
p1831
I1
sS'refers'
p1832
I1
sS'vaccine'
p1833
I1
sS'trophy'
p1834
I1
sS'sister'
p1835
I1
sS'resurrectionist'
p1836
I1
sS'concerts'
p1837
I1
sS'carries'
p1838
I1
sS'camels'
p1839
I1
sS'ox'
p1840
I1
sS'emperor'
p1841
I1
sS'hocks'
p1842
I1
sS'software'
p1843
I1
sS'letters'
p1844
I1
sS'facility'
p1845
I1
sS'owe'
p1846
I1
sS'litmus'
p1847
I1
sS'device'
p1848
I2
sS'strip'
p1849
I3
sS'ailment'
p1850
I1
sS'vegetables'
p1851
I1
sS'flying'
p1852
I1
sS'secret'
p1853
I1
sS'indoor'
p1854
I1
sS'cats'
p1855
I1
sS'stars'
p1856
I1
sS'suit'
p1857
I1
sS'breeding'
p1858
I1
sS'war'
p1859
I11
sS'opens'
p1860
I1
sS'medium'
p1861
I3
sS'amateur'
p1862
I1
sS'form'
p1863
I3
sS'brand'
p1864
I6
sS'sequel'
p1865
I3
sS'vichyssoise'
p1866
I1
sS'principles'
p1867
I1
sS'needles'
p1868
I1
sS'line'
p1869
I4
sS'eat'
p1870
I2
sS'spice'
p1871
I1
sS'manatees'
p1872
I1
sS'middle'
p1873
I1
sS'consist'
p1874
I1
sS'devices'
p1875
I1
sS'books'
p1876
I1
sS'stories'
p1877
I1
sS'zodiac'
p1878
I1
sS'stages'
p1879
I1
sS'condiment'
p1880
I2
sS'taste'
p1881
I2
sS'strips'
p1882
I1
sS'dog'
p1883
I3
sS'utensils'
p1884
I1
sS'walks'
p1885
I1
sS'ship'
p1886
I2
sS'education'
p1887
I1
sS'film'
p1888
I25
sS'garment'
p1889
I1
sS'ingredients'
p1890
I1
sS'trials'
p1891
I3
sS'flora'
p1892
I1
sS'actor'
p1893
I1
sS'snakes'
p1894
I1
sS'book'
p1895
I21
sS'boom'
p1896
I1
sS'boob'
p1897
I1
sS'elements'
p1898
I4
sS'kinds'
p1899
I2
sS'symbol'
p1900
I3
sS'football'
p1901
I1
sS'lens'
p1902
I1
sS'chairbound'
p1903
I1
sS'structure'
p1904
I1
sS'age'
p1905
I1
sS'vehicles'
p1906
I1
sS'fastener'
p1907
I1
sS'came'
p1908
I1
sS'time'
p1909
I2
sS'menace'
p1910
I1
sS'requires'
p1911
I1
sS'songs'
p1912
I2
stp1913
Rp1914
(dp1915
g25
I1250
sg75
Nsg76
Nsg77
Nsbsg78
I1449
sg79
F1974.5
sbs(g12
g18
tp1916
g0
(g20
g2
Ntp1917
Rp1918
(dp1919
g24
F0.5
sg25
I218
sg26
g0
(g27
g28
(dp1920
g30
I35
sS'ambassador'
p1921
I1
sS'show'
p1922
I1
sS'royal'
p1923
I1
sS'revolutionaries'
p1924
I1
sS'period'
p1925
I1
sS'month'
p1926
I6
sS'battle'
p1927
I1
sS'www.questions.com'
p1928
I1
sS'use'
p1929
I1
sS'group'
p1930
I1
sS'troops'
p1931
I1
sS'start'
p1932
I2
sS'visit'
p1933
I1
sS'live'
p1934
I1
sS'labor'
p1935
I1
sS'paint'
p1936
I1
sS'attack'
p1937
I1
sS'music'
p1938
I1
sS'teenager'
p1939
I1
sS'mutiny'
p1940
I1
sS'woman'
p1941
I1
sS'get'
p1942
I2
sS'fire'
p1943
I2
sS'season'
p1944
I3
sS'company'
p1945
I1
sS'broadcast'
p1946
I2
sS'glass'
p1947
I1
sS'railroad'
p1948
I1
sS'believe'
p1949
I1
sS'day'
p1950
I9
sS'women'
p1951
I1
sS'steel'
p1952
I1
sS'die'
p1953
I1
sS'air'
p1954
I2
sS'heart'
p1955
I1
sS'erupt'
p1956
I1
sS'become'
p1957
I3
sS'supercontinent'
p1958
I1
sS'control'
p1959
I1
sS'menstruation'
p1960
I1
sS'art'
p1961
I2
sS'concert'
p1962
I1
sS'century'
p1963
I3
sS'house'
p1964
I1
sS'year'
p1965
I44
sS'humans'
p1966
I1
sS'direct'
p1967
I1
sS'mormons'
p1968
I1
sS'born'
p1969
I9
sS'flush'
p1970
I1
sS'film'
p1971
I1
sS'neanderthal'
p1972
I1
sS'end'
p1973
I2
sS'camcorders'
p1974
I1
sS'publish'
p1975
I1
sS'write'
p1976
I1
sS'flood'
p1977
I1
sS'millennium'
p1978
I1
sS'test'
p1979
I1
sS'gate'
p1980
I1
sS'leader'
p1981
I1
sS'begin'
p1982
I3
sS'power'
p1983
I1
sS'eruption'
p1984
I3
sS'commercial'
p1985
I1
sS'combustion'
p1986
I1
sS'shorn'
p1987
I1
sS'date'
p1988
I13
sS'seasons'
p1989
I1
sS'come'
p1990
I1
sS'winter'
p1991
I2
sS'dates'
p1992
I1
sS'accident'
p1993
I1
sS'stricken'
p1994
I1
sS'birthday'
p1995
I4
sS'encyclopedia'
p1996
I1
sS'advertising'
p1997
I1
sS'time'
p1998
I6
sS'built'
p1999
I1
sS'painting'
p2000
I1
sS'vesuvius'
p2001
I1
stp2002
Rp2003
(dp2004
g25
I218
sg75
Nsg76
Nsg77
Nsbsg78
I1449
sg79
F942.5
sbs(g15
g80
tp2005
g0
(g20
g2
Ntp2006
Rp2007
(dp2008
g24
F0.5
sg25
I27
sg26
g0
(g27
g28
(dp2009
S'of'
p2010
I1
sS'what'
p2011
I25
sS'independent'
p2012
I1
stp2013
Rp2014
(dp2015
g25
I27
sg75
Nsg76
Nsg77
Nsbsg78
I48
sg79
F51.0
sbs(g12
g80
tp2016
g0
(g20
g2
Ntp2017
Rp2018
(dp2019
g24
F0.5
sg25
I218
sg26
g0
(g27
g28
(dp2020
S'on'
p2021
I4
sS'what'
p2022
I63
sS'boxing'
p2023
I1
sS'when'
p2024
I124
sS'in'
p2025
I20
sS'cnn'
p2026
I2
sS'the'
p2027
I3
sS'hitler'
p2028
I1
stp2029
Rp2030
(dp2031
g25
I218
sg75
Nsg76
Nsg77
Nsbsg78
I48
sg79
F242.0
sbs(g13
g114
tp2032
g0
(g20
g2
Ntp2033
Rp2034
(dp2035
g24
F0.5
sg25
I75
sg26
g0
(g27
g28
(dp2036
g30
I58
sS'expectancy'
p2037
I3
sS'span'
p2038
I1
sS'office'
p2039
I1
sS'time'
p2040
I4
sS'age'
p2041
I7
sS'period'
p2042
I1
stp2043
Rp2044
(dp2045
g25
I75
sg75
Nsg76
Nsg77
Nsbsg78
I1487
sg79
F818.5
sbs(g9
g114
tp2046
g0
(g20
g2
Ntp2047
Rp2048
(dp2049
g24
F0.5
sg25
I1223
sg26
g0
(g27
g28
(dp2050
g30
I132
sS'colleges'
p2051
I1
sS'coach'
p2052
I3
sS'founder'
p2053
I1
sS'ali'
p2054
I1
sS'themes'
p2055
I1
sS'manager'
p2056
I2
sS'battle'
p2057
I1
sS'chair'
p2058
I1
sS'captain'
p2059
I1
sS'children'
p2060
I1
sS'chain'
p2061
I2
sS'electricity'
p2062
I1
sS'jolson'
p2063
I1
sS'father'
p2064
I7
sS'crooner'
p2065
I1
sS'pride'
p2066
I1
sS'stonehenge'
p2067
I1
sS'woman'
p2068
I10
sS'song'
p2069
I2
sS'spumante'
p2070
I1
sS'railways'
p2071
I1
sS'sons'
p2072
I1
sS'diary'
p2073
I1
sS'surgeon'
p2074
I1
sS'tutu'
p2075
I2
sS'chapel'
p2076
I1
sS'school'
p2077
I5
sS'prize'
p2078
I1
sS'positions'
p2079
I1
sS'celebrity'
p2080
I1
sS'macdowell'
p2081
I1
sS'companies'
p2082
I2
sS'brother'
p2083
I2
sS'grandfather'
p2084
I1
sS'team'
p2085
I10
sS'radio'
p2086
I3
sS'guy'
p2087
I1
sS'astronaut'
p2088
I3
sS'athlete'
p2089
I1
sS'kemper'
p2090
I1
sS'malick'
p2091
I1
sS'force'
p2092
I2
sS'leaders'
p2093
I1
sS'maggio'
p2094
I1
sS'wrestling'
p2095
I1
sS'video'
p2096
I2
sS'lawyer'
p2097
I8
sS'nba'
p2098
I1
sS'monster'
p2099
I1
sS'golfer'
p2100
I3
sS'business'
p2101
I4
sS'journalist'
p2102
I1
sS'new'
p2103
I1
sS'badge'
p2104
I1
sS'admiral'
p2105
I1
sS'hero'
p2106
I1
sS'funeral'
p2107
I1
sS'theresa'
p2108
I1
sS'ranger'
p2109
I2
sS'dubliners'
p2110
I1
sS'baseball'
p2111
I10
sS'pub'
p2112
I1
sS'groups'
p2113
I1
sS'isps'
p2114
I1
sS'benson'
p2115
I1
sS'bible'
p2116
I1
sS'daughter'
p2117
I2
sS'survivor'
p2118
I1
sS'jinnah'
p2119
I1
sS'tv'
p2120
I8
sS'mentor'
p2121
I2
sS'residents'
p2122
I1
sS'patents'
p2123
I1
sS'holmes'
p2124
I1
sS'members'
p2125
I1
sS'presidents'
p2126
I2
sS'county'
p2127
I1
sS'names'
p2128
I11
sS'composer'
p2129
I3
sS'singing'
p2130
I3
sS'bra'
p2131
I1
sS'lime'
p2132
I1
sS'dna'
p2133
I1
sS'army'
p2134
I1
sS'wonderbra'
p2135
I1
sS'music'
p2136
I1
sS'butler'
p2137
I1
sS'angels'
p2138
I1
sS'faith'
p2139
I1
sS'tootsie'
p2140
I1
sS'company'
p2141
I24
sS'award'
p2142
I2
sS'chocolate'
p2143
I1
sS'stethoscope'
p2144
I1
sS'baby'
p2145
I1
sS'antichrist'
p2146
I1
sS'iii'
p2147
I1
sS'women'
p2148
I1
sS'word'
p2149
I1
sS'room'
p2150
I1
sS'rights'
p2151
I1
sS'barroom'
p2152
I1
sS'confucius'
p2153
I1
sS'worm'
p2154
I1
sS'morgan'
p2155
I1
sS'goodall'
p2156
I1
sS'example'
p2157
I1
sS'nino'
p2158
I1
sS'spy'
p2159
I2
sS'boyfriend'
p2160
I1
sS'performer'
p2161
I1
sS'figure'
p2162
I1
sS'hyatt'
p2163
I1
sS'process'
p2164
I1
sS'frickett'
p2165
I1
sS'villain'
p2166
I2
sS'numbers'
p2167
I1
sS'airplane'
p2168
I2
sS'voice'
p2169
I1
sS'freleng'
p2170
I1
sS'autobiography'
p2171
I3
sS'court'
p2172
I1
sS'machine'
p2173
I1
sS'writers'
p2174
I1
sS'cardinal'
p2175
I1
sS'skater'
p2176
I1
sS'cyberspace'
p2177
I1
sS'designer'
p2178
I2
sS'cupboard'
p2179
I1
sS'explorer'
p2180
I2
sS'information'
p2181
I1
sS'collection'
p2182
I1
sS'shores'
p2183
I1
sS'terrorist'
p2184
I1
sS'president'
p2185
I50
sS'lap'
p2186
I1
sS'man'
p2187
I6
sS'muppets'
p2188
I2
sS'doctor'
p2189
I3
sS'volleyball'
p2190
I1
sS'nebbish'
p2191
I1
sS'lindbergh'
p2192
I1
sS'order'
p2193
I1
sS'photoshop'
p2194
I1
sS'no.'
p2195
I1
sS'mutiny'
p2196
I1
sS'producer'
p2197
I3
sS'dumpty'
p2198
I2
sS'costume'
p2199
I1
sS'oswald'
p2200
I2
sS'mayor'
p2201
I4
sS'bunch'
p2202
I1
sS'self-portrait'
p2203
I1
sS'group'
p2204
I9
sS'shortstop'
p2205
I1
sS'ticker'
p2206
I1
sS'pines'
p2207
I1
sS'winners'
p2208
I1
sS'dwarfs'
p2209
I1
sS'gymnast'
p2210
I1
sS'founders'
p2211
I1
sS'speech'
p2212
I1
sS'norway'
p2213
I1
sS'fool'
p2214
I1
sS'hunter'
p2215
I2
sS'band'
p2216
I1
sS'party'
p2217
I3
sS'schools'
p2218
I1
sS'cage'
p2219
I1
sS'day'
p2220
I1
sS'd.a.'
p2221
I1
sS'mystery'
p2222
I1
sS'attorneys'
p2223
I1
sS'name'
p2224
I79
sS'mathematician'
p2225
I1
sS'university'
p2226
I5
sS'editor'
p2227
I3
sS'lawnmower'
p2228
I1
sS'paganini'
p2229
I1
sS'normans'
p2230
I1
sS'series'
p2231
I1
sS'kane'
p2232
I1
sS'hawaii'
p2233
I1
sS'society'
p2234
I1
sS'logo'
p2235
I1
sS'girl'
p2236
I1
sS'salesman'
p2237
I1
sS'message'
p2238
I1
sS'witness'
p2239
I1
sS'bacall'
p2240
I1
sS'network'
p2241
I1
sS'god'
p2242
I2
sS'horoscope'
p2243
I1
sS'opener'
p2244
I1
sS'fountain'
p2245
I1
sS'foundation'
p2246
I1
sS'theory'
p2247
I1
sS'barrier'
p2248
I1
sS'credit'
p2249
I1
sS'dracula'
p2250
I1
sS'hulk'
p2251
I1
sS'bulls'
p2252
I1
sS'darius'
p2253
I1
sS'putty'
p2254
I1
sS'plea'
p2255
I1
sS'explorers'
p2256
I1
sS'card'
p2257
I1
sS'revolutionary'
p2258
I1
sS'director'
p2259
I5
sS'hamed'
p2260
I1
sS'prophet'
p2261
I5
sS'florida'
p2262
I1
sS'david'
p2263
I1
sS'american'
p2264
I2
sS'gordon'
p2265
I1
sS'playwright'
p2266
I1
sS'superbowl'
p2267
I1
sS'fischer'
p2268
I1
sS'damocles'
p2269
I1
sS'primary'
p2270
I1
sS'feet'
p2271
I1
sS'sailor'
p2272
I1
sS'ybarra'
p2273
I1
sS'owner'
p2274
I1
sS'comic'
p2275
I1
sS'engineer'
p2276
I2
sS'corporal'
p2277
I1
sS'story'
p2278
I2
sS'toy'
p2279
I1
sS'lacan'
p2280
I1
sS'eriksen'
p2281
I1
sS'service'
p2282
I1
sS'automobile'
p2283
I1
sS'vocalist'
p2284
I1
sS'carson'
p2285
I1
sS'master'
p2286
I1
sS'sergeant'
p2287
I1
sS'store'
p2288
I3
sS'beard'
p2289
I1
sS'eyes'
p2290
I1
sS'labianca'
p2291
I1
sS'airwaves'
p2292
I1
sS'circumnavigator'
p2293
I1
sS'part'
p2294
I3
sS'jordan'
p2295
I1
sS'mules'
p2296
I1
sS'inventor'
p2297
I2
sS'charcter'
p2298
I1
sS'king'
p2299
I12
sS'television'
p2300
I1
sS'ben'
p2301
I1
sS'listeners'
p2302
I1
sS'architect'
p2303
I2
sS'friend'
p2304
I1
sS'prankster'
p2305
I1
sS'bridge'
p2306
I1
sS'surname'
p2307
I1
sS'clip'
p2308
I1
sS'astaire'
p2309
I1
sS'premier'
p2310
I1
sS'voices'
p2311
I1
sS'talking'
p2312
I1
sS'garfield'
p2313
I1
sS'comedian'
p2314
I9
sS'car'
p2315
I1
sS'realm'
p2316
I1
sS'cherokee'
p2317
I1
sS'steamboat'
p2318
I1
sS'parks'
p2319
I1
sS'caesar'
p2320
I2
sS'chairman'
p2321
I2
sS'forces'
p2322
I1
sS'president-to-be'
p2323
I1
sS'panties'
p2324
I1
sS'medals'
p2325
I1
sS'godfather'
p2326
I1
sS'phonograph'
p2327
I1
sS'cigarette'
p2328
I1
sS'swampy'
p2329
I1
sS'letter'
p2330
I1
sS'organization'
p2331
I7
sS'nothing'
p2332
I1
sS'ishmael'
p2333
I1
sS'dummy'
p2334
I1
sS'singer'
p2335
I5
sS'rogers'
p2336
I1
sS'duckling'
p2337
I1
sS'cover'
p2338
I1
sS'dog'
p2339
I1
sS'enterprise'
p2340
I1
sS'detective'
p2341
I1
sS'pope'
p2342
I2
sS'queen'
p2343
I3
sS'hamlet'
p2344
I1
sS'businesses'
p2345
I1
sS'finn'
p2346
I1
sS'nephew'
p2347
I1
sS'debate'
p2348
I1
sS'occupation'
p2349
I5
sS'witch'
p2350
I1
sS'title'
p2351
I4
sS'writer'
p2352
I5
sS'buxom'
p2353
I1
sS'viagra'
p2354
I1
sS'hockey'
p2355
I2
sS'money'
p2356
I1
sS'piano'
p2357
I1
sS'bernstein'
p2358
I1
sS'hit'
p2359
I1
sS'renaud'
p2360
I1
sS'tammy'
p2361
I1
sS'gogh'
p2362
I1
sS'abby'
p2363
I1
sS'collector'
p2364
I1
sS'bestselling'
p2365
I1
sS'airman'
p2366
I1
sS'artist'
p2367
I2
sS'fields'
p2368
I1
sS'husband'
p2369
I1
sS'secretary'
p2370
I2
sS'cohan'
p2371
I1
sS'creator'
p2372
I2
sS'nun'
p2373
I1
sS'culture'
p2374
I1
sS'lion'
p2375
I1
sS'college'
p2376
I10
sS'laureate'
p2377
I1
sS'genius'
p2378
I1
sS'fans'
p2379
I1
sS'bureau'
p2380
I1
sS'finger'
p2381
I1
sS'advertizing'
p2382
I1
sS'astroturf'
p2383
I1
sS'agencies'
p2384
I1
sS'boss'
p2385
I1
sS'guitar'
p2386
I1
sS'job'
p2387
I3
sS'conservationist'
p2388
I1
sS'police'
p2389
I2
sS'motto'
p2390
I1
sS'jfk'
p2391
I1
sS'horsemen'
p2392
I1
sS'superstar'
p2393
I1
sS'career'
p2394
I1
sS'challengers'
p2395
I1
sS'feminist'
p2396
I1
sS'monk'
p2397
I1
sS'thor'
p2398
I1
sS'players'
p2399
I1
sS'games'
p2400
I1
sS'napolean'
p2401
I1
sS'andrews'
p2402
I1
sS'opposition'
p2403
I1
sS'maclaine'
p2404
I1
sS'battery'
p2405
I1
sS'lyricist'
p2406
I1
sS'colony'
p2407
I1
sS'seizure'
p2408
I1
sS'mccain'
p2409
I1
sS'church'
p2410
I1
sS'table'
p2411
I1
sS'boat'
p2412
I1
sS'turkey'
p2413
I1
sS'poem'
p2414
I1
sS'nominee'
p2415
I1
sS'swimmer'
p2416
I1
sS'trademark'
p2417
I1
sS'newscast'
p2418
I1
sS'dictator'
p2419
I3
sS'hawking'
p2420
I1
sS'make-up'
p2421
I1
sS'poet'
p2422
I6
sS'nicolet'
p2423
I1
sS'naples'
p2424
I1
sS'engine'
p2425
I1
sS'life'
p2426
I2
sS'deodorant'
p2427
I1
sS'champion'
p2428
I1
sS'cobain'
p2429
I1
sS'league'
p2430
I3
sS'unsafe'
p2431
I1
sS'personas'
p2432
I1
sS'races'
p2433
I1
sS'minister'
p2434
I7
sS'child'
p2435
I2
sS'fellow'
p2436
I1
sS'painter'
p2437
I4
sS'quotation'
p2438
I1
sS'physician'
p2439
I1
sS'hughes'
p2440
I1
sS'look'
p2441
I1
sS'bill'
p2442
I1
sS'governor'
p2443
I3
sS'stalin'
p2444
I1
sS'thrillers'
p2445
I1
sS'santos-dumont'
p2446
I1
sS'potlatch'
p2447
I1
sS'pyramid'
p2448
I2
sS'resident'
p2449
I1
sS'commander'
p2450
I1
sS'player'
p2451
I1
sS'cone'
p2452
I1
sS'partner'
p2453
I1
sS'rams'
p2454
I1
sS'williams'
p2455
I2
sS'soldier'
p2456
I1
sS'wordsworth'
p2457
I1
sS'administration'
p2458
I1
sS'liston'
p2459
I1
sS'member'
p2460
I4
sS'picts'
p2461
I1
sS'strange'
p2462
I1
sS'speaker'
p2463
I1
sS'monarch'
p2464
I2
sS'powell'
p2465
I1
sS'daughters'
p2466
I1
sS'inventors'
p2467
I1
sS'commune'
p2468
I1
sS'oil'
p2469
I1
sS'appearances'
p2470
I1
sS'youngsters'
p2471
I1
sS'husbands'
p2472
I1
sS'characters'
p2473
I1
sS'senator'
p2474
I2
sS'nickname'
p2475
I8
sS'cartoon'
p2476
I2
sS'identity'
p2477
I3
sS'kid'
p2478
I2
sS'rommel'
p2479
I1
sS'task'
p2480
I1
sS'surfboard'
p2481
I1
sS'vice-president'
p2482
I3
sS'antonio'
p2483
I1
sS'person'
p2484
I9
sS'mother'
p2485
I4
sS'genie'
p2486
I1
sS'model'
p2487
I1
sS'ambassador'
p2488
I1
sS'agency'
p2489
I1
sS'monet'
p2490
I1
sS'khrushchev'
p2491
I1
sS'actress'
p2492
I13
sS'dose'
p2493
I1
sS'palpatine'
p2494
I1
sS'batteries'
p2495
I1
sS'harrison'
p2496
I1
sS'world'
p2497
I1
sS'death'
p2498
I1
sS'pendulum'
p2499
I1
sS'cup'
p2500
I1
sS'rose'
p2501
I1
sS'character'
p2502
I13
sS'pickering'
p2503
I2
sS'teenager'
p2504
I1
sS'citizen'
p2505
I3
sS'basketball'
p2506
I3
sS'scoundrel'
p2507
I1
sS'gestapo'
p2508
I1
sS'government'
p2509
I1
sS'couple'
p2510
I1
sS'advocate'
p2511
I1
sS'game'
p2512
I2
sS'boxer'
p2513
I2
sS'thucydides'
p2514
I1
sS'press'
p2515
I1
sS'picasso'
p2516
I1
sS'lady'
p2517
I1
sS'cinzano'
p2518
I1
sS'martyrs'
p2519
I1
sS'kennedy'
p2520
I1
sS'pillar'
p2521
I1
sS'commanders'
p2522
I1
sS'clown'
p2523
I1
sS'offices'
p2524
I1
sS'officer'
p2525
I1
sS'night'
p2526
I3
sS'judson'
p2527
I1
sS'x-man'
p2528
I1
sS'fatman'
p2529
I1
sS'www'
p2530
I1
sS'people'
p2531
I5
sS'oscars'
p2532
I2
sS'scrabble'
p2533
I1
sS'archenemy'
p2534
I1
sS'biographer'
p2535
I1
sS'novelist'
p2536
I2
sS'enemies'
p2537
I1
sS'competitor'
p2538
I1
sS'arch-enemy'
p2539
I1
sS'tools'
p2540
I1
sS'civilization'
p2541
I1
sS'cnn'
p2542
I1
sS'leader'
p2543
I14
sS'gandhi'
p2544
I1
sS'power'
p2545
I2
sS'bowling'
p2546
I1
sS'weir'
p2547
I1
sS'host'
p2548
I1
sS'lyrics'
p2549
I1
sS'super'
p2550
I1
sS'vaccine'
p2551
I1
sS'manufacturer'
p2552
I2
sS'pike'
p2553
I1
sS'sister'
p2554
I2
sS'son-in-law'
p2555
I2
sS'cowboy'
p2556
I2
sS'super-teams'
p2557
I1
sS'coronado'
p2558
I1
sS'airline'
p2559
I1
sS'congressman'
p2560
I1
sS'emperor'
p2561
I1
sS'nixon'
p2562
I1
sS'marlowe'
p2563
I1
sS'tribe'
p2564
I2
sS'image'
p2565
I1
sS'profession'
p2566
I4
sS'comedienne'
p2567
I2
sS'auh2o'
p2568
I1
sS'son'
p2569
I3
sS'rosanna-dana'
p2570
I1
sS'weather'
p2571
I1
sS'yankee'
p2572
I1
sS'jockey'
p2573
I2
sS'sculptress'
p2574
I1
sS'tennis'
p2575
I1
sS'question'
p2576
I1
sS'grange'
p2577
I1
sS'synthesizer'
p2578
I1
sS'author'
p2579
I8
sS'way'
p2580
I2
sS'jaws'
p2581
I1
sS'war'
p2582
I2
sS'jones'
p2583
I1
sS'head'
p2584
I2
sS'quetzalcoatl'
p2585
I1
sS'manufacturers'
p2586
I1
sS'prewett'
p2587
I1
sS'pitcher'
p2588
I1
sS'stereo'
p2589
I1
sS'line'
p2590
I1
sS'count'
p2591
I1
sS'rockefeller'
p2592
I1
sS'us'
p2593
I1
sS'record'
p2594
I4
sS'vatican'
p2595
I2
sS'stardust'
p2596
I1
sS'election'
p2597
I1
sS'moore'
p2598
I1
sS'cop'
p2599
I1
sS'toothbrush'
p2600
I1
sS'general'
p2601
I8
sS'laboratory'
p2602
I1
sS'nnp'
p2603
I1
sS'corporation'
p2604
I2
sS'guitarist'
p2605
I1
sS'actor'
p2606
I13
sS'bremer'
p2607
I1
sS'book'
p2608
I1
sS'role'
p2609
I6
sS'department'
p2610
I2
sS'pseudonym'
p2611
I2
sS'star'
p2612
I4
sS'brothers'
p2613
I2
sS'reign'
p2614
I1
sS'brandt'
p2615
I1
sS'ghost'
p2616
I1
sS'studio'
p2617
I1
sS'wife'
p2618
I2
sS'ottawa'
p2619
I1
sS'almanac'
p2620
I1
stp2621
Rp2622
(dp2623
g25
I1223
sg75
Nsg76
Nsg77
Nsbsg78
I1487
sg79
F1966.5
sbs(g8
g114
tp2624
g0
(g20
g2
Ntp2625
Rp2626
(dp2627
g24
F0.5
sg25
I1250
sg26
g0
(g27
g28
(dp2628
g30
I158
sS'lack'
p2629
I1
sS'four'
p2630
I1
sS'crocodile'
p2631
I1
sS'gang'
p2632
I1
sS'skin'
p2633
I1
sS'dish'
p2634
I1
sS'bomb'
p2635
I1
sS'children'
p2636
I1
sS'simon'
p2637
I1
sS'baseball'
p2638
I1
sS'tv'
p2639
I14
sS'technique'
p2640
I2
sS'languages'
p2641
I3
sS'fingernails'
p2642
I1
sS'tail'
p2643
I1
sS'program'
p2644
I3
sS'terror'
p2645
I1
sS'ingredient'
p2646
I1
sS'plants'
p2647
I2
sS'woman'
p2648
I1
sS'song'
p2649
I6
sS'translations'
p2650
I1
sS'jeroboams'
p2651
I1
sS'jack'
p2652
I1
sS'word'
p2653
I17
sS'magic'
p2654
I1
sS'prize'
p2655
I1
sS'level'
p2656
I1
sS'crops'
p2657
I1
sS'gender'
p2658
I2
sS'notes'
p2659
I1
sS'companies'
p2660
I1
sS'belushi'
p2661
I1
sS'car'
p2662
I3
sS'mammal'
p2663
I3
sS'stingers'
p2664
I1
sS'olympic'
p2665
I1
sS'carter'
p2666
I1
sS'japanese'
p2667
I1
sS'crop'
p2668
I3
sS'sign'
p2669
I3
sS'chef'
p2670
I1
sS'battle'
p2671
I2
sS'titles'
p2672
I1
sS'video'
p2673
I2
sS'hymn'
p2674
I2
sS'constitution'
p2675
I1
sS'clock'
p2676
I1
sS'tarantula'
p2677
I1
sS'net'
p2678
I1
sS'tournaments'
p2679
I1
sS'bird'
p2680
I3
sS'body'
p2681
I1
sS'leg'
p2682
I1
sS'men'
p2683
I1
sS'french'
p2684
I1
sS'dipsomaniac'
p2685
I1
sS'operating'
p2686
I2
sS'yards'
p2687
I1
sS'goldfish'
p2688
I1
sS'tragedy'
p2689
I2
sS'hass'
p2690
I1
sS'luther'
p2691
I1
sS'substance'
p2692
I4
sS'products'
p2693
I3
sS'franklin'
p2694
I1
sS'birthstone'
p2695
I1
sS'otters'
p2696
I1
sS'classification'
p2697
I1
sS'spermologer'
p2698
I1
sS'respirator'
p2699
I1
sS'italians'
p2700
I1
sS'names'
p2701
I3
sS'tools'
p2702
I1
sS'chefs'
p2703
I1
sS'ladybugs'
p2704
I1
sS'indians'
p2705
I1
sS'symphony'
p2706
I1
sS'music'
p2707
I1
sS'films'
p2708
I2
sS'type'
p2709
I1
sS'household'
p2710
I2
sS'ballad'
p2711
I1
sS'sort'
p2712
I1
sS'playboy'
p2713
I1
sS'phobophobe'
p2714
I1
sS'shipwreck'
p2715
I1
sS'club'
p2716
I1
sS'company'
p2717
I1
sS'award'
p2718
I1
sS'glass'
p2719
I1
sS'flag'
p2720
I1
sS'adult'
p2721
I1
sS'rabbit'
p2722
I2
sS'shostakovich'
p2723
I1
sS'mascot'
p2724
I1
sS'balls'
p2725
I1
sS'animals'
p2726
I8
sS'primate'
p2727
I1
sS'science'
p2728
I1
sS'athlete'
p2729
I1
sS'work'
p2730
I1
sS'foods'
p2731
I3
sS'sweeter'
p2732
I1
sS'entertainer'
p2733
I1
sS'seagull'
p2734
I1
sS'example'
p2735
I1
sS'nino'
p2736
I1
sS'chip'
p2737
I1
sS'currency'
p2738
I1
sS'stroke'
p2739
I1
sS'best-seller'
p2740
I1
sS'airplane'
p2741
I2
sS'species'
p2742
I3
sS'damage'
p2743
I1
sS'chemical'
p2744
I1
sS'animal'
p2745
I17
sS'creature'
p2746
I4
sS'gaming'
p2747
I1
sS'plant'
p2748
I4
sS'cocktail'
p2749
I2
sS'singular'
p2750
I1
sS'may'
p2751
I2
sS'clone'
p2752
I1
sS'rites'
p2753
I1
sS'conjugations'
p2754
I1
sS'philatelist'
p2755
I1
sS'softball'
p2756
I1
sS'types'
p2757
I3
sS'man'
p2758
I2
sS'noun'
p2759
I1
sS'liquid'
p2760
I1
sS'liner'
p2761
I1
sS'element'
p2762
I2
sS'tale'
p2763
I1
sS'bakery'
p2764
I1
sS'alloy'
p2765
I1
sS'wine'
p2766
I1
sS'producer'
p2767
I1
sS'move'
p2768
I1
sS'mission'
p2769
I1
sS'meter'
p2770
I2
sS'trade'
p2771
I1
sS'sperm'
p2772
I2
sS'course'
p2773
I1
sS'paper'
p2774
I1
sS'oven'
p2775
I1
sS'signs'
p2776
I1
sS'magoo'
p2777
I1
sS'birds'
p2778
I2
sS'golfing'
p2779
I1
sS'forms'
p2780
I1
sS'holiday'
p2781
I1
sS'diseases'
p2782
I1
sS'food'
p2783
I8
sS'auto'
p2784
I1
sS'killer'
p2785
I1
sS'amendements'
p2786
I1
sS'therapy'
p2787
I1
sS'snake'
p2788
I1
sS'compound'
p2789
I1
sS'satellites'
p2790
I1
sS'clouds'
p2791
I1
sS'day'
p2792
I1
sS'articles'
p2793
I1
sS'term'
p2794
I18
sS'name'
p2795
I75
sS'opera'
p2796
I2
sS'january'
p2797
I1
sS'policeman'
p2798
I1
sS'drake'
p2799
I1
sS'events'
p2800
I3
sS'habits'
p2801
I1
sS'predators'
p2802
I1
sS'side'
p2803
I1
sS'bone'
p2804
I1
sS'wheel'
p2805
I1
sS'ailment'
p2806
I1
sS'generation'
p2807
I1
sS'series'
p2808
I1
sS'fish'
p2809
I1
sS'spider'
p2810
I1
sS'books'
p2811
I1
sS'year'
p2812
I1
sS'aids'
p2813
I1
sS'ribavirin'
p2814
I1
sS'marley'
p2815
I1
sS'event'
p2816
I2
sS'album'
p2817
I1
sS'flower'
p2818
I1
sS'god'
p2819
I1
sS'vessels'
p2820
I2
sS'strokes'
p2821
I1
sS'race'
p2822
I3
sS'medicine'
p2823
I1
sS'formula'
p2824
I3
sS'plural'
p2825
I1
sS'achievements'
p2826
I1
sS'maneuver'
p2827
I1
sS'monster'
p2828
I1
sS'delicacy'
p2829
I1
sS'descendents'
p2830
I1
sS'story'
p2831
I1
sS'approaches'
p2832
I1
sS'basketball'
p2833
I1
sS'cookie'
p2834
I1
sS'hand'
p2835
I1
sS'card'
p2836
I7
sS'soundtrack'
p2837
I1
sS'language'
p2838
I10
sS'garment'
p2839
I1
sS'counterpart'
p2840
I2
sS'thing'
p2841
I3
sS'soda'
p2842
I1
sS'stewart'
p2843
I1
sS'vowel'
p2844
I2
sS'feet'
p2845
I1
sS'owner'
p2846
I1
sS'overalls'
p2847
I1
sS'millions'
p2848
I1
sS'paine'
p2849
I1
sS'razor'
p2850
I1
sS'horse'
p2851
I2
sS'toy'
p2852
I1
sS'automobile'
p2853
I1
sS'system'
p2854
I2
sS'syrup'
p2855
I1
sS'genesis'
p2856
I1
sS'stars'
p2857
I1
sS'chemicals'
p2858
I3
sS'part'
p2859
I4
sS'cereal'
p2860
I4
sS'translation'
p2861
I1
sS'flowers'
p2862
I1
sS'symptom'
p2863
I1
sS'milton'
p2864
I1
sS'kind'
p2865
I3
sS'domestica'
p2866
I1
sS'johnson'
p2867
I1
sS'shampoo'
p2868
I1
sS'dogs'
p2869
I1
sS'invention'
p2870
I1
sS'cards'
p2871
I2
sS'outcome'
p2872
I1
sS'sculpture'
p2873
I2
sS'bridge'
p2874
I1
sS'fowl'
p2875
I1
sS'deodorant'
p2876
I1
sS'ages'
p2877
I1
sS'mine'
p2878
I1
sS'pedometer'
p2879
I1
sS'tastes'
p2880
I1
sS'shrubs'
p2881
I1
sS'spectacle'
p2882
I1
sS'allen'
p2883
I1
sS'handicraft'
p2884
I1
sS'harper'
p2885
I1
sS'chiropodist'
p2886
I1
sS'soap'
p2887
I2
sS'play'
p2888
I4
sS'thrilled'
p2889
I1
sS'object'
p2890
I1
sS'cigarette'
p2891
I2
sS'regular'
p2892
I1
sS'letter'
p2893
I5
sS'exercises'
p2894
I1
sS'coin'
p2895
I1
sS'class'
p2896
I2
sS'synonym'
p2897
I1
sS'cover'
p2898
I1
sS'dog'
p2899
I2
sS'scotch'
p2900
I1
sS'dot'
p2901
I1
sS'charley'
p2902
I1
sS'golf'
p2903
I1
sS'phenomenon'
p2904
I2
sS'show'
p2905
I1
sS'queen'
p2906
I2
sS'recipe'
p2907
I1
sS'colors'
p2908
I7
sS'fear'
p2909
I62
sS'albums'
p2910
I1
sS'livestock'
p2911
I1
sS'resource'
p2912
I1
sS'ruin'
p2913
I1
sS'winner'
p2914
I1
sS'penalty'
p2915
I1
sS'molecules'
p2916
I1
sS'fuel'
p2917
I2
sS'circle'
p2918
I1
sS'hit'
p2919
I1
sS'commodity'
p2920
I1
sS'bear'
p2921
I1
sS'words'
p2922
I4
sS'tips'
p2923
I1
sS'bar'
p2924
I1
sS'organ'
p2925
I1
sS'encounters'
p2926
I1
sS'saliva'
p2927
I1
sS'method'
p2928
I2
sS'penguins'
p2929
I1
sS'roger'
p2930
I1
sS'abolitionists'
p2931
I1
sS'disaster'
p2932
I1
sS'tree'
p2933
I1
sS'farrier'
p2934
I1
sS'ancients'
p2935
I1
sS'humans'
p2936
I1
sS'sex'
p2937
I2
sS'cologne'
p2938
I1
sS'computer'
p2939
I2
sS'seal'
p2940
I1
sS'explosive'
p2941
I1
sS'sport'
p2942
I17
sS'ways'
p2943
I6
sS'movie'
p2944
I17
sS'review'
p2945
I1
sS'stories'
p2946
I1
sS'gemstone'
p2947
I1
sS'latin'
p2948
I1
sS'tristan'
p2949
I1
sS'ability'
p2950
I1
sS't.v.'
p2951
I1
sS'first-aid'
p2952
I1
sS'piece'
p2953
I2
sS'drug'
p2954
I4
sS'connection'
p2955
I1
sS'games'
p2956
I2
sS'berry'
p2957
I1
sS'faces'
p2958
I1
sS'witch'
p2959
I1
sS'heliologist'
p2960
I1
sS'statues'
p2961
I1
sS'cancer'
p2962
I2
sS'color'
p2963
I28
sS'period'
p2964
I1
sS'cult'
p2965
I1
sS'pole'
p2966
I1
sS'vessel'
p2967
I1
sS'belt'
p2968
I1
sS'conference'
p2969
I1
sS'hawkins'
p2970
I1
sS'instrument'
p2971
I5
sS'trilogy'
p2972
I1
sS'trademark'
p2973
I2
sS'mark'
p2974
I1
sS'submarine'
p2975
I1
sS'beer'
p2976
I4
sS'treat'
p2977
I1
sS'board'
p2978
I2
sS'flight'
p2979
I1
sS'ridder'
p2980
I1
sS'locations'
p2981
I1
sS'tiger'
p2982
I1
sS'bible'
p2983
I1
sS'expedition'
p2984
I1
sS'ravens'
p2985
I1
sS'jell-o'
p2986
I1
sS'sound'
p2987
I1
sS'novel'
p2988
I22
sS'value'
p2989
I1
sS'droppings'
p2990
I1
sS'newspaper'
p2991
I4
sS'procedure'
p2992
I1
sS'layer'
p2993
I1
sS'calculator'
p2994
I1
sS'player'
p2995
I1
sS'alphabet'
p2996
I1
sS'bowl'
p2997
I1
sS'member'
p2998
I1
sS'esquire'
p2999
I1
sS'vegetable'
p3000
I2
sS'document'
p3001
I1
sS'composition'
p3002
I1
sS'week'
p3003
I1
sS'ball'
p3004
I2
sS'drink'
p3005
I17
sS'huston'
p3006
I1
sS'holidays'
p3007
I1
sS'fruit'
p3008
I1
sS'statue'
p3009
I1
sS'whale'
p3010
I2
sS'nickname'
p3011
I1
sS'tune'
p3012
I1
sS'kid'
p3013
I1
sS'smokey'
p3014
I1
sS'peacocks'
p3015
I1
sS'weapon'
p3016
I4
sS'variety'
p3017
I1
sS'game'
p3018
I7
sS'ocean'
p3019
I1
sS'materials'
p3020
I1
sS'components'
p3021
I1
sS'model'
p3022
I1
sS'musical'
p3023
I2
sS'deltiologist'
p3024
I1
sS'plagues'
p3025
I1
sS'traditions'
p3026
I1
sS'money'
p3027
I3
sS'racehorse'
p3028
I1
sS'basophobic'
p3029
I1
sS'product'
p3030
I8
sS'shape'
p3031
I2
sS'flavor'
p3032
I1
sS'ads'
p3033
I1
sS'alternate'
p3034
I1
sS'source'
p3035
I1
sS'treatment'
p3036
I1
sS'crack'
p3037
I1
sS'visine'
p3038
I1
sS'earthquakes'
p3039
I1
sS'metalious'
p3040
I1
sS'tenses'
p3041
I1
sS'format'
p3042
I2
sS'sailors'
p3043
I1
sS'bands'
p3044
I1
sS'bid'
p3045
I1
sS'suffering'
p3046
I1
sS'gama'
p3047
I1
sS'world'
p3048
I1
sS'knox'
p3049
I1
sS'boob'
p3050
I1
sS'meat'
p3051
I1
sS'kennedy'
p3052
I1
sS'eidologist'
p3053
I1
sS'clay'
p3054
I1
sS'wonders'
p3055
I2
sS'pyramid-builders'
p3056
I1
sS'jews'
p3057
I1
sS'people'
p3058
I1
sS'hair'
p3059
I3
sS'export'
p3060
I1
sS'brontosauruses'
p3061
I1
sS'hurricane'
p3062
I1
sS'ice'
p3063
I1
sS'religion'
p3064
I2
sS'shakespeare'
p3065
I1
sS'epic'
p3066
I1
sS'measures'
p3067
I1
sS'rum'
p3068
I1
sS'equivalent'
p3069
I1
sS'slaughter'
p3070
I1
sS'vaccine'
p3071
I1
sS'trophy'
p3072
I2
sS'maclaine'
p3073
I1
sS'resurrectionist'
p3074
I1
sS'concerts'
p3075
I1
sS'magazine'
p3076
I7
sS'camels'
p3077
I1
sS'cartier'
p3078
I1
sS'emperor'
p3079
I1
sS'software'
p3080
I1
sS'letters'
p3081
I1
sS'washington'
p3082
I1
sS'device'
p3083
I2
sS'brush'
p3084
I1
sS'strip'
p3085
I3
sS'methods'
p3086
I1
sS'vegetables'
p3087
I1
sS'tennis'
p3088
I1
sS'cats'
p3089
I2
sS'bros.'
p3090
I1
sS'way'
p3091
I9
sS'suit'
p3092
I1
sS'war'
p3093
I12
sS'warlock'
p3094
I1
sS'medium'
p3095
I3
sS'form'
p3096
I2
sS'brand'
p3097
I1
sS'sequel'
p3098
I3
sS'oil'
p3099
I1
sS'principles'
p3100
I1
sS'observances'
p3101
I1
sS'line'
p3102
I1
sS'ear'
p3103
I1
sS'spice'
p3104
I1
sS'manatees'
p3105
I1
sS'limit'
p3106
I1
sS'stages'
p3107
I1
sS'condiment'
p3108
I2
sS'palate'
p3109
I1
sS'classic'
p3110
I1
sS'taste'
p3111
I1
sS'strips'
p3112
I1
sS'disease'
p3113
I11
sS'gland'
p3114
I1
sS'majal'
p3115
I1
sS'ship'
p3116
I3
sS'film'
p3117
I23
sS'ingredients'
p3118
I1
sS'trials'
p3119
I2
sS'actor'
p3120
I1
sS'snakes'
p3121
I1
sS'field'
p3122
I1
sS'book'
p3123
I21
sS'jong'
p3124
I1
sS'mayonnaise'
p3125
I1
sS'elements'
p3126
I4
sS'kinds'
p3127
I1
sS'brothers'
p3128
I1
sS'congress'
p3129
I1
sS'symbol'
p3130
I3
sS'lens'
p3131
I1
sS'structure'
p3132
I1
sS'age'
p3133
I1
sS'vehicles'
p3134
I1
sS'flatfish'
p3135
I1
sS'feud'
p3136
I1
sS'fastener'
p3137
I1
sS'craft'
p3138
I1
sS'menace'
p3139
I1
sS'songs'
p3140
I2
stp3141
Rp3142
(dp3143
g25
I1250
sg75
Nsg76
Nsg77
Nsbsg78
I1487
sg79
F1993.5
sbs(g14
g80
tp3144
g0
(g20
g2
Ntp3145
Rp3146
(dp3147
g24
F0.5
sg25
I71
sg26
g0
(g27
g28
(dp3148
S'how'
p3149
I32
sS'what'
p3150
I37
sS'dialing'
p3151
I1
sS'by'
p3152
I1
stp3153
Rp3154
(dp3155
g25
I71
sg75
Nsg76
Nsg77
Nsbsg78
I48
sg79
F95.0
sbs(g11
g80
tp3156
g0
(g20
g2
Ntp3157
Rp3158
(dp3159
g24
F0.5
sg25
I505
sg26
g0
(g27
g28
(dp3160
S'a'
p3161
I1
sS'on'
p3162
I1
sS'what'
p3163
I105
sS'about'
p3164
I2
sS'approximately'
p3165
I2
sS'how'
p3166
I390
sS'in'
p3167
I1
sS'the'
p3168
I1
sS'where'
p3169
I2
stp3170
Rp3171
(dp3172
g25
I505
sg75
Nsg76
Nsg77
Nsbsg78
I48
sg79
F529.0
sbs(g11
g18
tp3173
g0
(g20
g2
Ntp3174
Rp3175
(dp3176
g24
F0.5
sg25
I505
sg26
g0
(g27
g28
(dp3177
g30
I28
sS'colleges'
p3178
I1
sS'dollar'
p3179
I2
sS'astronauts'
p3180
I2
sS'fathom'
p3181
I3
sS'spacecraft'
p3182
I1
sS'spaces'
p3183
I2
sS'businesses'
p3184
I2
sS'shoe'
p3185
I1
sS'cds'
p3186
I1
sS'go'
p3187
I1
sS'soldiers'
p3188
I6
sS'kilamanjaro'
p3189
I1
sS'children'
p3190
I2
sS'layers'
p3191
I2
sS'votes'
p3192
I2
sS'electricity'
p3193
I1
sS'megawatts'
p3194
I1
sS'languages'
p3195
I3
sS'teaspoon'
p3196
I2
sS'thousands'
p3197
I1
sS'tiles'
p3198
I1
sS'oceans'
p3199
I1
sS'trees'
p3200
I1
sS'acreage'
p3201
I1
sS'penny-farthings'
p3202
I1
sS'words'
p3203
I1
sS'years'
p3204
I11
sS'verses'
p3205
I1
sS'school'
p3206
I1
sS'countries'
p3207
I4
sS'did'
p3208
I1
sS'bytes'
p3209
I1
sS'colors'
p3210
I4
sS'casinos'
p3211
I1
sS'shots'
p3212
I1
sS'inside'
p3213
I1
sS'tenths'
p3214
I1
sS'leaders'
p3215
I1
sS'cheetahs'
p3216
I1
sS'villi'
p3217
I1
sS'rate'
p3218
I1
sS'college'
p3219
I1
sS'grooves'
p3220
I2
sS'acid'
p3221
I2
sS'movies'
p3222
I1
sS'thunder'
p3223
I1
sS'rings'
p3224
I1
sS'fingers'
p3225
I1
sS'liberty'
p3226
I1
sS'score'
p3227
I3
sS'galaxy'
p3228
I1
sS'referees'
p3229
I1
sS'claws'
p3230
I1
sS'human'
p3231
I2
sS'men'
p3232
I3
sS'answers'
p3233
I1
sS'hours'
p3234
I2
sS'protection'
p3235
I1
sS'baseball'
p3236
I1
sS'yards'
p3237
I1
sS'furlongs'
p3238
I1
sS'cities'
p3239
I1
sS'digits'
p3240
I3
sS'tractors'
p3241
I1
sS'airport'
p3242
I1
sS'objects'
p3243
I1
sS'games'
p3244
I1
sS'canadians'
p3245
I1
sS'kinds'
p3246
I1
sS'members'
p3247
I3
sS'scales'
p3248
I1
sS'presidents'
p3249
I2
sS'names'
p3250
I1
sS'flavors'
p3251
I2
sS'attendance'
p3252
I1
sS'zip'
p3253
I1
sS'poodle'
p3254
I1
sS'vineyard'
p3255
I1
sS'bees'
p3256
I1
sS'counties'
p3257
I1
sS'films'
p3258
I2
sS'sonnets'
p3259
I1
sS'milliseconds'
p3260
I1
sS'dots'
p3261
I2
sS'resting'
p3262
I1
sS'diamond'
p3263
I1
sS'propellers'
p3264
I1
sS'pairs'
p3265
I2
sS'telephone'
p3266
I1
sS'phone'
p3267
I4
sS'angles'
p3268
I1
sS'baby'
p3269
I1
sS'hole'
p3270
I1
sS'emperors'
p3271
I1
sS'car'
p3272
I1
sS'calcium'
p3273
I1
sS'gallons'
p3274
I2
sS'pound'
p3275
I1
sS'permutations'
p3276
I1
sS'teaspoons'
p3277
I1
sS'surface'
p3278
I1
sS'states'
p3279
I3
sS'neurons'
p3280
I1
sS'numbers'
p3281
I1
sS'bones'
p3282
I2
sS'species'
p3283
I3
sS'revolutions'
p3284
I1
sS'bottles'
p3285
I1
sS'lengths'
p3286
I1
sS'maids'
p3287
I1
sS'oven'
p3288
I2
sS'amount'
p3289
I1
sS'member'
p3290
I1
sS'pins'
p3291
I1
sS'colonies'
p3292
I2
sS'spears'
p3293
I1
sS'events'
p3294
I1
sS'stock'
p3295
I1
sS'cherubs'
p3296
I1
sS'lawyers'
p3297
I1
sS'mountain'
p3298
I1
sS'fruit'
p3299
I1
sS'characters'
p3300
I2
sS'law'
p3301
I1
sS'types'
p3302
I4
sS'man'
p3303
I1
sS'varieties'
p3304
I2
sS'hearts'
p3305
I1
sS'wives'
p3306
I1
sS'athletes'
p3307
I1
sS'unemployment'
p3308
I2
sS'freckles'
p3309
I1
sS'quarters'
p3310
I1
sS'sperm'
p3311
I1
sS'questions'
p3312
I2
sS'seats'
p3313
I1
sS'speed'
p3314
I3
sS'superbowls'
p3315
I1
sS'web'
p3316
I1
sS'death'
p3317
I2
sS'drunk'
p3318
I1
sS'acres'
p3319
I1
sS'degrees'
p3320
I2
sS'latitude'
p3321
I3
sS'weeks'
p3322
I1
sS'wingspan'
p3323
I1
sS'bails'
p3324
I1
sS'nation'
p3325
I1
sS'records'
p3326
I1
sS'giraffe'
p3327
I1
sS'hands'
p3328
I1
sS'world'
p3329
I3
sS'wings'
p3330
I1
sS'pounds'
p3331
I1
sS'chairs'
p3332
I1
sS'corners'
p3333
I1
sS'disks'
p3334
I1
sS'cullions'
p3335
I1
sS'pizza'
p3336
I1
sS'jews'
p3337
I1
sS'weight'
p3338
I4
sS'people'
p3339
I35
sS'elevators'
p3340
I1
sS'companies'
p3341
I1
sS'energy'
p3342
I1
sS'frequency'
p3343
I2
sS'meters'
p3344
I2
sS'year'
p3345
I1
sS'home'
p3346
I3
sS'dimensions'
p3347
I1
sS'blacks'
p3348
I1
sS'mines'
p3349
I1
sS'moon'
p3350
I1
sS'students'
p3351
I2
sS'miles'
p3352
I9
sS'squares'
p3353
I1
sS'eggs'
p3354
I1
sS'highway'
p3355
I2
sS'millimeters'
p3356
I1
sS'equivalent'
p3357
I1
sS'lakes'
p3358
I1
sS'quart'
p3359
I1
sS'caffeine'
p3360
I2
sS'statistics'
p3361
I1
sS'hostages'
p3362
I1
sS'pitchers'
p3363
I1
sS'refuge'
p3364
I1
sS'chapter'
p3365
I4
sS'watts'
p3366
I1
sS'engines'
p3367
I1
sS'stations'
p3368
I1
sS'universe'
p3369
I2
sS'dollars'
p3370
I1
sS'months'
p3371
I2
sS'calories'
p3372
I4
sS'days'
p3373
I1
sS'times'
p3374
I11
sS'whitetail'
p3375
I1
sS'length'
p3376
I1
sS'extensions'
p3377
I2
sS'airline'
p3378
I1
sS'islands'
p3379
I2
sS'processor'
p3380
I1
sS'silver'
p3381
I1
sS'size'
p3382
I4
sS'letters'
p3383
I1
sS'student'
p3384
I1
sS'number'
p3385
I7
sS'rank'
p3386
I2
sS'copies'
p3387
I1
sS'feet'
p3388
I6
sS'frames'
p3389
I1
sS'earthworms'
p3390
I1
sS'bends'
p3391
I1
sS'city'
p3392
I1
sS'rows'
p3393
I2
sS'temperature'
p3394
I4
sS'elephants'
p3395
I1
sS'approximate'
p3396
I2
sS'shillings'
p3397
I1
sS'zeros'
p3398
I1
sS'stars'
p3399
I2
sS'syllables'
p3400
I1
sS'dogs'
p3401
I1
sS'mountains'
p3402
I1
sS'eyes'
p3403
I2
sS'muscles'
p3404
I2
sS'continents'
p3405
I1
sS'inches'
p3406
I4
sS'brand'
p3407
I1
sS'boys'
p3408
I1
sS'population'
p3409
I15
sS'waste'
p3410
I1
sS'warmup'
p3411
I1
sS'cells'
p3412
I1
sS'milligrams'
p3413
I1
sS'maximum'
p3414
I2
sS'war'
p3415
I1
sS'iron'
p3416
I1
sS'cards'
p3417
I3
sS'quadruplets'
p3418
I1
sS'minutes'
p3419
I1
sS'horses'
p3420
I2
sS'holes'
p3421
I1
sS'head'
p3422
I1
sS'pig'
p3423
I1
sS'boardwalk'
p3424
I1
sS'replica'
p3425
I1
sS'fiddlers'
p3426
I1
sS'horsepower'
p3427
I2
sS'border'
p3428
I1
sS'chromosome'
p3429
I2
sS'innings'
p3430
I2
sS'russians'
p3431
I1
sS'snow'
p3432
I1
sS'reactivity'
p3433
I4
sS'actors'
p3434
I1
sS'grammys'
p3435
I1
sS'vegetation'
p3436
I1
sS'elements'
p3437
I1
sS'star'
p3438
I1
sS'teats'
p3439
I1
sS'quarts'
p3440
I1
sS'teeth'
p3441
I1
sS'visitors'
p3442
I1
sS'sides'
p3443
I3
sS'cables'
p3444
I1
sS'stronger'
p3445
I1
sS'websites'
p3446
I1
sS'points'
p3447
I4
sS'time'
p3448
I1
sS'weigh'
p3449
I1
sS'salt'
p3450
I1
sS'quantity'
p3451
I1
stp3452
Rp3453
(dp3454
g25
I505
sg75
Nsg76
Nsg77
Nsbsg78
I1449
sg79
F1229.5
sbs(g10
g114
tp3455
g0
(g20
g2
Ntp3456
Rp3457
(dp3458
g24
F0.5
sg25
I835
sg26
g0
(g27
g28
(dp3459
g30
I121
sS'gates'
p3460
I2
sS'thomas'
p3461
I1
sS'mccheese'
p3462
I1
sS'bocci'
p3463
I1
sS'nations'
p3464
I1
sS'clinic'
p3465
I1
sS'tours'
p3466
I1
sS'makeup'
p3467
I1
sS'battle'
p3468
I1
sS'schoolhouse'
p3469
I1
sS'avenue'
p3470
I1
sS'continent'
p3471
I5
sS'web'
p3472
I1
sS'birthplace'
p3473
I3
sS'deserts'
p3474
I1
sS'gulf'
p3475
I1
sS'point'
p3476
I1
sS'lake'
p3477
I5
sS'woodstock'
p3478
I1
sS'location'
p3479
I4
sS'prison'
p3480
I1
sS'team'
p3481
I1
sS'goalie'
p3482
I1
sS'resources'
p3483
I1
sS'steel'
p3484
I1
sS'goes'
p3485
I1
sS'myth'
p3486
I1
sS'dam'
p3487
I1
sS'oceans'
p3488
I2
sS'nation'
p3489
I3
sS'stadium'
p3490
I2
sS'vegas'
p3491
I1
sS'tuberculosis'
p3492
I1
sS'world'
p3493
I1
sS'lincoln'
p3494
I1
sS'airports'
p3495
I1
sS'name'
p3496
I17
sS'countries'
p3497
I22
sS'university'
p3498
I2
sS'shape'
p3499
I1
sS'bay'
p3500
I2
sS'race'
p3501
I1
sS'steps'
p3502
I1
sS'explorer'
p3503
I1
sS'rock'
p3504
I1
sS'volcano'
p3505
I1
sS'river'
p3506
I17
sS'page'
p3507
I3
sS'battlefield'
p3508
I1
sS'square'
p3509
I1
sS'telescope'
p3510
I1
sS'reference'
p3511
I1
sS'apartments'
p3512
I1
sS'seas'
p3513
I1
sS'house'
p3514
I1
sS'library'
p3515
I1
sS'rivers'
p3516
I2
sS'orinoco'
p3517
I1
sS'zero'
p3518
I1
sS'street'
p3519
I3
sS'college'
p3520
I3
sS'sea'
p3521
I4
sS'home'
p3522
I1
sS'danube'
p3523
I1
sS'constellation'
p3524
I3
sS'aldrin'
p3525
I1
sS'zebras'
p3526
I1
sS'planet'
p3527
I4
sS'qatar'
p3528
I1
sS'mutombo'
p3529
I1
sS'sites'
p3530
I3
sS'stops'
p3531
I1
sS'seaport'
p3532
I3
sS'libraries'
p3533
I1
sS'state'
p3534
I51
sS'daniel'
p3535
I1
sS'olympics'
p3536
I2
sS'cobb'
p3537
I1
sS'diamonds'
p3538
I1
sS'nicholas'
p3539
I1
sS'glasgow'
p3540
I1
sS'body'
p3541
I1
sS'columbus'
p3542
I1
sS'stockyards'
p3543
I1
sS'pythagoras'
p3544
I1
sS'dwarf'
p3545
I1
sS'cars'
p3546
I1
sS'u.s.'
p3547
I2
sS'seine'
p3548
I1
sS'ranges'
p3549
I2
sS'groups'
p3550
I1
sS'address'
p3551
I9
sS'nationality'
p3552
I7
sS'canals'
p3553
I1
sS'cities'
p3554
I10
sS'luther'
p3555
I1
sS'stations'
p3556
I1
sS'institute'
p3557
I1
sS'country'
p3558
I104
sS'region'
p3559
I1
sS'adventures'
p3560
I1
sS'eels'
p3561
I1
sS'ports'
p3562
I1
sS'melbourne'
p3563
I1
sS'thing'
p3564
I1
sS'airport'
p3565
I5
sS'waterfall'
p3566
I1
sS'place'
p3567
I1
sS'islands'
p3568
I1
sS'castle'
p3569
I2
sS'hospital'
p3570
I1
sS'block'
p3571
I1
sS'nixon'
p3572
I1
sS'burma'
p3573
I1
sS'romania'
p3574
I1
sS'indians'
p3575
I1
sS'clinton'
p3576
I1
sS'tourists'
p3577
I2
sS'bell'
p3578
I1
sS'wall'
p3579
I1
sS'attractions'
p3580
I2
sS'guam'
p3581
I1
sS'washington'
p3582
I2
sS'county'
p3583
I3
sS'canyon'
p3584
I1
sS'blackhawks'
p3585
I1
sS'names'
p3586
I2
sS'amsterdam'
p3587
I1
sS'poe'
p3588
I1
sS'george'
p3589
I1
sS'coastlines'
p3590
I1
sS'trinidad'
p3591
I1
sS'canal'
p3592
I1
sS'city'
p3593
I75
sS'belize'
p3594
I1
sS'habitat'
p3595
I1
sS'area'
p3596
I2
sS'remains'
p3597
I1
sS'arch'
p3598
I1
sS'museum'
p3599
I5
sS'people'
p3600
I4
sS'desert'
p3601
I5
sS'snowman'
p3602
I1
sS'cotrubas'
p3603
I1
sS'valley'
p3604
I2
sS'meeting'
p3605
I1
sS'capital'
p3606
I19
sS'store'
p3607
I1
sS'website'
p3608
I6
sS'mountains'
p3609
I1
sS'direction'
p3610
I2
sS'strait'
p3611
I1
sS'way'
p3612
I1
sS'inuits'
p3613
I1
sS'passenger'
p3614
I1
sS'hotel'
p3615
I2
sS'montenegro'
p3616
I1
sS'singer'
p3617
I1
sS'landmark'
p3618
I2
sS'chocolate'
p3619
I1
sS'possession'
p3620
I1
sS'trail'
p3621
I1
sS'flag'
p3622
I1
sS'inoco'
p3623
I1
sS'coyote'
p3624
I1
sS'hole'
p3625
I1
sS'sound'
p3626
I1
sS'mahal'
p3627
I1
sS'room'
p3628
I1
sS'hour'
p3629
I1
sS'louisiana'
p3630
I1
sS'hyenas'
p3631
I1
sS'restaurant'
p3632
I2
sS'natick'
p3633
I1
sS'worth'
p3634
I1
sS'project'
p3635
I1
sS'mall'
p3636
I1
sS'individual'
p3637
I1
sS'island'
p3638
I14
sS'waterways'
p3639
I1
sS'mozambique'
p3640
I1
sS'loop'
p3641
I1
sS'bridge'
p3642
I4
sS'edberg'
p3643
I1
sS'gulliver'
p3644
I1
sS'palace'
p3645
I1
sS'rios'
p3646
I1
sS'tesla'
p3647
I1
sS'abstract'
p3648
I1
sS'breweries'
p3649
I1
sS'rubble'
p3650
I1
sS'site'
p3651
I4
sS'alley'
p3652
I1
sS'general'
p3653
I1
sS'states'
p3654
I6
sS'dew'
p3655
I1
sS'sport'
p3656
I1
sS'bend'
p3657
I1
sS'showers'
p3658
I1
sS'cathedral'
p3659
I2
sS'distributions'
p3660
I1
sS'chop'
p3661
I1
sS'native'
p3662
I1
sS'angelica'
p3663
I1
sS'information'
p3664
I1
sS'monarchy'
p3665
I1
sS'court'
p3666
I1
sS'ukulele'
p3667
I1
sS'helium'
p3668
I1
sS'hugo'
p3669
I1
sS'bowl'
p3670
I2
sS'davies'
p3671
I1
sS'hampshire'
p3672
I1
sS'zoo'
p3673
I1
sS'complex'
p3674
I1
sS'republic'
p3675
I2
sS'forest'
p3676
I1
sS'forces'
p3677
I1
sS'gate'
p3678
I1
sS'residence'
p3679
I1
sS'isle'
p3680
I1
sS'gamble'
p3681
I2
sS'province'
p3682
I2
sS'buildings'
p3683
I1
sS'star'
p3684
I2
sS'brothers'
p3685
I1
sS'mountain'
p3686
I10
sS'park'
p3687
I3
sS'town'
p3688
I4
sS'lucia'
p3689
I1
sS'callosum'
p3690
I2
sS'pigs'
p3691
I1
sS'peak'
p3692
I4
sS'stocks'
p3693
I1
sS'nickname'
p3694
I3
sS'gallery'
p3695
I1
sS'honecker'
p3696
I1
sS'building'
p3697
I8
sS'badu'
p3698
I1
sS'surfing'
p3699
I1
sS'center'
p3700
I2
sS'i'
p3701
I1
sS'camp'
p3702
I1
sS'drinks'
p3703
I1
sS'headquarters'
p3704
I4
sS'websites'
p3705
I1
sS'ocean'
p3706
I6
sS'lobsters'
p3707
I1
sS'chronicles'
p3708
I1
sS'walker'
p3709
I1
sS'bodies'
p3710
I1
sS'marvel'
p3711
I1
stp3712
Rp3713
(dp3714
g25
I835
sg75
Nsg76
Nsg77
Nsbsg78
I1487
sg79
F1578.5
sbs(g10
g80
tp3715
g0
(g20
g2
Ntp3716
Rp3717
(dp3718
g24
F0.5
sg25
I835
sg26
g0
(g27
g28
(dp3719
S'on'
p3720
I5
sS'what'
p3721
I523
sS'jackson'
p3722
I2
sS'name'
p3723
I7
sS'kosovo'
p3724
I1
sS'when'
p3725
I1
sS'mississippi'
p3726
I1
sS'which'
p3727
I16
sS'in'
p3728
I18
sS'mccarren'
p3729
I1
sS'the'
p3730
I4
sS'where'
p3731
I255
sS'tell'
p3732
I1
stp3733
Rp3734
(dp3735
g25
I835
sg75
Nsg76
Nsg77
Nsbsg78
I48
sg79
F859.0
sbssS'_label_probdist'
p3736
g0
(g20
g2
Ntp3737
Rp3738
(dp3739
g24
F0.5
sg25
I4204
sg26
g0
(g27
g28
(dp3740
g14
I71
sg15
I27
sg11
I505
sg9
I1223
sg8
I1250
sg10
I835
sg13
I75
sg12
I218
stp3741
Rp3742
(dp3743
g25
I4204
sg75
Nsg76
(lp3744
(g8
I1250
tp3745
a(g9
I1223
tp3746
a(g10
I835
tp3747
a(g11
I505
tp3748
a(g12
I218
tp3749
a(g13
I75
tp3750
a(g14
I71
tp3751
a(g15
I27
tp3752
asg77
Nsbsg78
I8
sg79
F4208.0
sbsb.