ccopy_reg
_reconstructor
p0
(cnltk.classify.naivebayes
NaiveBayesClassifier
p1
c__builtin__
object
p2
Ntp3
Rp4
(dp5
S'_labels'
p6
(lp7
S'OTHER'
p8
aS'PERSON'
p9
aS'LOCATION'
p10
aS'NUMBER'
p11
aS'DATE'
p12
aS'ORGANIZATION'
p13
aS'TIME'
p14
aS'MONEY'
p15
aS'PERCENT'
p16
asS'_feature_probdist'
p17
(dp18
(g16
S'head'
p19
tp20
g0
(cnltk.probability
ELEProbDist
p21
g2
Ntp22
Rp23
(dp24
S'_gamma'
p25
F0.5
sS'_N'
p26
I27
sS'_freqdist'
p27
g0
(cnltk.probability
FreqDist
p28
c__builtin__
dict
p29
(dp30
S''
p31
I10
sS'rating'
p32
I1
sS'account'
p33
I1
sS'probability'
p34
I2
sS'chances'
p35
I2
sS'odds'
p36
I3
sS'percent'
p37
I1
sS'rate'
p38
I3
sS'chance'
p39
I1
sS'fraction'
p40
I2
sS'percentage'
p41
I1
stp42
Rp43
(dp44
g26
I27
sS'_max_cache'
p45
NsS'_item_cache'
p46
NsS'_Nr_cache'
p47
NsbsS'_bins'
p48
I1487
sS'_divisor'
p49
F770.5
sbs(g11
g19
tp50
g0
(g21
g2
Ntp51
Rp52
(dp53
g25
F0.5
sg26
I505
sg27
g0
(g28
g29
(dp54
g31
I142
sS'colleges'
p55
I1
sS'code'
p56
I1
sS'office'
p57
I1
sS'queen'
p58
I1
sS'astronauts'
p59
I2
sS'years'
p60
I9
sS'sperm'
p61
I1
sS'colors'
p62
I4
sS'spaces'
p63
I2
sS'businesses'
p64
I1
sS'questions'
p65
I2
sS'cds'
p66
I1
sS'soldiers'
p67
I6
sS'speed'
p68
I3
sS'children'
p69
I1
sS'superbowls'
p70
I1
sS'layers'
p71
I1
sS'web'
p72
I1
sS'votes'
p73
I1
sS'vietnamese'
p74
I1
sS'electricity'
p75
I1
sS'megawatts'
p76
I1
sS'day'
p77
I3
sS'languages'
p78
I3
sS'degrees'
p79
I2
sS'teaspoon'
p80
I1
sS'thousands'
p81
I1
sS'wingspan'
p82
I1
sS'tiles'
p83
I1
sS'beatles'
p84
I1
sS'referees'
p85
I1
sS'runs'
p86
I2
sS'acreage'
p87
I1
sS'fingers'
p88
I1
sS'penny-farthings'
p89
I1
sS'words'
p90
I1
sS'hands'
p91
I1
sS'schools'
p92
I1
sS'quarters'
p93
I1
sS'wings'
p94
I1
sS'verses'
p95
I1
sS'school'
p96
I1
sS'sizes'
p97
I1
sS'chairs'
p98
I1
sS'james'
p99
I1
sS'countries'
p100
I4
sS'grammys'
p101
I1
sS'casinos'
p102
I1
sS'shots'
p103
I1
sS'corners'
p104
I1
sS'pizza'
p105
I1
sS'disks'
p106
I1
sS'jews'
p107
I1
sS'weight'
p108
I5
sS'people'
p109
I30
sS'elevators'
p110
I1
sS'energy'
p111
I1
sS'seats'
p112
I1
sS'villi'
p113
I1
sS'rate'
p114
I3
sS'frequency'
p115
I2
sS'meters'
p116
I2
sS'year'
p117
I1
sS'grooves'
p118
I2
sS'acid'
p119
I2
sS'dimensions'
p120
I1
sS'calcium'
p121
I1
sS'rings'
p122
I1
sS'mines'
p123
I1
sS'score'
p124
I3
sS'toll'
p125
I4
sS'squares'
p126
I1
sS'equivalent'
p127
I3
sS'u.s.'
p128
I3
sS'lakes'
p129
I1
sS'answers'
p130
I1
sS'hours'
p131
I1
sS'caffeine'
p132
I2
sS'englishmen'
p133
I1
sS'baseball'
p134
I1
sS'hostages'
p135
I1
sS'teaspoons'
p136
I1
sS'pitchers'
p137
I1
sS'cities'
p138
I1
sS'counties'
p139
I1
sS'digits'
p140
I3
sS'watts'
p141
I1
sS'generals'
p142
I1
sS'engines'
p143
I1
sS'stations'
p144
I1
sS'leos'
p145
I1
sS'months'
p146
I2
sS'calories'
p147
I4
sS'days'
p148
I1
sS'times'
p149
I6
sS'length'
p150
I2
sS'games'
p151
I1
sS'canadians'
p152
I1
sS'islands'
p153
I2
sS'size'
p154
I3
sS'members'
p155
I1
sS'scales'
p156
I1
sS'presidents'
p157
I1
sS'number'
p158
I13
sS'community'
p159
I1
sS'feet'
p160
I5
sS'newtons'
p161
I1
sS'americans'
p162
I3
sS'names'
p163
I1
sS'frames'
p164
I1
sS'earthworms'
p165
I1
sS'bends'
p166
I1
sS'flavors'
p167
I1
sS'statistics'
p168
I3
sS'temperature'
p169
I3
sS'zip'
p170
I1
sS'elephants'
p171
I1
sS'shillings'
p172
I1
sS'zeros'
p173
I1
sS'stars'
p174
I2
sS'films'
p175
I2
sS'syllables'
p176
I1
sS'sonnets'
p177
I1
sS'dogs'
p178
I1
sS'today'
p179
I1
sS'horses'
p180
I2
sS'mountains'
p181
I1
sS'head'
p182
I1
sS'stradivarius'
p183
I1
sS'continents'
p184
I1
sS'inches'
p185
I2
sS'brand'
p186
I1
sS'pitches'
p187
I1
sS'movies'
p188
I1
sS'boys'
p189
I1
sS'angles'
p190
I1
sS'7847'
p191
I1
sS'population'
p192
I19
sS'yards'
p193
I1
sS'states'
p194
I4
sS'waste'
p195
I1
sS'milligrams'
p196
I1
sS'longitude'
p197
I3
sS'record'
p198
I1
sS'iron'
p199
I1
sS'cards'
p200
I2
sS'college'
p201
I1
sS'minutes'
p202
I1
sS'dots'
p203
I2
sS'iq'
p204
I2
sS'pounds'
p205
I1
sS'eyes'
p206
I1
sS'high'
p207
I1
sS'horsepower'
p208
I2
sS'muscles'
p209
I2
sS'numbers'
p210
I1
sS'fiddlers'
p211
I1
sS'bones'
p212
I2
sS'cables'
p213
I1
sS'species'
p214
I1
sS'innings'
p215
I2
sS'par'
p216
I2
sS'revolutions'
p217
I1
sS'russians'
p218
I1
sS'lengths'
p219
I1
sS'snow'
p220
I1
sS'reactivity'
p221
I4
sS'actors'
p222
I1
sS'pins'
p223
I1
sS'colonies'
p224
I2
sS'events'
p225
I1
sS'vegetation'
p226
I1
sS'bells'
p227
I1
sS'elements'
p228
I1
sS'lawyers'
p229
I1
sS'brothers'
p230
I1
sS'students'
p231
I2
sS'juices'
p232
I1
sS'gutenberg'
p233
I1
sS'characters'
p234
I2
sS'oceans'
p235
I1
sS'sides'
p236
I3
sS'beanie'
p237
I1
sS'miles'
p238
I6
sS'phone'
p239
I1
sS'url'
p240
I2
sS'salt'
p241
I1
sS'holes'
p242
I1
sS'cherubs'
p243
I1
sS'points'
p244
I4
sS'time'
p245
I1
sS'hearts'
p246
I1
sS'wives'
p247
I1
sS'athletes'
p248
I1
sS'quantity'
p249
I1
stp250
Rp251
(dp252
g26
I505
sg45
Nsg46
Nsg47
Nsbsg48
I1487
sg49
F1248.5
sbs(g15
g19
tp253
g0
(g21
g2
Ntp254
Rp255
(dp256
g25
F0.5
sg26
I71
sg27
g0
(g28
g29
(dp257
g31
I30
sS'fare'
p258
I2
sS'money'
p259
I7
sS'price'
p260
I4
sS'provider'
p261
I2
sS'tax'
p262
I1
sS'caps'
p263
I1
sS'rate'
p264
I2
sS'cost'
p265
I4
sS'fine'
p266
I1
sS'salary'
p267
I6
sS'wage'
p268
I4
sS'debts'
p269
I1
sS'increase'
p270
I1
sS'amount'
p271
I1
sS'income'
p272
I3
sS'worth'
p273
I1
stp274
Rp275
(dp276
g26
I71
sg45
Nsg46
Nsg47
Nsbsg48
I1487
sg49
F814.5
sbs(g10
g19
tp277
g0
(g21
g2
Ntp278
Rp279
(dp280
g25
F0.5
sg26
I835
sg27
g0
(g28
g29
(dp281
g31
I121
sS'gates'
p282
I2
sS'thomas'
p283
I1
sS'mccheese'
p284
I1
sS'bocci'
p285
I1
sS'nations'
p286
I1
sS'clinic'
p287
I1
sS'tours'
p288
I1
sS'makeup'
p289
I1
sS'battle'
p290
I1
sS'schoolhouse'
p291
I1
sS'avenue'
p292
I1
sS'continent'
p293
I5
sS'web'
p294
I1
sS'birthplace'
p295
I3
sS'deserts'
p296
I1
sS'gulf'
p297
I1
sS'point'
p298
I1
sS'lake'
p299
I5
sS'woodstock'
p300
I1
sS'location'
p301
I4
sS'prison'
p302
I1
sS'team'
p303
I1
sS'goalie'
p304
I1
sS'resources'
p305
I1
sS'steel'
p306
I1
sS'goes'
p307
I1
sS'myth'
p308
I1
sS'dam'
p309
I1
sS'oceans'
p310
I2
sS'nation'
p311
I3
sS'stadium'
p312
I2
sS'vegas'
p313
I1
sS'tuberculosis'
p314
I1
sS'world'
p315
I1
sS'lincoln'
p316
I1
sS'airports'
p317
I1
sS'name'
p318
I17
sS'countries'
p319
I22
sS'university'
p320
I2
sS'shape'
p321
I1
sS'bay'
p322
I2
sS'race'
p323
I1
sS'steps'
p324
I1
sS'explorer'
p325
I1
sS'rock'
p326
I1
sS'volcano'
p327
I1
sS'river'
p328
I17
sS'page'
p329
I3
sS'battlefield'
p330
I1
sS'square'
p331
I1
sS'telescope'
p332
I1
sS'reference'
p333
I1
sS'apartments'
p334
I1
sS'seas'
p335
I1
sS'house'
p336
I1
sS'library'
p337
I1
sS'rivers'
p338
I2
sS'orinoco'
p339
I1
sS'zero'
p340
I1
sS'street'
p341
I3
sS'college'
p342
I3
sS'sea'
p343
I4
sS'home'
p344
I1
sS'danube'
p345
I1
sS'constellation'
p346
I3
sS'aldrin'
p347
I1
sS'zebras'
p348
I1
sS'planet'
p349
I4
sS'qatar'
p350
I1
sS'mutombo'
p351
I1
sS'sites'
p352
I3
sS'stops'
p353
I1
sS'seaport'
p354
I3
sS'libraries'
p355
I1
sS'state'
p356
I51
sS'daniel'
p357
I1
sS'olympics'
p358
I2
sS'cobb'
p359
I1
sS'diamonds'
p360
I1
sS'nicholas'
p361
I1
sS'glasgow'
p362
I1
sS'body'
p363
I1
sS'columbus'
p364
I1
sS'stockyards'
p365
I1
sS'pythagoras'
p366
I1
sS'dwarf'
p367
I1
sS'cars'
p368
I1
sS'u.s.'
p369
I2
sS'seine'
p370
I1
sS'ranges'
p371
I2
sS'groups'
p372
I1
sS'address'
p373
I9
sS'nationality'
p374
I7
sS'canals'
p375
I1
sS'cities'
p376
I10
sS'luther'
p377
I1
sS'stations'
p378
I1
sS'institute'
p379
I1
sS'country'
p380
I104
sS'region'
p381
I1
sS'adventures'
p382
I1
sS'eels'
p383
I1
sS'ports'
p384
I1
sS'melbourne'
p385
I1
sS'thing'
p386
I1
sS'airport'
p387
I5
sS'waterfall'
p388
I1
sS'place'
p389
I1
sS'islands'
p390
I1
sS'castle'
p391
I2
sS'hospital'
p392
I1
sS'block'
p393
I1
sS'nixon'
p394
I1
sS'burma'
p395
I1
sS'romania'
p396
I1
sS'indians'
p397
I1
sS'clinton'
p398
I1
sS'tourists'
p399
I2
sS'bell'
p400
I1
sS'wall'
p401
I1
sS'attractions'
p402
I2
sS'guam'
p403
I1
sS'washington'
p404
I2
sS'county'
p405
I3
sS'canyon'
p406
I1
sS'blackhawks'
p407
I1
sS'names'
p408
I2
sS'amsterdam'
p409
I1
sS'poe'
p410
I1
sS'george'
p411
I1
sS'coastlines'
p412
I1
sS'trinidad'
p413
I1
sS'canal'
p414
I1
sS'city'
p415
I75
sS'belize'
p416
I1
sS'habitat'
p417
I1
sS'area'
p418
I2
sS'remains'
p419
I1
sS'arch'
p420
I1
sS'museum'
p421
I5
sS'people'
p422
I4
sS'desert'
p423
I5
sS'snowman'
p424
I1
sS'cotrubas'
p425
I1
sS'valley'
p426
I2
sS'meeting'
p427
I1
sS'capital'
p428
I19
sS'store'
p429
I1
sS'website'
p430
I6
sS'mountains'
p431
I1
sS'direction'
p432
I2
sS'strait'
p433
I1
sS'way'
p434
I1
sS'inuits'
p435
I1
sS'passenger'
p436
I1
sS'hotel'
p437
I2
sS'montenegro'
p438
I1
sS'singer'
p439
I1
sS'landmark'
p440
I2
sS'chocolate'
p441
I1
sS'possession'
p442
I1
sS'trail'
p443
I1
sS'flag'
p444
I1
sS'inoco'
p445
I1
sS'coyote'
p446
I1
sS'hole'
p447
I1
sS'sound'
p448
I1
sS'mahal'
p449
I1
sS'room'
p450
I1
sS'hour'
p451
I1
sS'louisiana'
p452
I1
sS'hyenas'
p453
I1
sS'restaurant'
p454
I2
sS'natick'
p455
I1
sS'worth'
p456
I1
sS'project'
p457
I1
sS'mall'
p458
I1
sS'individual'
p459
I1
sS'island'
p460
I14
sS'waterways'
p461
I1
sS'mozambique'
p462
I1
sS'loop'
p463
I1
sS'bridge'
p464
I4
sS'edberg'
p465
I1
sS'gulliver'
p466
I1
sS'palace'
p467
I1
sS'rios'
p468
I1
sS'tesla'
p469
I1
sS'abstract'
p470
I1
sS'breweries'
p471
I1
sS'rubble'
p472
I1
sS'site'
p473
I4
sS'alley'
p474
I1
sS'general'
p475
I1
sS'states'
p476
I6
sS'dew'
p477
I1
sS'sport'
p478
I1
sS'bend'
p479
I1
sS'showers'
p480
I1
sS'cathedral'
p481
I2
sS'distributions'
p482
I1
sS'chop'
p483
I1
sS'native'
p484
I1
sS'angelica'
p485
I1
sS'information'
p486
I1
sS'monarchy'
p487
I1
sS'court'
p488
I1
sS'ukulele'
p489
I1
sS'helium'
p490
I1
sS'hugo'
p491
I1
sS'bowl'
p492
I2
sS'davies'
p493
I1
sS'hampshire'
p494
I1
sS'zoo'
p495
I1
sS'complex'
p496
I1
sS'republic'
p497
I2
sS'forest'
p498
I1
sS'forces'
p499
I1
sS'gate'
p500
I1
sS'residence'
p501
I1
sS'isle'
p502
I1
sS'gamble'
p503
I2
sS'province'
p504
I2
sS'buildings'
p505
I1
sS'star'
p506
I2
sS'brothers'
p507
I1
sS'mountain'
p508
I10
sS'park'
p509
I3
sS'town'
p510
I4
sS'lucia'
p511
I1
sS'callosum'
p512
I2
sS'pigs'
p513
I1
sS'peak'
p514
I4
sS'stocks'
p515
I1
sS'nickname'
p516
I3
sS'gallery'
p517
I1
sS'honecker'
p518
I1
sS'building'
p519
I8
sS'badu'
p520
I1
sS'surfing'
p521
I1
sS'center'
p522
I2
sS'i'
p523
I1
sS'camp'
p524
I1
sS'drinks'
p525
I1
sS'headquarters'
p526
I4
sS'websites'
p527
I1
sS'ocean'
p528
I6
sS'lobsters'
p529
I1
sS'chronicles'
p530
I1
sS'walker'
p531
I1
sS'bodies'
p532
I1
sS'marvel'
p533
I1
stp534
Rp535
(dp536
g26
I835
sg45
Nsg46
Nsg47
Nsbsg48
I1487
sg49
F1578.5
sbs(g14
g19
tp537
g0
(g21
g2
Ntp538
Rp539
(dp540
g25
F0.5
sg26
I75
sg27
g0
(g28
g29
(dp541
g31
I58
sS'expectancy'
p542
I3
sS'span'
p543
I1
sS'office'
p544
I1
sS'time'
p545
I4
sS'age'
p546
I7
sS'period'
p547
I1
stp548
Rp549
(dp550
g26
I75
sg45
Nsg46
Nsg47
Nsbsg48
I1487
sg49
F818.5
sbs(g9
g19
tp551
g0
(g21
g2
Ntp552
Rp553
(dp554
g25
F0.5
sg26
I1034
sg27
g0
(g28
g29
(dp555
g31
I111
sS'detective'
p556
I1
sS'coach'
p557
I3
sS'founder'
p558
I1
sS'ali'
p559
I1
sS'feminist'
p560
I1
sS'queen'
p561
I3
sS'people'
p562
I3
sS'hamlet'
p563
I1
sS'themes'
p564
I1
sS'manager'
p565
I2
sS'radio'
p566
I1
sS'finn'
p567
I1
sS'battle'
p568
I1
sS'nephew'
p569
I1
sS'chair'
p570
I1
sS'captain'
p571
I1
sS'children'
p572
I1
sS'occupation'
p573
I5
sS'baseball'
p574
I8
sS'chain'
p575
I1
sS'title'
p576
I4
sS'electricity'
p577
I1
sS'jolson'
p578
I1
sS'father'
p579
I7
sS'viagra'
p580
I1
sS'hockey'
p581
I1
sS'crooner'
p582
I1
sS'pride'
p583
I1
sS'pickering'
p584
I2
sS'bestselling'
p585
I1
sS'lady'
p586
I1
sS'count'
p587
I1
sS'stonehenge'
p588
I1
sS'woman'
p589
I10
sS'hit'
p590
I1
sS'song'
p591
I2
sS'renaud'
p592
I1
sS'sons'
p593
I1
sS'diary'
p594
I1
sS'tammy'
p595
I1
sS'gogh'
p596
I1
sS'surgeon'
p597
I1
sS'tutu'
p598
I2
sS'abby'
p599
I1
sS'chapel'
p600
I1
sS'prize'
p601
I1
sS'airman'
p602
I1
sS'artist'
p603
I2
sS'positions'
p604
I1
sS'celebrity'
p605
I1
sS'macdowell'
p606
I1
sS'brother'
p607
I2
sS'grandfather'
p608
I1
sS'team'
p609
I3
sS'guy'
p610
I1
sS'astronaut'
p611
I3
sS'athlete'
p612
I1
sS'husband'
p613
I1
sS'secretary'
p614
I2
sS'kemper'
p615
I1
sS'advocate'
p616
I1
sS'malick'
p617
I1
sS'force'
p618
I1
sS'leaders'
p619
I1
sS'cohan'
p620
I1
sS'creator'
p621
I2
sS'maggio'
p622
I1
sS'horsemen'
p623
I1
sS'wrestling'
p624
I1
sS'nun'
p625
I1
sS'lion'
p626
I1
sS'video'
p627
I2
sS'lawyer'
p628
I8
sS'nba'
p629
I1
sS'monster'
p630
I1
sS'golfer'
p631
I3
sS'power'
p632
I2
sS'laureate'
p633
I1
sS'debate'
p634
I1
sS'election'
p635
I1
sS'genius'
p636
I1
sS'fans'
p637
I1
sS'finger'
p638
I1
sS'new'
p639
I1
sS'badge'
p640
I1
sS'admiral'
p641
I1
sS'advertizing'
p642
I1
sS'hero'
p643
I1
sS'astroturf'
p644
I1
sS'faith'
p645
I1
sS'funeral'
p646
I1
sS'theresa'
p647
I1
sS'boss'
p648
I1
sS'guitar'
p649
I1
sS'ranger'
p650
I2
sS'job'
p651
I3
sS'dubliners'
p652
I1
sS'witch'
p653
I1
sS'pub'
p654
I1
sS'opposition'
p655
I1
sS'jockey'
p656
I2
sS'benson'
p657
I1
sS'jfk'
p658
I1
sS'toothbrush'
p659
I1
sS'goodall'
p660
I1
sS'daughter'
p661
I2
sS'survivor'
p662
I1
sS'career'
p663
I1
sS'jinnah'
p664
I1
sS'cup'
p665
I1
sS'monk'
p666
I1
sS'rams'
p667
I1
sS'gymnast'
p668
I1
sS'games'
p669
I1
sS'mentor'
p670
I2
sS'rose'
p671
I1
sS'napolean'
p672
I1
sS'patents'
p673
I1
sS'andrews'
p674
I1
sS'holmes'
p675
I1
sS'writer'
p676
I5
sS'members'
p677
I1
sS'maclaine'
p678
I1
sS'potlatch'
p679
I1
sS'battery'
p680
I1
sS'presidents'
p681
I2
sS'lyricist'
p682
I1
sS'colony'
p683
I1
sS'mccain'
p684
I1
sS'pyramid'
p685
I1
sS'husbands'
p686
I1
sS'names'
p687
I11
sS'composer'
p688
I3
sS'church'
p689
I1
sS'table'
p690
I1
sS'singing'
p691
I3
sS'bra'
p692
I1
sS'lime'
p693
I1
sS'turkey'
p694
I1
sS'poem'
p695
I1
sS'dna'
p696
I1
sS'nominee'
p697
I1
sS'swimmer'
p698
I1
sS'thor'
p699
I1
sS'newscast'
p700
I1
sS'resident'
p701
I1
sS'wonderbra'
p702
I1
sS'music'
p703
I1
sS'mutiny'
p704
I1
sS'tv'
p705
I8
sS'butler'
p706
I1
sS'nicolet'
p707
I1
sS'angels'
p708
I1
sS'naples'
p709
I1
sS'teenager'
p710
I1
sS'engine'
p711
I1
sS'life'
p712
I2
sS'deodorant'
p713
I1
sS'fellow'
p714
I1
sS'champion'
p715
I1
sS'cobain'
p716
I1
sS'cop'
p717
I1
sS'tootsie'
p718
I1
sS'company'
p719
I1
sS'citizen'
p720
I3
sS'award'
p721
I2
sS'buxom'
p722
I1
sS'bible'
p723
I1
sS'stethoscope'
p724
I1
sS'minister'
p725
I7
sS'child'
p726
I2
sS'baby'
p727
I1
sS'antichrist'
p728
I1
sS'general'
p729
I8
sS'iii'
p730
I1
sS'painter'
p731
I4
sS'women'
p732
I1
sS'physician'
p733
I1
sS'hughes'
p734
I1
sS'bernstein'
p735
I1
sS'word'
p736
I1
sS'room'
p737
I1
sS'rights'
p738
I1
sS'barroom'
p739
I1
sS'confucius'
p740
I1
sS'bill'
p741
I1
sS'worm'
p742
I1
sS'governor'
p743
I3
sS'stalin'
p744
I1
sS'morgan'
p745
I1
sS'thrillers'
p746
I1
sS'santos-dumont'
p747
I1
sS'nino'
p748
I1
sS'cone'
p749
I1
sS'spy'
p750
I2
sS'inventor'
p751
I2
sS'performer'
p752
I1
sS'figure'
p753
I1
sS'hyatt'
p754
I1
sS'process'
p755
I1
sS'speech'
p756
I1
sS'frickett'
p757
I1
sS'commander'
p758
I1
sS'player'
p759
I1
sS'villain'
p760
I2
sS'numbers'
p761
I1
sS'partner'
p762
I1
sS'voice'
p763
I1
sS'freleng'
p764
I1
sS'autobiography'
p765
I3
sS'terrorist'
p766
I1
sS'doctor'
p767
I3
sS'wordsworth'
p768
I1
sS'liston'
p769
I1
sS'machine'
p770
I1
sS'picts'
p771
I1
sS'writers'
p772
I1
sS'cardinal'
p773
I1
sS'skater'
p774
I1
sS'monarch'
p775
I2
sS'nnp'
p776
I1
sS'powell'
p777
I1
sS'daughters'
p778
I1
sS'inventors'
p779
I1
sS'cyberspace'
p780
I1
sS'designer'
p781
I2
sS'cupboard'
p782
I1
sS'explorer'
p783
I2
sS'information'
p784
I1
sS'appearances'
p785
I1
sS'soldier'
p786
I1
sS'youngsters'
p787
I1
sS'collection'
p788
I1
sS'shores'
p789
I1
sS'director'
p790
I5
sS'characters'
p791
I1
sS'senator'
p792
I2
sS'president'
p793
I49
sS'lap'
p794
I1
sS'cartoon'
p795
I2
sS'identity'
p796
I3
sS'man'
p797
I6
sS'rommel'
p798
I1
sS'muppets'
p799
I2
sS'surfboard'
p800
I1
sS'vice-president'
p801
I3
sS'author'
p802
I8
sS'volleyball'
p803
I1
sS'antonio'
p804
I1
sS'person'
p805
I9
sS'nebbish'
p806
I1
sS'mother'
p807
I4
sS'genie'
p808
I1
sS'lindbergh'
p809
I1
sS'order'
p810
I1
sS'ambassador'
p811
I1
sS'no.'
p812
I1
sS'guitarist'
p813
I1
sS'monet'
p814
I1
sS'khrushchev'
p815
I1
sS'actress'
p816
I13
sS'dose'
p817
I1
sS'palpatine'
p818
I1
sS'batteries'
p819
I1
sS'tennis'
p820
I1
sS'costume'
p821
I1
sS'harrison'
p822
I1
sS'world'
p823
I1
sS'oswald'
p824
I2
sS'mayor'
p825
I4
sS'bunch'
p826
I1
sS'member'
p827
I4
sS'self-portrait'
p828
I1
sS'superstar'
p829
I1
sS'shortstop'
p830
I1
sS'ticker'
p831
I1
sS'character'
p832
I13
sS'pines'
p833
I1
sS'winners'
p834
I1
sS'dwarfs'
p835
I1
sS'personas'
p836
I1
sS'founders'
p837
I1
sS'speaker'
p838
I1
sS'cinzano'
p839
I1
sS'norway'
p840
I1
sS'gestapo'
p841
I1
sS'fool'
p842
I1
sS'couple'
p843
I1
sS'credit'
p844
I1
sS'hunter'
p845
I2
sS'comedienne'
p846
I2
sS'game'
p847
I2
sS'boxer'
p848
I2
sS'thucydides'
p849
I1
sS'press'
p850
I1
sS'picasso'
p851
I1
sS'brothers'
p852
I2
sS'cage'
p853
I1
sS'day'
p854
I1
sS'd.a.'
p855
I1
sS'mystery'
p856
I1
sS'martyrs'
p857
I1
sS'attorneys'
p858
I1
sS'name'
p859
I69
sS'kennedy'
p860
I1
sS'mathematician'
p861
I1
sS'pillar'
p862
I1
sS'commanders'
p863
I1
sS'clown'
p864
I1
sS'officer'
p865
I1
sS'lawnmower'
p866
I1
sS'paganini'
p867
I1
sS'pseudonym'
p868
I2
sS'normans'
p869
I1
sS'x-man'
p870
I1
sS'fatman'
p871
I1
sS'www'
p872
I1
sS'commune'
p873
I1
sS'series'
p874
I1
sS'kane'
p875
I1
sS'hawaii'
p876
I1
sS'oscars'
p877
I2
sS'scrabble'
p878
I1
sS'archenemy'
p879
I1
sS'biographer'
p880
I1
sS'laboratory'
p881
I1
sS'girl'
p882
I1
sS'salesman'
p883
I1
sS'message'
p884
I1
sS'witness'
p885
I1
sS'bacall'
p886
I1
sS'arch-enemy'
p887
I1
sS'actor'
p888
I13
sS'god'
p889
I2
sS'quotation'
p890
I1
sS'horoscope'
p891
I1
sS'opener'
p892
I1
sS'fountain'
p893
I1
sS'boat'
p894
I1
sS'cnn'
p895
I1
sS'yankee'
p896
I1
sS'leader'
p897
I14
sS'gandhi'
p898
I1
sS'foundation'
p899
I1
sS'theory'
p900
I1
sS'barrier'
p901
I1
sS'dracula'
p902
I1
sS'bowling'
p903
I1
sS'weir'
p904
I1
sS'hulk'
p905
I1
sS'darius'
p906
I1
sS'host'
p907
I1
sS'putty'
p908
I1
sS'plea'
p909
I1
sS'judson'
p910
I1
sS'lyrics'
p911
I1
sS'explorers'
p912
I1
sS'vaccine'
p913
I1
sS'revolutionary'
p914
I1
sS'pike'
p915
I1
sS'sister'
p916
I2
sS'journalist'
p917
I1
sS'hamed'
p918
I1
sS'son-in-law'
p919
I2
sS'cowboy'
p920
I2
sS'prophet'
p921
I5
sS'florida'
p922
I1
sS'david'
p923
I1
sS'strange'
p924
I1
sS'american'
p925
I2
sS'coronado'
p926
I1
sS'editor'
p927
I3
sS'gordon'
p928
I1
sS'congressman'
p929
I1
sS'emperor'
p930
I1
sS'book'
p931
I1
sS'nixon'
p932
I1
sS'marlowe'
p933
I1
sS'playwright'
p934
I1
sS'superbowl'
p935
I1
sS'fischer'
p936
I1
sS'damocles'
p937
I1
sS'image'
p938
I1
sS'profession'
p939
I4
sS'primary'
p940
I1
sS'auh2o'
p941
I1
sS'son'
p942
I3
sS'feet'
p943
I1
sS'rosanna-dana'
p944
I1
sS'sailor'
p945
I1
sS'weather'
p946
I1
sS'ybarra'
p947
I1
sS'owner'
p948
I1
sS'comic'
p949
I1
sS'engineer'
p950
I2
sS'corporal'
p951
I1
sS'grange'
p952
I1
sS'story'
p953
I2
sS'basketball'
p954
I3
sS'lacan'
p955
I1
sS'eriksen'
p956
I1
sS'fields'
p957
I1
sS'nickname'
p958
I7
sS'sculptress'
p959
I1
sS'night'
p960
I3
sS'question'
p961
I1
sS'vocalist'
p962
I1
sS'carson'
p963
I1
sS'synthesizer'
p964
I1
sS'master'
p965
I1
sS'sergeant'
p966
I1
sS'way'
p967
I2
sS'jaws'
p968
I1
sS'dictator'
p969
I3
sS'kid'
p970
I2
sS'war'
p971
I2
sS'friend'
p972
I1
sS'beard'
p973
I1
sS'jones'
p974
I1
sS'eyes'
p975
I1
sS'labianca'
p976
I1
sS'hawking'
p977
I1
sS'airwaves'
p978
I1
sS'prewett'
p979
I1
sS'circumnavigator'
p980
I1
sS'make-up'
p981
I1
sS'pitcher'
p982
I1
sS'task'
p983
I1
sS'poet'
p984
I6
sS'part'
p985
I3
sS'jordan'
p986
I1
sS'tools'
p987
I1
sS'mules'
p988
I1
sS'boyfriend'
p989
I1
sS'charcter'
p990
I1
sS'king'
p991
I12
sS'television'
p992
I1
sS'ben'
p993
I1
sS'dog'
p994
I1
sS'players'
p995
I1
sS'us'
p996
I1
sS'record'
p997
I2
sS'listeners'
p998
I1
sS'architect'
p999
I2
sS'williams'
p1000
I2
sS'vatican'
p1001
I2
sS'stardust'
p1002
I1
sS'prankster'
p1003
I1
sS'bridge'
p1004
I1
sS'surname'
p1005
I1
sS'moore'
p1006
I1
sS'clip'
p1007
I1
sS'look'
p1008
I1
sS'astaire'
p1009
I1
sS'premier'
p1010
I1
sS'unsafe'
p1011
I1
sS'head'
p1012
I2
sS'voices'
p1013
I1
sS'talking'
p1014
I1
sS'garfield'
p1015
I1
sS'comedian'
p1016
I9
sS'novelist'
p1017
I2
sS'quetzalcoatl'
p1018
I1
sS'realm'
p1019
I1
sS'cherokee'
p1020
I1
sS'collector'
p1021
I1
sS'steamboat'
p1022
I1
sS'parks'
p1023
I1
sS'bremer'
p1024
I1
sS'caesar'
p1025
I2
sS'role'
p1026
I6
sS'chairman'
p1027
I2
sS'forces'
p1028
I1
sS'president-to-be'
p1029
I1
sS'department'
p1030
I1
sS'panties'
p1031
I1
sS'medals'
p1032
I1
sS'dumpty'
p1033
I2
sS'conservationist'
p1034
I1
sS'star'
p1035
I4
sS'godfather'
p1036
I1
sS'death'
p1037
I1
sS'phonograph'
p1038
I1
sS'pendulum'
p1039
I1
sS'swampy'
p1040
I1
sS'reign'
p1041
I1
sS'letter'
p1042
I1
sS'nothing'
p1043
I1
sS'pope'
p1044
I2
sS'model'
p1045
I1
sS'ishmael'
p1046
I1
sS'brandt'
p1047
I1
sS'ghost'
p1048
I1
sS'dummy'
p1049
I1
sS'singer'
p1050
I5
sS'studio'
p1051
I1
sS'rogers'
p1052
I1
sS'wife'
p1053
I2
sS'duckling'
p1054
I1
sS'cover'
p1055
I1
sS'rockefeller'
p1056
I1
sS'ottawa'
p1057
I1
sS'almanac'
p1058
I1
sS'enterprise'
p1059
I1
sS'scoundrel'
p1060
I1
stp1061
Rp1062
(dp1063
g26
I1034
sg45
Nsg46
Nsg47
Nsbsg48
I1487
sg49
F1777.5
sbs(g8
g19
tp1064
g0
(g21
g2
Ntp1065
Rp1066
(dp1067
g25
F0.5
sg26
I1250
sg27
g0
(g28
g29
(dp1068
g31
I158
sS'lack'
p1069
I1
sS'four'
p1070
I1
sS'crocodile'
p1071
I1
sS'gang'
p1072
I1
sS'skin'
p1073
I1
sS'dish'
p1074
I1
sS'bomb'
p1075
I1
sS'children'
p1076
I1
sS'simon'
p1077
I1
sS'baseball'
p1078
I1
sS'tv'
p1079
I14
sS'technique'
p1080
I2
sS'languages'
p1081
I3
sS'fingernails'
p1082
I1
sS'tail'
p1083
I1
sS'program'
p1084
I3
sS'terror'
p1085
I1
sS'ingredient'
p1086
I1
sS'plants'
p1087
I2
sS'woman'
p1088
I1
sS'song'
p1089
I6
sS'translations'
p1090
I1
sS'jeroboams'
p1091
I1
sS'jack'
p1092
I1
sS'word'
p1093
I17
sS'magic'
p1094
I1
sS'prize'
p1095
I1
sS'level'
p1096
I1
sS'crops'
p1097
I1
sS'gender'
p1098
I2
sS'notes'
p1099
I1
sS'companies'
p1100
I1
sS'belushi'
p1101
I1
sS'car'
p1102
I3
sS'mammal'
p1103
I3
sS'stingers'
p1104
I1
sS'olympic'
p1105
I1
sS'carter'
p1106
I1
sS'japanese'
p1107
I1
sS'crop'
p1108
I3
sS'sign'
p1109
I3
sS'chef'
p1110
I1
sS'battle'
p1111
I2
sS'titles'
p1112
I1
sS'video'
p1113
I2
sS'hymn'
p1114
I2
sS'constitution'
p1115
I1
sS'clock'
p1116
I1
sS'tarantula'
p1117
I1
sS'net'
p1118
I1
sS'tournaments'
p1119
I1
sS'bird'
p1120
I3
sS'body'
p1121
I1
sS'leg'
p1122
I1
sS'men'
p1123
I1
sS'french'
p1124
I1
sS'dipsomaniac'
p1125
I1
sS'operating'
p1126
I2
sS'yards'
p1127
I1
sS'goldfish'
p1128
I1
sS'tragedy'
p1129
I2
sS'hass'
p1130
I1
sS'luther'
p1131
I1
sS'substance'
p1132
I4
sS'products'
p1133
I3
sS'franklin'
p1134
I1
sS'birthstone'
p1135
I1
sS'otters'
p1136
I1
sS'classification'
p1137
I1
sS'spermologer'
p1138
I1
sS'respirator'
p1139
I1
sS'italians'
p1140
I1
sS'names'
p1141
I3
sS'tools'
p1142
I1
sS'chefs'
p1143
I1
sS'ladybugs'
p1144
I1
sS'indians'
p1145
I1
sS'symphony'
p1146
I1
sS'music'
p1147
I1
sS'films'
p1148
I2
sS'type'
p1149
I1
sS'household'
p1150
I2
sS'ballad'
p1151
I1
sS'sort'
p1152
I1
sS'playboy'
p1153
I1
sS'phobophobe'
p1154
I1
sS'shipwreck'
p1155
I1
sS'club'
p1156
I1
sS'company'
p1157
I1
sS'award'
p1158
I1
sS'glass'
p1159
I1
sS'flag'
p1160
I1
sS'adult'
p1161
I1
sS'rabbit'
p1162
I2
sS'shostakovich'
p1163
I1
sS'mascot'
p1164
I1
sS'balls'
p1165
I1
sS'animals'
p1166
I8
sS'primate'
p1167
I1
sS'science'
p1168
I1
sS'athlete'
p1169
I1
sS'work'
p1170
I1
sS'foods'
p1171
I3
sS'sweeter'
p1172
I1
sS'entertainer'
p1173
I1
sS'seagull'
p1174
I1
sS'example'
p1175
I1
sS'nino'
p1176
I1
sS'chip'
p1177
I1
sS'currency'
p1178
I1
sS'stroke'
p1179
I1
sS'best-seller'
p1180
I1
sS'airplane'
p1181
I2
sS'species'
p1182
I3
sS'damage'
p1183
I1
sS'chemical'
p1184
I1
sS'animal'
p1185
I17
sS'creature'
p1186
I4
sS'gaming'
p1187
I1
sS'plant'
p1188
I4
sS'cocktail'
p1189
I2
sS'singular'
p1190
I1
sS'may'
p1191
I2
sS'clone'
p1192
I1
sS'rites'
p1193
I1
sS'conjugations'
p1194
I1
sS'philatelist'
p1195
I1
sS'softball'
p1196
I1
sS'types'
p1197
I3
sS'man'
p1198
I2
sS'noun'
p1199
I1
sS'liquid'
p1200
I1
sS'liner'
p1201
I1
sS'element'
p1202
I2
sS'tale'
p1203
I1
sS'bakery'
p1204
I1
sS'alloy'
p1205
I1
sS'wine'
p1206
I1
sS'producer'
p1207
I1
sS'move'
p1208
I1
sS'mission'
p1209
I1
sS'meter'
p1210
I2
sS'trade'
p1211
I1
sS'sperm'
p1212
I2
sS'course'
p1213
I1
sS'paper'
p1214
I1
sS'oven'
p1215
I1
sS'signs'
p1216
I1
sS'magoo'
p1217
I1
sS'birds'
p1218
I2
sS'golfing'
p1219
I1
sS'forms'
p1220
I1
sS'holiday'
p1221
I1
sS'diseases'
p1222
I1
sS'food'
p1223
I8
sS'auto'
p1224
I1
sS'killer'
p1225
I1
sS'amendements'
p1226
I1
sS'therapy'
p1227
I1
sS'snake'
p1228
I1
sS'compound'
p1229
I1
sS'satellites'
p1230
I1
sS'clouds'
p1231
I1
sS'day'
p1232
I1
sS'articles'
p1233
I1
sS'term'
p1234
I18
sS'name'
p1235
I75
sS'opera'
p1236
I2
sS'january'
p1237
I1
sS'policeman'
p1238
I1
sS'drake'
p1239
I1
sS'events'
p1240
I3
sS'habits'
p1241
I1
sS'predators'
p1242
I1
sS'side'
p1243
I1
sS'bone'
p1244
I1
sS'wheel'
p1245
I1
sS'ailment'
p1246
I1
sS'generation'
p1247
I1
sS'series'
p1248
I1
sS'fish'
p1249
I1
sS'spider'
p1250
I1
sS'books'
p1251
I1
sS'year'
p1252
I1
sS'aids'
p1253
I1
sS'ribavirin'
p1254
I1
sS'marley'
p1255
I1
sS'event'
p1256
I2
sS'album'
p1257
I1
sS'flower'
p1258
I1
sS'god'
p1259
I1
sS'vessels'
p1260
I2
sS'strokes'
p1261
I1
sS'race'
p1262
I3
sS'medicine'
p1263
I1
sS'formula'
p1264
I3
sS'plural'
p1265
I1
sS'achievements'
p1266
I1
sS'maneuver'
p1267
I1
sS'monster'
p1268
I1
sS'delicacy'
p1269
I1
sS'descendents'
p1270
I1
sS'story'
p1271
I1
sS'approaches'
p1272
I1
sS'basketball'
p1273
I1
sS'cookie'
p1274
I1
sS'hand'
p1275
I1
sS'card'
p1276
I7
sS'soundtrack'
p1277
I1
sS'language'
p1278
I10
sS'garment'
p1279
I1
sS'counterpart'
p1280
I2
sS'thing'
p1281
I3
sS'soda'
p1282
I1
sS'stewart'
p1283
I1
sS'vowel'
p1284
I2
sS'feet'
p1285
I1
sS'owner'
p1286
I1
sS'overalls'
p1287
I1
sS'millions'
p1288
I1
sS'paine'
p1289
I1
sS'razor'
p1290
I1
sS'horse'
p1291
I2
sS'toy'
p1292
I1
sS'automobile'
p1293
I1
sS'system'
p1294
I2
sS'syrup'
p1295
I1
sS'genesis'
p1296
I1
sS'stars'
p1297
I1
sS'chemicals'
p1298
I3
sS'part'
p1299
I4
sS'cereal'
p1300
I4
sS'translation'
p1301
I1
sS'flowers'
p1302
I1
sS'symptom'
p1303
I1
sS'milton'
p1304
I1
sS'kind'
p1305
I3
sS'domestica'
p1306
I1
sS'johnson'
p1307
I1
sS'shampoo'
p1308
I1
sS'dogs'
p1309
I1
sS'invention'
p1310
I1
sS'cards'
p1311
I2
sS'outcome'
p1312
I1
sS'sculpture'
p1313
I2
sS'bridge'
p1314
I1
sS'fowl'
p1315
I1
sS'deodorant'
p1316
I1
sS'ages'
p1317
I1
sS'mine'
p1318
I1
sS'pedometer'
p1319
I1
sS'tastes'
p1320
I1
sS'shrubs'
p1321
I1
sS'spectacle'
p1322
I1
sS'allen'
p1323
I1
sS'handicraft'
p1324
I1
sS'harper'
p1325
I1
sS'chiropodist'
p1326
I1
sS'soap'
p1327
I2
sS'play'
p1328
I4
sS'thrilled'
p1329
I1
sS'object'
p1330
I1
sS'cigarette'
p1331
I2
sS'regular'
p1332
I1
sS'letter'
p1333
I5
sS'exercises'
p1334
I1
sS'coin'
p1335
I1
sS'class'
p1336
I2
sS'synonym'
p1337
I1
sS'cover'
p1338
I1
sS'dog'
p1339
I2
sS'scotch'
p1340
I1
sS'dot'
p1341
I1
sS'charley'
p1342
I1
sS'golf'
p1343
I1
sS'phenomenon'
p1344
I2
sS'show'
p1345
I1
sS'queen'
p1346
I2
sS'recipe'
p1347
I1
sS'colors'
p1348
I7
sS'fear'
p1349
I62
sS'albums'
p1350
I1
sS'livestock'
p1351
I1
sS'resource'
p1352
I1
sS'ruin'
p1353
I1
sS'winner'
p1354
I1
sS'penalty'
p1355
I1
sS'molecules'
p1356
I1
sS'fuel'
p1357
I2
sS'circle'
p1358
I1
sS'hit'
p1359
I1
sS'commodity'
p1360
I1
sS'bear'
p1361
I1
sS'words'
p1362
I4
sS'tips'
p1363
I1
sS'bar'
p1364
I1
sS'organ'
p1365
I1
sS'encounters'
p1366
I1
sS'saliva'
p1367
I1
sS'method'
p1368
I2
sS'penguins'
p1369
I1
sS'roger'
p1370
I1
sS'abolitionists'
p1371
I1
sS'disaster'
p1372
I1
sS'tree'
p1373
I1
sS'farrier'
p1374
I1
sS'ancients'
p1375
I1
sS'humans'
p1376
I1
sS'sex'
p1377
I2
sS'cologne'
p1378
I1
sS'computer'
p1379
I2
sS'seal'
p1380
I1
sS'explosive'
p1381
I1
sS'sport'
p1382
I17
sS'ways'
p1383
I6
sS'movie'
p1384
I17
sS'review'
p1385
I1
sS'stories'
p1386
I1
sS'gemstone'
p1387
I1
sS'latin'
p1388
I1
sS'tristan'
p1389
I1
sS'ability'
p1390
I1
sS't.v.'
p1391
I1
sS'first-aid'
p1392
I1
sS'piece'
p1393
I2
sS'drug'
p1394
I4
sS'connection'
p1395
I1
sS'games'
p1396
I2
sS'berry'
p1397
I1
sS'faces'
p1398
I1
sS'witch'
p1399
I1
sS'heliologist'
p1400
I1
sS'statues'
p1401
I1
sS'cancer'
p1402
I2
sS'color'
p1403
I28
sS'period'
p1404
I1
sS'cult'
p1405
I1
sS'pole'
p1406
I1
sS'vessel'
p1407
I1
sS'belt'
p1408
I1
sS'conference'
p1409
I1
sS'hawkins'
p1410
I1
sS'instrument'
p1411
I5
sS'trilogy'
p1412
I1
sS'trademark'
p1413
I2
sS'mark'
p1414
I1
sS'submarine'
p1415
I1
sS'beer'
p1416
I4
sS'treat'
p1417
I1
sS'board'
p1418
I2
sS'flight'
p1419
I1
sS'ridder'
p1420
I1
sS'locations'
p1421
I1
sS'tiger'
p1422
I1
sS'bible'
p1423
I1
sS'expedition'
p1424
I1
sS'ravens'
p1425
I1
sS'jell-o'
p1426
I1
sS'sound'
p1427
I1
sS'novel'
p1428
I22
sS'value'
p1429
I1
sS'droppings'
p1430
I1
sS'newspaper'
p1431
I4
sS'procedure'
p1432
I1
sS'layer'
p1433
I1
sS'calculator'
p1434
I1
sS'player'
p1435
I1
sS'alphabet'
p1436
I1
sS'bowl'
p1437
I1
sS'member'
p1438
I1
sS'esquire'
p1439
I1
sS'vegetable'
p1440
I2
sS'document'
p1441
I1
sS'composition'
p1442
I1
sS'week'
p1443
I1
sS'ball'
p1444
I2
sS'drink'
p1445
I17
sS'huston'
p1446
I1
sS'holidays'
p1447
I1
sS'fruit'
p1448
I1
sS'statue'
p1449
I1
sS'whale'
p1450
I2
sS'nickname'
p1451
I1
sS'tune'
p1452
I1
sS'kid'
p1453
I1
sS'smokey'
p1454
I1
sS'peacocks'
p1455
I1
sS'weapon'
p1456
I4
sS'variety'
p1457
I1
sS'game'
p1458
I7
sS'ocean'
p1459
I1
sS'materials'
p1460
I1
sS'components'
p1461
I1
sS'model'
p1462
I1
sS'musical'
p1463
I2
sS'deltiologist'
p1464
I1
sS'plagues'
p1465
I1
sS'traditions'
p1466
I1
sS'money'
p1467
I3
sS'racehorse'
p1468
I1
sS'basophobic'
p1469
I1
sS'product'
p1470
I8
sS'shape'
p1471
I2
sS'flavor'
p1472
I1
sS'ads'
p1473
I1
sS'alternate'
p1474
I1
sS'source'
p1475
I1
sS'treatment'
p1476
I1
sS'crack'
p1477
I1
sS'visine'
p1478
I1
sS'earthquakes'
p1479
I1
sS'metalious'
p1480
I1
sS'tenses'
p1481
I1
sS'format'
p1482
I2
sS'sailors'
p1483
I1
sS'bands'
p1484
I1
sS'bid'
p1485
I1
sS'suffering'
p1486
I1
sS'gama'
p1487
I1
sS'world'
p1488
I1
sS'knox'
p1489
I1
sS'boob'
p1490
I1
sS'meat'
p1491
I1
sS'kennedy'
p1492
I1
sS'eidologist'
p1493
I1
sS'clay'
p1494
I1
sS'wonders'
p1495
I2
sS'pyramid-builders'
p1496
I1
sS'jews'
p1497
I1
sS'people'
p1498
I1
sS'hair'
p1499
I3
sS'export'
p1500
I1
sS'brontosauruses'
p1501
I1
sS'hurricane'
p1502
I1
sS'ice'
p1503
I1
sS'religion'
p1504
I2
sS'shakespeare'
p1505
I1
sS'epic'
p1506
I1
sS'measures'
p1507
I1
sS'rum'
p1508
I1
sS'equivalent'
p1509
I1
sS'slaughter'
p1510
I1
sS'vaccine'
p1511
I1
sS'trophy'
p1512
I2
sS'maclaine'
p1513
I1
sS'resurrectionist'
p1514
I1
sS'concerts'
p1515
I1
sS'magazine'
p1516
I7
sS'camels'
p1517
I1
sS'cartier'
p1518
I1
sS'emperor'
p1519
I1
sS'software'
p1520
I1
sS'letters'
p1521
I1
sS'washington'
p1522
I1
sS'device'
p1523
I2
sS'brush'
p1524
I1
sS'strip'
p1525
I3
sS'methods'
p1526
I1
sS'vegetables'
p1527
I1
sS'tennis'
p1528
I1
sS'cats'
p1529
I2
sS'bros.'
p1530
I1
sS'way'
p1531
I9
sS'suit'
p1532
I1
sS'war'
p1533
I12
sS'warlock'
p1534
I1
sS'medium'
p1535
I3
sS'form'
p1536
I2
sS'brand'
p1537
I1
sS'sequel'
p1538
I3
sS'oil'
p1539
I1
sS'principles'
p1540
I1
sS'observances'
p1541
I1
sS'line'
p1542
I1
sS'ear'
p1543
I1
sS'spice'
p1544
I1
sS'manatees'
p1545
I1
sS'limit'
p1546
I1
sS'stages'
p1547
I1
sS'condiment'
p1548
I2
sS'palate'
p1549
I1
sS'classic'
p1550
I1
sS'taste'
p1551
I1
sS'strips'
p1552
I1
sS'disease'
p1553
I11
sS'gland'
p1554
I1
sS'majal'
p1555
I1
sS'ship'
p1556
I3
sS'film'
p1557
I23
sS'ingredients'
p1558
I1
sS'trials'
p1559
I2
sS'actor'
p1560
I1
sS'snakes'
p1561
I1
sS'field'
p1562
I1
sS'book'
p1563
I21
sS'jong'
p1564
I1
sS'mayonnaise'
p1565
I1
sS'elements'
p1566
I4
sS'kinds'
p1567
I1
sS'brothers'
p1568
I1
sS'congress'
p1569
I1
sS'symbol'
p1570
I3
sS'lens'
p1571
I1
sS'structure'
p1572
I1
sS'age'
p1573
I1
sS'vehicles'
p1574
I1
sS'flatfish'
p1575
I1
sS'feud'
p1576
I1
sS'fastener'
p1577
I1
sS'craft'
p1578
I1
sS'menace'
p1579
I1
sS'songs'
p1580
I2
stp1581
Rp1582
(dp1583
g26
I1250
sg45
Nsg46
Nsg47
Nsbsg48
I1487
sg49
F1993.5
sbs(g12
g19
tp1584
g0
(g21
g2
Ntp1585
Rp1586
(dp1587
g25
F0.5
sg26
I218
sg27
g0
(g28
g29
(dp1588
g31
I14
sS'ambassador'
p1589
I1
sS'helens'
p1590
I1
sS'clark'
p1591
I1
sS'show'
p1592
I1
sS'wall'
p1593
I1
sS'revolutionaries'
p1594
I1
sS'charles'
p1595
I1
sS'period'
p1596
I2
sS'month'
p1597
I3
sS'muhammad'
p1598
I1
sS'ussr'
p1599
I1
sS'americans'
p1600
I1
sS'hugo'
p1601
I1
sS'battle'
p1602
I2
sS'mill'
p1603
I1
sS'hitler'
p1604
I1
sS'transplant'
p1605
I1
sS'use'
p1606
I1
sS'group'
p1607
I1
sS'troops'
p1608
I1
sS'festival'
p1609
I1
sS'ruby'
p1610
I1
sS'attack'
p1611
I1
sS'labor'
p1612
I1
sS'window'
p1613
I1
sS'music'
p1614
I1
sS'teenager'
p1615
I1
sS'mutiny'
p1616
I1
sS'bill'
p1617
I1
sS'war'
p1618
I1
sS'engine'
p1619
I1
sS'israel'
p1620
I1
sS'woman'
p1621
I1
sS'fire'
p1622
I2
sS'dam'
p1623
I1
sS'company'
p1624
I1
sS'thatcher'
p1625
I1
sS'test'
p1626
I1
sS'slinky'
p1627
I1
sS'bible'
p1628
I1
sS'wedding'
p1629
I1
sS'railroad'
p1630
I1
sS'erected'
p1631
I1
sS'banner'
p1632
I1
sS'day'
p1633
I8
sS'bar-code'
p1634
I1
sS'nfl'
p1635
I1
sS'encyclopedia'
p1636
I1
sS'birthdate'
p1637
I1
sS'helen'
p1638
I2
sS'architecture'
p1639
I2
sS'man'
p1640
I1
sS'yemen'
p1641
I1
sS'amendment'
p1642
I1
sS'menstruation'
p1643
I1
sS'beethoven'
p1644
I2
sS'art'
p1645
I1
sS'osbourne'
p1646
I1
sS'century'
p1647
I3
sS'rousseau'
p1648
I1
sS'house'
p1649
I1
sS'fish'
p1650
I1
sS'humans'
p1651
I1
sS'spielberg'
p1652
I1
sS'mormons'
p1653
I1
sS'roosevelt'
p1654
I1
sS'year'
p1655
I45
sS'aeul'
p1656
I1
sS'depression'
p1657
I1
sS'toilet'
p1658
I1
sS'nostradamus'
p1659
I2
sS'christ'
p1660
I1
sS'amtrak'
p1661
I1
sS'barbie'
p1662
I1
sS'sun'
p1663
I1
sS'fraze'
p1664
I1
sS'concert'
p1665
I1
sS'www.questions.com'
p1666
I1
sS'flood'
p1667
I1
sS'millennium'
p1668
I1
sS'huxley'
p1669
I1
sS'season'
p1670
I4
sS'cnn'
p1671
I2
sS'gate'
p1672
I2
sS'ruth'
p1673
I1
sS'pastorius'
p1674
I1
sS'typewriter'
p1675
I1
sS'parthenon'
p1676
I1
sS'korea'
p1677
I1
sS'congress'
p1678
I1
sS'noriega'
p1679
I1
sS'journal'
p1680
I1
sS'eruption'
p1681
I1
sS'victoria'
p1682
I1
sS'control'
p1683
I1
sS'birthday'
p1684
I4
sS'awards'
p1685
I1
sS'date'
p1686
I13
sS'vesuvius'
p1687
I1
sS'weekend'
p1688
I1
sS'lindbergh'
p1689
I1
sS'camcorders'
p1690
I1
sS'broadcast'
p1691
I1
sS'dates'
p1692
I1
sS'accident'
p1693
I1
sS'pangaea'
p1694
I1
sS'i'
p1695
I1
sS'months'
p1696
I1
sS'florida'
p1697
I1
sS'rockefeller'
p1698
I1
sS'dow'
p1699
I1
sS'games'
p1700
I1
sS'advertising'
p1701
I1
sS'time'
p1702
I2
sS'shorn'
p1703
I1
sS'railway'
p1704
I1
sS'swimming'
p1705
I1
sS'microsoft'
p1706
I1
sS'nixon'
p1707
I3
stp1708
Rp1709
(dp1710
g26
I218
sg45
Nsg46
Nsg47
Nsbsg48
I1487
sg49
F961.5
sbs(g13
g19
tp1711
g0
(g21
g2
Ntp1712
Rp1713
(dp1714
g25
F0.5
sg26
I189
sg27
g0
(g28
g29
(dp1715
g31
I21
sS'tribe'
p1716
I2
sS'colleges'
p1717
I1
sS'agency'
p1718
I1
sS'chain'
p1719
I1
sS'photoshop'
p1720
I1
sS'money'
p1721
I1
sS'seizure'
p1722
I1
sS'county'
p1723
I1
sS'businesses'
p1724
I1
sS'president'
p1725
I1
sS'super-teams'
p1726
I1
sS'toy'
p1727
I1
sS'group'
p1728
I9
sS'producer'
p1729
I3
sS'service'
p1730
I1
sS'army'
p1731
I1
sS'automobile'
p1732
I1
sS'trademark'
p1733
I1
sS'hockey'
p1734
I1
sS'piano'
p1735
I1
sS'store'
p1736
I3
sS'government'
p1737
I1
sS'company'
p1738
I23
sS'spumante'
p1739
I1
sS'railways'
p1740
I1
sS'chocolate'
p1741
I1
sS'band'
p1742
I1
sS'races'
p1743
I1
sS'schools'
p1744
I1
sS'line'
p1745
I1
sS'school'
p1746
I5
sS'name'
p1747
I10
sS'society'
p1748
I1
sS'car'
p1749
I1
sS'university'
p1750
I5
sS'companies'
p1751
I2
sS'record'
p1752
I2
sS'offices'
p1753
I1
sS'team'
p1754
I7
sS'radio'
p1755
I2
sS'nickname'
p1756
I1
sS'example'
p1757
I1
sS'pyramid'
p1758
I1
sS'force'
p1759
I1
sS'people'
p1760
I2
sS'culture'
p1761
I1
sS'college'
p1762
I10
sS'logo'
p1763
I1
sS'airplane'
p1764
I2
sS'enemies'
p1765
I1
sS'competitor'
p1766
I1
sS'network'
p1767
I1
sS'corporation'
p1768
I2
sS'manufacturers'
p1769
I1
sS'administration'
p1770
I1
sS'civilization'
p1771
I1
sS'bureau'
p1772
I1
sS'department'
p1773
I1
sS'party'
p1774
I3
sS'oil'
p1775
I1
sS'business'
p1776
I4
sS'court'
p1777
I1
sS'agencies'
p1778
I1
sS'isps'
p1779
I1
sS'cigarette'
p1780
I1
sS'baseball'
p1781
I2
sS'groups'
p1782
I1
sS'police'
p1783
I2
sS'motto'
p1784
I1
sS'bulls'
p1785
I1
sS'super'
p1786
I1
sS'card'
p1787
I1
sS'manufacturer'
p1788
I2
sS'league'
p1789
I3
sS'stereo'
p1790
I1
sS'challengers'
p1791
I1
sS'airline'
p1792
I1
sS'organization'
p1793
I7
sS'residents'
p1794
I1
stp1795
Rp1796
(dp1797
g26
I189
sg45
Nsg46
Nsg47
Nsbsg48
I1487
sg49
F932.5
sbssS'_label_probdist'
p1798
g0
(g21
g2
Ntp1799
Rp1800
(dp1801
g25
F0.5
sg26
I4204
sg27
g0
(g28
g29
(dp1802
g15
I71
sg16
I27
sg11
I505
sg9
I1034
sg8
I1250
sg10
I835
sg14
I75
sg12
I218
sg13
I189
stp1803
Rp1804
(dp1805
g26
I4204
sg45
Nsg46
(lp1806
(g8
I1250
tp1807
a(g9
I1034
tp1808
a(g10
I835
tp1809
a(g11
I505
tp1810
a(g12
I218
tp1811
a(g13
I189
tp1812
a(g14
I75
tp1813
a(g15
I71
tp1814
a(g16
I27
tp1815
asg47
Nsbsg48
I9
sg49
F4208.5
sbsb.