ccopy_reg
_reconstructor
p0
(cnltk.classify.decisiontree
DecisionTreeClassifier
p1
c__builtin__
object
p2
Ntp3
Rp4
(dp5
S'_fname'
p6
S'head'
p7
sS'_label'
p8
S'OTHER'
p9
sS'_decisions'
p10
(dp11
S''
p12
g0
(g1
g2
Ntp13
Rp14
(dp15
g6
Nsg8
S'OTHER'
p16
sg10
NsS'_default'
p17
NsbsS'four'
p18
g0
(g1
g2
Ntp19
Rp20
(dp21
g6
Nsg8
S'OTHER'
p22
sg10
Nsg17
NsbsS'captain'
p23
g0
(g1
g2
Ntp24
Rp25
(dp26
g6
Nsg8
S'PERSON'
p27
sg10
Nsg17
NsbsS'votes'
p28
g0
(g1
g2
Ntp29
Rp30
(dp31
g6
Nsg8
S'NUMBER'
p32
sg10
Nsg17
NsbsS'electricity'
p33
g0
(g1
g2
Ntp34
Rp35
(dp36
g6
Nsg8
S'PERSON'
p37
sg10
Nsg17
NsbsS'fingernails'
p38
g0
(g1
g2
Ntp39
Rp40
(dp41
g6
Nsg8
S'OTHER'
p42
sg10
Nsg17
NsbsS'teaspoon'
p43
g0
(g1
g2
Ntp44
Rp45
(dp46
g6
Nsg8
S'NUMBER'
p47
sg10
Nsg17
NsbsS'crooner'
p48
g0
(g1
g2
Ntp49
Rp50
(dp51
g6
Nsg8
S'PERSON'
p52
sg10
Nsg17
NsbsS'pride'
p53
g0
(g1
g2
Ntp54
Rp55
(dp56
g6
Nsg8
S'PERSON'
p57
sg10
Nsg17
NsbsS'worth'
p58
g0
(g1
g2
Ntp59
Rp60
(dp61
g6
Nsg8
S'MONEY'
p62
sg10
Nsg17
NsbsS'oceans'
p63
g0
(g1
g2
Ntp64
Rp65
(dp66
g6
Nsg8
S'LOCATION'
p67
sg10
Nsg17
NsbsS'railways'
p68
g0
(g1
g2
Ntp69
Rp70
(dp71
g6
Nsg8
S'ORGANIZATION'
p72
sg10
Nsg17
NsbsS'jeroboams'
p73
g0
(g1
g2
Ntp74
Rp75
(dp76
g6
Nsg8
S'OTHER'
p77
sg10
Nsg17
NsbsS'jack'
p78
g0
(g1
g2
Ntp79
Rp80
(dp81
g6
Nsg8
S'OTHER'
p82
sg10
Nsg17
NsbsS'chapel'
p83
g0
(g1
g2
Ntp84
Rp85
(dp86
g6
Nsg8
S'PERSON'
p87
sg10
Nsg17
NsbsS'school'
p88
g0
(g1
g2
Ntp89
Rp90
(dp91
g6
Nsg8
S'ORGANIZATION'
p92
sg10
Nsg17
NsbsS'prize'
p93
g0
(g1
g2
Ntp94
Rp95
(dp96
g6
Nsg8
S'PERSON'
p97
sg10
Nsg17
NsbsS'crops'
p98
g0
(g1
g2
Ntp99
Rp100
(dp101
g6
Nsg8
S'OTHER'
p102
sg10
Nsg17
NsbsS'companies'
p103
g0
(g1
g2
Ntp104
Rp105
(dp106
g6
Nsg8
S'ORGANIZATION'
p107
sg10
Nsg17
NsbsS'casinos'
p108
g0
(g1
g2
Ntp109
Rp110
(dp111
g6
Nsg8
S'NUMBER'
p112
sg10
Nsg17
NsbsS'force'
p113
g0
(g1
g2
Ntp114
Rp115
(dp116
g6
Nsg8
S'PERSON'
p117
sg10
Nsg17
NsbsS'leaders'
p118
g0
(g1
g2
Ntp119
Rp120
(dp121
g6
Nsg8
S'PERSON'
p122
sg10
Nsg17
NsbsS'japanese'
p123
g0
(g1
g2
Ntp124
Rp125
(dp126
g6
Nsg8
S'OTHER'
p127
sg10
Nsg17
NsbsS'chef'
p128
g0
(g1
g2
Ntp129
Rp130
(dp131
g6
Nsg8
S'OTHER'
p132
sg10
Nsg17
NsbsS'street'
p133
g0
(g1
g2
Ntp134
Rp135
(dp136
g6
Nsg8
S'LOCATION'
p137
sg10
Nsg17
NsbsS'monster'
p138
g0
(g1
g2
Ntp139
Rp140
(dp141
g6
Nsg8
S'PERSON'
p142
sg10
Nsg17
NsbsS'christ'
p143
g0
(g1
g2
Ntp144
Rp145
(dp146
g6
Nsg8
S'DATE'
p147
sg10
Nsg17
NsbsS'fingers'
p148
g0
(g1
g2
Ntp149
Rp150
(dp151
g6
Nsg8
S'NUMBER'
p152
sg10
Nsg17
NsbsS'toll'
p153
g0
(g1
g2
Ntp154
Rp155
(dp156
g6
Nsg8
S'NUMBER'
p157
sg10
Nsg17
NsbsS'new'
p158
g0
(g1
g2
Ntp159
Rp160
(dp161
g6
Nsg8
S'PERSON'
p162
sg10
Nsg17
NsbsS'net'
p163
g0
(g1
g2
Ntp164
Rp165
(dp166
g6
Nsg8
S'OTHER'
p167
sg10
Nsg17
NsbsS'admiral'
p168
g0
(g1
g2
Ntp169
Rp170
(dp171
g6
Nsg8
S'PERSON'
p172
sg10
Nsg17
NsbsS'hero'
p173
g0
(g1
g2
Ntp174
Rp175
(dp176
g6
Nsg8
S'PERSON'
p177
sg10
Nsg17
NsbsS'men'
p178
g0
(g1
g2
Ntp179
Rp180
(dp181
g6
Nsg8
S'OTHER'
p182
sg10
Nsg17
NsbsS'dipsomaniac'
p183
g0
(g1
g2
Ntp184
Rp185
(dp186
g6
Nsg8
S'OTHER'
p187
sg10
Nsg17
NsbsS'studio'
p188
g0
(g1
g2
Ntp189
Rp190
(dp191
g6
Nsg8
S'PERSON'
p192
sg10
Nsg17
NsbsS'cult'
p193
g0
(g1
g2
Ntp194
Rp195
(dp196
g6
Nsg8
S'OTHER'
p197
sg10
Nsg17
NsbsS'digits'
p198
g0
(g1
g2
Ntp199
Rp200
(dp201
g6
Nsg8
S'NUMBER'
p202
sg10
Nsg17
NsbsS'luther'
p203
g0
(g1
g2
Ntp204
Rp205
(dp206
g6
Nsg8
S'OTHER'
p207
sg10
Nsg17
NsbsS'substance'
p208
g0
(g1
g2
Ntp209
Rp210
(dp211
g6
Nsg8
S'OTHER'
p212
sg10
Nsg17
NsbsS'daughter'
p213
g0
(g1
g2
Ntp214
Rp215
(dp216
g6
Nsg8
S'PERSON'
p217
sg10
Nsg17
NsbsS'credit'
p218
g0
(g1
g2
Ntp219
Rp220
(dp221
g6
Nsg8
S'PERSON'
p222
sg10
Nsg17
NsbsS'mentor'
p223
g0
(g1
g2
Ntp224
Rp225
(dp226
g6
Nsg8
S'PERSON'
p227
sg10
Nsg17
NsbsS'otters'
p228
g0
(g1
g2
Ntp229
Rp230
(dp231
g6
Nsg8
S'OTHER'
p232
sg10
Nsg17
NsbsS'classification'
p233
g0
(g1
g2
Ntp234
Rp235
(dp236
g6
Nsg8
S'OTHER'
p237
sg10
Nsg17
NsbsS'erected'
p238
g0
(g1
g2
Ntp239
Rp240
(dp241
g6
Nsg8
S'DATE'
p242
sg10
Nsg17
NsbsS'county'
p243
g0
(g1
g2
Ntp244
Rp245
(dp246
g6
Nsg8
S'LOCATION'
p247
sg10
Nsg17
NsbsS'bra'
p248
g0
(g1
g2
Ntp249
Rp250
(dp251
g6
Nsg8
S'PERSON'
p252
sg10
Nsg17
NsbsS'dna'
p253
g0
(g1
g2
Ntp254
Rp255
(dp256
g6
Nsg8
S'PERSON'
p257
sg10
Nsg17
NsbsS'army'
p258
g0
(g1
g2
Ntp259
Rp260
(dp261
g6
Nsg8
S'ORGANIZATION'
p262
sg10
Nsg17
NsbsS'hospital'
p263
g0
(g1
g2
Ntp264
Rp265
(dp266
g6
Nsg8
S'LOCATION'
p267
sg10
Nsg17
NsbsS'indians'
p268
g0
(g1
g2
Ntp269
Rp270
(dp271
g6
Nsg8
S'OTHER'
p272
sg10
Nsg17
NsbsS'symphony'
p273
g0
(g1
g2
Ntp274
Rp275
(dp276
g6
Nsg8
S'OTHER'
p277
sg10
Nsg17
NsbsS'music'
p278
g0
(g1
g2
Ntp279
Rp280
(dp281
g6
Nsg8
S'PERSON'
p282
sg10
Nsg17
NsbsS'type'
p283
g0
(g1
g2
Ntp284
Rp285
(dp286
g6
Nsg8
S'OTHER'
p287
sg10
Nsg17
NsbsS'playboy'
p288
g0
(g1
g2
Ntp289
Rp290
(dp291
g6
Nsg8
S'OTHER'
p292
sg10
Nsg17
NsbsS'phobophobe'
p293
g0
(g1
g2
Ntp294
Rp295
(dp296
g6
Nsg8
S'OTHER'
p297
sg10
Nsg17
NsbsS'award'
p298
g0
(g1
g2
Ntp299
Rp300
(dp301
g6
Nsg8
S'PERSON'
p302
sg10
Nsg17
NsbsS'phone'
p303
g0
(g1
g2
Ntp304
Rp305
(dp306
g6
Nsg8
S'NUMBER'
p307
sg10
Nsg17
NsbsS'adult'
p308
g0
(g1
g2
Ntp309
Rp310
(dp311
g6
Nsg8
S'OTHER'
p312
sg10
Nsg17
NsbsS'hole'
p313
g0
(g1
g2
Ntp314
Rp315
(dp316
g6
Nsg8
S'LOCATION'
p317
sg10
Nsg17
NsbsS'word'
p318
g0
(g1
g2
Ntp319
Rp320
(dp321
g6
Nsg8
S'OTHER'
p322
sg10
Nsg17
NsbsS'room'
p323
g0
(g1
g2
Ntp324
Rp325
(dp326
g6
Nsg8
S'PERSON'
p327
sg10
Nsg17
NsbsS'rights'
p328
g0
(g1
g2
Ntp329
Rp330
(dp331
g6
Nsg8
S'PERSON'
p332
sg10
Nsg17
NsbsS'work'
p333
g0
(g1
g2
Ntp334
Rp335
(dp336
g6
Nsg8
S'OTHER'
p337
sg10
Nsg17
NsbsS'worm'
p338
g0
(g1
g2
Ntp339
Rp340
(dp341
g6
Nsg8
S'PERSON'
p342
sg10
Nsg17
NsbsS'movies'
p343
g0
(g1
g2
Ntp344
Rp345
(dp346
g6
Nsg8
S'NUMBER'
p347
sg10
Nsg17
NsbsS'sweeter'
p348
g0
(g1
g2
Ntp349
Rp350
(dp351
g6
Nsg8
S'OTHER'
p352
sg10
Nsg17
NsbsS'entertainer'
p353
g0
(g1
g2
Ntp354
Rp355
(dp356
g6
Nsg8
S'OTHER'
p357
sg10
Nsg17
NsbsS'example'
p358
g0
(g1
g2
Ntp359
Rp360
(dp361
g6
Nsg8
S'OTHER'
p362
sg10
Nsg17
NsbsS'boyfriend'
p363
g0
(g1
g2
Ntp364
Rp365
(dp366
g6
Nsg8
S'PERSON'
p367
sg10
Nsg17
NsbsS'hyatt'
p368
g0
(g1
g2
Ntp369
Rp370
(dp371
g6
Nsg8
S'PERSON'
p372
sg10
Nsg17
NsbsS'household'
p373
g0
(g1
g2
Ntp374
Rp375
(dp376
g6
Nsg8
S'OTHER'
p377
sg10
Nsg17
NsbsS'frickett'
p378
g0
(g1
g2
Ntp379
Rp380
(dp381
g6
Nsg8
S'PERSON'
p382
sg10
Nsg17
NsbsS'currency'
p383
g0
(g1
g2
Ntp384
Rp385
(dp386
g6
Nsg8
g9
sg10
Nsg17
NsbsS'foods'
p387
g0
(g1
g2
Ntp388
Rp389
(dp390
g6
Nsg8
S'OTHER'
p391
sg10
Nsg17
NsbsS'times'
p392
g0
(g1
g2
Ntp393
Rp394
(dp395
g6
Nsg8
S'NUMBER'
p396
sg10
Nsg17
NsbsS'damage'
p397
g0
(g1
g2
Ntp398
Rp399
(dp400
g6
Nsg8
S'OTHER'
p401
sg10
Nsg17
NsbsS'machine'
p402
g0
(g1
g2
Ntp403
Rp404
(dp405
g6
Nsg8
S'PERSON'
p406
sg10
Nsg17
NsbsS'writers'
p407
g0
(g1
g2
Ntp408
Rp409
(dp410
g6
Nsg8
S'PERSON'
p411
sg10
Nsg17
NsbsS'gate'
p412
g0
(g1
g2
Ntp413
Rp414
(dp415
g6
Nsg8
S'DATE'
p416
sg10
Nsg17
NsbsS'gamble'
p417
g0
(g1
g2
Ntp418
Rp419
(dp420
g6
Nsg8
S'LOCATION'
p421
sg10
Nsg17
NsbsS'pizza'
p422
g0
(g1
g2
Ntp423
Rp424
(dp425
g6
Nsg8
S'NUMBER'
p426
sg10
Nsg17
NsbsS'gaming'
p427
g0
(g1
g2
Ntp428
Rp429
(dp430
g6
Nsg8
S'OTHER'
p431
sg10
Nsg17
NsbsS'cherubs'
p432
g0
(g1
g2
Ntp433
Rp434
(dp435
g6
Nsg8
S'NUMBER'
p436
sg10
Nsg17
NsbsS'horoscope'
p437
g0
(g1
g2
Ntp438
Rp439
(dp440
g6
Nsg8
S'PERSON'
p441
sg10
Nsg17
NsbsS'delicacy'
p442
g0
(g1
g2
Ntp443
Rp444
(dp445
g6
Nsg8
S'OTHER'
p446
sg10
Nsg17
NsbsS'shores'
p447
g0
(g1
g2
Ntp448
Rp449
(dp450
g6
Nsg8
S'PERSON'
p451
sg10
Nsg17
NsbsS'philatelist'
p452
g0
(g1
g2
Ntp453
Rp454
(dp455
g6
Nsg8
S'OTHER'
p456
sg10
Nsg17
NsbsS'president'
p457
g0
(g1
g2
Ntp458
Rp459
(dp460
g6
Nsg8
S'PERSON'
p461
sg10
Nsg17
NsbsS'arch'
p462
g0
(g1
g2
Ntp463
Rp464
(dp465
g6
Nsg8
S'LOCATION'
p466
sg10
Nsg17
NsbsS'types'
p467
g0
(g1
g2
Ntp468
Rp469
(dp470
g6
Nsg8
S'OTHER'
p471
sg10
Nsg17
NsbsS'headquarters'
p472
g0
(g1
g2
Ntp473
Rp474
(dp475
g6
Nsg8
S'LOCATION'
p476
sg10
Nsg17
NsbsS'davies'
p477
g0
(g1
g2
Ntp478
Rp479
(dp480
g6
Nsg8
S'LOCATION'
p481
sg10
Nsg17
NsbsS'lindbergh'
p482
g0
(g1
g2
Ntp483
Rp484
(dp485
g6
Nsg8
S'PERSON'
p486
sg10
Nsg17
NsbsS'athletes'
p487
g0
(g1
g2
Ntp488
Rp489
(dp490
g6
Nsg8
S'NUMBER'
p491
sg10
Nsg17
NsbsS'order'
p492
g0
(g1
g2
Ntp493
Rp494
(dp495
g6
Nsg8
S'PERSON'
p496
sg10
Nsg17
NsbsS'wine'
p497
g0
(g1
g2
Ntp498
Rp499
(dp500
g6
Nsg8
S'OTHER'
p501
sg10
Nsg17
NsbsS'helens'
p502
g0
(g1
g2
Ntp503
Rp504
(dp505
g6
Nsg8
S'DATE'
p506
sg10
Nsg17
NsbsS'office'
p507
g0
(g1
g2
Ntp508
Rp509
(dp510
g6
Nsg8
S'TIME'
p511
sg10
Nsg17
NsbsS'oven'
p512
g0
(g1
g2
Ntp513
Rp514
(dp515
g6
Nsg8
S'OTHER'
p516
sg10
Nsg17
NsbsS'ancients'
p517
g0
(g1
g2
Ntp518
Rp519
(dp520
g6
Nsg8
S'OTHER'
p521
sg10
Nsg17
NsbsS'oswald'
p522
g0
(g1
g2
Ntp523
Rp524
(dp525
g6
Nsg8
S'PERSON'
p526
sg10
Nsg17
NsbsS'mayor'
p527
g0
(g1
g2
Ntp528
Rp529
(dp530
g6
Nsg8
S'PERSON'
p531
sg10
Nsg17
NsbsS'personas'
p532
g0
(g1
g2
Ntp533
Rp534
(dp535
g6
Nsg8
S'PERSON'
p536
sg10
Nsg17
NsbsS'diseases'
p537
g0
(g1
g2
Ntp538
Rp539
(dp540
g6
Nsg8
S'OTHER'
p541
sg10
Nsg17
NsbsS'band'
p542
g0
(g1
g2
Ntp543
Rp544
(dp545
g6
Nsg8
S'ORGANIZATION'
p546
sg10
Nsg17
NsbsS'therapy'
p547
g0
(g1
g2
Ntp548
Rp549
(dp550
g6
Nsg8
S'OTHER'
p551
sg10
Nsg17
NsbsS'schools'
p552
g0
(g1
g2
Ntp553
Rp554
(dp555
g6
Nsg8
S'ORGANIZATION'
p556
sg10
Nsg17
NsbsS'meat'
p557
g0
(g1
g2
Ntp558
Rp559
(dp560
g6
Nsg8
S'OTHER'
p561
sg10
Nsg17
NsbsS'volcano'
p562
g0
(g1
g2
Ntp563
Rp564
(dp565
g6
Nsg8
S'LOCATION'
p566
sg10
Nsg17
NsbsS'bells'
p567
g0
(g1
g2
Ntp568
Rp569
(dp570
g6
Nsg8
S'NUMBER'
p571
sg10
Nsg17
NsbsS'side'
p572
g0
(g1
g2
Ntp573
Rp574
(dp575
g6
Nsg8
S'OTHER'
p576
sg10
Nsg17
NsbsS'bone'
p577
g0
(g1
g2
Ntp578
Rp579
(dp580
g6
Nsg8
S'OTHER'
p581
sg10
Nsg17
NsbsS'expectancy'
p582
g0
(g1
g2
Ntp583
Rp584
(dp585
g6
Nsg8
S'TIME'
p586
sg10
Nsg17
NsbsS'telescope'
p587
g0
(g1
g2
Ntp588
Rp589
(dp590
g6
Nsg8
S'LOCATION'
p591
sg10
Nsg17
NsbsS'statue'
p592
g0
(g1
g2
Ntp593
Rp594
(dp595
g6
Nsg8
S'OTHER'
p596
sg10
Nsg17
NsbsS'garment'
p597
g0
(g1
g2
Ntp598
Rp599
(dp600
g6
Nsg8
S'OTHER'
p601
sg10
Nsg17
NsbsS'spider'
p602
g0
(g1
g2
Ntp603
Rp604
(dp605
g6
Nsg8
S'OTHER'
p606
sg10
Nsg17
NsbsS'aids'
p607
g0
(g1
g2
Ntp608
Rp609
(dp610
g6
Nsg8
S'OTHER'
p611
sg10
Nsg17
NsbsS'collector'
p612
g0
(g1
g2
Ntp613
Rp614
(dp615
g6
Nsg8
S'PERSON'
p616
sg10
Nsg17
NsbsS'network'
p617
g0
(g1
g2
Ntp618
Rp619
(dp620
g6
Nsg8
S'ORGANIZATION'
p621
sg10
Nsg17
NsbsS'god'
p622
g0
(g1
g2
Ntp623
Rp624
(dp625
g6
Nsg8
S'PERSON'
p626
sg10
Nsg17
NsbsS'vessels'
p627
g0
(g1
g2
Ntp628
Rp629
(dp630
g6
Nsg8
S'OTHER'
p631
sg10
Nsg17
NsbsS'daniel'
p632
g0
(g1
g2
Ntp633
Rp634
(dp635
g6
Nsg8
S'LOCATION'
p636
sg10
Nsg17
NsbsS'millennium'
p637
g0
(g1
g2
Ntp638
Rp639
(dp640
g6
Nsg8
S'DATE'
p641
sg10
Nsg17
NsbsS'medicine'
p642
g0
(g1
g2
Ntp643
Rp644
(dp645
g6
Nsg8
S'OTHER'
p646
sg10
Nsg17
NsbsS'millions'
p647
g0
(g1
g2
Ntp648
Rp649
(dp650
g6
Nsg8
S'OTHER'
p651
sg10
Nsg17
NsbsS'foundation'
p652
g0
(g1
g2
Ntp653
Rp654
(dp655
g6
Nsg8
S'PERSON'
p656
sg10
Nsg17
NsbsS'barrier'
p657
g0
(g1
g2
Ntp658
Rp659
(dp660
g6
Nsg8
S'PERSON'
p661
sg10
Nsg17
NsbsS'noriega'
p662
g0
(g1
g2
Ntp663
Rp664
(dp665
g6
Nsg8
S'DATE'
p666
sg10
Nsg17
NsbsS'dracula'
p667
g0
(g1
g2
Ntp668
Rp669
(dp670
g6
Nsg8
S'PERSON'
p671
sg10
Nsg17
NsbsS'u.s.'
p672
g0
(g1
g2
Ntp673
Rp674
(dp675
g6
Nsg8
S'NUMBER'
p676
sg10
Nsg17
NsbsS'youngsters'
p677
g0
(g1
g2
Ntp678
Rp679
(dp680
g6
Nsg8
S'PERSON'
p681
sg10
Nsg17
NsbsS'putty'
p682
g0
(g1
g2
Ntp683
Rp684
(dp685
g6
Nsg8
S'PERSON'
p686
sg10
Nsg17
NsbsS'days'
p687
g0
(g1
g2
Ntp688
Rp689
(dp690
g6
Nsg8
S'NUMBER'
p691
sg10
Nsg17
NsbsS'soda'
p692
g0
(g1
g2
Ntp693
Rp694
(dp695
g6
Nsg8
S'OTHER'
p696
sg10
Nsg17
NsbsS'stewart'
p697
g0
(g1
g2
Ntp698
Rp699
(dp700
g6
Nsg8
S'OTHER'
p701
sg10
Nsg17
NsbsS'size'
p702
g0
(g1
g2
Ntp703
Rp704
(dp705
g6
Nsg8
S'NUMBER'
p706
sg10
Nsg17
NsbsS'playwright'
p707
g0
(g1
g2
Ntp708
Rp709
(dp710
g6
Nsg8
S'PERSON'
p711
sg10
Nsg17
NsbsS'attractions'
p712
g0
(g1
g2
Ntp713
Rp714
(dp715
g6
Nsg8
S'LOCATION'
p716
sg10
Nsg17
NsbsS'primary'
p717
g0
(g1
g2
Ntp718
Rp719
(dp720
g6
Nsg8
S'PERSON'
p721
sg10
Nsg17
NsbsS'comic'
p722
g0
(g1
g2
Ntp723
Rp724
(dp725
g6
Nsg8
S'PERSON'
p726
sg10
Nsg17
NsbsS'toy'
p727
g0
(g1
g2
Ntp728
Rp729
(dp730
g6
Nsg8
S'OTHER'
p731
sg10
Nsg17
NsbsS'service'
p732
g0
(g1
g2
Ntp733
Rp734
(dp735
g6
Nsg8
S'ORGANIZATION'
p736
sg10
Nsg17
NsbsS'zeros'
p737
g0
(g1
g2
Ntp738
Rp739
(dp740
g6
Nsg8
S'NUMBER'
p741
sg10
Nsg17
NsbsS'percentage'
p742
g0
(g1
g2
Ntp743
Rp744
(dp745
g6
Nsg8
S'PERCENT'
p746
sg10
Nsg17
NsbsS'genesis'
p747
g0
(g1
g2
Ntp748
Rp749
(dp750
g6
Nsg8
S'OTHER'
p751
sg10
Nsg17
NsbsS'airwaves'
p752
g0
(g1
g2
Ntp753
Rp754
(dp755
g6
Nsg8
S'PERSON'
p756
sg10
Nsg17
NsbsS'rommel'
p757
g0
(g1
g2
Ntp758
Rp759
(dp760
g6
Nsg8
S'PERSON'
p761
sg10
Nsg17
NsbsS'inoco'
p762
g0
(g1
g2
Ntp763
Rp764
(dp765
g6
Nsg8
S'LOCATION'
p766
sg10
Nsg17
NsbsS'cereal'
p767
g0
(g1
g2
Ntp768
Rp769
(dp770
g6
Nsg8
S'OTHER'
p771
sg10
Nsg17
NsbsS'helen'
p772
g0
(g1
g2
Ntp773
Rp774
(dp775
g6
Nsg8
S'DATE'
p776
sg10
Nsg17
NsbsS'symptom'
p777
g0
(g1
g2
Ntp778
Rp779
(dp780
g6
Nsg8
S'OTHER'
p781
sg10
Nsg17
NsbsS'charcter'
p782
g0
(g1
g2
Ntp783
Rp784
(dp785
g6
Nsg8
S'PERSON'
p786
sg10
Nsg17
NsbsS'domestica'
p787
g0
(g1
g2
Ntp788
Rp789
(dp790
g6
Nsg8
S'OTHER'
p791
sg10
Nsg17
NsbsS'hyenas'
p792
g0
(g1
g2
Ntp793
Rp794
(dp795
g6
Nsg8
S'LOCATION'
p796
sg10
Nsg17
NsbsS'tree'
p797
g0
(g1
g2
Ntp798
Rp799
(dp800
g6
Nsg8
S'OTHER'
p801
sg10
Nsg17
NsbsS'rate'
p802
g0
(g1
g2
Ntp803
Rp804
(dp805
g6
Nsg8
S'PERCENT'
p806
sg10
Nsg17
NsbsS'nations'
p807
g0
(g1
g2
Ntp808
Rp809
(dp810
g6
Nsg8
S'LOCATION'
p811
sg10
Nsg17
NsbsS'project'
p812
g0
(g1
g2
Ntp813
Rp814
(dp815
g6
Nsg8
S'LOCATION'
p816
sg10
Nsg17
NsbsS'invention'
p817
g0
(g1
g2
Ntp818
Rp819
(dp820
g6
Nsg8
S'OTHER'
p821
sg10
Nsg17
NsbsS'friend'
p822
g0
(g1
g2
Ntp823
Rp824
(dp825
g6
Nsg8
S'PERSON'
p826
sg10
Nsg17
NsbsS'iron'
p827
g0
(g1
g2
Ntp828
Rp829
(dp830
g6
Nsg8
S'NUMBER'
p831
sg10
Nsg17
NsbsS'prankster'
p832
g0
(g1
g2
Ntp833
Rp834
(dp835
g6
Nsg8
S'PERSON'
p836
sg10
Nsg17
NsbsS'bridge'
p837
g0
(g1
g2
Ntp838
Rp839
(dp840
g6
Nsg8
S'LOCATION'
p841
sg10
Nsg17
NsbsS'blackhawks'
p842
g0
(g1
g2
Ntp843
Rp844
(dp845
g6
Nsg8
S'LOCATION'
p846
sg10
Nsg17
NsbsS'palace'
p847
g0
(g1
g2
Ntp848
Rp849
(dp850
g6
Nsg8
S'LOCATION'
p851
sg10
Nsg17
NsbsS'astaire'
p852
g0
(g1
g2
Ntp853
Rp854
(dp855
g6
Nsg8
S'PERSON'
p856
sg10
Nsg17
NsbsS'mine'
p857
g0
(g1
g2
Ntp858
Rp859
(dp860
g6
Nsg8
S'OTHER'
p861
sg10
Nsg17
NsbsS'talking'
p862
g0
(g1
g2
Ntp863
Rp864
(dp865
g6
Nsg8
S'PERSON'
p866
sg10
Nsg17
NsbsS'shrubs'
p867
g0
(g1
g2
Ntp868
Rp869
(dp870
g6
Nsg8
S'OTHER'
p871
sg10
Nsg17
NsbsS'eels'
p872
g0
(g1
g2
Ntp873
Rp874
(dp875
g6
Nsg8
S'LOCATION'
p876
sg10
Nsg17
NsbsS'realm'
p877
g0
(g1
g2
Ntp878
Rp879
(dp880
g6
Nsg8
S'PERSON'
p881
sg10
Nsg17
NsbsS'harper'
p882
g0
(g1
g2
Ntp883
Rp884
(dp885
g6
Nsg8
S'OTHER'
p886
sg10
Nsg17
NsbsS'steamboat'
p887
g0
(g1
g2
Ntp888
Rp889
(dp890
g6
Nsg8
S'PERSON'
p891
sg10
Nsg17
NsbsS'snow'
p892
g0
(g1
g2
Ntp893
Rp894
(dp895
g6
Nsg8
S'NUMBER'
p896
sg10
Nsg17
NsbsS'reactivity'
p897
g0
(g1
g2
Ntp898
Rp899
(dp900
g6
Nsg8
S'NUMBER'
p901
sg10
Nsg17
NsbsS'forces'
p902
g0
(g1
g2
Ntp903
Rp904
(dp905
g6
Nsg8
S'PERSON'
p906
sg10
Nsg17
NsbsS'president-to-be'
p907
g0
(g1
g2
Ntp908
Rp909
(dp910
g6
Nsg8
S'PERSON'
p911
sg10
Nsg17
NsbsS'panties'
p912
g0
(g1
g2
Ntp913
Rp914
(dp915
g6
Nsg8
S'PERSON'
p916
sg10
Nsg17
NsbsS'zebras'
p917
g0
(g1
g2
Ntp918
Rp919
(dp920
g6
Nsg8
S'LOCATION'
p921
sg10
Nsg17
NsbsS'thrilled'
p922
g0
(g1
g2
Ntp923
Rp924
(dp925
g6
Nsg8
S'OTHER'
p926
sg10
Nsg17
NsbsS'object'
p927
g0
(g1
g2
Ntp928
Rp929
(dp930
g6
Nsg8
S'OTHER'
p931
sg10
Nsg17
NsbsS'phonograph'
p932
g0
(g1
g2
Ntp933
Rp934
(dp935
g6
Nsg8
S'PERSON'
p936
sg10
Nsg17
NsbsS'victoria'
p937
g0
(g1
g2
Ntp938
Rp939
(dp940
g6
Nsg8
S'DATE'
p941
sg10
Nsg17
NsbsS'regular'
p942
g0
(g1
g2
Ntp943
Rp944
(dp945
g6
Nsg8
S'OTHER'
p946
sg10
Nsg17
NsbsS'letter'
p947
g0
(g1
g2
Ntp948
Rp949
(dp950
g6
Nsg8
S'OTHER'
p951
sg10
Nsg17
NsbsS'exercises'
p952
g0
(g1
g2
Ntp953
Rp954
(dp955
g6
Nsg8
S'OTHER'
p956
sg10
Nsg17
NsbsS'coin'
p957
g0
(g1
g2
Ntp958
Rp959
(dp960
g6
Nsg8
S'OTHER'
p961
sg10
Nsg17
NsbsS'dummy'
p962
g0
(g1
g2
Ntp963
Rp964
(dp965
g6
Nsg8
S'PERSON'
p966
sg10
Nsg17
NsbsS'singer'
p967
g0
(g1
g2
Ntp968
Rp969
(dp970
g6
Nsg8
S'PERSON'
p971
sg10
Nsg17
NsbsS'rogers'
p972
g0
(g1
g2
Ntp973
Rp974
(dp975
g6
Nsg8
S'PERSON'
p976
sg10
Nsg17
NsbsS'camp'
p977
g0
(g1
g2
Ntp978
Rp979
(dp980
g6
Nsg8
S'LOCATION'
p981
sg10
Nsg17
NsbsS'dog'
p982
g0
(g1
g2
Ntp983
Rp984
(dp985
g6
Nsg8
S'OTHER'
p986
sg10
Nsg17
NsbsS'points'
p987
g0
(g1
g2
Ntp988
Rp989
(dp990
g6
Nsg8
S'NUMBER'
p991
sg10
Nsg17
NsbsS'enterprise'
p992
g0
(g1
g2
Ntp993
Rp994
(dp995
g6
Nsg8
S'PERSON'
p996
sg10
Nsg17
NsbsS'scotch'
p997
g0
(g1
g2
Ntp998
Rp999
(dp1000
g6
Nsg8
S'OTHER'
p1001
sg10
Nsg17
NsbsS'dow'
p1002
g0
(g1
g2
Ntp1003
Rp1004
(dp1005
g6
Nsg8
S'DATE'
p1006
sg10
Nsg17
NsbsS'dot'
p1007
g0
(g1
g2
Ntp1008
Rp1009
(dp1010
g6
Nsg8
S'OTHER'
p1011
sg10
Nsg17
NsbsS'marvel'
p1012
g0
(g1
g2
Ntp1013
Rp1014
(dp1015
g6
Nsg8
S'LOCATION'
p1016
sg10
Nsg17
NsbsS'bomb'
p1017
g0
(g1
g2
Ntp1018
Rp1019
(dp1020
g6
Nsg8
S'OTHER'
p1021
sg10
Nsg17
NsbsS'pope'
p1022
g0
(g1
g2
Ntp1023
Rp1024
(dp1025
g6
Nsg8
S'PERSON'
p1026
sg10
Nsg17
NsbsS'queen'
p1027
g0
(g1
g2
Ntp1028
Rp1029
(dp1030
g6
Nsg8
S'PERSON'
p1031
sg10
Nsg17
NsbsS'plagues'
p1032
g0
(g1
g2
Ntp1033
Rp1034
(dp1035
g6
Nsg8
S'OTHER'
p1036
sg10
Nsg17
NsbsS'colors'
p1037
g0
(g1
g2
Ntp1038
Rp1039
(dp1040
g6
Nsg8
S'OTHER'
p1041
sg10
Nsg17
NsbsS'radio'
p1042
g0
(g1
g2
Ntp1043
Rp1044
(dp1045
g6
Nsg8
S'ORGANIZATION'
p1046
sg10
Nsg17
NsbsS'nephew'
p1047
g0
(g1
g2
Ntp1048
Rp1049
(dp1050
g6
Nsg8
S'PERSON'
p1051
sg10
Nsg17
NsbsS'debts'
p1052
g0
(g1
g2
Ntp1053
Rp1054
(dp1055
g6
Nsg8
S'MONEY'
p1056
sg10
Nsg17
NsbsS'buxom'
p1057
g0
(g1
g2
Ntp1058
Rp1059
(dp1060
g6
Nsg8
S'PERSON'
p1061
sg10
Nsg17
NsbsS'population'
p1062
g0
(g1
g2
Ntp1063
Rp1064
(dp1065
g6
Nsg8
S'NUMBER'
p1066
sg10
Nsg17
NsbsS'goalie'
p1067
g0
(g1
g2
Ntp1068
Rp1069
(dp1070
g6
Nsg8
S'LOCATION'
p1071
sg10
Nsg17
NsbsS'tiles'
p1072
g0
(g1
g2
Ntp1073
Rp1074
(dp1075
g6
Nsg8
S'NUMBER'
p1076
sg10
Nsg17
NsbsS'tammy'
p1077
g0
(g1
g2
Ntp1078
Rp1079
(dp1080
g6
Nsg8
S'PERSON'
p1081
sg10
Nsg17
NsbsS'tuberculosis'
p1082
g0
(g1
g2
Ntp1083
Rp1084
(dp1085
g6
Nsg8
S'LOCATION'
p1086
sg10
Nsg17
NsbsS'wedding'
p1087
g0
(g1
g2
Ntp1088
Rp1089
(dp1090
g6
Nsg8
S'DATE'
p1091
sg10
Nsg17
NsbsS'tips'
p1092
g0
(g1
g2
Ntp1093
Rp1094
(dp1095
g6
Nsg8
S'OTHER'
p1096
sg10
Nsg17
NsbsS'runs'
p1097
g0
(g1
g2
Ntp1098
Rp1099
(dp1100
g6
Nsg8
S'NUMBER'
p1101
sg10
Nsg17
NsbsS'bar'
p1102
g0
(g1
g2
Ntp1103
Rp1104
(dp1105
g6
Nsg8
S'OTHER'
p1106
sg10
Nsg17
NsbsS'countries'
p1107
g0
(g1
g2
Ntp1108
Rp1109
(dp1110
g6
Nsg8
S'LOCATION'
p1111
sg10
Nsg17
NsbsS'fields'
p1112
g0
(g1
g2
Ntp1113
Rp1114
(dp1115
g6
Nsg8
S'PERSON'
p1116
sg10
Nsg17
NsbsS'bay'
p1117
g0
(g1
g2
Ntp1118
Rp1119
(dp1120
g6
Nsg8
S'LOCATION'
p1121
sg10
Nsg17
NsbsS'architecture'
p1122
g0
(g1
g2
Ntp1123
Rp1124
(dp1125
g6
Nsg8
S'DATE'
p1126
sg10
Nsg17
NsbsS'shots'
p1127
g0
(g1
g2
Ntp1128
Rp1129
(dp1130
g6
Nsg8
S'NUMBER'
p1131
sg10
Nsg17
NsbsS'secretary'
p1132
g0
(g1
g2
Ntp1133
Rp1134
(dp1135
g6
Nsg8
S'PERSON'
p1136
sg10
Nsg17
NsbsS'disaster'
p1137
g0
(g1
g2
Ntp1138
Rp1139
(dp1140
g6
Nsg8
S'OTHER'
p1141
sg10
Nsg17
NsbsS'reference'
p1142
g0
(g1
g2
Ntp1143
Rp1144
(dp1145
g6
Nsg8
S'LOCATION'
p1146
sg10
Nsg17
NsbsS'nun'
p1147
g0
(g1
g2
Ntp1148
Rp1149
(dp1150
g6
Nsg8
S'PERSON'
p1151
sg10
Nsg17
NsbsS'rings'
p1152
g0
(g1
g2
Ntp1153
Rp1154
(dp1155
g6
Nsg8
S'NUMBER'
p1156
sg10
Nsg17
NsbsS'score'
p1157
g0
(g1
g2
Ntp1158
Rp1159
(dp1160
g6
Nsg8
S'NUMBER'
p1161
sg10
Nsg17
NsbsS'olympics'
p1162
g0
(g1
g2
Ntp1163
Rp1164
(dp1165
g6
Nsg8
S'LOCATION'
p1166
sg10
Nsg17
NsbsS'finger'
p1167
g0
(g1
g2
Ntp1168
Rp1169
(dp1170
g6
Nsg8
S'PERSON'
p1171
sg10
Nsg17
NsbsS'encounters'
p1172
g0
(g1
g2
Ntp1173
Rp1174
(dp1175
g6
Nsg8
S'OTHER'
p1176
sg10
Nsg17
NsbsS'glasgow'
p1177
g0
(g1
g2
Ntp1178
Rp1179
(dp1180
g6
Nsg8
S'LOCATION'
p1181
sg10
Nsg17
NsbsS'boss'
p1182
g0
(g1
g2
Ntp1183
Rp1184
(dp1185
g6
Nsg8
S'PERSON'
p1186
sg10
Nsg17
NsbsS'toothbrush'
p1187
g0
(g1
g2
Ntp1188
Rp1189
(dp1190
g6
Nsg8
S'PERSON'
p1191
sg10
Nsg17
NsbsS'motto'
p1192
g0
(g1
g2
Ntp1193
Rp1194
(dp1195
g6
Nsg8
S'ORGANIZATION'
p1196
sg10
Nsg17
NsbsS'horsemen'
p1197
g0
(g1
g2
Ntp1198
Rp1199
(dp1200
g6
Nsg8
S'PERSON'
p1201
sg10
Nsg17
NsbsS'accident'
p1202
g0
(g1
g2
Ntp1203
Rp1204
(dp1205
g6
Nsg8
S'DATE'
p1206
sg10
Nsg17
NsbsS'country'
p1207
g0
(g1
g2
Ntp1208
Rp1209
(dp1210
g6
Nsg8
S'LOCATION'
p1211
sg10
Nsg17
NsbsS'adventures'
p1212
g0
(g1
g2
Ntp1213
Rp1214
(dp1215
g6
Nsg8
S'LOCATION'
p1216
sg10
Nsg17
NsbsS'players'
p1217
g0
(g1
g2
Ntp1218
Rp1219
(dp1220
g6
Nsg8
S'PERSON'
p1221
sg10
Nsg17
NsbsS'games'
p1222
g0
(g1
g2
Ntp1223
Rp1224
(dp1225
g6
Nsg8
S'OTHER'
p1226
sg10
Nsg17
NsbsS'faces'
p1227
g0
(g1
g2
Ntp1228
Rp1229
(dp1230
g6
Nsg8
S'OTHER'
p1231
sg10
Nsg17
NsbsS'maclaine'
p1232
g0
(g1
g2
Ntp1233
Rp1234
(dp1235
g6
Nsg8
S'PERSON'
p1236
sg10
Nsg17
NsbsS'seizure'
p1237
g0
(g1
g2
Ntp1238
Rp1239
(dp1240
g6
Nsg8
S'ORGANIZATION'
p1241
sg10
Nsg17
NsbsS'canyon'
p1242
g0
(g1
g2
Ntp1243
Rp1244
(dp1245
g6
Nsg8
S'LOCATION'
p1246
sg10
Nsg17
NsbsS'hitler'
p1247
g0
(g1
g2
Ntp1248
Rp1249
(dp1250
g6
Nsg8
S'DATE'
p1251
sg10
Nsg17
NsbsS'conference'
p1252
g0
(g1
g2
Ntp1253
Rp1254
(dp1255
g6
Nsg8
S'OTHER'
p1256
sg10
Nsg17
NsbsS'engines'
p1257
g0
(g1
g2
Ntp1258
Rp1259
(dp1260
g6
Nsg8
S'NUMBER'
p1261
sg10
Nsg17
NsbsS'submarine'
p1262
g0
(g1
g2
Ntp1263
Rp1264
(dp1265
g6
Nsg8
S'OTHER'
p1266
sg10
Nsg17
NsbsS'beer'
p1267
g0
(g1
g2
Ntp1268
Rp1269
(dp1270
g6
Nsg8
S'OTHER'
p1271
sg10
Nsg17
NsbsS'stadium'
p1272
g0
(g1
g2
Ntp1273
Rp1274
(dp1275
g6
Nsg8
S'LOCATION'
p1276
sg10
Nsg17
NsbsS'teenager'
p1277
g0
(g1
g2
Ntp1278
Rp1279
(dp1280
g6
Nsg8
S'PERSON'
p1281
sg10
Nsg17
NsbsS'dots'
p1282
g0
(g1
g2
Ntp1283
Rp1284
(dp1285
g6
Nsg8
S'NUMBER'
p1286
sg10
Nsg17
NsbsS'life'
p1287
g0
(g1
g2
Ntp1288
Rp1289
(dp1290
g6
Nsg8
S'PERSON'
p1291
sg10
Nsg17
NsbsS'generals'
p1292
g0
(g1
g2
Ntp1293
Rp1294
(dp1295
g6
Nsg8
S'NUMBER'
p1296
sg10
Nsg17
NsbsS'child'
p1297
g0
(g1
g2
Ntp1298
Rp1299
(dp1300
g6
Nsg8
S'PERSON'
p1301
sg10
Nsg17
NsbsS'7847'
p1302
g0
(g1
g2
Ntp1303
Rp1304
(dp1305
g6
Nsg8
S'NUMBER'
p1306
sg10
Nsg17
NsbsS'physician'
p1307
g0
(g1
g2
Ntp1308
Rp1309
(dp1310
g6
Nsg8
S'PERSON'
p1311
sg10
Nsg17
NsbsS'calcium'
p1312
g0
(g1
g2
Ntp1313
Rp1314
(dp1315
g6
Nsg8
S'NUMBER'
p1316
sg10
Nsg17
NsbsS'voice'
p1317
g0
(g1
g2
Ntp1318
Rp1319
(dp1320
g6
Nsg8
S'PERSON'
p1321
sg10
Nsg17
NsbsS'procedure'
p1322
g0
(g1
g2
Ntp1323
Rp1324
(dp1325
g6
Nsg8
S'OTHER'
p1326
sg10
Nsg17
NsbsS'pyramid'
p1327
g0
(g1
g2
Ntp1328
Rp1329
(dp1330
g6
Nsg8
S'PERSON'
p1331
sg10
Nsg17
NsbsS'iq'
p1332
g0
(g1
g2
Ntp1333
Rp1334
(dp1335
g6
Nsg8
S'NUMBER'
p1336
sg10
Nsg17
NsbsS'player'
p1337
g0
(g1
g2
Ntp1338
Rp1339
(dp1340
g6
Nsg8
S'PERSON'
p1341
sg10
Nsg17
NsbsS'cone'
p1342
g0
(g1
g2
Ntp1343
Rp1344
(dp1345
g6
Nsg8
S'PERSON'
p1346
sg10
Nsg17
NsbsS'airport'
p1347
g0
(g1
g2
Ntp1348
Rp1349
(dp1350
g6
Nsg8
S'LOCATION'
p1351
sg10
Nsg17
NsbsS'picts'
p1352
g0
(g1
g2
Ntp1353
Rp1354
(dp1355
g6
Nsg8
S'PERSON'
p1356
sg10
Nsg17
NsbsS'complex'
p1357
g0
(g1
g2
Ntp1358
Rp1359
(dp1360
g6
Nsg8
S'LOCATION'
p1361
sg10
Nsg17
NsbsS'esquire'
p1362
g0
(g1
g2
Ntp1363
Rp1364
(dp1365
g6
Nsg8
S'OTHER'
p1366
sg10
Nsg17
NsbsS'vegetable'
p1367
g0
(g1
g2
Ntp1368
Rp1369
(dp1370
g6
Nsg8
S'OTHER'
p1371
sg10
Nsg17
NsbsS'monarch'
p1372
g0
(g1
g2
Ntp1373
Rp1374
(dp1375
g6
Nsg8
S'PERSON'
p1376
sg10
Nsg17
NsbsS'colonies'
p1377
g0
(g1
g2
Ntp1378
Rp1379
(dp1380
g6
Nsg8
S'NUMBER'
p1381
sg10
Nsg17
NsbsS'bid'
p1382
g0
(g1
g2
Ntp1383
Rp1384
(dp1385
g6
Nsg8
S'OTHER'
p1386
sg10
Nsg17
NsbsS'inventors'
p1387
g0
(g1
g2
Ntp1388
Rp1389
(dp1390
g6
Nsg8
S'PERSON'
p1391
sg10
Nsg17
NsbsS'wheel'
p1392
g0
(g1
g2
Ntp1393
Rp1394
(dp1395
g6
Nsg8
S'OTHER'
p1396
sg10
Nsg17
NsbsS'hand'
p1397
g0
(g1
g2
Ntp1398
Rp1399
(dp1400
g6
Nsg8
S'OTHER'
p1401
sg10
Nsg17
NsbsS'waterfall'
p1402
g0
(g1
g2
Ntp1403
Rp1404
(dp1405
g6
Nsg8
S'LOCATION'
p1406
sg10
Nsg17
NsbsS'characters'
p1407
g0
(g1
g2
Ntp1408
Rp1409
(dp1410
g6
Nsg8
S'NUMBER'
p1411
sg10
Nsg17
NsbsS'tune'
p1412
g0
(g1
g2
Ntp1413
Rp1414
(dp1415
g6
Nsg8
S'OTHER'
p1416
sg10
Nsg17
NsbsS'kid'
p1417
g0
(g1
g2
Ntp1418
Rp1419
(dp1420
g6
Nsg8
S'PERSON'
p1421
sg10
Nsg17
NsbsS'smokey'
p1422
g0
(g1
g2
Ntp1423
Rp1424
(dp1425
g6
Nsg8
S'OTHER'
p1426
sg10
Nsg17
NsbsS'peacocks'
p1427
g0
(g1
g2
Ntp1428
Rp1429
(dp1430
g6
Nsg8
S'OTHER'
p1431
sg10
Nsg17
NsbsS'vice-president'
p1432
g0
(g1
g2
Ntp1433
Rp1434
(dp1435
g6
Nsg8
S'PERSON'
p1436
sg10
Nsg17
NsbsS'suffering'
p1437
g0
(g1
g2
Ntp1438
Rp1439
(dp1440
g6
Nsg8
S'OTHER'
p1441
sg10
Nsg17
NsbsS'ocean'
p1442
g0
(g1
g2
Ntp1443
Rp1444
(dp1445
g6
Nsg8
S'LOCATION'
p1446
sg10
Nsg17
NsbsS'materials'
p1447
g0
(g1
g2
Ntp1448
Rp1449
(dp1450
g6
Nsg8
S'OTHER'
p1451
sg10
Nsg17
NsbsS'mother'
p1452
g0
(g1
g2
Ntp1453
Rp1454
(dp1455
g6
Nsg8
S'PERSON'
p1456
sg10
Nsg17
NsbsS'hearts'
p1457
g0
(g1
g2
Ntp1458
Rp1459
(dp1460
g6
Nsg8
S'NUMBER'
p1461
sg10
Nsg17
NsbsS'musical'
p1462
g0
(g1
g2
Ntp1463
Rp1464
(dp1465
g6
Nsg8
S'OTHER'
p1466
sg10
Nsg17
NsbsS'snowman'
p1467
g0
(g1
g2
Ntp1468
Rp1469
(dp1470
g6
Nsg8
S'LOCATION'
p1471
sg10
Nsg17
NsbsS'traditions'
p1472
g0
(g1
g2
Ntp1473
Rp1474
(dp1475
g6
Nsg8
S'OTHER'
p1476
sg10
Nsg17
NsbsS'basophobic'
p1477
g0
(g1
g2
Ntp1478
Rp1479
(dp1480
g6
Nsg8
S'OTHER'
p1481
sg10
Nsg17
NsbsS'verses'
p1482
g0
(g1
g2
Ntp1483
Rp1484
(dp1485
g6
Nsg8
S'NUMBER'
p1486
sg10
Nsg17
NsbsS'palpatine'
p1487
g0
(g1
g2
Ntp1488
Rp1489
(dp1490
g6
Nsg8
S'PERSON'
p1491
sg10
Nsg17
NsbsS'character'
p1492
g0
(g1
g2
Ntp1493
Rp1494
(dp1495
g6
Nsg8
S'PERSON'
p1496
sg10
Nsg17
NsbsS'woodstock'
p1497
g0
(g1
g2
Ntp1498
Rp1499
(dp1500
g6
Nsg8
S'LOCATION'
p1501
sg10
Nsg17
NsbsS'board'
p1502
g0
(g1
g2
Ntp1503
Rp1504
(dp1505
g6
Nsg8
S'OTHER'
p1506
sg10
Nsg17
NsbsS'prison'
p1507
g0
(g1
g2
Ntp1508
Rp1509
(dp1510
g6
Nsg8
S'LOCATION'
p1511
sg10
Nsg17
NsbsS'sailors'
p1512
g0
(g1
g2
Ntp1513
Rp1514
(dp1515
g6
Nsg8
S'OTHER'
p1516
sg10
Nsg17
NsbsS'bands'
p1517
g0
(g1
g2
Ntp1518
Rp1519
(dp1520
g6
Nsg8
S'OTHER'
p1521
sg10
Nsg17
NsbsS'caps'
p1522
g0
(g1
g2
Ntp1523
Rp1524
(dp1525
g6
Nsg8
S'MONEY'
p1526
sg10
Nsg17
NsbsS'boxer'
p1527
g0
(g1
g2
Ntp1528
Rp1529
(dp1530
g6
Nsg8
S'PERSON'
p1531
sg10
Nsg17
NsbsS'thucydides'
p1532
g0
(g1
g2
Ntp1533
Rp1534
(dp1535
g6
Nsg8
S'PERSON'
p1536
sg10
Nsg17
NsbsS'picasso'
p1537
g0
(g1
g2
Ntp1538
Rp1539
(dp1540
g6
Nsg8
S'PERSON'
p1541
sg10
Nsg17
NsbsS'cinzano'
p1542
g0
(g1
g2
Ntp1543
Rp1544
(dp1545
g6
Nsg8
S'PERSON'
p1546
sg10
Nsg17
NsbsS'steps'
p1547
g0
(g1
g2
Ntp1548
Rp1549
(dp1550
g6
Nsg8
S'LOCATION'
p1551
sg10
Nsg17
NsbsS'vegetation'
p1552
g0
(g1
g2
Ntp1553
Rp1554
(dp1555
g6
Nsg8
S'NUMBER'
p1556
sg10
Nsg17
NsbsS'night'
p1557
g0
(g1
g2
Ntp1558
Rp1559
(dp1560
g6
Nsg8
S'PERSON'
p1561
sg10
Nsg17
NsbsS'battlefield'
p1562
g0
(g1
g2
Ntp1563
Rp1564
(dp1565
g6
Nsg8
S'LOCATION'
p1566
sg10
Nsg17
NsbsS'www'
p1567
g0
(g1
g2
Ntp1568
Rp1569
(dp1570
g6
Nsg8
S'PERSON'
p1571
sg10
Nsg17
NsbsS'commanders'
p1572
g0
(g1
g2
Ntp1573
Rp1574
(dp1575
g6
Nsg8
S'PERSON'
p1576
sg10
Nsg17
NsbsS'korea'
p1577
g0
(g1
g2
Ntp1578
Rp1579
(dp1580
g6
Nsg8
S'DATE'
p1581
sg10
Nsg17
NsbsS'people'
p1582
g0
(g1
g2
Ntp1583
Rp1584
(dp1585
g6
Nsg8
S'NUMBER'
p1586
sg10
Nsg17
NsbsS'stardust'
p1587
g0
(g1
g2
Ntp1588
Rp1589
(dp1590
g6
Nsg8
S'PERSON'
p1591
sg10
Nsg17
NsbsS'election'
p1592
g0
(g1
g2
Ntp1593
Rp1594
(dp1595
g6
Nsg8
S'PERSON'
p1596
sg10
Nsg17
NsbsS'enemies'
p1597
g0
(g1
g2
Ntp1598
Rp1599
(dp1600
g6
Nsg8
S'ORGANIZATION'
p1601
sg10
Nsg17
NsbsS'ice'
p1602
g0
(g1
g2
Ntp1603
Rp1604
(dp1605
g6
Nsg8
S'OTHER'
p1606
sg10
Nsg17
NsbsS'shakespeare'
p1607
g0
(g1
g2
Ntp1608
Rp1609
(dp1610
g6
Nsg8
S'OTHER'
p1611
sg10
Nsg17
NsbsS'cnn'
p1612
g0
(g1
g2
Ntp1613
Rp1614
(dp1615
g6
Nsg8
S'DATE'
p1616
sg10
Nsg17
NsbsS'offices'
p1617
g0
(g1
g2
Ntp1618
Rp1619
(dp1620
g6
Nsg8
S'ORGANIZATION'
p1621
sg10
Nsg17
NsbsS'officer'
p1622
g0
(g1
g2
Ntp1623
Rp1624
(dp1625
g6
Nsg8
S'PERSON'
p1626
sg10
Nsg17
NsbsS'columbus'
p1627
g0
(g1
g2
Ntp1628
Rp1629
(dp1630
g6
Nsg8
S'LOCATION'
p1631
sg10
Nsg17
NsbsS'englishmen'
p1632
g0
(g1
g2
Ntp1633
Rp1634
(dp1635
g6
Nsg8
S'NUMBER'
p1636
sg10
Nsg17
NsbsS'super'
p1637
g0
(g1
g2
Ntp1638
Rp1639
(dp1640
g6
Nsg8
S'ORGANIZATION'
p1641
sg10
Nsg17
NsbsS'trophy'
p1642
g0
(g1
g2
Ntp1643
Rp1644
(dp1645
g6
Nsg8
S'OTHER'
p1646
sg10
Nsg17
NsbsS'cowboy'
p1647
g0
(g1
g2
Ntp1648
Rp1649
(dp1650
g6
Nsg8
S'PERSON'
p1651
sg10
Nsg17
NsbsS'months'
p1652
g0
(g1
g2
Ntp1653
Rp1654
(dp1655
g6
Nsg8
S'NUMBER'
p1656
sg10
Nsg17
NsbsS'ranges'
p1657
g0
(g1
g2
Ntp1658
Rp1659
(dp1660
g6
Nsg8
S'LOCATION'
p1661
sg10
Nsg17
NsbsS'magazine'
p1662
g0
(g1
g2
Ntp1663
Rp1664
(dp1665
g6
Nsg8
S'OTHER'
p1666
sg10
Nsg17
NsbsS'coronado'
p1667
g0
(g1
g2
Ntp1668
Rp1669
(dp1670
g6
Nsg8
S'PERSON'
p1671
sg10
Nsg17
NsbsS'islands'
p1672
g0
(g1
g2
Ntp1673
Rp1674
(dp1675
g6
Nsg8
S'NUMBER'
p1676
sg10
Nsg17
NsbsS'nixon'
p1677
g0
(g1
g2
Ntp1678
Rp1679
(dp1680
g6
Nsg8
S'DATE'
p1681
sg10
Nsg17
NsbsS'logo'
p1682
g0
(g1
g2
Ntp1683
Rp1684
(dp1685
g6
Nsg8
S'ORGANIZATION'
p1686
sg10
Nsg17
NsbsS'profession'
p1687
g0
(g1
g2
Ntp1688
Rp1689
(dp1690
g6
Nsg8
S'PERSON'
p1691
sg10
Nsg17
NsbsS'auh2o'
p1692
g0
(g1
g2
Ntp1693
Rp1694
(dp1695
g6
Nsg8
S'PERSON'
p1696
sg10
Nsg17
NsbsS'son'
p1697
g0
(g1
g2
Ntp1698
Rp1699
(dp1700
g6
Nsg8
S'PERSON'
p1701
sg10
Nsg17
NsbsS'rosanna-dana'
p1702
g0
(g1
g2
Ntp1703
Rp1704
(dp1705
g6
Nsg8
S'PERSON'
p1706
sg10
Nsg17
NsbsS'ussr'
p1707
g0
(g1
g2
Ntp1708
Rp1709
(dp1710
g6
Nsg8
S'DATE'
p1711
sg10
Nsg17
NsbsS'amsterdam'
p1712
g0
(g1
g2
Ntp1713
Rp1714
(dp1715
g6
Nsg8
S'LOCATION'
p1716
sg10
Nsg17
NsbsS'sculptress'
p1717
g0
(g1
g2
Ntp1718
Rp1719
(dp1720
g6
Nsg8
S'PERSON'
p1721
sg10
Nsg17
NsbsS'tennis'
p1722
g0
(g1
g2
Ntp1723
Rp1724
(dp1725
g6
Nsg8
S'PERSON'
p1726
sg10
Nsg17
NsbsS'class'
p1727
g0
(g1
g2
Ntp1728
Rp1729
(dp1730
g6
Nsg8
S'OTHER'
p1731
sg10
Nsg17
NsbsS'editor'
p1732
g0
(g1
g2
Ntp1733
Rp1734
(dp1735
g6
Nsg8
S'PERSON'
p1736
sg10
Nsg17
NsbsS'way'
p1737
g0
(g1
g2
Ntp1738
Rp1739
(dp1740
g6
Nsg8
S'OTHER'
p1741
sg10
Nsg17
NsbsS'war'
p1742
g0
(g1
g2
Ntp1743
Rp1744
(dp1745
g6
Nsg8
S'OTHER'
p1746
sg10
Nsg17
NsbsS'head'
p1747
g0
(g1
g2
Ntp1748
Rp1749
(dp1750
g6
Nsg8
S'PERSON'
p1751
sg10
Nsg17
NsbsS'medium'
p1752
g0
(g1
g2
Ntp1753
Rp1754
(dp1755
g6
Nsg8
S'OTHER'
p1756
sg10
Nsg17
NsbsS'form'
p1757
g0
(g1
g2
Ntp1758
Rp1759
(dp1760
g6
Nsg8
S'OTHER'
p1761
sg10
Nsg17
NsbsS'manufacturers'
p1762
g0
(g1
g2
Ntp1763
Rp1764
(dp1765
g6
Nsg8
S'ORGANIZATION'
p1766
sg10
Nsg17
NsbsS'observances'
p1767
g0
(g1
g2
Ntp1768
Rp1769
(dp1770
g6
Nsg8
S'OTHER'
p1771
sg10
Nsg17
NsbsS'manatees'
p1772
g0
(g1
g2
Ntp1773
Rp1774
(dp1775
g6
Nsg8
S'OTHER'
p1776
sg10
Nsg17
NsbsS'milligrams'
p1777
g0
(g1
g2
Ntp1778
Rp1779
(dp1780
g6
Nsg8
S'NUMBER'
p1781
sg10
Nsg17
NsbsS'vatican'
p1782
g0
(g1
g2
Ntp1783
Rp1784
(dp1785
g6
Nsg8
S'PERSON'
p1786
sg10
Nsg17
NsbsS'meters'
p1787
g0
(g1
g2
Ntp1788
Rp1789
(dp1790
g6
Nsg8
S'NUMBER'
p1791
sg10
Nsg17
NsbsS'stages'
p1792
g0
(g1
g2
Ntp1793
Rp1794
(dp1795
g6
Nsg8
S'OTHER'
p1796
sg10
Nsg17
NsbsS'passenger'
p1797
g0
(g1
g2
Ntp1798
Rp1799
(dp1800
g6
Nsg8
S'LOCATION'
p1801
sg10
Nsg17
NsbsS'moore'
p1802
g0
(g1
g2
Ntp1803
Rp1804
(dp1805
g6
Nsg8
S'PERSON'
p1806
sg10
Nsg17
NsbsS'classic'
p1807
g0
(g1
g2
Ntp1808
Rp1809
(dp1810
g6
Nsg8
S'OTHER'
p1811
sg10
Nsg17
NsbsS'tesla'
p1812
g0
(g1
g2
Ntp1813
Rp1814
(dp1815
g6
Nsg8
S'LOCATION'
p1816
sg10
Nsg17
NsbsS'abstract'
p1817
g0
(g1
g2
Ntp1818
Rp1819
(dp1820
g6
Nsg8
S'LOCATION'
p1821
sg10
Nsg17
NsbsS'gland'
p1822
g0
(g1
g2
Ntp1823
Rp1824
(dp1825
g6
Nsg8
S'OTHER'
p1826
sg10
Nsg17
NsbsS'ship'
p1827
g0
(g1
g2
Ntp1828
Rp1829
(dp1830
g6
Nsg8
S'OTHER'
p1831
sg10
Nsg17
NsbsS'distributions'
p1832
g0
(g1
g2
Ntp1833
Rp1834
(dp1835
g6
Nsg8
S'LOCATION'
p1836
sg10
Nsg17
NsbsS'nnp'
p1837
g0
(g1
g2
Ntp1838
Rp1839
(dp1840
g6
Nsg8
S'PERSON'
p1841
sg10
Nsg17
NsbsS'dumpty'
p1842
g0
(g1
g2
Ntp1843
Rp1844
(dp1845
g6
Nsg8
S'PERSON'
p1846
sg10
Nsg17
NsbsS'actor'
p1847
g0
(g1
g2
Ntp1848
Rp1849
(dp1850
g6
Nsg8
S'PERSON'
p1851
sg10
Nsg17
NsbsS'website'
p1852
g0
(g1
g2
Ntp1853
Rp1854
(dp1855
g6
Nsg8
S'LOCATION'
p1856
sg10
Nsg17
NsbsS'flood'
p1857
g0
(g1
g2
Ntp1858
Rp1859
(dp1860
g6
Nsg8
S'DATE'
p1861
sg10
Nsg17
NsbsS'pickering'
p1862
g0
(g1
g2
Ntp1863
Rp1864
(dp1865
g6
Nsg8
S'PERSON'
p1866
sg10
Nsg17
NsbsS'republic'
p1867
g0
(g1
g2
Ntp1868
Rp1869
(dp1870
g6
Nsg8
S'LOCATION'
p1871
sg10
Nsg17
NsbsS'test'
p1872
g0
(g1
g2
Ntp1873
Rp1874
(dp1875
g6
Nsg8
S'DATE'
p1876
sg10
Nsg17
NsbsS'pseudonym'
p1877
g0
(g1
g2
Ntp1878
Rp1879
(dp1880
g6
Nsg8
S'PERSON'
p1881
sg10
Nsg17
NsbsS'brothers'
p1882
g0
(g1
g2
Ntp1883
Rp1884
(dp1885
g6
Nsg8
S'PERSON'
p1886
sg10
Nsg17
NsbsS'juices'
p1887
g0
(g1
g2
Ntp1888
Rp1889
(dp1890
g6
Nsg8
S'NUMBER'
p1891
sg10
Nsg17
NsbsS'reign'
p1892
g0
(g1
g2
Ntp1893
Rp1894
(dp1895
g6
Nsg8
S'PERSON'
p1896
sg10
Nsg17
NsbsS'weekend'
p1897
g0
(g1
g2
Ntp1898
Rp1899
(dp1900
g6
Nsg8
S'DATE'
p1901
sg10
Nsg17
NsbsS'airman'
p1902
g0
(g1
g2
Ntp1903
Rp1904
(dp1905
g6
Nsg8
S'PERSON'
p1906
sg10
Nsg17
NsbsS'jones'
p1907
g0
(g1
g2
Ntp1908
Rp1909
(dp1910
g6
Nsg8
S'PERSON'
p1911
sg10
Nsg17
NsbsS'glass'
p1912
g0
(g1
g2
Ntp1913
Rp1914
(dp1915
g6
Nsg8
S'OTHER'
p1916
sg10
Nsg17
NsbsS'coastlines'
p1917
g0
(g1
g2
Ntp1918
Rp1919
(dp1920
g6
Nsg8
S'LOCATION'
p1921
sg10
Nsg17
NsbsS'ottawa'
p1922
g0
(g1
g2
Ntp1923
Rp1924
(dp1925
g6
Nsg8
S'PERSON'
p1926
sg10
Nsg17
NsbsS'fastener'
p1927
g0
(g1
g2
Ntp1928
Rp1929
(dp1930
g6
Nsg8
S'OTHER'
p1931
sg10
Nsg17
NsbsS'almanac'
p1932
g0
(g1
g2
Ntp1933
Rp1934
(dp1935
g6
Nsg8
S'PERSON'
p1936
sg10
Nsg17
NsbsS'time'
p1937
g0
(g1
g2
Ntp1938
Rp1939
(dp1940
g6
Nsg8
S'TIME'
p1941
sg10
Nsg17
NsbsS'songs'
p1942
g0
(g1
g2
Ntp1943
Rp1944
(dp1945
g6
Nsg8
S'OTHER'
p1946
sg10
Nsg17
NsbsS'coach'
p1947
g0
(g1
g2
Ntp1948
Rp1949
(dp1950
g6
Nsg8
S'PERSON'
p1951
sg10
Nsg17
NsbsS'chain'
p1952
g0
(g1
g2
Ntp1953
Rp1954
(dp1955
g6
Nsg8
S'PERSON'
p1956
sg10
Nsg17
NsbsS'jolson'
p1957
g0
(g1
g2
Ntp1958
Rp1959
(dp1960
g6
Nsg8
S'PERSON'
p1961
sg10
Nsg17
NsbsS'themes'
p1962
g0
(g1
g2
Ntp1963
Rp1964
(dp1965
g6
Nsg8
S'PERSON'
p1966
sg10
Nsg17
NsbsS'crocodile'
p1967
g0
(g1
g2
Ntp1968
Rp1969
(dp1970
g6
Nsg8
S'OTHER'
p1971
sg10
Nsg17
NsbsS'manager'
p1972
g0
(g1
g2
Ntp1973
Rp1974
(dp1975
g6
Nsg8
S'PERSON'
p1976
sg10
Nsg17
NsbsS'skin'
p1977
g0
(g1
g2
Ntp1978
Rp1979
(dp1980
g6
Nsg8
S'OTHER'
p1981
sg10
Nsg17
NsbsS'battle'
p1982
g0
(g1
g2
Ntp1983
Rp1984
(dp1985
g6
Nsg8
S'OTHER'
p1986
sg10
Nsg17
NsbsS'mill'
p1987
g0
(g1
g2
Ntp1988
Rp1989
(dp1990
g6
Nsg8
S'DATE'
p1991
sg10
Nsg17
NsbsS'layers'
p1992
g0
(g1
g2
Ntp1993
Rp1994
(dp1995
g6
Nsg8
S'NUMBER'
p1996
sg10
Nsg17
NsbsS'technique'
p1997
g0
(g1
g2
Ntp1998
Rp1999
(dp2000
g6
Nsg8
S'OTHER'
p2001
sg10
Nsg17
NsbsS'father'
p2002
g0
(g1
g2
Ntp2003
Rp2004
(dp2005
g6
Nsg8
S'PERSON'
p2006
sg10
Nsg17
NsbsS'terror'
p2007
g0
(g1
g2
Ntp2008
Rp2009
(dp2010
g6
Nsg8
S'OTHER'
p2011
sg10
Nsg17
NsbsS'vegas'
p2012
g0
(g1
g2
Ntp2013
Rp2014
(dp2015
g6
Nsg8
S'LOCATION'
p2016
sg10
Nsg17
NsbsS'clouds'
p2017
g0
(g1
g2
Ntp2018
Rp2019
(dp2020
g6
Nsg8
S'OTHER'
p2021
sg10
Nsg17
NsbsS'level'
p2022
g0
(g1
g2
Ntp2023
Rp2024
(dp2025
g6
Nsg8
S'OTHER'
p2026
sg10
Nsg17
NsbsS'macdowell'
p2027
g0
(g1
g2
Ntp2028
Rp2029
(dp2030
g6
Nsg8
S'PERSON'
p2031
sg10
Nsg17
NsbsS'brother'
p2032
g0
(g1
g2
Ntp2033
Rp2034
(dp2035
g6
Nsg8
S'PERSON'
p2036
sg10
Nsg17
NsbsS'belushi'
p2037
g0
(g1
g2
Ntp2038
Rp2039
(dp2040
g6
Nsg8
S'OTHER'
p2041
sg10
Nsg17
NsbsS'team'
p2042
g0
(g1
g2
Ntp2043
Rp2044
(dp2045
g6
Nsg8
S'ORGANIZATION'
p2046
sg10
Nsg17
NsbsS'guy'
p2047
g0
(g1
g2
Ntp2048
Rp2049
(dp2050
g6
Nsg8
S'PERSON'
p2051
sg10
Nsg17
NsbsS'stingers'
p2052
g0
(g1
g2
Ntp2053
Rp2054
(dp2055
g6
Nsg8
S'OTHER'
p2056
sg10
Nsg17
NsbsS'olympic'
p2057
g0
(g1
g2
Ntp2058
Rp2059
(dp2060
g6
Nsg8
S'OTHER'
p2061
sg10
Nsg17
NsbsS'villi'
p2062
g0
(g1
g2
Ntp2063
Rp2064
(dp2065
g6
Nsg8
S'NUMBER'
p2066
sg10
Nsg17
NsbsS'sign'
p2067
g0
(g1
g2
Ntp2068
Rp2069
(dp2070
g6
Nsg8
S'OTHER'
p2071
sg10
Nsg17
NsbsS'cost'
p2072
g0
(g1
g2
Ntp2073
Rp2074
(dp2075
g6
Nsg8
S'MONEY'
p2076
sg10
Nsg17
NsbsS'drinks'
p2077
g0
(g1
g2
Ntp2078
Rp2079
(dp2080
g6
Nsg8
S'LOCATION'
p2081
sg10
Nsg17
NsbsS'hymn'
p2082
g0
(g1
g2
Ntp2083
Rp2084
(dp2085
g6
Nsg8
S'OTHER'
p2086
sg10
Nsg17
NsbsS'constitution'
p2087
g0
(g1
g2
Ntp2088
Rp2089
(dp2090
g6
Nsg8
S'OTHER'
p2091
sg10
Nsg17
NsbsS'barbie'
p2092
g0
(g1
g2
Ntp2093
Rp2094
(dp2095
g6
Nsg8
S'DATE'
p2096
sg10
Nsg17
NsbsS'goes'
p2097
g0
(g1
g2
Ntp2098
Rp2099
(dp2100
g6
Nsg8
S'LOCATION'
p2101
sg10
Nsg17
NsbsS'tarantula'
p2102
g0
(g1
g2
Ntp2103
Rp2104
(dp2105
g6
Nsg8
S'OTHER'
p2106
sg10
Nsg17
NsbsS'badge'
p2107
g0
(g1
g2
Ntp2108
Rp2109
(dp2110
g6
Nsg8
S'PERSON'
p2111
sg10
Nsg17
NsbsS'dwarf'
p2112
g0
(g1
g2
Ntp2113
Rp2114
(dp2115
g6
Nsg8
S'LOCATION'
p2116
sg10
Nsg17
NsbsS'funeral'
p2117
g0
(g1
g2
Ntp2118
Rp2119
(dp2120
g6
Nsg8
S'PERSON'
p2121
sg10
Nsg17
NsbsS'makeup'
p2122
g0
(g1
g2
Ntp2123
Rp2124
(dp2125
g6
Nsg8
S'LOCATION'
p2126
sg10
Nsg17
NsbsS'french'
p2127
g0
(g1
g2
Ntp2128
Rp2129
(dp2130
g6
Nsg8
S'OTHER'
p2131
sg10
Nsg17
NsbsS'lakes'
p2132
g0
(g1
g2
Ntp2133
Rp2134
(dp2135
g6
Nsg8
S'NUMBER'
p2136
sg10
Nsg17
NsbsS'dubliners'
p2137
g0
(g1
g2
Ntp2138
Rp2139
(dp2140
g6
Nsg8
S'PERSON'
p2141
sg10
Nsg17
NsbsS'witch'
p2142
g0
(g1
g2
Ntp2143
Rp2144
(dp2145
g6
Nsg8
S'PERSON'
p2146
sg10
Nsg17
NsbsS'groups'
p2147
g0
(g1
g2
Ntp2148
Rp2149
(dp2150
g6
Nsg8
S'ORGANIZATION'
p2151
sg10
Nsg17
NsbsS'address'
p2152
g0
(g1
g2
Ntp2153
Rp2154
(dp2155
g6
Nsg8
S'LOCATION'
p2156
sg10
Nsg17
NsbsS'goldfish'
p2157
g0
(g1
g2
Ntp2158
Rp2159
(dp2160
g6
Nsg8
S'OTHER'
p2161
sg10
Nsg17
NsbsS'benson'
p2162
g0
(g1
g2
Ntp2163
Rp2164
(dp2165
g6
Nsg8
S'PERSON'
p2166
sg10
Nsg17
NsbsS'institute'
p2167
g0
(g1
g2
Ntp2168
Rp2169
(dp2170
g6
Nsg8
S'LOCATION'
p2171
sg10
Nsg17
NsbsS'franklin'
p2172
g0
(g1
g2
Ntp2173
Rp2174
(dp2175
g6
Nsg8
S'OTHER'
p2176
sg10
Nsg17
NsbsS'birthstone'
p2177
g0
(g1
g2
Ntp2178
Rp2179
(dp2180
g6
Nsg8
S'OTHER'
p2181
sg10
Nsg17
NsbsS'italians'
p2182
g0
(g1
g2
Ntp2183
Rp2184
(dp2185
g6
Nsg8
S'OTHER'
p2186
sg10
Nsg17
NsbsS'trinidad'
p2187
g0
(g1
g2
Ntp2188
Rp2189
(dp2190
g6
Nsg8
S'LOCATION'
p2191
sg10
Nsg17
NsbsS'flavors'
p2192
g0
(g1
g2
Ntp2193
Rp2194
(dp2195
g6
Nsg8
S'NUMBER'
p2196
sg10
Nsg17
NsbsS'troops'
p2197
g0
(g1
g2
Ntp2198
Rp2199
(dp2200
g6
Nsg8
S'DATE'
p2201
sg10
Nsg17
NsbsS'wonderbra'
p2202
g0
(g1
g2
Ntp2203
Rp2204
(dp2205
g6
Nsg8
S'PERSON'
p2206
sg10
Nsg17
NsbsS'films'
p2207
g0
(g1
g2
Ntp2208
Rp2209
(dp2210
g6
Nsg8
S'OTHER'
p2211
sg10
Nsg17
NsbsS'sonnets'
p2212
g0
(g1
g2
Ntp2213
Rp2214
(dp2215
g6
Nsg8
S'NUMBER'
p2216
sg10
Nsg17
NsbsS'angels'
p2217
g0
(g1
g2
Ntp2218
Rp2219
(dp2220
g6
Nsg8
S'PERSON'
p2221
sg10
Nsg17
NsbsS'today'
p2222
g0
(g1
g2
Ntp2223
Rp2224
(dp2225
g6
Nsg8
S'NUMBER'
p2226
sg10
Nsg17
NsbsS'rios'
p2227
g0
(g1
g2
Ntp2228
Rp2229
(dp2230
g6
Nsg8
S'LOCATION'
p2231
sg10
Nsg17
NsbsS'stradivarius'
p2232
g0
(g1
g2
Ntp2233
Rp2234
(dp2235
g6
Nsg8
S'NUMBER'
p2236
sg10
Nsg17
NsbsS'club'
p2237
g0
(g1
g2
Ntp2238
Rp2239
(dp2240
g6
Nsg8
S'OTHER'
p2241
sg10
Nsg17
NsbsS'chocolate'
p2242
g0
(g1
g2
Ntp2243
Rp2244
(dp2245
g6
Nsg8
S'ORGANIZATION'
p2246
sg10
Nsg17
NsbsS'slinky'
p2247
g0
(g1
g2
Ntp2248
Rp2249
(dp2250
g6
Nsg8
S'DATE'
p2251
sg10
Nsg17
NsbsS'mascot'
p2252
g0
(g1
g2
Ntp2253
Rp2254
(dp2255
g6
Nsg8
S'OTHER'
p2256
sg10
Nsg17
NsbsS'car'
p2257
g0
(g1
g2
Ntp2258
Rp2259
(dp2260
g6
Nsg8
S'OTHER'
p2261
sg10
Nsg17
NsbsS'confucius'
p2262
g0
(g1
g2
Ntp2263
Rp2264
(dp2265
g6
Nsg8
S'PERSON'
p2266
sg10
Nsg17
NsbsS'longitude'
p2267
g0
(g1
g2
Ntp2268
Rp2269
(dp2270
g6
Nsg8
S'NUMBER'
p2271
sg10
Nsg17
NsbsS'goodall'
p2272
g0
(g1
g2
Ntp2273
Rp2274
(dp2275
g6
Nsg8
S'PERSON'
p2276
sg10
Nsg17
NsbsS'best-seller'
p2277
g0
(g1
g2
Ntp2278
Rp2279
(dp2280
g6
Nsg8
S'OTHER'
p2281
sg10
Nsg17
NsbsS'spy'
p2282
g0
(g1
g2
Ntp2283
Rp2284
(dp2285
g6
Nsg8
S'PERSON'
p2286
sg10
Nsg17
NsbsS'performer'
p2287
g0
(g1
g2
Ntp2288
Rp2289
(dp2290
g6
Nsg8
S'PERSON'
p2291
sg10
Nsg17
NsbsS'figure'
p2292
g0
(g1
g2
Ntp2293
Rp2294
(dp2295
g6
Nsg8
S'PERSON'
p2296
sg10
Nsg17
NsbsS'chip'
p2297
g0
(g1
g2
Ntp2298
Rp2299
(dp2300
g6
Nsg8
S'OTHER'
p2301
sg10
Nsg17
NsbsS'teaspoons'
p2302
g0
(g1
g2
Ntp2303
Rp2304
(dp2305
g6
Nsg8
S'NUMBER'
p2306
sg10
Nsg17
NsbsS'stroke'
p2307
g0
(g1
g2
Ntp2308
Rp2309
(dp2310
g6
Nsg8
S'OTHER'
p2311
sg10
Nsg17
NsbsS'chemical'
p2312
g0
(g1
g2
Ntp2313
Rp2314
(dp2315
g6
Nsg8
S'OTHER'
p2316
sg10
Nsg17
NsbsS'cardinal'
p2317
g0
(g1
g2
Ntp2318
Rp2319
(dp2320
g6
Nsg8
S'PERSON'
p2321
sg10
Nsg17
NsbsS'skater'
p2322
g0
(g1
g2
Ntp2323
Rp2324
(dp2325
g6
Nsg8
S'PERSON'
p2326
sg10
Nsg17
NsbsS'pins'
p2327
g0
(g1
g2
Ntp2328
Rp2329
(dp2330
g6
Nsg8
S'NUMBER'
p2331
sg10
Nsg17
NsbsS'spielberg'
p2332
g0
(g1
g2
Ntp2333
Rp2334
(dp2335
g6
Nsg8
S'DATE'
p2336
sg10
Nsg17
NsbsS'designer'
p2337
g0
(g1
g2
Ntp2338
Rp2339
(dp2340
g6
Nsg8
S'PERSON'
p2341
sg10
Nsg17
NsbsS'explorer'
p2342
g0
(g1
g2
Ntp2343
Rp2344
(dp2345
g6
Nsg8
S'PERSON'
p2346
sg10
Nsg17
NsbsS'cocktail'
p2347
g0
(g1
g2
Ntp2348
Rp2349
(dp2350
g6
Nsg8
S'OTHER'
p2351
sg10
Nsg17
NsbsS'may'
p2352
g0
(g1
g2
Ntp2353
Rp2354
(dp2355
g6
Nsg8
S'OTHER'
p2356
sg10
Nsg17
NsbsS'clone'
p2357
g0
(g1
g2
Ntp2358
Rp2359
(dp2360
g6
Nsg8
S'OTHER'
p2361
sg10
Nsg17
NsbsS'rites'
p2362
g0
(g1
g2
Ntp2363
Rp2364
(dp2365
g6
Nsg8
S'OTHER'
p2366
sg10
Nsg17
NsbsS'conjugations'
p2367
g0
(g1
g2
Ntp2368
Rp2369
(dp2370
g6
Nsg8
S'OTHER'
p2371
sg10
Nsg17
NsbsS'birthday'
p2372
g0
(g1
g2
Ntp2373
Rp2374
(dp2375
g6
Nsg8
S'DATE'
p2376
sg10
Nsg17
NsbsS'date'
p2377
g0
(g1
g2
Ntp2378
Rp2379
(dp2380
g6
Nsg8
S'DATE'
p2381
sg10
Nsg17
NsbsS'man'
p2382
g0
(g1
g2
Ntp2383
Rp2384
(dp2385
g6
Nsg8
S'PERSON'
p2386
sg10
Nsg17
NsbsS'surfing'
p2387
g0
(g1
g2
Ntp2388
Rp2389
(dp2390
g6
Nsg8
S'LOCATION'
p2391
sg10
Nsg17
NsbsS'noun'
p2392
g0
(g1
g2
Ntp2393
Rp2394
(dp2395
g6
Nsg8
S'OTHER'
p2396
sg10
Nsg17
NsbsS'commodity'
p2397
g0
(g1
g2
Ntp2398
Rp2399
(dp2400
g6
Nsg8
S'OTHER'
p2401
sg10
Nsg17
NsbsS'tale'
p2402
g0
(g1
g2
Ntp2403
Rp2404
(dp2405
g6
Nsg8
S'OTHER'
p2406
sg10
Nsg17
NsbsS'nebbish'
p2407
g0
(g1
g2
Ntp2408
Rp2409
(dp2410
g6
Nsg8
S'PERSON'
p2411
sg10
Nsg17
NsbsS'no.'
p2412
g0
(g1
g2
Ntp2413
Rp2414
(dp2415
g6
Nsg8
S'PERSON'
p2416
sg10
Nsg17
NsbsS'cathedral'
p2417
g0
(g1
g2
Ntp2418
Rp2419
(dp2420
g6
Nsg8
S'LOCATION'
p2421
sg10
Nsg17
NsbsS'years'
p2422
g0
(g1
g2
Ntp2423
Rp2424
(dp2425
g6
Nsg8
S'NUMBER'
p2426
sg10
Nsg17
NsbsS'course'
p2427
g0
(g1
g2
Ntp2428
Rp2429
(dp2430
g6
Nsg8
S'OTHER'
p2431
sg10
Nsg17
NsbsS'magoo'
p2432
g0
(g1
g2
Ntp2433
Rp2434
(dp2435
g6
Nsg8
S'OTHER'
p2436
sg10
Nsg17
NsbsS'birds'
p2437
g0
(g1
g2
Ntp2438
Rp2439
(dp2440
g6
Nsg8
S'OTHER'
p2441
sg10
Nsg17
NsbsS'self-portrait'
p2442
g0
(g1
g2
Ntp2443
Rp2444
(dp2445
g6
Nsg8
S'PERSON'
p2446
sg10
Nsg17
NsbsS'group'
p2447
g0
(g1
g2
Ntp2448
Rp2449
(dp2450
g6
Nsg8
S'ORGANIZATION'
p2451
sg10
Nsg17
NsbsS'forms'
p2452
g0
(g1
g2
Ntp2453
Rp2454
(dp2455
g6
Nsg8
S'OTHER'
p2456
sg10
Nsg17
NsbsS'window'
p2457
g0
(g1
g2
Ntp2458
Rp2459
(dp2460
g6
Nsg8
S'DATE'
p2461
sg10
Nsg17
NsbsS'dwarfs'
p2462
g0
(g1
g2
Ntp2463
Rp2464
(dp2465
g6
Nsg8
S'PERSON'
p2466
sg10
Nsg17
NsbsS'norway'
p2467
g0
(g1
g2
Ntp2468
Rp2469
(dp2470
g6
Nsg8
S'PERSON'
p2471
sg10
Nsg17
NsbsS'killer'
p2472
g0
(g1
g2
Ntp2473
Rp2474
(dp2475
g6
Nsg8
S'OTHER'
p2476
sg10
Nsg17
NsbsS'amendements'
p2477
g0
(g1
g2
Ntp2478
Rp2479
(dp2480
g6
Nsg8
S'OTHER'
p2481
sg10
Nsg17
NsbsS'nation'
p2482
g0
(g1
g2
Ntp2483
Rp2484
(dp2485
g6
Nsg8
S'LOCATION'
p2486
sg10
Nsg17
NsbsS'term'
p2487
g0
(g1
g2
Ntp2488
Rp2489
(dp2490
g6
Nsg8
S'OTHER'
p2491
sg10
Nsg17
NsbsS'attorneys'
p2492
g0
(g1
g2
Ntp2493
Rp2494
(dp2495
g6
Nsg8
S'PERSON'
p2496
sg10
Nsg17
NsbsS'name'
p2497
g0
(g1
g2
Ntp2498
Rp2499
(dp2500
g6
Nsg8
S'OTHER'
p2501
sg10
Nsg17
NsbsS'opera'
p2502
g0
(g1
g2
Ntp2503
Rp2504
(dp2505
g6
Nsg8
S'OTHER'
p2506
sg10
Nsg17
NsbsS'january'
p2507
g0
(g1
g2
Ntp2508
Rp2509
(dp2510
g6
Nsg8
S'OTHER'
p2511
sg10
Nsg17
NsbsS'bowling'
p2512
g0
(g1
g2
Ntp2513
Rp2514
(dp2515
g6
Nsg8
S'PERSON'
p2516
sg10
Nsg17
NsbsS'concerts'
p2517
g0
(g1
g2
Ntp2518
Rp2519
(dp2520
g6
Nsg8
S'OTHER'
p2521
sg10
Nsg17
NsbsS'square'
p2522
g0
(g1
g2
Ntp2523
Rp2524
(dp2525
g6
Nsg8
S'LOCATION'
p2526
sg10
Nsg17
NsbsS'ailment'
p2527
g0
(g1
g2
Ntp2528
Rp2529
(dp2530
g6
Nsg8
S'OTHER'
p2531
sg10
Nsg17
NsbsS'cyberspace'
p2532
g0
(g1
g2
Ntp2533
Rp2534
(dp2535
g6
Nsg8
S'PERSON'
p2536
sg10
Nsg17
NsbsS'kane'
p2537
g0
(g1
g2
Ntp2538
Rp2539
(dp2540
g6
Nsg8
S'PERSON'
p2541
sg10
Nsg17
NsbsS'year'
p2542
g0
(g1
g2
Ntp2543
Rp2544
(dp2545
g6
Nsg8
S'DATE'
p2546
sg10
Nsg17
NsbsS'girl'
p2547
g0
(g1
g2
Ntp2548
Rp2549
(dp2550
g6
Nsg8
S'PERSON'
p2551
sg10
Nsg17
NsbsS'ribavirin'
p2552
g0
(g1
g2
Ntp2553
Rp2554
(dp2555
g6
Nsg8
S'OTHER'
p2556
sg10
Nsg17
NsbsS'album'
p2557
g0
(g1
g2
Ntp2558
Rp2559
(dp2560
g6
Nsg8
S'OTHER'
p2561
sg10
Nsg17
NsbsS'increase'
p2562
g0
(g1
g2
Ntp2563
Rp2564
(dp2565
g6
Nsg8
S'MONEY'
p2566
sg10
Nsg17
NsbsS'opener'
p2567
g0
(g1
g2
Ntp2568
Rp2569
(dp2570
g6
Nsg8
S'PERSON'
p2571
sg10
Nsg17
NsbsS'cobb'
p2572
g0
(g1
g2
Ntp2573
Rp2574
(dp2575
g6
Nsg8
S'LOCATION'
p2576
sg10
Nsg17
NsbsS'formula'
p2577
g0
(g1
g2
Ntp2578
Rp2579
(dp2580
g6
Nsg8
S'OTHER'
p2581
sg10
Nsg17
NsbsS'squares'
p2582
g0
(g1
g2
Ntp2583
Rp2584
(dp2585
g6
Nsg8
S'NUMBER'
p2586
sg10
Nsg17
NsbsS'maneuver'
p2587
g0
(g1
g2
Ntp2588
Rp2589
(dp2590
g6
Nsg8
S'OTHER'
p2591
sg10
Nsg17
NsbsS'theory'
p2592
g0
(g1
g2
Ntp2593
Rp2594
(dp2595
g6
Nsg8
S'PERSON'
p2596
sg10
Nsg17
NsbsS'cars'
p2597
g0
(g1
g2
Ntp2598
Rp2599
(dp2600
g6
Nsg8
S'LOCATION'
p2601
sg10
Nsg17
NsbsS'descendents'
p2602
g0
(g1
g2
Ntp2603
Rp2604
(dp2605
g6
Nsg8
S'OTHER'
p2606
sg10
Nsg17
NsbsS'hulk'
p2607
g0
(g1
g2
Ntp2608
Rp2609
(dp2610
g6
Nsg8
S'PERSON'
p2611
sg10
Nsg17
NsbsS'statistics'
p2612
g0
(g1
g2
Ntp2613
Rp2614
(dp2615
g6
Nsg8
S'NUMBER'
p2616
sg10
Nsg17
NsbsS'plea'
p2617
g0
(g1
g2
Ntp2618
Rp2619
(dp2620
g6
Nsg8
S'PERSON'
p2621
sg10
Nsg17
NsbsS'explorers'
p2622
g0
(g1
g2
Ntp2623
Rp2624
(dp2625
g6
Nsg8
S'PERSON'
p2626
sg10
Nsg17
NsbsS'card'
p2627
g0
(g1
g2
Ntp2628
Rp2629
(dp2630
g6
Nsg8
S'OTHER'
p2631
sg10
Nsg17
NsbsS'watts'
p2632
g0
(g1
g2
Ntp2633
Rp2634
(dp2635
g6
Nsg8
S'NUMBER'
p2636
sg10
Nsg17
NsbsS'hamed'
p2637
g0
(g1
g2
Ntp2638
Rp2639
(dp2640
g6
Nsg8
S'PERSON'
p2641
sg10
Nsg17
NsbsS'language'
p2642
g0
(g1
g2
Ntp2643
Rp2644
(dp2645
g6
Nsg8
S'OTHER'
p2646
sg10
Nsg17
NsbsS'calories'
p2647
g0
(g1
g2
Ntp2648
Rp2649
(dp2650
g6
Nsg8
S'NUMBER'
p2651
sg10
Nsg17
NsbsS'thing'
p2652
g0
(g1
g2
Ntp2653
Rp2654
(dp2655
g6
Nsg8
S'OTHER'
p2656
sg10
Nsg17
NsbsS'place'
p2657
g0
(g1
g2
Ntp2658
Rp2659
(dp2660
g6
Nsg8
S'LOCATION'
p2661
sg10
Nsg17
NsbsS'gordon'
p2662
g0
(g1
g2
Ntp2663
Rp2664
(dp2665
g6
Nsg8
S'PERSON'
p2666
sg10
Nsg17
NsbsS'romania'
p2667
g0
(g1
g2
Ntp2668
Rp2669
(dp2670
g6
Nsg8
S'LOCATION'
p2671
sg10
Nsg17
NsbsS'damocles'
p2672
g0
(g1
g2
Ntp2673
Rp2674
(dp2675
g6
Nsg8
S'PERSON'
p2676
sg10
Nsg17
NsbsS'americans'
p2677
g0
(g1
g2
Ntp2678
Rp2679
(dp2680
g6
Nsg8
S'NUMBER'
p2681
sg10
Nsg17
NsbsS'message'
p2682
g0
(g1
g2
Ntp2683
Rp2684
(dp2685
g6
Nsg8
S'PERSON'
p2686
sg10
Nsg17
NsbsS'george'
p2687
g0
(g1
g2
Ntp2688
Rp2689
(dp2690
g6
Nsg8
S'LOCATION'
p2691
sg10
Nsg17
NsbsS'engineer'
p2692
g0
(g1
g2
Ntp2693
Rp2694
(dp2695
g6
Nsg8
S'PERSON'
p2696
sg10
Nsg17
NsbsS'city'
p2697
g0
(g1
g2
Ntp2698
Rp2699
(dp2700
g6
Nsg8
S'LOCATION'
p2701
sg10
Nsg17
NsbsS'lap'
p2702
g0
(g1
g2
Ntp2703
Rp2704
(dp2705
g6
Nsg8
S'PERSON'
p2706
sg10
Nsg17
NsbsS'carson'
p2707
g0
(g1
g2
Ntp2708
Rp2709
(dp2710
g6
Nsg8
S'PERSON'
p2711
sg10
Nsg17
NsbsS'williams'
p2712
g0
(g1
g2
Ntp2713
Rp2714
(dp2715
g6
Nsg8
S'PERSON'
p2716
sg10
Nsg17
NsbsS'eyes'
p2717
g0
(g1
g2
Ntp2718
Rp2719
(dp2720
g6
Nsg8
S'PERSON'
p2721
sg10
Nsg17
NsbsS'labianca'
p2722
g0
(g1
g2
Ntp2723
Rp2724
(dp2725
g6
Nsg8
S'PERSON'
p2726
sg10
Nsg17
NsbsS'fraction'
p2727
g0
(g1
g2
Ntp2728
Rp2729
(dp2730
g6
Nsg8
S'PERCENT'
p2731
sg10
Nsg17
NsbsS'season'
p2732
g0
(g1
g2
Ntp2733
Rp2734
(dp2735
g6
Nsg8
S'DATE'
p2736
sg10
Nsg17
NsbsS'montenegro'
p2737
g0
(g1
g2
Ntp2738
Rp2739
(dp2740
g6
Nsg8
S'LOCATION'
p2741
sg10
Nsg17
NsbsS'broadcast'
p2742
g0
(g1
g2
Ntp2743
Rp2744
(dp2745
g6
Nsg8
S'DATE'
p2746
sg10
Nsg17
NsbsS'flowers'
p2747
g0
(g1
g2
Ntp2748
Rp2749
(dp2750
g6
Nsg8
S'OTHER'
p2751
sg10
Nsg17
NsbsS'inventor'
p2752
g0
(g1
g2
Ntp2753
Rp2754
(dp2755
g6
Nsg8
S'PERSON'
p2756
sg10
Nsg17
NsbsS'television'
p2757
g0
(g1
g2
Ntp2758
Rp2759
(dp2760
g6
Nsg8
S'PERSON'
p2761
sg10
Nsg17
NsbsS'cards'
p2762
g0
(g1
g2
Ntp2763
Rp2764
(dp2765
g6
Nsg8
S'OTHER'
p2766
sg10
Nsg17
NsbsS'outcome'
p2767
g0
(g1
g2
Ntp2768
Rp2769
(dp2770
g6
Nsg8
S'OTHER'
p2771
sg10
Nsg17
NsbsS'surname'
p2772
g0
(g1
g2
Ntp2773
Rp2774
(dp2775
g6
Nsg8
S'PERSON'
p2776
sg10
Nsg17
NsbsS'premier'
p2777
g0
(g1
g2
Ntp2778
Rp2779
(dp2780
g6
Nsg8
S'PERSON'
p2781
sg10
Nsg17
NsbsS'locations'
p2782
g0
(g1
g2
Ntp2783
Rp2784
(dp2785
g6
Nsg8
S'OTHER'
p2786
sg10
Nsg17
NsbsS'alley'
p2787
g0
(g1
g2
Ntp2788
Rp2789
(dp2790
g6
Nsg8
S'LOCATION'
p2791
sg10
Nsg17
NsbsS'voices'
p2792
g0
(g1
g2
Ntp2793
Rp2794
(dp2795
g6
Nsg8
S'PERSON'
p2796
sg10
Nsg17
NsbsS'tastes'
p2797
g0
(g1
g2
Ntp2798
Rp2799
(dp2800
g6
Nsg8
S'OTHER'
p2801
sg10
Nsg17
NsbsS'comedian'
p2802
g0
(g1
g2
Ntp2803
Rp2804
(dp2805
g6
Nsg8
S'PERSON'
p2806
sg10
Nsg17
NsbsS'spectacle'
p2807
g0
(g1
g2
Ntp2808
Rp2809
(dp2810
g6
Nsg8
S'OTHER'
p2811
sg10
Nsg17
NsbsS'horsepower'
p2812
g0
(g1
g2
Ntp2813
Rp2814
(dp2815
g6
Nsg8
S'NUMBER'
p2816
sg10
Nsg17
NsbsS'allen'
p2817
g0
(g1
g2
Ntp2818
Rp2819
(dp2820
g6
Nsg8
S'OTHER'
p2821
sg10
Nsg17
NsbsS'handicraft'
p2822
g0
(g1
g2
Ntp2823
Rp2824
(dp2825
g6
Nsg8
S'OTHER'
p2826
sg10
Nsg17
NsbsS'zoo'
p2827
g0
(g1
g2
Ntp2828
Rp2829
(dp2830
g6
Nsg8
S'LOCATION'
p2831
sg10
Nsg17
NsbsS'chefs'
p2832
g0
(g1
g2
Ntp2833
Rp2834
(dp2835
g6
Nsg8
S'OTHER'
p2836
sg10
Nsg17
NsbsS'grammys'
p2837
g0
(g1
g2
Ntp2838
Rp2839
(dp2840
g6
Nsg8
S'NUMBER'
p2841
sg10
Nsg17
NsbsS'price'
p2842
g0
(g1
g2
Ntp2843
Rp2844
(dp2845
g6
Nsg8
S'MONEY'
p2846
sg10
Nsg17
NsbsS'honecker'
p2847
g0
(g1
g2
Ntp2848
Rp2849
(dp2850
g6
Nsg8
S'LOCATION'
p2851
sg10
Nsg17
NsbsS'badu'
p2852
g0
(g1
g2
Ntp2853
Rp2854
(dp2855
g6
Nsg8
S'LOCATION'
p2856
sg10
Nsg17
NsbsS'synonym'
p2857
g0
(g1
g2
Ntp2858
Rp2859
(dp2860
g6
Nsg8
S'OTHER'
p2861
sg10
Nsg17
NsbsS'salt'
p2862
g0
(g1
g2
Ntp2863
Rp2864
(dp2865
g6
Nsg8
S'NUMBER'
p2866
sg10
Nsg17
NsbsS'quantity'
p2867
g0
(g1
g2
Ntp2868
Rp2869
(dp2870
g6
Nsg8
S'NUMBER'
p2871
sg10
Nsg17
NsbsS'detective'
p2872
g0
(g1
g2
Ntp2873
Rp2874
(dp2875
g6
Nsg8
S'PERSON'
p2876
sg10
Nsg17
NsbsS'rating'
p2877
g0
(g1
g2
Ntp2878
Rp2879
(dp2880
g6
Nsg8
S'PERCENT'
p2881
sg10
Nsg17
NsbsS'show'
p2882
g0
(g1
g2
Ntp2883
Rp2884
(dp2885
g6
Nsg8
S'OTHER'
p2886
sg10
Nsg17
NsbsS'recipe'
p2887
g0
(g1
g2
Ntp2888
Rp2889
(dp2890
g6
Nsg8
S'OTHER'
p2891
sg10
Nsg17
NsbsS'spaces'
p2892
g0
(g1
g2
Ntp2893
Rp2894
(dp2895
g6
Nsg8
S'NUMBER'
p2896
sg10
Nsg17
NsbsS'gulf'
p2897
g0
(g1
g2
Ntp2898
Rp2899
(dp2900
g6
Nsg8
S'LOCATION'
p2901
sg10
Nsg17
NsbsS'title'
p2902
g0
(g1
g2
Ntp2903
Rp2904
(dp2905
g6
Nsg8
S'PERSON'
p2906
sg10
Nsg17
NsbsS'hockey'
p2907
g0
(g1
g2
Ntp2908
Rp2909
(dp2910
g6
Nsg8
S'PERSON'
p2911
sg10
Nsg17
NsbsS'beatles'
p2912
g0
(g1
g2
Ntp2913
Rp2914
(dp2915
g6
Nsg8
S'NUMBER'
p2916
sg10
Nsg17
NsbsS'bocci'
p2917
g0
(g1
g2
Ntp2918
Rp2919
(dp2920
g6
Nsg8
S'LOCATION'
p2921
sg10
Nsg17
NsbsS'jong'
p2922
g0
(g1
g2
Ntp2923
Rp2924
(dp2925
g6
Nsg8
S'OTHER'
p2926
sg10
Nsg17
NsbsS'resource'
p2927
g0
(g1
g2
Ntp2928
Rp2929
(dp2930
g6
Nsg8
S'OTHER'
p2931
sg10
Nsg17
NsbsS'bestselling'
p2932
g0
(g1
g2
Ntp2933
Rp2934
(dp2935
g6
Nsg8
S'PERSON'
p2936
sg10
Nsg17
NsbsS'artist'
p2937
g0
(g1
g2
Ntp2938
Rp2939
(dp2940
g6
Nsg8
S'PERSON'
p2941
sg10
Nsg17
NsbsS'saliva'
p2942
g0
(g1
g2
Ntp2943
Rp2944
(dp2945
g6
Nsg8
S'OTHER'
p2946
sg10
Nsg17
NsbsS'penguins'
p2947
g0
(g1
g2
Ntp2948
Rp2949
(dp2950
g6
Nsg8
S'OTHER'
p2951
sg10
Nsg17
NsbsS'roger'
p2952
g0
(g1
g2
Ntp2953
Rp2954
(dp2955
g6
Nsg8
S'OTHER'
p2956
sg10
Nsg17
NsbsS'husband'
p2957
g0
(g1
g2
Ntp2958
Rp2959
(dp2960
g6
Nsg8
S'PERSON'
p2961
sg10
Nsg17
NsbsS'beethoven'
p2962
g0
(g1
g2
Ntp2963
Rp2964
(dp2965
g6
Nsg8
S'DATE'
p2966
sg10
Nsg17
NsbsS'osbourne'
p2967
g0
(g1
g2
Ntp2968
Rp2969
(dp2970
g6
Nsg8
S'DATE'
p2971
sg10
Nsg17
NsbsS'eriksen'
p2972
g0
(g1
g2
Ntp2973
Rp2974
(dp2975
g6
Nsg8
S'PERSON'
p2976
sg10
Nsg17
NsbsS'seas'
p2977
g0
(g1
g2
Ntp2978
Rp2979
(dp2980
g6
Nsg8
S'LOCATION'
p2981
sg10
Nsg17
NsbsS'cologne'
p2982
g0
(g1
g2
Ntp2983
Rp2984
(dp2985
g6
Nsg8
S'OTHER'
p2986
sg10
Nsg17
NsbsS'college'
p2987
g0
(g1
g2
Ntp2988
Rp2989
(dp2990
g6
Nsg8
S'ORGANIZATION'
p2991
sg10
Nsg17
NsbsS'chiropodist'
p2992
g0
(g1
g2
Ntp2993
Rp2994
(dp2995
g6
Nsg8
S'OTHER'
p2996
sg10
Nsg17
NsbsS'seal'
p2997
g0
(g1
g2
Ntp2998
Rp2999
(dp3000
g6
Nsg8
S'OTHER'
p3001
sg10
Nsg17
NsbsS'sport'
p3002
g0
(g1
g2
Ntp3003
Rp3004
(dp3005
g6
Nsg8
S'OTHER'
p3006
sg10
Nsg17
NsbsS'ability'
p3007
g0
(g1
g2
Ntp3008
Rp3009
(dp3010
g6
Nsg8
S'OTHER'
p3011
sg10
Nsg17
NsbsS'ways'
p3012
g0
(g1
g2
Ntp3013
Rp3014
(dp3015
g6
Nsg8
S'OTHER'
p3016
sg10
Nsg17
NsbsS'review'
p3017
g0
(g1
g2
Ntp3018
Rp3019
(dp3020
g6
Nsg8
S'OTHER'
p3021
sg10
Nsg17
NsbsS'sites'
p3022
g0
(g1
g2
Ntp3023
Rp3024
(dp3025
g6
Nsg8
S'LOCATION'
p3026
sg10
Nsg17
NsbsS'bureau'
p3027
g0
(g1
g2
Ntp3028
Rp3029
(dp3030
g6
Nsg8
S'ORGANIZATION'
p3031
sg10
Nsg17
NsbsS'diamonds'
p3032
g0
(g1
g2
Ntp3033
Rp3034
(dp3035
g6
Nsg8
S'LOCATION'
p3036
sg10
Nsg17
NsbsS'advertizing'
p3037
g0
(g1
g2
Ntp3038
Rp3039
(dp3040
g6
Nsg8
S'PERSON'
p3041
sg10
Nsg17
NsbsS'guitar'
p3042
g0
(g1
g2
Ntp3043
Rp3044
(dp3045
g6
Nsg8
S'PERSON'
p3046
sg10
Nsg17
NsbsS'awards'
p3047
g0
(g1
g2
Ntp3048
Rp3049
(dp3050
g6
Nsg8
S'DATE'
p3051
sg10
Nsg17
NsbsS'nationality'
p3052
g0
(g1
g2
Ntp3053
Rp3054
(dp3055
g6
Nsg8
S'LOCATION'
p3056
sg10
Nsg17
NsbsS'cities'
p3057
g0
(g1
g2
Ntp3058
Rp3059
(dp3060
g6
Nsg8
S'LOCATION'
p3061
sg10
Nsg17
NsbsS'first-aid'
p3062
g0
(g1
g2
Ntp3063
Rp3064
(dp3065
g6
Nsg8
S'OTHER'
p3066
sg10
Nsg17
NsbsS'jfk'
p3067
g0
(g1
g2
Ntp3068
Rp3069
(dp3070
g6
Nsg8
S'PERSON'
p3071
sg10
Nsg17
NsbsS'dates'
p3072
g0
(g1
g2
Ntp3073
Rp3074
(dp3075
g6
Nsg8
S'DATE'
p3076
sg10
Nsg17
NsbsS'superstar'
p3077
g0
(g1
g2
Ntp3078
Rp3079
(dp3080
g6
Nsg8
S'PERSON'
p3081
sg10
Nsg17
NsbsS'residence'
p3082
g0
(g1
g2
Ntp3083
Rp3084
(dp3085
g6
Nsg8
S'LOCATION'
p3086
sg10
Nsg17
NsbsS'region'
p3087
g0
(g1
g2
Ntp3088
Rp3089
(dp3090
g6
Nsg8
S'LOCATION'
p3091
sg10
Nsg17
NsbsS'monk'
p3092
g0
(g1
g2
Ntp3093
Rp3094
(dp3095
g6
Nsg8
S'PERSON'
p3096
sg10
Nsg17
NsbsS'berry'
p3097
g0
(g1
g2
Ntp3098
Rp3099
(dp3100
g6
Nsg8
S'OTHER'
p3101
sg10
Nsg17
NsbsS'senator'
p3102
g0
(g1
g2
Ntp3103
Rp3104
(dp3105
g6
Nsg8
S'PERSON'
p3106
sg10
Nsg17
NsbsS'railway'
p3107
g0
(g1
g2
Ntp3108
Rp3109
(dp3110
g6
Nsg8
S'DATE'
p3111
sg10
Nsg17
NsbsS'concert'
p3112
g0
(g1
g2
Ntp3113
Rp3114
(dp3115
g6
Nsg8
S'DATE'
p3116
sg10
Nsg17
NsbsS'cancer'
p3117
g0
(g1
g2
Ntp3118
Rp3119
(dp3120
g6
Nsg8
S'OTHER'
p3121
sg10
Nsg17
NsbsS'color'
p3122
g0
(g1
g2
Ntp3123
Rp3124
(dp3125
g6
Nsg8
S'OTHER'
p3126
sg10
Nsg17
NsbsS'colony'
p3127
g0
(g1
g2
Ntp3128
Rp3129
(dp3130
g6
Nsg8
S'PERSON'
p3131
sg10
Nsg17
NsbsS'period'
p3132
g0
(g1
g2
Ntp3133
Rp3134
(dp3135
g6
Nsg8
S'DATE'
p3136
sg10
Nsg17
NsbsS'mccain'
p3137
g0
(g1
g2
Ntp3138
Rp3139
(dp3140
g6
Nsg8
S'PERSON'
p3141
sg10
Nsg17
NsbsS'pole'
p3142
g0
(g1
g2
Ntp3143
Rp3144
(dp3145
g6
Nsg8
S'OTHER'
p3146
sg10
Nsg17
NsbsS'edberg'
p3147
g0
(g1
g2
Ntp3148
Rp3149
(dp3150
g6
Nsg8
S'LOCATION'
p3151
sg10
Nsg17
NsbsS'biographer'
p3152
g0
(g1
g2
Ntp3153
Rp3154
(dp3155
g6
Nsg8
S'PERSON'
p3156
sg10
Nsg17
NsbsS'poe'
p3157
g0
(g1
g2
Ntp3158
Rp3159
(dp3160
g6
Nsg8
S'LOCATION'
p3161
sg10
Nsg17
NsbsS'boat'
p3162
g0
(g1
g2
Ntp3163
Rp3164
(dp3165
g6
Nsg8
S'PERSON'
p3166
sg10
Nsg17
NsbsS'turkey'
p3167
g0
(g1
g2
Ntp3168
Rp3169
(dp3170
g6
Nsg8
S'PERSON'
p3171
sg10
Nsg17
NsbsS'mark'
p3172
g0
(g1
g2
Ntp3173
Rp3174
(dp3175
g6
Nsg8
S'OTHER'
p3176
sg10
Nsg17
NsbsS'dictator'
p3177
g0
(g1
g2
Ntp3178
Rp3179
(dp3180
g6
Nsg8
S'PERSON'
p3181
sg10
Nsg17
NsbsS'engine'
p3182
g0
(g1
g2
Ntp3183
Rp3184
(dp3185
g6
Nsg8
S'PERSON'
p3186
sg10
Nsg17
NsbsS'direction'
p3187
g0
(g1
g2
Ntp3188
Rp3189
(dp3190
g6
Nsg8
S'LOCATION'
p3191
sg10
Nsg17
NsbsS'cobain'
p3192
g0
(g1
g2
Ntp3193
Rp3194
(dp3195
g6
Nsg8
S'PERSON'
p3196
sg10
Nsg17
NsbsS'tiger'
p3197
g0
(g1
g2
Ntp3198
Rp3199
(dp3200
g6
Nsg8
S'OTHER'
p3201
sg10
Nsg17
NsbsS'minister'
p3202
g0
(g1
g2
Ntp3203
Rp3204
(dp3205
g6
Nsg8
S'PERSON'
p3206
sg10
Nsg17
NsbsS'ruby'
p3207
g0
(g1
g2
Ntp3208
Rp3209
(dp3210
g6
Nsg8
S'DATE'
p3211
sg10
Nsg17
NsbsS'sound'
p3212
g0
(g1
g2
Ntp3213
Rp3214
(dp3215
g6
Nsg8
S'OTHER'
p3216
sg10
Nsg17
NsbsS'hughes'
p3217
g0
(g1
g2
Ntp3218
Rp3219
(dp3220
g6
Nsg8
S'PERSON'
p3221
sg10
Nsg17
NsbsS'bar-code'
p3222
g0
(g1
g2
Ntp3223
Rp3224
(dp3225
g6
Nsg8
S'DATE'
p3226
sg10
Nsg17
NsbsS'newspaper'
p3227
g0
(g1
g2
Ntp3228
Rp3229
(dp3230
g6
Nsg8
S'OTHER'
p3231
sg10
Nsg17
NsbsS'strait'
p3232
g0
(g1
g2
Ntp3233
Rp3234
(dp3235
g6
Nsg8
S'LOCATION'
p3236
sg10
Nsg17
NsbsS'commander'
p3237
g0
(g1
g2
Ntp3238
Rp3239
(dp3240
g6
Nsg8
S'PERSON'
p3241
sg10
Nsg17
NsbsS'helium'
p3242
g0
(g1
g2
Ntp3243
Rp3244
(dp3245
g6
Nsg8
S'LOCATION'
p3246
sg10
Nsg17
NsbsS'par'
p3247
g0
(g1
g2
Ntp3248
Rp3249
(dp3250
g6
Nsg8
S'NUMBER'
p3251
sg10
Nsg17
NsbsS'revolutions'
p3252
g0
(g1
g2
Ntp3253
Rp3254
(dp3255
g6
Nsg8
S'NUMBER'
p3256
sg10
Nsg17
NsbsS'doctor'
p3257
g0
(g1
g2
Ntp3258
Rp3259
(dp3260
g6
Nsg8
S'PERSON'
p3261
sg10
Nsg17
NsbsS'alphabet'
p3262
g0
(g1
g2
Ntp3263
Rp3264
(dp3265
g6
Nsg8
S'OTHER'
p3266
sg10
Nsg17
NsbsS'bowl'
p3267
g0
(g1
g2
Ntp3268
Rp3269
(dp3270
g6
Nsg8
S'LOCATION'
p3271
sg10
Nsg17
NsbsS'speech'
p3272
g0
(g1
g2
Ntp3273
Rp3274
(dp3275
g6
Nsg8
S'PERSON'
p3276
sg10
Nsg17
NsbsS'document'
p3277
g0
(g1
g2
Ntp3278
Rp3279
(dp3280
g6
Nsg8
S'OTHER'
p3281
sg10
Nsg17
NsbsS'isle'
p3282
g0
(g1
g2
Ntp3283
Rp3284
(dp3285
g6
Nsg8
S'LOCATION'
p3286
sg10
Nsg17
NsbsS'week'
p3287
g0
(g1
g2
Ntp3288
Rp3289
(dp3290
g6
Nsg8
S'OTHER'
p3291
sg10
Nsg17
NsbsS'oil'
p3292
g0
(g1
g2
Ntp3293
Rp3294
(dp3295
g6
Nsg8
S'OTHER'
p3296
sg10
Nsg17
NsbsS'director'
p3297
g0
(g1
g2
Ntp3298
Rp3299
(dp3300
g6
Nsg8
S'PERSON'
p3301
sg10
Nsg17
NsbsS'fruit'
p3302
g0
(g1
g2
Ntp3303
Rp3304
(dp3305
g6
Nsg8
S'OTHER'
p3306
sg10
Nsg17
NsbsS'vowel'
p3307
g0
(g1
g2
Ntp3308
Rp3309
(dp3310
g6
Nsg8
S'OTHER'
p3311
sg10
Nsg17
NsbsS'cartoon'
p3312
g0
(g1
g2
Ntp3313
Rp3314
(dp3315
g6
Nsg8
S'PERSON'
p3316
sg10
Nsg17
NsbsS'components'
p3317
g0
(g1
g2
Ntp3318
Rp3319
(dp3320
g6
Nsg8
S'OTHER'
p3321
sg10
Nsg17
NsbsS'genie'
p3322
g0
(g1
g2
Ntp3323
Rp3324
(dp3325
g6
Nsg8
S'PERSON'
p3326
sg10
Nsg17
NsbsS'model'
p3327
g0
(g1
g2
Ntp3328
Rp3329
(dp3330
g6
Nsg8
S'PERSON'
p3331
sg10
Nsg17
NsbsS'bodies'
p3332
g0
(g1
g2
Ntp3333
Rp3334
(dp3335
g6
Nsg8
S'LOCATION'
p3336
sg10
Nsg17
NsbsS'gates'
p3337
g0
(g1
g2
Ntp3338
Rp3339
(dp3340
g6
Nsg8
S'LOCATION'
p3341
sg10
Nsg17
NsbsS'monet'
p3342
g0
(g1
g2
Ntp3343
Rp3344
(dp3345
g6
Nsg8
S'PERSON'
p3346
sg10
Nsg17
NsbsS'livestock'
p3347
g0
(g1
g2
Ntp3348
Rp3349
(dp3350
g6
Nsg8
S'OTHER'
p3351
sg10
Nsg17
NsbsS'money'
p3352
g0
(g1
g2
Ntp3353
Rp3354
(dp3355
g6
Nsg8
S'MONEY'
p3356
sg10
Nsg17
NsbsS'mccheese'
p3357
g0
(g1
g2
Ntp3358
Rp3359
(dp3360
g6
Nsg8
S'LOCATION'
p3361
sg10
Nsg17
NsbsS'actress'
p3362
g0
(g1
g2
Ntp3363
Rp3364
(dp3365
g6
Nsg8
S'PERSON'
p3366
sg10
Nsg17
NsbsS'harrison'
p3367
g0
(g1
g2
Ntp3368
Rp3369
(dp3370
g6
Nsg8
S'PERSON'
p3371
sg10
Nsg17
NsbsS'flavor'
p3372
g0
(g1
g2
Ntp3373
Rp3374
(dp3375
g6
Nsg8
S'OTHER'
p3376
sg10
Nsg17
NsbsS'speed'
p3377
g0
(g1
g2
Ntp3378
Rp3379
(dp3380
g6
Nsg8
S'NUMBER'
p3381
sg10
Nsg17
NsbsS'death'
p3382
g0
(g1
g2
Ntp3383
Rp3384
(dp3385
g6
Nsg8
S'PERSON'
p3386
sg10
Nsg17
NsbsS'feminist'
p3387
g0
(g1
g2
Ntp3388
Rp3389
(dp3390
g6
Nsg8
S'PERSON'
p3391
sg10
Nsg17
NsbsS'rose'
p3392
g0
(g1
g2
Ntp3393
Rp3394
(dp3395
g6
Nsg8
S'PERSON'
p3396
sg10
Nsg17
NsbsS'instrument'
p3397
g0
(g1
g2
Ntp3398
Rp3399
(dp3400
g6
Nsg8
S'OTHER'
p3401
sg10
Nsg17
NsbsS'treatment'
p3402
g0
(g1
g2
Ntp3403
Rp3404
(dp3405
g6
Nsg8
S'OTHER'
p3406
sg10
Nsg17
NsbsS'role'
p3407
g0
(g1
g2
Ntp3408
Rp3409
(dp3410
g6
Nsg8
S'PERSON'
p3411
sg10
Nsg17
NsbsS'visine'
p3412
g0
(g1
g2
Ntp3413
Rp3414
(dp3415
g6
Nsg8
S'OTHER'
p3416
sg10
Nsg17
NsbsS'metalious'
p3417
g0
(g1
g2
Ntp3418
Rp3419
(dp3420
g6
Nsg8
S'OTHER'
p3421
sg10
Nsg17
NsbsS'tenses'
p3422
g0
(g1
g2
Ntp3423
Rp3424
(dp3425
g6
Nsg8
S'OTHER'
p3426
sg10
Nsg17
NsbsS'world'
p3427
g0
(g1
g2
Ntp3428
Rp3429
(dp3430
g6
Nsg8
S'PERSON'
p3431
sg10
Nsg17
NsbsS'railroad'
p3432
g0
(g1
g2
Ntp3433
Rp3434
(dp3435
g6
Nsg8
S'DATE'
p3436
sg10
Nsg17
NsbsS'lady'
p3437
g0
(g1
g2
Ntp3438
Rp3439
(dp3440
g6
Nsg8
S'PERSON'
p3441
sg10
Nsg17
NsbsS'martyrs'
p3442
g0
(g1
g2
Ntp3443
Rp3444
(dp3445
g6
Nsg8
S'PERSON'
p3446
sg10
Nsg17
NsbsS'pounds'
p3447
g0
(g1
g2
Ntp3448
Rp3449
(dp3450
g6
Nsg8
S'NUMBER'
p3451
sg10
Nsg17
NsbsS'clay'
p3452
g0
(g1
g2
Ntp3453
Rp3454
(dp3455
g6
Nsg8
S'OTHER'
p3456
sg10
Nsg17
NsbsS'pyramid-builders'
p3457
g0
(g1
g2
Ntp3458
Rp3459
(dp3460
g6
Nsg8
S'OTHER'
p3461
sg10
Nsg17
NsbsS'jews'
p3462
g0
(g1
g2
Ntp3463
Rp3464
(dp3465
g6
Nsg8
S'OTHER'
p3466
sg10
Nsg17
NsbsS'apartments'
p3467
g0
(g1
g2
Ntp3468
Rp3469
(dp3470
g6
Nsg8
S'LOCATION'
p3471
sg10
Nsg17
NsbsS'shillings'
p3472
g0
(g1
g2
Ntp3473
Rp3474
(dp3475
g6
Nsg8
S'NUMBER'
p3476
sg10
Nsg17
NsbsS'oscars'
p3477
g0
(g1
g2
Ntp3478
Rp3479
(dp3480
g6
Nsg8
S'PERSON'
p3481
sg10
Nsg17
NsbsS'brontosauruses'
p3482
g0
(g1
g2
Ntp3483
Rp3484
(dp3485
g6
Nsg8
S'OTHER'
p3486
sg10
Nsg17
NsbsS'danube'
p3487
g0
(g1
g2
Ntp3488
Rp3489
(dp3490
g6
Nsg8
S'LOCATION'
p3491
sg10
Nsg17
NsbsS'dimensions'
p3492
g0
(g1
g2
Ntp3493
Rp3494
(dp3495
g6
Nsg8
S'NUMBER'
p3496
sg10
Nsg17
NsbsS'stops'
p3497
g0
(g1
g2
Ntp3498
Rp3499
(dp3500
g6
Nsg8
S'LOCATION'
p3501
sg10
Nsg17
NsbsS'provider'
p3502
g0
(g1
g2
Ntp3503
Rp3504
(dp3505
g6
Nsg8
S'MONEY'
p3506
sg10
Nsg17
NsbsS'business'
p3507
g0
(g1
g2
Ntp3508
Rp3509
(dp3510
g6
Nsg8
S'ORGANIZATION'
p3511
sg10
Nsg17
NsbsS'liquid'
p3512
g0
(g1
g2
Ntp3513
Rp3514
(dp3515
g6
Nsg8
S'OTHER'
p3516
sg10
Nsg17
NsbsS'equivalent'
p3517
g0
(g1
g2
Ntp3518
Rp3519
(dp3520
g6
Nsg8
S'NUMBER'
p3521
sg10
Nsg17
NsbsS'seine'
p3522
g0
(g1
g2
Ntp3523
Rp3524
(dp3525
g6
Nsg8
S'LOCATION'
p3526
sg10
Nsg17
NsbsS'slaughter'
p3527
g0
(g1
g2
Ntp3528
Rp3529
(dp3530
g6
Nsg8
S'OTHER'
p3531
sg10
Nsg17
NsbsS'trials'
p3532
g0
(g1
g2
Ntp3533
Rp3534
(dp3535
g6
Nsg8
S'OTHER'
p3536
sg10
Nsg17
NsbsS'manufacturer'
p3537
g0
(g1
g2
Ntp3538
Rp3539
(dp3540
g6
Nsg8
S'ORGANIZATION'
p3541
sg10
Nsg17
NsbsS'son-in-law'
p3542
g0
(g1
g2
Ntp3543
Rp3544
(dp3545
g6
Nsg8
S'PERSON'
p3546
sg10
Nsg17
NsbsS'stations'
p3547
g0
(g1
g2
Ntp3548
Rp3549
(dp3550
g6
Nsg8
S'NUMBER'
p3551
sg10
Nsg17
NsbsS'resurrectionist'
p3552
g0
(g1
g2
Ntp3553
Rp3554
(dp3555
g6
Nsg8
S'OTHER'
p3556
sg10
Nsg17
NsbsS'island'
p3557
g0
(g1
g2
Ntp3558
Rp3559
(dp3560
g6
Nsg8
S'LOCATION'
p3561
sg10
Nsg17
NsbsS'chop'
p3562
g0
(g1
g2
Ntp3563
Rp3564
(dp3565
g6
Nsg8
S'LOCATION'
p3566
sg10
Nsg17
NsbsS'cartier'
p3567
g0
(g1
g2
Ntp3568
Rp3569
(dp3570
g6
Nsg8
S'OTHER'
p3571
sg10
Nsg17
NsbsS'tribe'
p3572
g0
(g1
g2
Ntp3573
Rp3574
(dp3575
g6
Nsg8
S'ORGANIZATION'
p3576
sg10
Nsg17
NsbsS'revolutionaries'
p3577
g0
(g1
g2
Ntp3578
Rp3579
(dp3580
g6
Nsg8
S'DATE'
p3581
sg10
Nsg17
NsbsS'newtons'
p3582
g0
(g1
g2
Ntp3583
Rp3584
(dp3585
g6
Nsg8
S'NUMBER'
p3586
sg10
Nsg17
NsbsS'strip'
p3587
g0
(g1
g2
Ntp3588
Rp3589
(dp3590
g6
Nsg8
S'OTHER'
p3591
sg10
Nsg17
NsbsS'snakes'
p3592
g0
(g1
g2
Ntp3593
Rp3594
(dp3595
g6
Nsg8
S'OTHER'
p3596
sg10
Nsg17
NsbsS'area'
p3597
g0
(g1
g2
Ntp3598
Rp3599
(dp3600
g6
Nsg8
S'LOCATION'
p3601
sg10
Nsg17
NsbsS'desert'
p3602
g0
(g1
g2
Ntp3603
Rp3604
(dp3605
g6
Nsg8
S'LOCATION'
p3606
sg10
Nsg17
NsbsS'grange'
p3607
g0
(g1
g2
Ntp3608
Rp3609
(dp3610
g6
Nsg8
S'PERSON'
p3611
sg10
Nsg17
NsbsS'cats'
p3612
g0
(g1
g2
Ntp3613
Rp3614
(dp3615
g6
Nsg8
S'OTHER'
p3616
sg10
Nsg17
NsbsS'stars'
p3617
g0
(g1
g2
Ntp3618
Rp3619
(dp3620
g6
Nsg8
S'NUMBER'
p3621
sg10
Nsg17
NsbsS'series'
p3622
g0
(g1
g2
Ntp3623
Rp3624
(dp3625
g6
Nsg8
S'PERSON'
p3626
sg10
Nsg17
NsbsS'valley'
p3627
g0
(g1
g2
Ntp3628
Rp3629
(dp3630
g6
Nsg8
S'LOCATION'
p3631
sg10
Nsg17
NsbsS'fish'
p3632
g0
(g1
g2
Ntp3633
Rp3634
(dp3635
g6
Nsg8
S'OTHER'
p3636
sg10
Nsg17
NsbsS'continents'
p3637
g0
(g1
g2
Ntp3638
Rp3639
(dp3640
g6
Nsg8
S'NUMBER'
p3641
sg10
Nsg17
NsbsS'pitcher'
p3642
g0
(g1
g2
Ntp3643
Rp3644
(dp3645
g6
Nsg8
S'PERSON'
p3646
sg10
Nsg17
NsbsS'pitches'
p3647
g0
(g1
g2
Ntp3648
Rp3649
(dp3650
g6
Nsg8
S'NUMBER'
p3651
sg10
Nsg17
NsbsS'principles'
p3652
g0
(g1
g2
Ntp3653
Rp3654
(dp3655
g6
Nsg8
S'OTHER'
p3656
sg10
Nsg17
NsbsS'spice'
p3657
g0
(g1
g2
Ntp3658
Rp3659
(dp3660
g6
Nsg8
S'OTHER'
p3661
sg10
Nsg17
NsbsS'waste'
p3662
g0
(g1
g2
Ntp3663
Rp3664
(dp3665
g6
Nsg8
S'NUMBER'
p3666
sg10
Nsg17
NsbsS'natick'
p3667
g0
(g1
g2
Ntp3668
Rp3669
(dp3670
g6
Nsg8
S'LOCATION'
p3671
sg10
Nsg17
NsbsS'toilet'
p3672
g0
(g1
g2
Ntp3673
Rp3674
(dp3675
g6
Nsg8
S'DATE'
p3676
sg10
Nsg17
NsbsS'palate'
p3677
g0
(g1
g2
Ntp3678
Rp3679
(dp3680
g6
Nsg8
S'OTHER'
p3681
sg10
Nsg17
NsbsS'taste'
p3682
g0
(g1
g2
Ntp3683
Rp3684
(dp3685
g6
Nsg8
S'OTHER'
p3686
sg10
Nsg17
NsbsS'general'
p3687
g0
(g1
g2
Ntp3688
Rp3689
(dp3690
g6
Nsg8
S'PERSON'
p3691
sg10
Nsg17
NsbsS'mormons'
p3692
g0
(g1
g2
Ntp3693
Rp3694
(dp3695
g6
Nsg8
S'DATE'
p3696
sg10
Nsg17
NsbsS'laboratory'
p3697
g0
(g1
g2
Ntp3698
Rp3699
(dp3700
g6
Nsg8
S'PERSON'
p3701
sg10
Nsg17
NsbsS'cables'
p3702
g0
(g1
g2
Ntp3703
Rp3704
(dp3705
g6
Nsg8
S'NUMBER'
p3706
sg10
Nsg17
NsbsS'film'
p3707
g0
(g1
g2
Ntp3708
Rp3709
(dp3710
g6
Nsg8
S'OTHER'
p3711
sg10
Nsg17
NsbsS'angelica'
p3712
g0
(g1
g2
Ntp3713
Rp3714
(dp3715
g6
Nsg8
S'LOCATION'
p3716
sg10
Nsg17
NsbsS'innings'
p3717
g0
(g1
g2
Ntp3718
Rp3719
(dp3720
g6
Nsg8
S'NUMBER'
p3721
sg10
Nsg17
NsbsS'bremer'
p3722
g0
(g1
g2
Ntp3723
Rp3724
(dp3725
g6
Nsg8
S'PERSON'
p3726
sg10
Nsg17
NsbsS'astronaut'
p3727
g0
(g1
g2
Ntp3728
Rp3729
(dp3730
g6
Nsg8
S'PERSON'
p3731
sg10
Nsg17
NsbsS'pastorius'
p3732
g0
(g1
g2
Ntp3733
Rp3734
(dp3735
g6
Nsg8
S'DATE'
p3736
sg10
Nsg17
NsbsS'congress'
p3737
g0
(g1
g2
Ntp3738
Rp3739
(dp3740
g6
Nsg8
S'OTHER'
p3741
sg10
Nsg17
NsbsS'students'
p3742
g0
(g1
g2
Ntp3743
Rp3744
(dp3745
g6
Nsg8
S'NUMBER'
p3746
sg10
Nsg17
NsbsS'symbol'
p3747
g0
(g1
g2
Ntp3748
Rp3749
(dp3750
g6
Nsg8
S'OTHER'
p3751
sg10
Nsg17
NsbsS'gutenberg'
p3752
g0
(g1
g2
Ntp3753
Rp3754
(dp3755
g6
Nsg8
S'NUMBER'
p3756
sg10
Nsg17
NsbsS'peak'
p3757
g0
(g1
g2
Ntp3758
Rp3759
(dp3760
g6
Nsg8
S'LOCATION'
p3761
sg10
Nsg17
NsbsS'stocks'
p3762
g0
(g1
g2
Ntp3763
Rp3764
(dp3765
g6
Nsg8
S'LOCATION'
p3766
sg10
Nsg17
NsbsS'brandt'
p3767
g0
(g1
g2
Ntp3768
Rp3769
(dp3770
g6
Nsg8
S'PERSON'
p3771
sg10
Nsg17
NsbsS'building'
p3772
g0
(g1
g2
Ntp3773
Rp3774
(dp3775
g6
Nsg8
S'LOCATION'
p3776
sg10
Nsg17
NsbsS'wife'
p3777
g0
(g1
g2
Ntp3778
Rp3779
(dp3780
g6
Nsg8
S'PERSON'
p3781
sg10
Nsg17
NsbsS'odds'
p3782
g0
(g1
g2
Ntp3783
Rp3784
(dp3785
g6
Nsg8
S'PERCENT'
p3786
sg10
Nsg17
NsbsS'websites'
p3787
g0
(g1
g2
Ntp3788
Rp3789
(dp3790
g6
Nsg8
S'LOCATION'
p3791
sg10
Nsg17
NsbsS'callosum'
p3792
g0
(g1
g2
Ntp3793
Rp3794
(dp3795
g6
Nsg8
S'LOCATION'
p3796
sg10
Nsg17
NsbsS'colleges'
p3797
g0
(g1
g2
Ntp3798
Rp3799
(dp3800
g6
Nsg8
S'ORGANIZATION'
p3801
sg10
Nsg17
NsbsS'founder'
p3802
g0
(g1
g2
Ntp3803
Rp3804
(dp3805
g6
Nsg8
S'PERSON'
p3806
sg10
Nsg17
NsbsS'ali'
p3807
g0
(g1
g2
Ntp3808
Rp3809
(dp3810
g6
Nsg8
S'PERSON'
p3811
sg10
Nsg17
NsbsS'lack'
p3812
g0
(g1
g2
Ntp3813
Rp3814
(dp3815
g6
Nsg8
S'OTHER'
p3816
sg10
Nsg17
NsbsS'month'
p3817
g0
(g1
g2
Ntp3818
Rp3819
(dp3820
g6
Nsg8
S'DATE'
p3821
sg10
Nsg17
NsbsS'tours'
p3822
g0
(g1
g2
Ntp3823
Rp3824
(dp3825
g6
Nsg8
S'LOCATION'
p3826
sg10
Nsg17
NsbsS'dish'
p3827
g0
(g1
g2
Ntp3828
Rp3829
(dp3830
g6
Nsg8
S'OTHER'
p3831
sg10
Nsg17
NsbsS'children'
p3832
g0
(g1
g2
Ntp3833
Rp3834
(dp3835
g6
Nsg8
S'PERSON'
p3836
sg10
Nsg17
NsbsS'gymnast'
p3837
g0
(g1
g2
Ntp3838
Rp3839
(dp3840
g6
Nsg8
S'PERSON'
p3841
sg10
Nsg17
NsbsS'tail'
p3842
g0
(g1
g2
Ntp3843
Rp3844
(dp3845
g6
Nsg8
S'OTHER'
p3846
sg10
Nsg17
NsbsS'program'
p3847
g0
(g1
g2
Ntp3848
Rp3849
(dp3850
g6
Nsg8
S'OTHER'
p3851
sg10
Nsg17
NsbsS'woman'
p3852
g0
(g1
g2
Ntp3853
Rp3854
(dp3855
g6
Nsg8
S'PERSON'
p3856
sg10
Nsg17
NsbsS'song'
p3857
g0
(g1
g2
Ntp3858
Rp3859
(dp3860
g6
Nsg8
S'OTHER'
p3861
sg10
Nsg17
NsbsS'spumante'
p3862
g0
(g1
g2
Ntp3863
Rp3864
(dp3865
g6
Nsg8
S'ORGANIZATION'
p3866
sg10
Nsg17
NsbsS'translations'
p3867
g0
(g1
g2
Ntp3868
Rp3869
(dp3870
g6
Nsg8
S'OTHER'
p3871
sg10
Nsg17
NsbsS'sons'
p3872
g0
(g1
g2
Ntp3873
Rp3874
(dp3875
g6
Nsg8
S'PERSON'
p3876
sg10
Nsg17
NsbsS'diary'
p3877
g0
(g1
g2
Ntp3878
Rp3879
(dp3880
g6
Nsg8
S'PERSON'
p3881
sg10
Nsg17
NsbsS'ticker'
p3882
g0
(g1
g2
Ntp3883
Rp3884
(dp3885
g6
Nsg8
S'PERSON'
p3886
sg10
Nsg17
NsbsS'lawnmower'
p3887
g0
(g1
g2
Ntp3888
Rp3889
(dp3890
g6
Nsg8
S'PERSON'
p3891
sg10
Nsg17
NsbsS'celebrity'
p3892
g0
(g1
g2
Ntp3893
Rp3894
(dp3895
g6
Nsg8
S'PERSON'
p3896
sg10
Nsg17
NsbsS'grandfather'
p3897
g0
(g1
g2
Ntp3898
Rp3899
(dp3900
g6
Nsg8
S'PERSON'
p3901
sg10
Nsg17
NsbsS'mammal'
p3902
g0
(g1
g2
Ntp3903
Rp3904
(dp3905
g6
Nsg8
S'OTHER'
p3906
sg10
Nsg17
NsbsS'kemper'
p3907
g0
(g1
g2
Ntp3908
Rp3909
(dp3910
g6
Nsg8
S'PERSON'
p3911
sg10
Nsg17
NsbsS'maggio'
p3912
g0
(g1
g2
Ntp3913
Rp3914
(dp3915
g6
Nsg8
S'PERSON'
p3916
sg10
Nsg17
NsbsS'orinoco'
p3917
g0
(g1
g2
Ntp3918
Rp3919
(dp3920
g6
Nsg8
S'LOCATION'
p3921
sg10
Nsg17
NsbsS'zero'
p3922
g0
(g1
g2
Ntp3923
Rp3924
(dp3925
g6
Nsg8
S'LOCATION'
p3926
sg10
Nsg17
NsbsS'titles'
p3927
g0
(g1
g2
Ntp3928
Rp3929
(dp3930
g6
Nsg8
S'OTHER'
p3931
sg10
Nsg17
NsbsS'lawyer'
p3932
g0
(g1
g2
Ntp3933
Rp3934
(dp3935
g6
Nsg8
S'PERSON'
p3936
sg10
Nsg17
NsbsS'nba'
p3937
g0
(g1
g2
Ntp3938
Rp3939
(dp3940
g6
Nsg8
S'PERSON'
p3941
sg10
Nsg17
NsbsS'chair'
p3942
g0
(g1
g2
Ntp3943
Rp3944
(dp3945
g6
Nsg8
S'PERSON'
p3946
sg10
Nsg17
NsbsS'swampy'
p3947
g0
(g1
g2
Ntp3948
Rp3949
(dp3950
g6
Nsg8
S'PERSON'
p3951
sg10
Nsg17
NsbsS'clock'
p3952
g0
(g1
g2
Ntp3953
Rp3954
(dp3955
g6
Nsg8
S'OTHER'
p3956
sg10
Nsg17
NsbsS'mutombo'
p3957
g0
(g1
g2
Ntp3958
Rp3959
(dp3960
g6
Nsg8
S'LOCATION'
p3961
sg10
Nsg17
NsbsS'sun'
p3962
g0
(g1
g2
Ntp3963
Rp3964
(dp3965
g6
Nsg8
S'DATE'
p3966
sg10
Nsg17
NsbsS'caffeine'
p3967
g0
(g1
g2
Ntp3968
Rp3969
(dp3970
g6
Nsg8
S'NUMBER'
p3971
sg10
Nsg17
NsbsS'method'
p3972
g0
(g1
g2
Ntp3973
Rp3974
(dp3975
g6
Nsg8
S'OTHER'
p3976
sg10
Nsg17
NsbsS'stockyards'
p3977
g0
(g1
g2
Ntp3978
Rp3979
(dp3980
g6
Nsg8
S'LOCATION'
p3981
sg10
Nsg17
NsbsS'theresa'
p3982
g0
(g1
g2
Ntp3983
Rp3984
(dp3985
g6
Nsg8
S'PERSON'
p3986
sg10
Nsg17
NsbsS'answers'
p3987
g0
(g1
g2
Ntp3988
Rp3989
(dp3990
g6
Nsg8
S'NUMBER'
p3991
sg10
Nsg17
NsbsS'hours'
p3992
g0
(g1
g2
Ntp3993
Rp3994
(dp3995
g6
Nsg8
S'NUMBER'
p3996
sg10
Nsg17
NsbsS'ranger'
p3997
g0
(g1
g2
Ntp3998
Rp3999
(dp4000
g6
Nsg8
S'PERSON'
p4001
sg10
Nsg17
NsbsS'operating'
p4002
g0
(g1
g2
Ntp4003
Rp4004
(dp4005
g6
Nsg8
S'OTHER'
p4006
sg10
Nsg17
NsbsS'andrews'
p4007
g0
(g1
g2
Ntp4008
Rp4009
(dp4010
g6
Nsg8
S'PERSON'
p4011
sg10
Nsg17
NsbsS'belize'
p4012
g0
(g1
g2
Ntp4013
Rp4014
(dp4015
g6
Nsg8
S'LOCATION'
p4016
sg10
Nsg17
NsbsS'tragedy'
p4017
g0
(g1
g2
Ntp4018
Rp4019
(dp4020
g6
Nsg8
S'OTHER'
p4021
sg10
Nsg17
NsbsS'hass'
p4022
g0
(g1
g2
Ntp4023
Rp4024
(dp4025
g6
Nsg8
S'OTHER'
p4026
sg10
Nsg17
NsbsS'bible'
p4027
g0
(g1
g2
Ntp4028
Rp4029
(dp4030
g6
Nsg8
S'PERSON'
p4031
sg10
Nsg17
NsbsS'soldier'
p4032
g0
(g1
g2
Ntp4033
Rp4034
(dp4035
g6
Nsg8
S'PERSON'
p4036
sg10
Nsg17
NsbsS'amount'
p4037
g0
(g1
g2
Ntp4038
Rp4039
(dp4040
g6
Nsg8
S'MONEY'
p4041
sg10
Nsg17
NsbsS'advertising'
p4042
g0
(g1
g2
Ntp4043
Rp4044
(dp4045
g6
Nsg8
S'DATE'
p4046
sg10
Nsg17
NsbsS'megawatts'
p4047
g0
(g1
g2
Ntp4048
Rp4049
(dp4050
g6
Nsg8
S'NUMBER'
p4051
sg10
Nsg17
NsbsS'spermologer'
p4052
g0
(g1
g2
Ntp4053
Rp4054
(dp4055
g6
Nsg8
S'OTHER'
p4056
sg10
Nsg17
NsbsS'thatcher'
p4057
g0
(g1
g2
Ntp4058
Rp4059
(dp4060
g6
Nsg8
S'DATE'
p4061
sg10
Nsg17
NsbsS'fatman'
p4062
g0
(g1
g2
Ntp4063
Rp4064
(dp4065
g6
Nsg8
S'PERSON'
p4066
sg10
Nsg17
NsbsS'ladybugs'
p4067
g0
(g1
g2
Ntp4068
Rp4069
(dp4070
g6
Nsg8
S'OTHER'
p4071
sg10
Nsg17
NsbsS'ballad'
p4072
g0
(g1
g2
Ntp4073
Rp4074
(dp4075
g6
Nsg8
S'OTHER'
p4076
sg10
Nsg17
NsbsS'horses'
p4077
g0
(g1
g2
Ntp4078
Rp4079
(dp4080
g6
Nsg8
S'NUMBER'
p4081
sg10
Nsg17
NsbsS'israel'
p4082
g0
(g1
g2
Ntp4083
Rp4084
(dp4085
g6
Nsg8
S'DATE'
p4086
sg10
Nsg17
NsbsS'fellow'
p4087
g0
(g1
g2
Ntp4088
Rp4089
(dp4090
g6
Nsg8
S'PERSON'
p4091
sg10
Nsg17
NsbsS'company'
p4092
g0
(g1
g2
Ntp4093
Rp4094
(dp4095
g6
Nsg8
S'ORGANIZATION'
p4096
sg10
Nsg17
NsbsS'waterways'
p4097
g0
(g1
g2
Ntp4098
Rp4099
(dp4100
g6
Nsg8
S'LOCATION'
p4101
sg10
Nsg17
NsbsS'flag'
p4102
g0
(g1
g2
Ntp4103
Rp4104
(dp4105
g6
Nsg8
S'OTHER'
p4106
sg10
Nsg17
NsbsS'stethoscope'
p4107
g0
(g1
g2
Ntp4108
Rp4109
(dp4110
g6
Nsg8
S'PERSON'
p4111
sg10
Nsg17
NsbsS'coyote'
p4112
g0
(g1
g2
Ntp4113
Rp4114
(dp4115
g6
Nsg8
S'LOCATION'
p4116
sg10
Nsg17
NsbsS'gogh'
p4117
g0
(g1
g2
Ntp4118
Rp4119
(dp4120
g6
Nsg8
S'PERSON'
p4121
sg10
Nsg17
NsbsS'town'
p4122
g0
(g1
g2
Ntp4123
Rp4124
(dp4125
g6
Nsg8
S'LOCATION'
p4126
sg10
Nsg17
NsbsS'hour'
p4127
g0
(g1
g2
Ntp4128
Rp4129
(dp4130
g6
Nsg8
S'LOCATION'
p4131
sg10
Nsg17
NsbsS'primate'
p4132
g0
(g1
g2
Ntp4133
Rp4134
(dp4135
g6
Nsg8
S'OTHER'
p4136
sg10
Nsg17
NsbsS'barroom'
p4137
g0
(g1
g2
Ntp4138
Rp4139
(dp4140
g6
Nsg8
S'PERSON'
p4141
sg10
Nsg17
NsbsS'roosevelt'
p4142
g0
(g1
g2
Ntp4143
Rp4144
(dp4145
g6
Nsg8
S'DATE'
p4146
sg10
Nsg17
NsbsS'dew'
p4147
g0
(g1
g2
Ntp4148
Rp4149
(dp4150
g6
Nsg8
S'LOCATION'
p4151
sg10
Nsg17
NsbsS'mall'
p4152
g0
(g1
g2
Ntp4153
Rp4154
(dp4155
g6
Nsg8
S'LOCATION'
p4156
sg10
Nsg17
NsbsS'morgan'
p4157
g0
(g1
g2
Ntp4158
Rp4159
(dp4160
g6
Nsg8
S'PERSON'
p4161
sg10
Nsg17
NsbsS'seagull'
p4162
g0
(g1
g2
Ntp4163
Rp4164
(dp4165
g6
Nsg8
S'OTHER'
p4166
sg10
Nsg17
NsbsS'yemen'
p4167
g0
(g1
g2
Ntp4168
Rp4169
(dp4170
g6
Nsg8
S'DATE'
p4171
sg10
Nsg17
NsbsS'nino'
p4172
g0
(g1
g2
Ntp4173
Rp4174
(dp4175
g6
Nsg8
S'PERSON'
p4176
sg10
Nsg17
NsbsS'states'
p4177
g0
(g1
g2
Ntp4178
Rp4179
(dp4180
g6
Nsg8
S'LOCATION'
p4181
sg10
Nsg17
NsbsS'numbers'
p4182
g0
(g1
g2
Ntp4183
Rp4184
(dp4185
g6
Nsg8
S'PERSON'
p4186
sg10
Nsg17
NsbsS'airplane'
p4187
g0
(g1
g2
Ntp4188
Rp4189
(dp4190
g6
Nsg8
S'OTHER'
p4191
sg10
Nsg17
NsbsS'species'
p4192
g0
(g1
g2
Ntp4193
Rp4194
(dp4195
g6
Nsg8
S'OTHER'
p4196
sg10
Nsg17
NsbsS'freleng'
p4197
g0
(g1
g2
Ntp4198
Rp4199
(dp4200
g6
Nsg8
S'PERSON'
p4201
sg10
Nsg17
NsbsS'information'
p4202
g0
(g1
g2
Ntp4203
Rp4204
(dp4205
g6
Nsg8
S'PERSON'
p4206
sg10
Nsg17
NsbsS'court'
p4207
g0
(g1
g2
Ntp4208
Rp4209
(dp4210
g6
Nsg8
S'ORGANIZATION'
p4211
sg10
Nsg17
NsbsS'hugo'
p4212
g0
(g1
g2
Ntp4213
Rp4214
(dp4215
g6
Nsg8
S'LOCATION'
p4216
sg10
Nsg17
NsbsS'creature'
p4217
g0
(g1
g2
Ntp4218
Rp4219
(dp4220
g6
Nsg8
S'OTHER'
p4221
sg10
Nsg17
NsbsS'plant'
p4222
g0
(g1
g2
Ntp4223
Rp4224
(dp4225
g6
Nsg8
S'OTHER'
p4226
sg10
Nsg17
NsbsS'bacall'
p4227
g0
(g1
g2
Ntp4228
Rp4229
(dp4230
g6
Nsg8
S'PERSON'
p4231
sg10
Nsg17
NsbsS'soundtrack'
p4232
g0
(g1
g2
Ntp4233
Rp4234
(dp4235
g6
Nsg8
S'OTHER'
p4236
sg10
Nsg17
NsbsS'softball'
p4237
g0
(g1
g2
Ntp4238
Rp4239
(dp4240
g6
Nsg8
S'OTHER'
p4241
sg10
Nsg17
NsbsS'pangaea'
p4242
g0
(g1
g2
Ntp4243
Rp4244
(dp4245
g6
Nsg8
S'DATE'
p4246
sg10
Nsg17
NsbsS'author'
p4247
g0
(g1
g2
Ntp4248
Rp4249
(dp4250
g6
Nsg8
S'PERSON'
p4251
sg10
Nsg17
NsbsS'volleyball'
p4252
g0
(g1
g2
Ntp4253
Rp4254
(dp4255
g6
Nsg8
S'PERSON'
p4256
sg10
Nsg17
NsbsS'shorn'
p4257
g0
(g1
g2
Ntp4258
Rp4259
(dp4260
g6
Nsg8
S'DATE'
p4261
sg10
Nsg17
NsbsS'photoshop'
p4262
g0
(g1
g2
Ntp4263
Rp4264
(dp4265
g6
Nsg8
S'ORGANIZATION'
p4266
sg10
Nsg17
NsbsS'mission'
p4267
g0
(g1
g2
Ntp4268
Rp4269
(dp4270
g6
Nsg8
S'OTHER'
p4271
sg10
Nsg17
NsbsS'trade'
p4272
g0
(g1
g2
Ntp4273
Rp4274
(dp4275
g6
Nsg8
S'OTHER'
p4276
sg10
Nsg17
NsbsS'paper'
p4277
g0
(g1
g2
Ntp4278
Rp4279
(dp4280
g6
Nsg8
S'OTHER'
p4281
sg10
Nsg17
NsbsS'signs'
p4282
g0
(g1
g2
Ntp4283
Rp4284
(dp4285
g6
Nsg8
S'OTHER'
p4286
sg10
Nsg17
NsbsS'schoolhouse'
p4287
g0
(g1
g2
Ntp4288
Rp4289
(dp4290
g6
Nsg8
S'LOCATION'
p4291
sg10
Nsg17
NsbsS'avenue'
p4292
g0
(g1
g2
Ntp4293
Rp4294
(dp4295
g6
Nsg8
S'LOCATION'
p4296
sg10
Nsg17
NsbsS'golfing'
p4297
g0
(g1
g2
Ntp4298
Rp4299
(dp4300
g6
Nsg8
S'OTHER'
p4301
sg10
Nsg17
NsbsS'shortstop'
p4302
g0
(g1
g2
Ntp4303
Rp4304
(dp4305
g6
Nsg8
S'PERSON'
p4306
sg10
Nsg17
NsbsS'founders'
p4307
g0
(g1
g2
Ntp4308
Rp4309
(dp4310
g6
Nsg8
S'PERSON'
p4311
sg10
Nsg17
NsbsS'wingspan'
p4312
g0
(g1
g2
Ntp4313
Rp4314
(dp4315
g6
Nsg8
S'NUMBER'
p4316
sg10
Nsg17
NsbsS'fool'
p4317
g0
(g1
g2
Ntp4318
Rp4319
(dp4320
g6
Nsg8
S'PERSON'
p4321
sg10
Nsg17
NsbsS'food'
p4322
g0
(g1
g2
Ntp4323
Rp4324
(dp4325
g6
Nsg8
S'OTHER'
p4326
sg10
Nsg17
NsbsS'hunter'
p4327
g0
(g1
g2
Ntp4328
Rp4329
(dp4330
g6
Nsg8
S'PERSON'
p4331
sg10
Nsg17
NsbsS'compound'
p4332
g0
(g1
g2
Ntp4333
Rp4334
(dp4335
g6
Nsg8
S'OTHER'
p4336
sg10
Nsg17
NsbsS'mystery'
p4337
g0
(g1
g2
Ntp4338
Rp4339
(dp4340
g6
Nsg8
S'PERSON'
p4341
sg10
Nsg17
NsbsS'mathematician'
p4342
g0
(g1
g2
Ntp4343
Rp4344
(dp4345
g6
Nsg8
S'PERSON'
p4346
sg10
Nsg17
NsbsS'policeman'
p4347
g0
(g1
g2
Ntp4348
Rp4349
(dp4350
g6
Nsg8
S'OTHER'
p4351
sg10
Nsg17
NsbsS'drake'
p4352
g0
(g1
g2
Ntp4353
Rp4354
(dp4355
g6
Nsg8
S'OTHER'
p4356
sg10
Nsg17
NsbsS'events'
p4357
g0
(g1
g2
Ntp4358
Rp4359
(dp4360
g6
Nsg8
S'OTHER'
p4361
sg10
Nsg17
NsbsS'habits'
p4362
g0
(g1
g2
Ntp4363
Rp4364
(dp4365
g6
Nsg8
S'OTHER'
p4366
sg10
Nsg17
NsbsS'predators'
p4367
g0
(g1
g2
Ntp4368
Rp4369
(dp4370
g6
Nsg8
S'OTHER'
p4371
sg10
Nsg17
NsbsS'positions'
p4372
g0
(g1
g2
Ntp4373
Rp4374
(dp4375
g6
Nsg8
S'PERSON'
p4376
sg10
Nsg17
NsbsS'paganini'
p4377
g0
(g1
g2
Ntp4378
Rp4379
(dp4380
g6
Nsg8
S'PERSON'
p4381
sg10
Nsg17
NsbsS'ports'
p4382
g0
(g1
g2
Ntp4383
Rp4384
(dp4385
g6
Nsg8
S'LOCATION'
p4386
sg10
Nsg17
NsbsS'bends'
p4387
g0
(g1
g2
Ntp4388
Rp4389
(dp4390
g6
Nsg8
S'NUMBER'
p4391
sg10
Nsg17
NsbsS'weight'
p4392
g0
(g1
g2
Ntp4393
Rp4394
(dp4395
g6
Nsg8
S'NUMBER'
p4396
sg10
Nsg17
NsbsS'generation'
p4397
g0
(g1
g2
Ntp4398
Rp4399
(dp4400
g6
Nsg8
S'OTHER'
p4401
sg10
Nsg17
NsbsS'jaws'
p4402
g0
(g1
g2
Ntp4403
Rp4404
(dp4405
g6
Nsg8
S'PERSON'
p4406
sg10
Nsg17
NsbsS'energy'
p4407
g0
(g1
g2
Ntp4408
Rp4409
(dp4410
g6
Nsg8
S'NUMBER'
p4411
sg10
Nsg17
NsbsS'hawaii'
p4412
g0
(g1
g2
Ntp4413
Rp4414
(dp4415
g6
Nsg8
S'PERSON'
p4416
sg10
Nsg17
NsbsS'event'
p4417
g0
(g1
g2
Ntp4418
Rp4419
(dp4420
g6
Nsg8
S'OTHER'
p4421
sg10
Nsg17
NsbsS'aldrin'
p4422
g0
(g1
g2
Ntp4423
Rp4424
(dp4425
g6
Nsg8
S'LOCATION'
p4426
sg10
Nsg17
NsbsS'flower'
p4427
g0
(g1
g2
Ntp4428
Rp4429
(dp4430
g6
Nsg8
S'OTHER'
p4431
sg10
Nsg17
NsbsS'seaport'
p4432
g0
(g1
g2
Ntp4433
Rp4434
(dp4435
g6
Nsg8
S'LOCATION'
p4436
sg10
Nsg17
NsbsS'fountain'
p4437
g0
(g1
g2
Ntp4438
Rp4439
(dp4440
g6
Nsg8
S'PERSON'
p4441
sg10
Nsg17
NsbsS'paine'
p4442
g0
(g1
g2
Ntp4443
Rp4444
(dp4445
g6
Nsg8
S'OTHER'
p4446
sg10
Nsg17
NsbsS'pythagoras'
p4447
g0
(g1
g2
Ntp4448
Rp4449
(dp4450
g6
Nsg8
S'LOCATION'
p4451
sg10
Nsg17
NsbsS'horse'
p4452
g0
(g1
g2
Ntp4453
Rp4454
(dp4455
g6
Nsg8
S'OTHER'
p4456
sg10
Nsg17
NsbsS'pub'
p4457
g0
(g1
g2
Ntp4458
Rp4459
(dp4460
g6
Nsg8
S'PERSON'
p4461
sg10
Nsg17
NsbsS'isps'
p4462
g0
(g1
g2
Ntp4463
Rp4464
(dp4465
g6
Nsg8
S'ORGANIZATION'
p4466
sg10
Nsg17
NsbsS'darius'
p4467
g0
(g1
g2
Ntp4468
Rp4469
(dp4470
g6
Nsg8
S'PERSON'
p4471
sg10
Nsg17
NsbsS'basketball'
p4472
g0
(g1
g2
Ntp4473
Rp4474
(dp4475
g6
Nsg8
S'PERSON'
p4476
sg10
Nsg17
NsbsS'cookie'
p4477
g0
(g1
g2
Ntp4478
Rp4479
(dp4480
g6
Nsg8
S'OTHER'
p4481
sg10
Nsg17
NsbsS'members'
p4482
g0
(g1
g2
Ntp4483
Rp4484
(dp4485
g6
Nsg8
S'PERSON'
p4486
sg10
Nsg17
NsbsS'bulls'
p4487
g0
(g1
g2
Ntp4488
Rp4489
(dp4490
g6
Nsg8
S'ORGANIZATION'
p4491
sg10
Nsg17
NsbsS'revolutionary'
p4492
g0
(g1
g2
Ntp4493
Rp4494
(dp4495
g6
Nsg8
S'PERSON'
p4496
sg10
Nsg17
NsbsS'prophet'
p4497
g0
(g1
g2
Ntp4498
Rp4499
(dp4500
g6
Nsg8
S'PERSON'
p4501
sg10
Nsg17
NsbsS'american'
p4502
g0
(g1
g2
Ntp4503
Rp4504
(dp4505
g6
Nsg8
S'PERSON'
p4506
sg10
Nsg17
NsbsS'castle'
p4507
g0
(g1
g2
Ntp4508
Rp4509
(dp4510
g6
Nsg8
S'LOCATION'
p4511
sg10
Nsg17
NsbsS'superbowl'
p4512
g0
(g1
g2
Ntp4513
Rp4514
(dp4515
g6
Nsg8
S'PERSON'
p4516
sg10
Nsg17
NsbsS'fischer'
p4517
g0
(g1
g2
Ntp4518
Rp4519
(dp4520
g6
Nsg8
S'PERSON'
p4521
sg10
Nsg17
NsbsS'probability'
p4522
g0
(g1
g2
Ntp4523
Rp4524
(dp4525
g6
Nsg8
S'PERCENT'
p4526
sg10
Nsg17
NsbsS'guam'
p4527
g0
(g1
g2
Ntp4528
Rp4529
(dp4530
g6
Nsg8
S'LOCATION'
p4531
sg10
Nsg17
NsbsS'number'
p4532
g0
(g1
g2
Ntp4533
Rp4534
(dp4535
g6
Nsg8
S'NUMBER'
p4536
sg10
Nsg17
NsbsS'feet'
p4537
g0
(g1
g2
Ntp4538
Rp4539
(dp4540
g6
Nsg8
S'NUMBER'
p4541
sg10
Nsg17
NsbsS'sailor'
p4542
g0
(g1
g2
Ntp4543
Rp4544
(dp4545
g6
Nsg8
S'PERSON'
p4546
sg10
Nsg17
NsbsS'overalls'
p4547
g0
(g1
g2
Ntp4548
Rp4549
(dp4550
g6
Nsg8
S'OTHER'
p4551
sg10
Nsg17
NsbsS'earthworms'
p4552
g0
(g1
g2
Ntp4553
Rp4554
(dp4555
g6
Nsg8
S'NUMBER'
p4556
sg10
Nsg17
NsbsS'corporal'
p4557
g0
(g1
g2
Ntp4558
Rp4559
(dp4560
g6
Nsg8
S'PERSON'
p4561
sg10
Nsg17
NsbsS'razor'
p4562
g0
(g1
g2
Ntp4563
Rp4564
(dp4565
g6
Nsg8
S'OTHER'
p4566
sg10
Nsg17
NsbsS'story'
p4567
g0
(g1
g2
Ntp4568
Rp4569
(dp4570
g6
Nsg8
S'PERSON'
p4571
sg10
Nsg17
NsbsS'temperature'
p4572
g0
(g1
g2
Ntp4573
Rp4574
(dp4575
g6
Nsg8
S'NUMBER'
p4576
sg10
Nsg17
NsbsS'automobile'
p4577
g0
(g1
g2
Ntp4578
Rp4579
(dp4580
g6
Nsg8
S'OTHER'
p4581
sg10
Nsg17
NsbsS'vocalist'
p4582
g0
(g1
g2
Ntp4583
Rp4584
(dp4585
g6
Nsg8
S'PERSON'
p4586
sg10
Nsg17
NsbsS'master'
p4587
g0
(g1
g2
Ntp4588
Rp4589
(dp4590
g6
Nsg8
S'PERSON'
p4591
sg10
Nsg17
NsbsS'syllables'
p4592
g0
(g1
g2
Ntp4593
Rp4594
(dp4595
g6
Nsg8
S'NUMBER'
p4596
sg10
Nsg17
NsbsS'syrup'
p4597
g0
(g1
g2
Ntp4598
Rp4599
(dp4600
g6
Nsg8
S'OTHER'
p4601
sg10
Nsg17
NsbsS'store'
p4602
g0
(g1
g2
Ntp4603
Rp4604
(dp4605
g6
Nsg8
S'ORGANIZATION'
p4606
sg10
Nsg17
NsbsS'muscles'
p4607
g0
(g1
g2
Ntp4608
Rp4609
(dp4610
g6
Nsg8
S'NUMBER'
p4611
sg10
Nsg17
NsbsS'circumnavigator'
p4612
g0
(g1
g2
Ntp4613
Rp4614
(dp4615
g6
Nsg8
S'PERSON'
p4616
sg10
Nsg17
NsbsS'hotel'
p4617
g0
(g1
g2
Ntp4618
Rp4619
(dp4620
g6
Nsg8
S'LOCATION'
p4621
sg10
Nsg17
NsbsS'park'
p4622
g0
(g1
g2
Ntp4623
Rp4624
(dp4625
g6
Nsg8
S'LOCATION'
p4626
sg10
Nsg17
NsbsS'part'
p4627
g0
(g1
g2
Ntp4628
Rp4629
(dp4630
g6
Nsg8
S'OTHER'
p4631
sg10
Nsg17
NsbsS'jordan'
p4632
g0
(g1
g2
Ntp4633
Rp4634
(dp4635
g6
Nsg8
S'PERSON'
p4636
sg10
Nsg17
NsbsS'cotrubas'
p4637
g0
(g1
g2
Ntp4638
Rp4639
(dp4640
g6
Nsg8
S'LOCATION'
p4641
sg10
Nsg17
NsbsS'translation'
p4642
g0
(g1
g2
Ntp4643
Rp4644
(dp4645
g6
Nsg8
S'OTHER'
p4646
sg10
Nsg17
NsbsS'surfboard'
p4647
g0
(g1
g2
Ntp4648
Rp4649
(dp4650
g6
Nsg8
S'PERSON'
p4651
sg10
Nsg17
NsbsS'king'
p4652
g0
(g1
g2
Ntp4653
Rp4654
(dp4655
g6
Nsg8
S'PERSON'
p4656
sg10
Nsg17
NsbsS'kind'
p4657
g0
(g1
g2
Ntp4658
Rp4659
(dp4660
g6
Nsg8
S'OTHER'
p4661
sg10
Nsg17
NsbsS'mahal'
p4662
g0
(g1
g2
Ntp4663
Rp4664
(dp4665
g6
Nsg8
S'LOCATION'
p4666
sg10
Nsg17
NsbsS'dogs'
p4667
g0
(g1
g2
Ntp4668
Rp4669
(dp4670
g6
Nsg8
S'OTHER'
p4671
sg10
Nsg17
NsbsS'architect'
p4672
g0
(g1
g2
Ntp4673
Rp4674
(dp4675
g6
Nsg8
S'PERSON'
p4676
sg10
Nsg17
NsbsS'nominee'
p4677
g0
(g1
g2
Ntp4678
Rp4679
(dp4680
g6
Nsg8
S'PERSON'
p4681
sg10
Nsg17
NsbsS'ages'
p4682
g0
(g1
g2
Ntp4683
Rp4684
(dp4685
g6
Nsg8
S'OTHER'
p4686
sg10
Nsg17
NsbsS'pedometer'
p4687
g0
(g1
g2
Ntp4688
Rp4689
(dp4690
g6
Nsg8
S'OTHER'
p4691
sg10
Nsg17
NsbsS'garfield'
p4692
g0
(g1
g2
Ntp4693
Rp4694
(dp4695
g6
Nsg8
S'PERSON'
p4696
sg10
Nsg17
NsbsS'showers'
p4697
g0
(g1
g2
Ntp4698
Rp4699
(dp4700
g6
Nsg8
S'LOCATION'
p4701
sg10
Nsg17
NsbsS'mountain'
p4702
g0
(g1
g2
Ntp4703
Rp4704
(dp4705
g6
Nsg8
S'LOCATION'
p4706
sg10
Nsg17
NsbsS'cherokee'
p4707
g0
(g1
g2
Ntp4708
Rp4709
(dp4710
g6
Nsg8
S'PERSON'
p4711
sg10
Nsg17
NsbsS'caesar'
p4712
g0
(g1
g2
Ntp4713
Rp4714
(dp4715
g6
Nsg8
S'PERSON'
p4716
sg10
Nsg17
NsbsS'chairman'
p4717
g0
(g1
g2
Ntp4718
Rp4719
(dp4720
g6
Nsg8
S'PERSON'
p4721
sg10
Nsg17
NsbsS'province'
p4722
g0
(g1
g2
Ntp4723
Rp4724
(dp4725
g6
Nsg8
S'LOCATION'
p4726
sg10
Nsg17
NsbsS'play'
p4727
g0
(g1
g2
Ntp4728
Rp4729
(dp4730
g6
Nsg8
S'OTHER'
p4731
sg10
Nsg17
NsbsS'godfather'
p4732
g0
(g1
g2
Ntp4733
Rp4734
(dp4735
g6
Nsg8
S'PERSON'
p4736
sg10
Nsg17
NsbsS'measures'
p4737
g0
(g1
g2
Ntp4738
Rp4739
(dp4740
g6
Nsg8
S'OTHER'
p4741
sg10
Nsg17
NsbsS'eruption'
p4742
g0
(g1
g2
Ntp4743
Rp4744
(dp4745
g6
Nsg8
S'DATE'
p4746
sg10
Nsg17
NsbsS'cigarette'
p4747
g0
(g1
g2
Ntp4748
Rp4749
(dp4750
g6
Nsg8
S'OTHER'
p4751
sg10
Nsg17
NsbsS'nothing'
p4752
g0
(g1
g2
Ntp4753
Rp4754
(dp4755
g6
Nsg8
S'PERSON'
p4756
sg10
Nsg17
NsbsS'salary'
p4757
g0
(g1
g2
Ntp4758
Rp4759
(dp4760
g6
Nsg8
S'MONEY'
p4761
sg10
Nsg17
NsbsS'cover'
p4762
g0
(g1
g2
Ntp4763
Rp4764
(dp4765
g6
Nsg8
S'PERSON'
p4766
sg10
Nsg17
NsbsS'rockefeller'
p4767
g0
(g1
g2
Ntp4768
Rp4769
(dp4770
g6
Nsg8
S'PERSON'
p4771
sg10
Nsg17
NsbsS'transplant'
p4772
g0
(g1
g2
Ntp4773
Rp4774
(dp4775
g6
Nsg8
S'DATE'
p4776
sg10
Nsg17
NsbsS'microsoft'
p4777
g0
(g1
g2
Ntp4778
Rp4779
(dp4780
g6
Nsg8
S'DATE'
p4781
sg10
Nsg17
NsbsS'thomas'
p4782
g0
(g1
g2
Ntp4783
Rp4784
(dp4785
g6
Nsg8
S'LOCATION'
p4786
sg10
Nsg17
NsbsS'golf'
p4787
g0
(g1
g2
Ntp4788
Rp4789
(dp4790
g6
Nsg8
S'OTHER'
p4791
sg10
Nsg17
NsbsS'phenomenon'
p4792
g0
(g1
g2
Ntp4793
Rp4794
(dp4795
g6
Nsg8
S'OTHER'
p4796
sg10
Nsg17
NsbsS'businesses'
p4797
g0
(g1
g2
Ntp4798
Rp4799
(dp4800
g6
Nsg8
S'ORGANIZATION'
p4801
sg10
Nsg17
NsbsS'finn'
p4802
g0
(g1
g2
Ntp4803
Rp4804
(dp4805
g6
Nsg8
S'PERSON'
p4806
sg10
Nsg17
NsbsS'fine'
p4807
g0
(g1
g2
Ntp4808
Rp4809
(dp4810
g6
Nsg8
S'MONEY'
p4811
sg10
Nsg17
NsbsS'albums'
p4812
g0
(g1
g2
Ntp4813
Rp4814
(dp4815
g6
Nsg8
S'OTHER'
p4816
sg10
Nsg17
NsbsS'occupation'
p4817
g0
(g1
g2
Ntp4818
Rp4819
(dp4820
g6
Nsg8
S'PERSON'
p4821
sg10
Nsg17
NsbsS'deserts'
p4822
g0
(g1
g2
Ntp4823
Rp4824
(dp4825
g6
Nsg8
S'LOCATION'
p4826
sg10
Nsg17
NsbsS'ruin'
p4827
g0
(g1
g2
Ntp4828
Rp4829
(dp4830
g6
Nsg8
S'OTHER'
p4831
sg10
Nsg17
NsbsS'writer'
p4832
g0
(g1
g2
Ntp4833
Rp4834
(dp4835
g6
Nsg8
S'PERSON'
p4836
sg10
Nsg17
NsbsS'penalty'
p4837
g0
(g1
g2
Ntp4838
Rp4839
(dp4840
g6
Nsg8
S'OTHER'
p4841
sg10
Nsg17
NsbsS'viagra'
p4842
g0
(g1
g2
Ntp4843
Rp4844
(dp4845
g6
Nsg8
S'PERSON'
p4846
sg10
Nsg17
NsbsS'circle'
p4847
g0
(g1
g2
Ntp4848
Rp4849
(dp4850
g6
Nsg8
S'OTHER'
p4851
sg10
Nsg17
NsbsS'bernstein'
p4852
g0
(g1
g2
Ntp4853
Rp4854
(dp4855
g6
Nsg8
S'PERSON'
p4856
sg10
Nsg17
NsbsS'racehorse'
p4857
g0
(g1
g2
Ntp4858
Rp4859
(dp4860
g6
Nsg8
S'OTHER'
p4861
sg10
Nsg17
NsbsS'hit'
p4862
g0
(g1
g2
Ntp4863
Rp4864
(dp4865
g6
Nsg8
S'PERSON'
p4866
sg10
Nsg17
NsbsS'renaud'
p4867
g0
(g1
g2
Ntp4868
Rp4869
(dp4870
g6
Nsg8
S'PERSON'
p4871
sg10
Nsg17
NsbsS'referees'
p4872
g0
(g1
g2
Ntp4873
Rp4874
(dp4875
g6
Nsg8
S'NUMBER'
p4876
sg10
Nsg17
NsbsS'penny-farthings'
p4877
g0
(g1
g2
Ntp4878
Rp4879
(dp4880
g6
Nsg8
S'NUMBER'
p4881
sg10
Nsg17
NsbsS'banner'
p4882
g0
(g1
g2
Ntp4883
Rp4884
(dp4885
g6
Nsg8
S'DATE'
p4886
sg10
Nsg17
NsbsS'nicholas'
p4887
g0
(g1
g2
Ntp4888
Rp4889
(dp4890
g6
Nsg8
S'LOCATION'
p4891
sg10
Nsg17
NsbsS'clinic'
p4892
g0
(g1
g2
Ntp4893
Rp4894
(dp4895
g6
Nsg8
S'LOCATION'
p4896
sg10
Nsg17
NsbsS'abolitionists'
p4897
g0
(g1
g2
Ntp4898
Rp4899
(dp4900
g6
Nsg8
S'OTHER'
p4901
sg10
Nsg17
NsbsS'river'
p4902
g0
(g1
g2
Ntp4903
Rp4904
(dp4905
g6
Nsg8
S'LOCATION'
p4906
sg10
Nsg17
NsbsS'art'
p4907
g0
(g1
g2
Ntp4908
Rp4909
(dp4910
g6
Nsg8
S'DATE'
p4911
sg10
Nsg17
NsbsS'creator'
p4912
g0
(g1
g2
Ntp4913
Rp4914
(dp4915
g6
Nsg8
S'PERSON'
p4916
sg10
Nsg17
NsbsS'farrier'
p4917
g0
(g1
g2
Ntp4918
Rp4919
(dp4920
g6
Nsg8
S'OTHER'
p4921
sg10
Nsg17
NsbsS'sex'
p4922
g0
(g1
g2
Ntp4923
Rp4924
(dp4925
g6
Nsg8
S'OTHER'
p4926
sg10
Nsg17
NsbsS'culture'
p4927
g0
(g1
g2
Ntp4928
Rp4929
(dp4930
g6
Nsg8
S'ORGANIZATION'
p4931
sg10
Nsg17
NsbsS'lion'
p4932
g0
(g1
g2
Ntp4933
Rp4934
(dp4935
g6
Nsg8
S'PERSON'
p4936
sg10
Nsg17
NsbsS'individual'
p4937
g0
(g1
g2
Ntp4938
Rp4939
(dp4940
g6
Nsg8
S'LOCATION'
p4941
sg10
Nsg17
NsbsS'sea'
p4942
g0
(g1
g2
Ntp4943
Rp4944
(dp4945
g6
Nsg8
S'LOCATION'
p4946
sg10
Nsg17
NsbsS'constellation'
p4947
g0
(g1
g2
Ntp4948
Rp4949
(dp4950
g6
Nsg8
S'LOCATION'
p4951
sg10
Nsg17
NsbsS'movie'
p4952
g0
(g1
g2
Ntp4953
Rp4954
(dp4955
g6
Nsg8
S'OTHER'
p4956
sg10
Nsg17
NsbsS'libraries'
p4957
g0
(g1
g2
Ntp4958
Rp4959
(dp4960
g6
Nsg8
S'LOCATION'
p4961
sg10
Nsg17
NsbsS'fans'
p4962
g0
(g1
g2
Ntp4963
Rp4964
(dp4965
g6
Nsg8
S'PERSON'
p4966
sg10
Nsg17
NsbsS'latin'
p4967
g0
(g1
g2
Ntp4968
Rp4969
(dp4970
g6
Nsg8
S'OTHER'
p4971
sg10
Nsg17
NsbsS'tristan'
p4972
g0
(g1
g2
Ntp4973
Rp4974
(dp4975
g6
Nsg8
S'OTHER'
p4976
sg10
Nsg17
NsbsS'conservationist'
p4977
g0
(g1
g2
Ntp4978
Rp4979
(dp4980
g6
Nsg8
S'PERSON'
p4981
sg10
Nsg17
NsbsS'league'
p4982
g0
(g1
g2
Ntp4983
Rp4984
(dp4985
g6
Nsg8
S'ORGANIZATION'
p4986
sg10
Nsg17
NsbsS'restaurant'
p4987
g0
(g1
g2
Ntp4988
Rp4989
(dp4990
g6
Nsg8
S'LOCATION'
p4991
sg10
Nsg17
NsbsS'thor'
p4992
g0
(g1
g2
Ntp4993
Rp4994
(dp4995
g6
Nsg8
S'PERSON'
p4996
sg10
Nsg17
NsbsS'connection'
p4997
g0
(g1
g2
Ntp4998
Rp4999
(dp5000
g6
Nsg8
S'OTHER'
p5001
sg10
Nsg17
NsbsS'canadians'
p5002
g0
(g1
g2
Ntp5003
Rp5004
(dp5005
g6
Nsg8
S'NUMBER'
p5006
sg10
Nsg17
NsbsS'baseball'
p5007
g0
(g1
g2
Ntp5008
Rp5009
(dp5010
g6
Nsg8
S'PERSON'
p5011
sg10
Nsg17
NsbsS'yards'
p5012
g0
(g1
g2
Ntp5013
Rp5014
(dp5015
g6
Nsg8
S'OTHER'
p5016
sg10
Nsg17
NsbsS'pendulum'
p5017
g0
(g1
g2
Ntp5018
Rp5019
(dp5020
g6
Nsg8
S'PERSON'
p5021
sg10
Nsg17
NsbsS'point'
p5022
g0
(g1
g2
Ntp5023
Rp5024
(dp5025
g6
Nsg8
S'LOCATION'
p5026
sg10
Nsg17
NsbsS'battery'
p5027
g0
(g1
g2
Ntp5028
Rp5029
(dp5030
g6
Nsg8
S'PERSON'
p5031
sg10
Nsg17
NsbsS'community'
p5032
g0
(g1
g2
Ntp5033
Rp5034
(dp5035
g6
Nsg8
S'NUMBER'
p5036
sg10
Nsg17
NsbsS'leos'
p5037
g0
(g1
g2
Ntp5038
Rp5039
(dp5040
g6
Nsg8
S'NUMBER'
p5041
sg10
Nsg17
NsbsS'church'
p5042
g0
(g1
g2
Ntp5043
Rp5044
(dp5045
g6
Nsg8
S'PERSON'
p5046
sg10
Nsg17
NsbsS'vessel'
p5047
g0
(g1
g2
Ntp5048
Rp5049
(dp5050
g6
Nsg8
S'OTHER'
p5051
sg10
Nsg17
NsbsS'belt'
p5052
g0
(g1
g2
Ntp5053
Rp5054
(dp5055
g6
Nsg8
S'OTHER'
p5056
sg10
Nsg17
NsbsS'milton'
p5057
g0
(g1
g2
Ntp5058
Rp5059
(dp5060
g6
Nsg8
S'OTHER'
p5061
sg10
Nsg17
NsbsS'trilogy'
p5062
g0
(g1
g2
Ntp5063
Rp5064
(dp5065
g6
Nsg8
S'OTHER'
p5066
sg10
Nsg17
NsbsS'mutiny'
p5067
g0
(g1
g2
Ntp5068
Rp5069
(dp5070
g6
Nsg8
S'PERSON'
p5071
sg10
Nsg17
NsbsS'make-up'
p5072
g0
(g1
g2
Ntp5073
Rp5074
(dp5075
g6
Nsg8
S'PERSON'
p5076
sg10
Nsg17
NsbsS'meeting'
p5077
g0
(g1
g2
Ntp5078
Rp5079
(dp5080
g6
Nsg8
S'LOCATION'
p5081
sg10
Nsg17
NsbsS'flight'
p5082
g0
(g1
g2
Ntp5083
Rp5084
(dp5085
g6
Nsg8
S'OTHER'
p5086
sg10
Nsg17
NsbsS'champion'
p5087
g0
(g1
g2
Ntp5088
Rp5089
(dp5090
g6
Nsg8
S'PERSON'
p5091
sg10
Nsg17
NsbsS'fire'
p5092
g0
(g1
g2
Ntp5093
Rp5094
(dp5095
g6
Nsg8
S'DATE'
p5096
sg10
Nsg17
NsbsS'crack'
p5097
g0
(g1
g2
Ntp5098
Rp5099
(dp5100
g6
Nsg8
S'OTHER'
p5101
sg10
Nsg17
NsbsS'races'
p5102
g0
(g1
g2
Ntp5103
Rp5104
(dp5105
g6
Nsg8
S'ORGANIZATION'
p5106
sg10
Nsg17
NsbsS'jell-o'
p5107
g0
(g1
g2
Ntp5108
Rp5109
(dp5110
g6
Nsg8
S'OTHER'
p5111
sg10
Nsg17
NsbsS'plants'
p5112
g0
(g1
g2
Ntp5113
Rp5114
(dp5115
g6
Nsg8
S'OTHER'
p5116
sg10
Nsg17
NsbsS'look'
p5117
g0
(g1
g2
Ntp5118
Rp5119
(dp5120
g6
Nsg8
S'PERSON'
p5121
sg10
Nsg17
NsbsS'bill'
p5122
g0
(g1
g2
Ntp5123
Rp5124
(dp5125
g6
Nsg8
S'PERSON'
p5126
sg10
Nsg17
NsbsS'governor'
p5127
g0
(g1
g2
Ntp5128
Rp5129
(dp5130
g6
Nsg8
S'PERSON'
p5131
sg10
Nsg17
NsbsS'loop'
p5132
g0
(g1
g2
Ntp5133
Rp5134
(dp5135
g6
Nsg8
S'LOCATION'
p5136
sg10
Nsg17
NsbsS'potlatch'
p5137
g0
(g1
g2
Ntp5138
Rp5139
(dp5140
g6
Nsg8
S'PERSON'
p5141
sg10
Nsg17
NsbsS'century'
p5142
g0
(g1
g2
Ntp5143
Rp5144
(dp5145
g6
Nsg8
S'DATE'
p5146
sg10
Nsg17
NsbsS'calculator'
p5147
g0
(g1
g2
Ntp5148
Rp5149
(dp5150
g6
Nsg8
S'OTHER'
p5151
sg10
Nsg17
NsbsS'lengths'
p5152
g0
(g1
g2
Ntp5153
Rp5154
(dp5155
g6
Nsg8
S'NUMBER'
p5156
sg10
Nsg17
NsbsS'fraze'
p5157
g0
(g1
g2
Ntp5158
Rp5159
(dp5160
g6
Nsg8
S'DATE'
p5161
sg10
Nsg17
NsbsS'liston'
p5162
g0
(g1
g2
Ntp5163
Rp5164
(dp5165
g6
Nsg8
S'PERSON'
p5166
sg10
Nsg17
NsbsS'kennedy'
p5167
g0
(g1
g2
Ntp5168
Rp5169
(dp5170
g6
Nsg8
S'PERSON'
p5171
sg10
Nsg17
NsbsS'ruth'
p5172
g0
(g1
g2
Ntp5173
Rp5174
(dp5175
g6
Nsg8
S'DATE'
p5176
sg10
Nsg17
NsbsS'composition'
p5177
g0
(g1
g2
Ntp5178
Rp5179
(dp5180
g6
Nsg8
S'OTHER'
p5181
sg10
Nsg17
NsbsS'daughters'
p5182
g0
(g1
g2
Ntp5183
Rp5184
(dp5185
g6
Nsg8
S'PERSON'
p5186
sg10
Nsg17
NsbsS'commune'
p5187
g0
(g1
g2
Ntp5188
Rp5189
(dp5190
g6
Nsg8
S'PERSON'
p5191
sg10
Nsg17
NsbsS'strips'
p5192
g0
(g1
g2
Ntp5193
Rp5194
(dp5195
g6
Nsg8
S'OTHER'
p5196
sg10
Nsg17
NsbsS'lawyers'
p5197
g0
(g1
g2
Ntp5198
Rp5199
(dp5200
g6
Nsg8
S'NUMBER'
p5201
sg10
Nsg17
NsbsS'huston'
p5202
g0
(g1
g2
Ntp5203
Rp5204
(dp5205
g6
Nsg8
S'OTHER'
p5206
sg10
Nsg17
NsbsS'holidays'
p5207
g0
(g1
g2
Ntp5208
Rp5209
(dp5210
g6
Nsg8
S'OTHER'
p5211
sg10
Nsg17
NsbsS'husbands'
p5212
g0
(g1
g2
Ntp5213
Rp5214
(dp5215
g6
Nsg8
S'PERSON'
p5216
sg10
Nsg17
NsbsS'nickname'
p5217
g0
(g1
g2
Ntp5218
Rp5219
(dp5220
g6
Nsg8
S'PERSON'
p5221
sg10
Nsg17
NsbsS'beanie'
p5222
g0
(g1
g2
Ntp5223
Rp5224
(dp5225
g6
Nsg8
S'NUMBER'
p5226
sg10
Nsg17
NsbsS'task'
p5227
g0
(g1
g2
Ntp5228
Rp5229
(dp5230
g6
Nsg8
S'PERSON'
p5231
sg10
Nsg17
NsbsS'person'
p5232
g0
(g1
g2
Ntp5233
Rp5234
(dp5235
g6
Nsg8
S'PERSON'
p5236
sg10
Nsg17
NsbsS'chronicles'
p5237
g0
(g1
g2
Ntp5238
Rp5239
(dp5240
g6
Nsg8
S'LOCATION'
p5241
sg10
Nsg17
NsbsS'landmark'
p5242
g0
(g1
g2
Ntp5243
Rp5244
(dp5245
g6
Nsg8
S'LOCATION'
p5246
sg10
Nsg17
NsbsS'organization'
p5247
g0
(g1
g2
Ntp5248
Rp5249
(dp5250
g6
Nsg8
S'ORGANIZATION'
p5251
sg10
Nsg17
NsbsS'ambassador'
p5252
g0
(g1
g2
Ntp5253
Rp5254
(dp5255
g6
Nsg8
S'PERSON'
p5256
sg10
Nsg17
NsbsS'lobsters'
p5257
g0
(g1
g2
Ntp5258
Rp5259
(dp5260
g6
Nsg8
S'LOCATION'
p5261
sg10
Nsg17
NsbsS'quarters'
p5262
g0
(g1
g2
Ntp5263
Rp5264
(dp5265
g6
Nsg8
S'NUMBER'
p5266
sg10
Nsg17
NsbsS'shape'
p5267
g0
(g1
g2
Ntp5268
Rp5269
(dp5270
g6
Nsg8
S'OTHER'
p5271
sg10
Nsg17
NsbsS'questions'
p5272
g0
(g1
g2
Ntp5273
Rp5274
(dp5275
g6
Nsg8
S'NUMBER'
p5276
sg10
Nsg17
NsbsS'continent'
p5277
g0
(g1
g2
Ntp5278
Rp5279
(dp5280
g6
Nsg8
S'LOCATION'
p5281
sg10
Nsg17
NsbsS'superbowls'
p5282
g0
(g1
g2
Ntp5283
Rp5284
(dp5285
g6
Nsg8
S'NUMBER'
p5286
sg10
Nsg17
NsbsS'wage'
p5287
g0
(g1
g2
Ntp5288
Rp5289
(dp5290
g6
Nsg8
S'MONEY'
p5291
sg10
Nsg17
NsbsS'cup'
p5292
g0
(g1
g2
Ntp5293
Rp5294
(dp5295
g6
Nsg8
S'PERSON'
p5296
sg10
Nsg17
NsbsS'alternate'
p5297
g0
(g1
g2
Ntp5298
Rp5299
(dp5300
g6
Nsg8
S'OTHER'
p5301
sg10
Nsg17
NsbsS'source'
p5302
g0
(g1
g2
Ntp5303
Rp5304
(dp5305
g6
Nsg8
S'OTHER'
p5306
sg10
Nsg17
NsbsS'location'
p5307
g0
(g1
g2
Ntp5308
Rp5309
(dp5310
g6
Nsg8
S'LOCATION'
p5311
sg10
Nsg17
NsbsS'format'
p5312
g0
(g1
g2
Ntp5313
Rp5314
(dp5315
g6
Nsg8
S'OTHER'
p5316
sg10
Nsg17
NsbsS'couple'
p5317
g0
(g1
g2
Ntp5318
Rp5319
(dp5320
g6
Nsg8
S'PERSON'
p5321
sg10
Nsg17
NsbsS'advocate'
p5322
g0
(g1
g2
Ntp5323
Rp5324
(dp5325
g6
Nsg8
S'PERSON'
p5326
sg10
Nsg17
NsbsS'wives'
p5327
g0
(g1
g2
Ntp5328
Rp5329
(dp5330
g6
Nsg8
S'NUMBER'
p5331
sg10
Nsg17
NsbsS'game'
p5332
g0
(g1
g2
Ntp5333
Rp5334
(dp5335
g6
Nsg8
S'OTHER'
p5336
sg10
Nsg17
NsbsS'gama'
p5337
g0
(g1
g2
Ntp5338
Rp5339
(dp5340
g6
Nsg8
S'OTHER'
p5341
sg10
Nsg17
NsbsS'wings'
p5342
g0
(g1
g2
Ntp5343
Rp5344
(dp5345
g6
Nsg8
S'NUMBER'
p5346
sg10
Nsg17
NsbsS'pillar'
p5347
g0
(g1
g2
Ntp5348
Rp5349
(dp5350
g6
Nsg8
S'PERSON'
p5351
sg10
Nsg17
NsbsS'disks'
p5352
g0
(g1
g2
Ntp5353
Rp5354
(dp5355
g6
Nsg8
S'NUMBER'
p5356
sg10
Nsg17
NsbsS'eidologist'
p5357
g0
(g1
g2
Ntp5358
Rp5359
(dp5360
g6
Nsg8
S'OTHER'
p5361
sg10
Nsg17
NsbsS'judson'
p5362
g0
(g1
g2
Ntp5363
Rp5364
(dp5365
g6
Nsg8
S'PERSON'
p5366
sg10
Nsg17
NsbsS'methods'
p5367
g0
(g1
g2
Ntp5368
Rp5369
(dp5370
g6
Nsg8
S'OTHER'
p5371
sg10
Nsg17
NsbsS'qatar'
p5372
g0
(g1
g2
Ntp5373
Rp5374
(dp5375
g6
Nsg8
S'LOCATION'
p5376
sg10
Nsg17
NsbsS'singing'
p5377
g0
(g1
g2
Ntp5378
Rp5379
(dp5380
g6
Nsg8
S'PERSON'
p5381
sg10
Nsg17
NsbsS'religion'
p5382
g0
(g1
g2
Ntp5383
Rp5384
(dp5385
g6
Nsg8
S'OTHER'
p5386
sg10
Nsg17
NsbsS'civilization'
p5387
g0
(g1
g2
Ntp5388
Rp5389
(dp5390
g6
Nsg8
S'ORGANIZATION'
p5391
sg10
Nsg17
NsbsS'epic'
p5392
g0
(g1
g2
Ntp5393
Rp5394
(dp5395
g6
Nsg8
S'OTHER'
p5396
sg10
Nsg17
NsbsS'rum'
p5397
g0
(g1
g2
Ntp5398
Rp5399
(dp5400
g6
Nsg8
S'OTHER'
p5401
sg10
Nsg17
NsbsS'weir'
p5402
g0
(g1
g2
Ntp5403
Rp5404
(dp5405
g6
Nsg8
S'PERSON'
p5406
sg10
Nsg17
NsbsS'hostages'
p5407
g0
(g1
g2
Ntp5408
Rp5409
(dp5410
g6
Nsg8
S'NUMBER'
p5411
sg10
Nsg17
NsbsS'pitchers'
p5412
g0
(g1
g2
Ntp5413
Rp5414
(dp5415
g6
Nsg8
S'NUMBER'
p5416
sg10
Nsg17
NsbsS'vaccine'
p5417
g0
(g1
g2
Ntp5418
Rp5419
(dp5420
g6
Nsg8
S'PERSON'
p5421
sg10
Nsg17
NsbsS'faith'
p5422
g0
(g1
g2
Ntp5423
Rp5424
(dp5425
g6
Nsg8
S'PERSON'
p5426
sg10
Nsg17
NsbsS'melbourne'
p5427
g0
(g1
g2
Ntp5428
Rp5429
(dp5430
g6
Nsg8
S'LOCATION'
p5431
sg10
Nsg17
NsbsS'congressman'
p5432
g0
(g1
g2
Ntp5433
Rp5434
(dp5435
g6
Nsg8
S'PERSON'
p5436
sg10
Nsg17
NsbsS'block'
p5437
g0
(g1
g2
Ntp5438
Rp5439
(dp5440
g6
Nsg8
S'LOCATION'
p5441
sg10
Nsg17
NsbsS'clinton'
p5442
g0
(g1
g2
Ntp5443
Rp5444
(dp5445
g6
Nsg8
S'LOCATION'
p5446
sg10
Nsg17
NsbsS'comedienne'
p5447
g0
(g1
g2
Ntp5448
Rp5449
(dp5450
g6
Nsg8
S'PERSON'
p5451
sg10
Nsg17
NsbsS'frames'
p5452
g0
(g1
g2
Ntp5453
Rp5454
(dp5455
g6
Nsg8
S'NUMBER'
p5456
sg10
Nsg17
NsbsS'canal'
p5457
g0
(g1
g2
Ntp5458
Rp5459
(dp5460
g6
Nsg8
S'LOCATION'
p5461
sg10
Nsg17
NsbsS'jockey'
p5462
g0
(g1
g2
Ntp5463
Rp5464
(dp5465
g6
Nsg8
S'PERSON'
p5466
sg10
Nsg17
NsbsS'span'
p5467
g0
(g1
g2
Ntp5468
Rp5469
(dp5470
g6
Nsg8
S'TIME'
p5471
sg10
Nsg17
NsbsS'question'
p5472
g0
(g1
g2
Ntp5473
Rp5474
(dp5475
g6
Nsg8
S'PERSON'
p5476
sg10
Nsg17
NsbsS'suit'
p5477
g0
(g1
g2
Ntp5478
Rp5479
(dp5480
g6
Nsg8
S'OTHER'
p5481
sg10
Nsg17
NsbsS'warlock'
p5482
g0
(g1
g2
Ntp5483
Rp5484
(dp5485
g6
Nsg8
S'OTHER'
p5486
sg10
Nsg17
NsbsS'mountains'
p5487
g0
(g1
g2
Ntp5488
Rp5489
(dp5490
g6
Nsg8
S'NUMBER'
p5491
sg10
Nsg17
NsbsS'quetzalcoatl'
p5492
g0
(g1
g2
Ntp5493
Rp5494
(dp5495
g6
Nsg8
S'PERSON'
p5496
sg10
Nsg17
NsbsS'inches'
p5497
g0
(g1
g2
Ntp5498
Rp5499
(dp5500
g6
Nsg8
S'NUMBER'
p5501
sg10
Nsg17
NsbsS'boys'
p5502
g0
(g1
g2
Ntp5503
Rp5504
(dp5505
g6
Nsg8
S'NUMBER'
p5506
sg10
Nsg17
NsbsS'line'
p5507
g0
(g1
g2
Ntp5508
Rp5509
(dp5510
g6
Nsg8
S'OTHER'
p5511
sg10
Nsg17
NsbsS'us'
p5512
g0
(g1
g2
Ntp5513
Rp5514
(dp5515
g6
Nsg8
S'PERSON'
p5516
sg10
Nsg17
NsbsS'planet'
p5517
g0
(g1
g2
Ntp5518
Rp5519
(dp5520
g6
Nsg8
S'LOCATION'
p5521
sg10
Nsg17
NsbsS'mozambique'
p5522
g0
(g1
g2
Ntp5523
Rp5524
(dp5525
g6
Nsg8
S'LOCATION'
p5526
sg10
Nsg17
NsbsS'sort'
p5527
g0
(g1
g2
Ntp5528
Rp5529
(dp5530
g6
Nsg8
S'OTHER'
p5531
sg10
Nsg17
NsbsS'duckling'
p5532
g0
(g1
g2
Ntp5533
Rp5534
(dp5535
g6
Nsg8
S'PERSON'
p5536
sg10
Nsg17
NsbsS'expedition'
p5537
g0
(g1
g2
Ntp5538
Rp5539
(dp5540
g6
Nsg8
S'OTHER'
p5541
sg10
Nsg17
NsbsS'unsafe'
p5542
g0
(g1
g2
Ntp5543
Rp5544
(dp5545
g6
Nsg8
S'PERSON'
p5546
sg10
Nsg17
NsbsS'majal'
p5547
g0
(g1
g2
Ntp5548
Rp5549
(dp5550
g6
Nsg8
S'OTHER'
p5551
sg10
Nsg17
NsbsS'nostradamus'
p5552
g0
(g1
g2
Ntp5553
Rp5554
(dp5555
g6
Nsg8
S'DATE'
p5556
sg10
Nsg17
NsbsS'camcorders'
p5557
g0
(g1
g2
Ntp5558
Rp5559
(dp5560
g6
Nsg8
S'DATE'
p5561
sg10
Nsg17
NsbsS'corners'
p5562
g0
(g1
g2
Ntp5563
Rp5564
(dp5565
g6
Nsg8
S'NUMBER'
p5566
sg10
Nsg17
NsbsS'actors'
p5567
g0
(g1
g2
Ntp5568
Rp5569
(dp5570
g6
Nsg8
S'NUMBER'
p5571
sg10
Nsg17
NsbsS'income'
p5572
g0
(g1
g2
Ntp5573
Rp5574
(dp5575
g6
Nsg8
S'MONEY'
p5576
sg10
Nsg17
NsbsS'department'
p5577
g0
(g1
g2
Ntp5578
Rp5579
(dp5580
g6
Nsg8
S'PERSON'
p5581
sg10
Nsg17
NsbsS'mayonnaise'
p5582
g0
(g1
g2
Ntp5583
Rp5584
(dp5585
g6
Nsg8
S'OTHER'
p5586
sg10
Nsg17
NsbsS'elements'
p5587
g0
(g1
g2
Ntp5588
Rp5589
(dp5590
g6
Nsg8
S'OTHER'
p5591
sg10
Nsg17
NsbsS'lucia'
p5592
g0
(g1
g2
Ntp5593
Rp5594
(dp5595
g6
Nsg8
S'LOCATION'
p5596
sg10
Nsg17
NsbsS'lens'
p5597
g0
(g1
g2
Ntp5598
Rp5599
(dp5600
g6
Nsg8
S'OTHER'
p5601
sg10
Nsg17
NsbsS'sides'
p5602
g0
(g1
g2
Ntp5603
Rp5604
(dp5605
g6
Nsg8
S'NUMBER'
p5606
sg10
Nsg17
NsbsS'structure'
p5607
g0
(g1
g2
Ntp5608
Rp5609
(dp5610
g6
Nsg8
S'OTHER'
p5611
sg10
Nsg17
NsbsS'miles'
p5612
g0
(g1
g2
Ntp5613
Rp5614
(dp5615
g6
Nsg8
S'NUMBER'
p5616
sg10
Nsg17
NsbsS'age'
p5617
g0
(g1
g2
Ntp5618
Rp5619
(dp5620
g6
Nsg8
S'TIME'
p5621
sg10
Nsg17
NsbsS'vehicles'
p5622
g0
(g1
g2
Ntp5623
Rp5624
(dp5625
g6
Nsg8
S'OTHER'
p5626
sg10
Nsg17
NsbsS'holes'
p5627
g0
(g1
g2
Ntp5628
Rp5629
(dp5630
g6
Nsg8
S'NUMBER'
p5631
sg10
Nsg17
NsbsS'feud'
p5632
g0
(g1
g2
Ntp5633
Rp5634
(dp5635
g6
Nsg8
S'OTHER'
p5636
sg10
Nsg17
NsbsS'walker'
p5637
g0
(g1
g2
Ntp5638
Rp5639
(dp5640
g6
Nsg8
S'LOCATION'
p5641
sg10
Nsg17
NsbsS'menace'
p5642
g0
(g1
g2
Ntp5643
Rp5644
(dp5645
g6
Nsg8
S'OTHER'
p5646
sg10
Nsg17
NsbsS'code'
p5647
g0
(g1
g2
Ntp5648
Rp5649
(dp5650
g6
Nsg8
S'NUMBER'
p5651
sg10
Nsg17
NsbsS'astronauts'
p5652
g0
(g1
g2
Ntp5653
Rp5654
(dp5655
g6
Nsg8
S'NUMBER'
p5656
sg10
Nsg17
NsbsS'gang'
p5657
g0
(g1
g2
Ntp5658
Rp5659
(dp5660
g6
Nsg8
S'OTHER'
p5661
sg10
Nsg17
NsbsS'super-teams'
p5662
g0
(g1
g2
Ntp5663
Rp5664
(dp5665
g6
Nsg8
S'ORGANIZATION'
p5666
sg10
Nsg17
NsbsS'birthplace'
p5667
g0
(g1
g2
Ntp5668
Rp5669
(dp5670
g6
Nsg8
S'LOCATION'
p5671
sg10
Nsg17
NsbsS'simon'
p5672
g0
(g1
g2
Ntp5673
Rp5674
(dp5675
g6
Nsg8
S'OTHER'
p5676
sg10
Nsg17
NsbsS'vesuvius'
p5677
g0
(g1
g2
Ntp5678
Rp5679
(dp5680
g6
Nsg8
S'DATE'
p5681
sg10
Nsg17
NsbsS'lyrics'
p5682
g0
(g1
g2
Ntp5683
Rp5684
(dp5685
g6
Nsg8
S'PERSON'
p5686
sg10
Nsg17
NsbsS'vietnamese'
p5687
g0
(g1
g2
Ntp5688
Rp5689
(dp5690
g6
Nsg8
S'NUMBER'
p5691
sg10
Nsg17
NsbsS'languages'
p5692
g0
(g1
g2
Ntp5693
Rp5694
(dp5695
g6
Nsg8
S'OTHER'
p5696
sg10
Nsg17
NsbsS'resources'
p5697
g0
(g1
g2
Ntp5698
Rp5699
(dp5700
g6
Nsg8
S'LOCATION'
p5701
sg10
Nsg17
NsbsS'ingredient'
p5702
g0
(g1
g2
Ntp5703
Rp5704
(dp5705
g6
Nsg8
S'OTHER'
p5706
sg10
Nsg17
NsbsS'stonehenge'
p5707
g0
(g1
g2
Ntp5708
Rp5709
(dp5710
g6
Nsg8
S'PERSON'
p5711
sg10
Nsg17
NsbsS'droppings'
p5712
g0
(g1
g2
Ntp5713
Rp5714
(dp5715
g6
Nsg8
S'OTHER'
p5716
sg10
Nsg17
NsbsS'ukulele'
p5717
g0
(g1
g2
Ntp5718
Rp5719
(dp5720
g6
Nsg8
S'LOCATION'
p5721
sg10
Nsg17
NsbsS'acreage'
p5722
g0
(g1
g2
Ntp5723
Rp5724
(dp5725
g6
Nsg8
S'NUMBER'
p5726
sg10
Nsg17
NsbsS'surgeon'
p5727
g0
(g1
g2
Ntp5728
Rp5729
(dp5730
g6
Nsg8
S'PERSON'
p5731
sg10
Nsg17
NsbsS'tutu'
p5732
g0
(g1
g2
Ntp5733
Rp5734
(dp5735
g6
Nsg8
S'PERSON'
p5736
sg10
Nsg17
NsbsS'magic'
p5737
g0
(g1
g2
Ntp5738
Rp5739
(dp5740
g6
Nsg8
S'OTHER'
p5741
sg10
Nsg17
NsbsS'gender'
p5742
g0
(g1
g2
Ntp5743
Rp5744
(dp5745
g6
Nsg8
S'OTHER'
p5746
sg10
Nsg17
NsbsS'notes'
p5747
g0
(g1
g2
Ntp5748
Rp5749
(dp5750
g6
Nsg8
S'OTHER'
p5751
sg10
Nsg17
NsbsS'race'
p5752
g0
(g1
g2
Ntp5753
Rp5754
(dp5755
g6
Nsg8
S'OTHER'
p5756
sg10
Nsg17
NsbsS'malick'
p5757
g0
(g1
g2
Ntp5758
Rp5759
(dp5760
g6
Nsg8
S'PERSON'
p5761
sg10
Nsg17
NsbsS'carter'
p5762
g0
(g1
g2
Ntp5763
Rp5764
(dp5765
g6
Nsg8
S'OTHER'
p5766
sg10
Nsg17
NsbsS'cds'
p5767
g0
(g1
g2
Ntp5768
Rp5769
(dp5770
g6
Nsg8
S'NUMBER'
p5771
sg10
Nsg17
NsbsS'wrestling'
p5772
g0
(g1
g2
Ntp5773
Rp5774
(dp5775
g6
Nsg8
S'PERSON'
p5776
sg10
Nsg17
NsbsS'crop'
p5777
g0
(g1
g2
Ntp5778
Rp5779
(dp5780
g6
Nsg8
S'OTHER'
p5781
sg10
Nsg17
NsbsS'rivers'
p5782
g0
(g1
g2
Ntp5783
Rp5784
(dp5785
g6
Nsg8
S'LOCATION'
p5786
sg10
Nsg17
NsbsS'scrabble'
p5787
g0
(g1
g2
Ntp5788
Rp5789
(dp5790
g6
Nsg8
S'PERSON'
p5791
sg10
Nsg17
NsbsS'video'
p5792
g0
(g1
g2
Ntp5793
Rp5794
(dp5795
g6
Nsg8
S'PERSON'
p5796
sg10
Nsg17
NsbsS'grooves'
p5797
g0
(g1
g2
Ntp5798
Rp5799
(dp5800
g6
Nsg8
S'NUMBER'
p5801
sg10
Nsg17
NsbsS'acid'
p5802
g0
(g1
g2
Ntp5803
Rp5804
(dp5805
g6
Nsg8
S'NUMBER'
p5806
sg10
Nsg17
NsbsS'depression'
p5807
g0
(g1
g2
Ntp5808
Rp5809
(dp5810
g6
Nsg8
S'DATE'
p5811
sg10
Nsg17
NsbsS'power'
p5812
g0
(g1
g2
Ntp5813
Rp5814
(dp5815
g6
Nsg8
S'PERSON'
p5816
sg10
Nsg17
NsbsS'capital'
p5817
g0
(g1
g2
Ntp5818
Rp5819
(dp5820
g6
Nsg8
S'LOCATION'
p5821
sg10
Nsg17
NsbsS'tournaments'
p5822
g0
(g1
g2
Ntp5823
Rp5824
(dp5825
g6
Nsg8
S'OTHER'
p5826
sg10
Nsg17
NsbsS'bird'
p5827
g0
(g1
g2
Ntp5828
Rp5829
(dp5830
g6
Nsg8
S'OTHER'
p5831
sg10
Nsg17
NsbsS'body'
p5832
g0
(g1
g2
Ntp5833
Rp5834
(dp5835
g6
Nsg8
S'OTHER'
p5836
sg10
Nsg17
NsbsS'leg'
p5837
g0
(g1
g2
Ntp5838
Rp5839
(dp5840
g6
Nsg8
S'OTHER'
p5841
sg10
Nsg17
NsbsS'napolean'
p5842
g0
(g1
g2
Ntp5843
Rp5844
(dp5845
g6
Nsg8
S'PERSON'
p5846
sg10
Nsg17
NsbsS'canals'
p5847
g0
(g1
g2
Ntp5848
Rp5849
(dp5850
g6
Nsg8
S'LOCATION'
p5851
sg10
Nsg17
NsbsS'survivor'
p5852
g0
(g1
g2
Ntp5853
Rp5854
(dp5855
g6
Nsg8
S'PERSON'
p5856
sg10
Nsg17
NsbsS'jinnah'
p5857
g0
(g1
g2
Ntp5858
Rp5859
(dp5860
g6
Nsg8
S'PERSON'
p5861
sg10
Nsg17
NsbsS'products'
p5862
g0
(g1
g2
Ntp5863
Rp5864
(dp5865
g6
Nsg8
S'OTHER'
p5866
sg10
Nsg17
NsbsS'residents'
p5867
g0
(g1
g2
Ntp5868
Rp5869
(dp5870
g6
Nsg8
S'ORGANIZATION'
p5871
sg10
Nsg17
NsbsS'patents'
p5872
g0
(g1
g2
Ntp5873
Rp5874
(dp5875
g6
Nsg8
S'PERSON'
p5876
sg10
Nsg17
NsbsS'holmes'
p5877
g0
(g1
g2
Ntp5878
Rp5879
(dp5880
g6
Nsg8
S'PERSON'
p5881
sg10
Nsg17
NsbsS'clark'
p5882
g0
(g1
g2
Ntp5883
Rp5884
(dp5885
g6
Nsg8
S'DATE'
p5886
sg10
Nsg17
NsbsS'scales'
p5887
g0
(g1
g2
Ntp5888
Rp5889
(dp5890
g6
Nsg8
S'NUMBER'
p5891
sg10
Nsg17
NsbsS'presidents'
p5892
g0
(g1
g2
Ntp5893
Rp5894
(dp5895
g6
Nsg8
S'PERSON'
p5896
sg10
Nsg17
NsbsS'respirator'
p5897
g0
(g1
g2
Ntp5898
Rp5899
(dp5900
g6
Nsg8
S'OTHER'
p5901
sg10
Nsg17
NsbsS'names'
p5902
g0
(g1
g2
Ntp5903
Rp5904
(dp5905
g6
Nsg8
S'PERSON'
p5906
sg10
Nsg17
NsbsS'composer'
p5907
g0
(g1
g2
Ntp5908
Rp5909
(dp5910
g6
Nsg8
S'PERSON'
p5911
sg10
Nsg17
NsbsS'tools'
p5912
g0
(g1
g2
Ntp5913
Rp5914
(dp5915
g6
Nsg8
S'PERSON'
p5916
sg10
Nsg17
NsbsS'lime'
p5917
g0
(g1
g2
Ntp5918
Rp5919
(dp5920
g6
Nsg8
S'PERSON'
p5921
sg10
Nsg17
NsbsS'use'
p5922
g0
(g1
g2
Ntp5923
Rp5924
(dp5925
g6
Nsg8
S'DATE'
p5926
sg10
Nsg17
NsbsS'zip'
p5927
g0
(g1
g2
Ntp5928
Rp5929
(dp5930
g6
Nsg8
S'NUMBER'
p5931
sg10
Nsg17
NsbsS'remains'
p5932
g0
(g1
g2
Ntp5933
Rp5934
(dp5935
g6
Nsg8
S'LOCATION'
p5936
sg10
Nsg17
NsbsS'butler'
p5937
g0
(g1
g2
Ntp5938
Rp5939
(dp5940
g6
Nsg8
S'PERSON'
p5941
sg10
Nsg17
NsbsS'possession'
p5942
g0
(g1
g2
Ntp5943
Rp5944
(dp5945
g6
Nsg8
S'LOCATION'
p5946
sg10
Nsg17
NsbsS'shipwreck'
p5947
g0
(g1
g2
Ntp5948
Rp5949
(dp5950
g6
Nsg8
S'OTHER'
p5951
sg10
Nsg17
NsbsS'tax'
p5952
g0
(g1
g2
Ntp5953
Rp5954
(dp5955
g6
Nsg8
S'MONEY'
p5956
sg10
Nsg17
NsbsS'trail'
p5957
g0
(g1
g2
Ntp5958
Rp5959
(dp5960
g6
Nsg8
S'LOCATION'
p5961
sg10
Nsg17
NsbsS'rabbit'
p5962
g0
(g1
g2
Ntp5963
Rp5964
(dp5965
g6
Nsg8
S'OTHER'
p5966
sg10
Nsg17
NsbsS'baby'
p5967
g0
(g1
g2
Ntp5968
Rp5969
(dp5970
g6
Nsg8
S'PERSON'
p5971
sg10
Nsg17
NsbsS'antichrist'
p5972
g0
(g1
g2
Ntp5973
Rp5974
(dp5975
g6
Nsg8
S'PERSON'
p5976
sg10
Nsg17
NsbsS'shostakovich'
p5977
g0
(g1
g2
Ntp5978
Rp5979
(dp5980
g6
Nsg8
S'OTHER'
p5981
sg10
Nsg17
NsbsS'iii'
p5982
g0
(g1
g2
Ntp5983
Rp5984
(dp5985
g6
Nsg8
S'PERSON'
p5986
sg10
Nsg17
NsbsS'huxley'
p5987
g0
(g1
g2
Ntp5988
Rp5989
(dp5990
g6
Nsg8
S'DATE'
p5991
sg10
Nsg17
NsbsS'women'
p5992
g0
(g1
g2
Ntp5993
Rp5994
(dp5995
g6
Nsg8
S'PERSON'
p5996
sg10
Nsg17
NsbsS'account'
p5997
g0
(g1
g2
Ntp5998
Rp5999
(dp6000
g6
Nsg8
S'PERCENT'
p6001
sg10
Nsg17
NsbsS'balls'
p6002
g0
(g1
g2
Ntp6003
Rp6004
(dp6005
g6
Nsg8
S'OTHER'
p6006
sg10
Nsg17
NsbsS'animals'
p6007
g0
(g1
g2
Ntp6008
Rp6009
(dp6010
g6
Nsg8
S'OTHER'
p6011
sg10
Nsg17
NsbsS'athlete'
p6012
g0
(g1
g2
Ntp6013
Rp6014
(dp6015
g6
Nsg8
S'PERSON'
p6016
sg10
Nsg17
NsbsS'control'
p6017
g0
(g1
g2
Ntp6018
Rp6019
(dp6020
g6
Nsg8
S'DATE'
p6021
sg10
Nsg17
NsbsS'process'
p6022
g0
(g1
g2
Ntp6023
Rp6024
(dp6025
g6
Nsg8
S'PERSON'
p6026
sg10
Nsg17
NsbsS'tootsie'
p6027
g0
(g1
g2
Ntp6028
Rp6029
(dp6030
g6
Nsg8
S'PERSON'
p6031
sg10
Nsg17
NsbsS'high'
p6032
g0
(g1
g2
Ntp6033
Rp6034
(dp6035
g6
Nsg8
S'NUMBER'
p6036
sg10
Nsg17
NsbsS'villain'
p6037
g0
(g1
g2
Ntp6038
Rp6039
(dp6040
g6
Nsg8
S'PERSON'
p6041
sg10
Nsg17
NsbsS'bend'
p6042
g0
(g1
g2
Ntp6043
Rp6044
(dp6045
g6
Nsg8
S'LOCATION'
p6046
sg10
Nsg17
NsbsS'bones'
p6047
g0
(g1
g2
Ntp6048
Rp6049
(dp6050
g6
Nsg8
S'NUMBER'
p6051
sg10
Nsg17
NsbsS'native'
p6052
g0
(g1
g2
Ntp6053
Rp6054
(dp6055
g6
Nsg8
S'LOCATION'
p6056
sg10
Nsg17
NsbsS'autobiography'
p6057
g0
(g1
g2
Ntp6058
Rp6059
(dp6060
g6
Nsg8
S'PERSON'
p6061
sg10
Nsg17
NsbsS'hampshire'
p6062
g0
(g1
g2
Ntp6063
Rp6064
(dp6065
g6
Nsg8
S'LOCATION'
p6066
sg10
Nsg17
NsbsS'winners'
p6067
g0
(g1
g2
Ntp6068
Rp6069
(dp6070
g6
Nsg8
S'PERSON'
p6071
sg10
Nsg17
NsbsS'forest'
p6072
g0
(g1
g2
Ntp6073
Rp6074
(dp6075
g6
Nsg8
S'LOCATION'
p6076
sg10
Nsg17
NsbsS'animal'
p6077
g0
(g1
g2
Ntp6078
Rp6079
(dp6080
g6
Nsg8
S'OTHER'
p6081
sg10
Nsg17
NsbsS'rousseau'
p6082
g0
(g1
g2
Ntp6083
Rp6084
(dp6085
g6
Nsg8
S'DATE'
p6086
sg10
Nsg17
NsbsS'fare'
p6087
g0
(g1
g2
Ntp6088
Rp6089
(dp6090
g6
Nsg8
S'MONEY'
p6091
sg10
Nsg17
NsbsS'buildings'
p6092
g0
(g1
g2
Ntp6093
Rp6094
(dp6095
g6
Nsg8
S'LOCATION'
p6096
sg10
Nsg17
NsbsS'cupboard'
p6097
g0
(g1
g2
Ntp6098
Rp6099
(dp6100
g6
Nsg8
S'PERSON'
p6101
sg10
Nsg17
NsbsS'singular'
p6102
g0
(g1
g2
Ntp6103
Rp6104
(dp6105
g6
Nsg8
S'OTHER'
p6106
sg10
Nsg17
NsbsS'collection'
p6107
g0
(g1
g2
Ntp6108
Rp6109
(dp6110
g6
Nsg8
S'PERSON'
p6111
sg10
Nsg17
NsbsS'pigs'
p6112
g0
(g1
g2
Ntp6113
Rp6114
(dp6115
g6
Nsg8
S'LOCATION'
p6116
sg10
Nsg17
NsbsS'muppets'
p6117
g0
(g1
g2
Ntp6118
Rp6119
(dp6120
g6
Nsg8
S'PERSON'
p6121
sg10
Nsg17
NsbsS'liner'
p6122
g0
(g1
g2
Ntp6123
Rp6124
(dp6125
g6
Nsg8
S'OTHER'
p6126
sg10
Nsg17
NsbsS'element'
p6127
g0
(g1
g2
Ntp6128
Rp6129
(dp6130
g6
Nsg8
S'OTHER'
p6131
sg10
Nsg17
NsbsS'bakery'
p6132
g0
(g1
g2
Ntp6133
Rp6134
(dp6135
g6
Nsg8
S'OTHER'
p6136
sg10
Nsg17
NsbsS'encyclopedia'
p6137
g0
(g1
g2
Ntp6138
Rp6139
(dp6140
g6
Nsg8
S'DATE'
p6141
sg10
Nsg17
NsbsS'alloy'
p6142
g0
(g1
g2
Ntp6143
Rp6144
(dp6145
g6
Nsg8
S'OTHER'
p6146
sg10
Nsg17
NsbsS'software'
p6147
g0
(g1
g2
Ntp6148
Rp6149
(dp6150
g6
Nsg8
S'OTHER'
p6151
sg10
Nsg17
NsbsS'marlowe'
p6152
g0
(g1
g2
Ntp6153
Rp6154
(dp6155
g6
Nsg8
S'PERSON'
p6156
sg10
Nsg17
NsbsS'producer'
p6157
g0
(g1
g2
Ntp6158
Rp6159
(dp6160
g6
Nsg8
S'ORGANIZATION'
p6161
sg10
Nsg17
NsbsS'move'
p6162
g0
(g1
g2
Ntp6163
Rp6164
(dp6165
g6
Nsg8
S'OTHER'
p6166
sg10
Nsg17
NsbsS'meter'
p6167
g0
(g1
g2
Ntp6168
Rp6169
(dp6170
g6
Nsg8
S'OTHER'
p6171
sg10
Nsg17
NsbsS'sperm'
p6172
g0
(g1
g2
Ntp6173
Rp6174
(dp6175
g6
Nsg8
S'OTHER'
p6176
sg10
Nsg17
NsbsS'costume'
p6177
g0
(g1
g2
Ntp6178
Rp6179
(dp6180
g6
Nsg8
S'PERSON'
p6181
sg10
Nsg17
NsbsS'bunch'
p6182
g0
(g1
g2
Ntp6183
Rp6184
(dp6185
g6
Nsg8
S'PERSON'
p6186
sg10
Nsg17
NsbsS'labor'
p6187
g0
(g1
g2
Ntp6188
Rp6189
(dp6190
g6
Nsg8
S'DATE'
p6191
sg10
Nsg17
NsbsS'degrees'
p6192
g0
(g1
g2
Ntp6193
Rp6194
(dp6195
g6
Nsg8
S'NUMBER'
p6196
sg10
Nsg17
NsbsS'holiday'
p6197
g0
(g1
g2
Ntp6198
Rp6199
(dp6200
g6
Nsg8
S'OTHER'
p6201
sg10
Nsg17
NsbsS'image'
p6202
g0
(g1
g2
Ntp6203
Rp6204
(dp6205
g6
Nsg8
S'PERSON'
p6206
sg10
Nsg17
NsbsS'dam'
p6207
g0
(g1
g2
Ntp6208
Rp6209
(dp6210
g6
Nsg8
S'LOCATION'
p6211
sg10
Nsg17
NsbsS'snake'
p6212
g0
(g1
g2
Ntp6213
Rp6214
(dp6215
g6
Nsg8
S'OTHER'
p6216
sg10
Nsg17
NsbsS'hands'
p6217
g0
(g1
g2
Ntp6218
Rp6219
(dp6220
g6
Nsg8
S'NUMBER'
p6221
sg10
Nsg17
NsbsS'satellites'
p6222
g0
(g1
g2
Ntp6223
Rp6224
(dp6225
g6
Nsg8
S'OTHER'
p6226
sg10
Nsg17
NsbsS'cage'
p6227
g0
(g1
g2
Ntp6228
Rp6229
(dp6230
g6
Nsg8
S'PERSON'
p6231
sg10
Nsg17
NsbsS'day'
p6232
g0
(g1
g2
Ntp6233
Rp6234
(dp6235
g6
Nsg8
S'DATE'
p6236
sg10
Nsg17
NsbsS'd.a.'
p6237
g0
(g1
g2
Ntp6238
Rp6239
(dp6240
g6
Nsg8
S'PERSON'
p6241
sg10
Nsg17
NsbsS'articles'
p6242
g0
(g1
g2
Ntp6243
Rp6244
(dp6245
g6
Nsg8
S'OTHER'
p6246
sg10
Nsg17
NsbsS'airports'
p6247
g0
(g1
g2
Ntp6248
Rp6249
(dp6250
g6
Nsg8
S'LOCATION'
p6251
sg10
Nsg17
NsbsS'university'
p6252
g0
(g1
g2
Ntp6253
Rp6254
(dp6255
g6
Nsg8
S'ORGANIZATION'
p6256
sg10
Nsg17
NsbsS'nfl'
p6257
g0
(g1
g2
Ntp6258
Rp6259
(dp6260
g6
Nsg8
S'DATE'
p6261
sg10
Nsg17
NsbsS'typewriter'
p6262
g0
(g1
g2
Ntp6263
Rp6264
(dp6265
g6
Nsg8
S'DATE'
p6266
sg10
Nsg17
NsbsS'normans'
p6267
g0
(g1
g2
Ntp6268
Rp6269
(dp6270
g6
Nsg8
S'PERSON'
p6271
sg10
Nsg17
NsbsS'product'
p6272
g0
(g1
g2
Ntp6273
Rp6274
(dp6275
g6
Nsg8
S'OTHER'
p6276
sg10
Nsg17
NsbsS'society'
p6277
g0
(g1
g2
Ntp6278
Rp6279
(dp6280
g6
Nsg8
S'ORGANIZATION'
p6281
sg10
Nsg17
NsbsS'books'
p6282
g0
(g1
g2
Ntp6283
Rp6284
(dp6285
g6
Nsg8
S'OTHER'
p6286
sg10
Nsg17
NsbsS'salesman'
p6287
g0
(g1
g2
Ntp6288
Rp6289
(dp6290
g6
Nsg8
S'PERSON'
p6291
sg10
Nsg17
NsbsS'witness'
p6292
g0
(g1
g2
Ntp6293
Rp6294
(dp6295
g6
Nsg8
S'PERSON'
p6296
sg10
Nsg17
NsbsS'house'
p6297
g0
(g1
g2
Ntp6298
Rp6299
(dp6300
g6
Nsg8
S'LOCATION'
p6301
sg10
Nsg17
NsbsS'www.questions.com'
p6302
g0
(g1
g2
Ntp6303
Rp6304
(dp6305
g6
Nsg8
S'DATE'
p6306
sg10
Nsg17
NsbsS'strokes'
p6307
g0
(g1
g2
Ntp6308
Rp6309
(dp6310
g6
Nsg8
S'OTHER'
p6311
sg10
Nsg17
NsbsS'plural'
p6312
g0
(g1
g2
Ntp6313
Rp6314
(dp6315
g6
Nsg8
S'OTHER'
p6316
sg10
Nsg17
NsbsS'achievements'
p6317
g0
(g1
g2
Ntp6318
Rp6319
(dp6320
g6
Nsg8
S'OTHER'
p6321
sg10
Nsg17
NsbsS'approaches'
p6322
g0
(g1
g2
Ntp6323
Rp6324
(dp6325
g6
Nsg8
S'OTHER'
p6326
sg10
Nsg17
NsbsS'florida'
p6327
g0
(g1
g2
Ntp6328
Rp6329
(dp6330
g6
Nsg8
S'PERSON'
p6331
sg10
Nsg17
NsbsS'david'
p6332
g0
(g1
g2
Ntp6333
Rp6334
(dp6335
g6
Nsg8
S'PERSON'
p6336
sg10
Nsg17
NsbsS'counterpart'
p6337
g0
(g1
g2
Ntp6338
Rp6339
(dp6340
g6
Nsg8
S'OTHER'
p6341
sg10
Nsg17
NsbsS'length'
p6342
g0
(g1
g2
Ntp6343
Rp6344
(dp6345
g6
Nsg8
S'NUMBER'
p6346
sg10
Nsg17
NsbsS'museum'
p6347
g0
(g1
g2
Ntp6348
Rp6349
(dp6350
g6
Nsg8
S'LOCATION'
p6351
sg10
Nsg17
NsbsS'pines'
p6352
g0
(g1
g2
Ntp6353
Rp6354
(dp6355
g6
Nsg8
S'PERSON'
p6356
sg10
Nsg17
NsbsS'muhammad'
p6357
g0
(g1
g2
Ntp6358
Rp6359
(dp6360
g6
Nsg8
S'DATE'
p6361
sg10
Nsg17
NsbsS'ybarra'
p6362
g0
(g1
g2
Ntp6363
Rp6364
(dp6365
g6
Nsg8
S'PERSON'
p6366
sg10
Nsg17
NsbsS'owner'
p6367
g0
(g1
g2
Ntp6368
Rp6369
(dp6370
g6
Nsg8
S'PERSON'
p6371
sg10
Nsg17
NsbsS'lacan'
p6372
g0
(g1
g2
Ntp6373
Rp6374
(dp6375
g6
Nsg8
S'PERSON'
p6376
sg10
Nsg17
NsbsS'cohan'
p6377
g0
(g1
g2
Ntp6378
Rp6379
(dp6380
g6
Nsg8
S'PERSON'
p6381
sg10
Nsg17
NsbsS'festival'
p6382
g0
(g1
g2
Ntp6383
Rp6384
(dp6385
g6
Nsg8
S'DATE'
p6386
sg10
Nsg17
NsbsS'system'
p6387
g0
(g1
g2
Ntp6388
Rp6389
(dp6390
g6
Nsg8
S'OTHER'
p6391
sg10
Nsg17
NsbsS'attack'
p6392
g0
(g1
g2
Ntp6393
Rp6394
(dp6395
g6
Nsg8
S'DATE'
p6396
sg10
Nsg17
NsbsS'sergeant'
p6397
g0
(g1
g2
Ntp6398
Rp6399
(dp6400
g6
Nsg8
S'PERSON'
p6401
sg10
Nsg17
NsbsS'tourists'
p6402
g0
(g1
g2
Ntp6403
Rp6404
(dp6405
g6
Nsg8
S'LOCATION'
p6406
sg10
Nsg17
NsbsS'beard'
p6407
g0
(g1
g2
Ntp6408
Rp6409
(dp6410
g6
Nsg8
S'PERSON'
p6411
sg10
Nsg17
NsbsS'inuits'
p6412
g0
(g1
g2
Ntp6413
Rp6414
(dp6415
g6
Nsg8
S'LOCATION'
p6416
sg10
Nsg17
NsbsS'chemicals'
p6417
g0
(g1
g2
Ntp6418
Rp6419
(dp6420
g6
Nsg8
S'OTHER'
p6421
sg10
Nsg17
NsbsS'mules'
p6422
g0
(g1
g2
Ntp6423
Rp6424
(dp6425
g6
Nsg8
S'PERSON'
p6426
sg10
Nsg17
NsbsS'steel'
p6427
g0
(g1
g2
Ntp6428
Rp6429
(dp6430
g6
Nsg8
S'LOCATION'
p6431
sg10
Nsg17
NsbsS'ben'
p6432
g0
(g1
g2
Ntp6433
Rp6434
(dp6435
g6
Nsg8
S'PERSON'
p6436
sg10
Nsg17
NsbsS'johnson'
p6437
g0
(g1
g2
Ntp6438
Rp6439
(dp6440
g6
Nsg8
S'OTHER'
p6441
sg10
Nsg17
NsbsS'shampoo'
p6442
g0
(g1
g2
Ntp6443
Rp6444
(dp6445
g6
Nsg8
S'OTHER'
p6446
sg10
Nsg17
NsbsS'listeners'
p6447
g0
(g1
g2
Ntp6448
Rp6449
(dp6450
g6
Nsg8
S'PERSON'
p6451
sg10
Nsg17
NsbsS'sculpture'
p6452
g0
(g1
g2
Ntp6453
Rp6454
(dp6455
g6
Nsg8
S'OTHER'
p6456
sg10
Nsg17
NsbsS'clip'
p6457
g0
(g1
g2
Ntp6458
Rp6459
(dp6460
g6
Nsg8
S'PERSON'
p6461
sg10
Nsg17
NsbsS'fowl'
p6462
g0
(g1
g2
Ntp6463
Rp6464
(dp6465
g6
Nsg8
S'OTHER'
p6466
sg10
Nsg17
NsbsS'deodorant'
p6467
g0
(g1
g2
Ntp6468
Rp6469
(dp6470
g6
Nsg8
S'PERSON'
p6471
sg10
Nsg17
NsbsS'russians'
p6472
g0
(g1
g2
Ntp6473
Rp6474
(dp6475
g6
Nsg8
S'NUMBER'
p6476
sg10
Nsg17
NsbsS'agency'
p6477
g0
(g1
g2
Ntp6478
Rp6479
(dp6480
g6
Nsg8
S'ORGANIZATION'
p6481
sg10
Nsg17
NsbsS'parks'
p6482
g0
(g1
g2
Ntp6483
Rp6484
(dp6485
g6
Nsg8
S'PERSON'
p6486
sg10
Nsg17
NsbsS'soap'
p6487
g0
(g1
g2
Ntp6488
Rp6489
(dp6490
g6
Nsg8
S'OTHER'
p6491
sg10
Nsg17
NsbsS'medals'
p6492
g0
(g1
g2
Ntp6493
Rp6494
(dp6495
g6
Nsg8
S'PERSON'
p6496
sg10
Nsg17
NsbsS'device'
p6497
g0
(g1
g2
Ntp6498
Rp6499
(dp6500
g6
Nsg8
S'OTHER'
p6501
sg10
Nsg17
NsbsS'gallery'
p6502
g0
(g1
g2
Ntp6503
Rp6504
(dp6505
g6
Nsg8
S'LOCATION'
p6506
sg10
Nsg17
NsbsS'ishmael'
p6507
g0
(g1
g2
Ntp6508
Rp6509
(dp6510
g6
Nsg8
S'PERSON'
p6511
sg10
Nsg17
NsbsS'stereo'
p6512
g0
(g1
g2
Ntp6513
Rp6514
(dp6515
g6
Nsg8
S'ORGANIZATION'
p6516
sg10
Nsg17
NsbsS'url'
p6517
g0
(g1
g2
Ntp6518
Rp6519
(dp6520
g6
Nsg8
S'NUMBER'
p6521
sg10
Nsg17
NsbsS'disease'
p6522
g0
(g1
g2
Ntp6523
Rp6524
(dp6525
g6
Nsg8
S'OTHER'
p6526
sg10
Nsg17
NsbsS'charley'
p6527
g0
(g1
g2
Ntp6528
Rp6529
(dp6530
g6
Nsg8
S'OTHER'
p6531
sg10
Nsg17
NsbsS'chances'
p6532
g0
(g1
g2
Ntp6533
Rp6534
(dp6535
g6
Nsg8
S'PERCENT'
p6536
sg10
Nsg17
NsbsS'charles'
p6537
g0
(g1
g2
Ntp6538
Rp6539
(dp6540
g6
Nsg8
S'DATE'
p6541
sg10
Nsg17
NsbsS'hamlet'
p6542
g0
(g1
g2
Ntp6543
Rp6544
(dp6545
g6
Nsg8
S'PERSON'
p6546
sg10
Nsg17
NsbsS'soldiers'
p6547
g0
(g1
g2
Ntp6548
Rp6549
(dp6550
g6
Nsg8
S'NUMBER'
p6551
sg10
Nsg17
NsbsS'fear'
p6552
g0
(g1
g2
Ntp6553
Rp6554
(dp6555
g6
Nsg8
S'OTHER'
p6556
sg10
Nsg17
NsbsS'debate'
p6557
g0
(g1
g2
Ntp6558
Rp6559
(dp6560
g6
Nsg8
S'PERSON'
p6561
sg10
Nsg17
NsbsS'winner'
p6562
g0
(g1
g2
Ntp6563
Rp6564
(dp6565
g6
Nsg8
S'OTHER'
p6566
sg10
Nsg17
NsbsS'molecules'
p6567
g0
(g1
g2
Ntp6568
Rp6569
(dp6570
g6
Nsg8
S'OTHER'
p6571
sg10
Nsg17
NsbsS'fuel'
p6572
g0
(g1
g2
Ntp6573
Rp6574
(dp6575
g6
Nsg8
S'OTHER'
p6576
sg10
Nsg17
NsbsS'piano'
p6577
g0
(g1
g2
Ntp6578
Rp6579
(dp6580
g6
Nsg8
S'ORGANIZATION'
p6581
sg10
Nsg17
NsbsS'thousands'
p6582
g0
(g1
g2
Ntp6583
Rp6584
(dp6585
g6
Nsg8
S'NUMBER'
p6586
sg10
Nsg17
NsbsS'bear'
p6587
g0
(g1
g2
Ntp6588
Rp6589
(dp6590
g6
Nsg8
S'OTHER'
p6591
sg10
Nsg17
NsbsS'words'
p6592
g0
(g1
g2
Ntp6593
Rp6594
(dp6595
g6
Nsg8
S'OTHER'
p6596
sg10
Nsg17
NsbsS'abby'
p6597
g0
(g1
g2
Ntp6598
Rp6599
(dp6600
g6
Nsg8
S'PERSON'
p6601
sg10
Nsg17
NsbsS'organ'
p6602
g0
(g1
g2
Ntp6603
Rp6604
(dp6605
g6
Nsg8
S'OTHER'
p6606
sg10
Nsg17
NsbsS'humans'
p6607
g0
(g1
g2
Ntp6608
Rp6609
(dp6610
g6
Nsg8
S'OTHER'
p6611
sg10
Nsg17
NsbsS'computer'
p6612
g0
(g1
g2
Ntp6613
Rp6614
(dp6615
g6
Nsg8
S'OTHER'
p6616
sg10
Nsg17
NsbsS'aeul'
p6617
g0
(g1
g2
Ntp6618
Rp6619
(dp6620
g6
Nsg8
S'DATE'
p6621
sg10
Nsg17
NsbsS'amtrak'
p6622
g0
(g1
g2
Ntp6623
Rp6624
(dp6625
g6
Nsg8
S'DATE'
p6626
sg10
Nsg17
NsbsS'laureate'
p6627
g0
(g1
g2
Ntp6628
Rp6629
(dp6630
g6
Nsg8
S'PERSON'
p6631
sg10
Nsg17
NsbsS'genius'
p6632
g0
(g1
g2
Ntp6633
Rp6634
(dp6635
g6
Nsg8
S'PERSON'
p6636
sg10
Nsg17
NsbsS'state'
p6637
g0
(g1
g2
Ntp6638
Rp6639
(dp6640
g6
Nsg8
S'LOCATION'
p6641
sg10
Nsg17
NsbsS'limit'
p6642
g0
(g1
g2
Ntp6643
Rp6644
(dp6645
g6
Nsg8
S'OTHER'
p6646
sg10
Nsg17
NsbsS'gemstone'
p6647
g0
(g1
g2
Ntp6648
Rp6649
(dp6650
g6
Nsg8
S'OTHER'
p6651
sg10
Nsg17
NsbsS'explosive'
p6652
g0
(g1
g2
Ntp6653
Rp6654
(dp6655
g6
Nsg8
S'OTHER'
p6656
sg10
Nsg17
NsbsS'astroturf'
p6657
g0
(g1
g2
Ntp6658
Rp6659
(dp6660
g6
Nsg8
S'PERSON'
p6661
sg10
Nsg17
NsbsS't.v.'
p6662
g0
(g1
g2
Ntp6663
Rp6664
(dp6665
g6
Nsg8
S'OTHER'
p6666
sg10
Nsg17
NsbsS'monarchy'
p6667
g0
(g1
g2
Ntp6668
Rp6669
(dp6670
g6
Nsg8
S'LOCATION'
p6671
sg10
Nsg17
NsbsS'agencies'
p6672
g0
(g1
g2
Ntp6673
Rp6674
(dp6675
g6
Nsg8
S'ORGANIZATION'
p6676
sg10
Nsg17
NsbsS'job'
p6677
g0
(g1
g2
Ntp6678
Rp6679
(dp6680
g6
Nsg8
S'PERSON'
p6681
sg10
Nsg17
NsbsS'police'
p6682
g0
(g1
g2
Ntp6683
Rp6684
(dp6685
g6
Nsg8
S'ORGANIZATION'
p6686
sg10
Nsg17
NsbsS'career'
p6687
g0
(g1
g2
Ntp6688
Rp6689
(dp6690
g6
Nsg8
S'PERSON'
p6691
sg10
Nsg17
NsbsS'challengers'
p6692
g0
(g1
g2
Ntp6693
Rp6694
(dp6695
g6
Nsg8
S'ORGANIZATION'
p6696
sg10
Nsg17
NsbsS'drug'
p6697
g0
(g1
g2
Ntp6698
Rp6699
(dp6700
g6
Nsg8
S'OTHER'
p6701
sg10
Nsg17
NsbsS'rams'
p6702
g0
(g1
g2
Ntp6703
Rp6704
(dp6705
g6
Nsg8
S'PERSON'
p6706
sg10
Nsg17
NsbsS'kinds'
p6707
g0
(g1
g2
Ntp6708
Rp6709
(dp6710
g6
Nsg8
S'OTHER'
p6711
sg10
Nsg17
NsbsS'heliologist'
p6712
g0
(g1
g2
Ntp6713
Rp6714
(dp6715
g6
Nsg8
S'OTHER'
p6716
sg10
Nsg17
NsbsS'statues'
p6717
g0
(g1
g2
Ntp6718
Rp6719
(dp6720
g6
Nsg8
S'OTHER'
p6721
sg10
Nsg17
NsbsS'opposition'
p6722
g0
(g1
g2
Ntp6723
Rp6724
(dp6725
g6
Nsg8
S'PERSON'
p6726
sg10
Nsg17
NsbsS'wall'
p6727
g0
(g1
g2
Ntp6728
Rp6729
(dp6730
g6
Nsg8
S'LOCATION'
p6731
sg10
Nsg17
NsbsS'lyricist'
p6732
g0
(g1
g2
Ntp6733
Rp6734
(dp6735
g6
Nsg8
S'PERSON'
p6736
sg10
Nsg17
NsbsS'table'
p6737
g0
(g1
g2
Ntp6738
Rp6739
(dp6740
g6
Nsg8
S'PERSON'
p6741
sg10
Nsg17
NsbsS'poem'
p6742
g0
(g1
g2
Ntp6743
Rp6744
(dp6745
g6
Nsg8
S'PERSON'
p6746
sg10
Nsg17
NsbsS'hawkins'
p6747
g0
(g1
g2
Ntp6748
Rp6749
(dp6750
g6
Nsg8
S'OTHER'
p6751
sg10
Nsg17
NsbsS'swimmer'
p6752
g0
(g1
g2
Ntp6753
Rp6754
(dp6755
g6
Nsg8
S'PERSON'
p6756
sg10
Nsg17
NsbsS'trademark'
p6757
g0
(g1
g2
Ntp6758
Rp6759
(dp6760
g6
Nsg8
S'OTHER'
p6761
sg10
Nsg17
NsbsS'newscast'
p6762
g0
(g1
g2
Ntp6763
Rp6764
(dp6765
g6
Nsg8
S'PERSON'
p6766
sg10
Nsg17
NsbsS'treat'
p6767
g0
(g1
g2
Ntp6768
Rp6769
(dp6770
g6
Nsg8
S'OTHER'
p6771
sg10
Nsg17
NsbsS'hawking'
p6772
g0
(g1
g2
Ntp6773
Rp6774
(dp6775
g6
Nsg8
S'PERSON'
p6776
sg10
Nsg17
NsbsS'tv'
p6777
g0
(g1
g2
Ntp6778
Rp6779
(dp6780
g6
Nsg8
S'OTHER'
p6781
sg10
Nsg17
NsbsS'poet'
p6782
g0
(g1
g2
Ntp6783
Rp6784
(dp6785
g6
Nsg8
S'PERSON'
p6786
sg10
Nsg17
NsbsS'nicolet'
p6787
g0
(g1
g2
Ntp6788
Rp6789
(dp6790
g6
Nsg8
S'PERSON'
p6791
sg10
Nsg17
NsbsS'louisiana'
p6792
g0
(g1
g2
Ntp6793
Rp6794
(dp6795
g6
Nsg8
S'LOCATION'
p6796
sg10
Nsg17
NsbsS'naples'
p6797
g0
(g1
g2
Ntp6798
Rp6799
(dp6800
g6
Nsg8
S'PERSON'
p6801
sg10
Nsg17
NsbsS'cop'
p6802
g0
(g1
g2
Ntp6803
Rp6804
(dp6805
g6
Nsg8
S'PERSON'
p6806
sg10
Nsg17
NsbsS'ridder'
p6807
g0
(g1
g2
Ntp6808
Rp6809
(dp6810
g6
Nsg8
S'OTHER'
p6811
sg10
Nsg17
NsbsS'angles'
p6812
g0
(g1
g2
Ntp6813
Rp6814
(dp6815
g6
Nsg8
S'NUMBER'
p6816
sg10
Nsg17
NsbsS'ravens'
p6817
g0
(g1
g2
Ntp6818
Rp6819
(dp6820
g6
Nsg8
S'OTHER'
p6821
sg10
Nsg17
NsbsS'painter'
p6822
g0
(g1
g2
Ntp6823
Rp6824
(dp6825
g6
Nsg8
S'PERSON'
p6826
sg10
Nsg17
NsbsS'quotation'
p6827
g0
(g1
g2
Ntp6828
Rp6829
(dp6830
g6
Nsg8
S'PERSON'
p6831
sg10
Nsg17
NsbsS'novel'
p6832
g0
(g1
g2
Ntp6833
Rp6834
(dp6835
g6
Nsg8
S'OTHER'
p6836
sg10
Nsg17
NsbsS'value'
p6837
g0
(g1
g2
Ntp6838
Rp6839
(dp6840
g6
Nsg8
S'OTHER'
p6841
sg10
Nsg17
NsbsS'stalin'
p6842
g0
(g1
g2
Ntp6843
Rp6844
(dp6845
g6
Nsg8
S'PERSON'
p6846
sg10
Nsg17
NsbsS'santos-dumont'
p6847
g0
(g1
g2
Ntp6848
Rp6849
(dp6850
g6
Nsg8
S'PERSON'
p6851
sg10
Nsg17
NsbsS'thrillers'
p6852
g0
(g1
g2
Ntp6853
Rp6854
(dp6855
g6
Nsg8
S'PERSON'
p6856
sg10
Nsg17
NsbsS'layer'
p6857
g0
(g1
g2
Ntp6858
Rp6859
(dp6860
g6
Nsg8
S'OTHER'
p6861
sg10
Nsg17
NsbsS'resident'
p6862
g0
(g1
g2
Ntp6863
Rp6864
(dp6865
g6
Nsg8
S'PERSON'
p6866
sg10
Nsg17
NsbsS'site'
p6867
g0
(g1
g2
Ntp6868
Rp6869
(dp6870
g6
Nsg8
S'LOCATION'
p6871
sg10
Nsg17
NsbsS'partner'
p6872
g0
(g1
g2
Ntp6873
Rp6874
(dp6875
g6
Nsg8
S'PERSON'
p6876
sg10
Nsg17
NsbsS'terrorist'
p6877
g0
(g1
g2
Ntp6878
Rp6879
(dp6880
g6
Nsg8
S'PERSON'
p6881
sg10
Nsg17
NsbsS'wordsworth'
p6882
g0
(g1
g2
Ntp6883
Rp6884
(dp6885
g6
Nsg8
S'PERSON'
p6886
sg10
Nsg17
NsbsS'administration'
p6887
g0
(g1
g2
Ntp6888
Rp6889
(dp6890
g6
Nsg8
S'ORGANIZATION'
p6891
sg10
Nsg17
NsbsS'member'
p6892
g0
(g1
g2
Ntp6893
Rp6894
(dp6895
g6
Nsg8
S'PERSON'
p6896
sg10
Nsg17
NsbsS'strange'
p6897
g0
(g1
g2
Ntp6898
Rp6899
(dp6900
g6
Nsg8
S'PERSON'
p6901
sg10
Nsg17
NsbsS'speaker'
p6902
g0
(g1
g2
Ntp6903
Rp6904
(dp6905
g6
Nsg8
S'PERSON'
p6906
sg10
Nsg17
NsbsS'auto'
p6907
g0
(g1
g2
Ntp6908
Rp6909
(dp6910
g6
Nsg8
S'OTHER'
p6911
sg10
Nsg17
NsbsS'party'
p6912
g0
(g1
g2
Ntp6913
Rp6914
(dp6915
g6
Nsg8
S'ORGANIZATION'
p6916
sg10
Nsg17
NsbsS'powell'
p6917
g0
(g1
g2
Ntp6918
Rp6919
(dp6920
g6
Nsg8
S'PERSON'
p6921
sg10
Nsg17
NsbsS'parthenon'
p6922
g0
(g1
g2
Ntp6923
Rp6924
(dp6925
g6
Nsg8
S'DATE'
p6926
sg10
Nsg17
NsbsS'ball'
p6927
g0
(g1
g2
Ntp6928
Rp6929
(dp6930
g6
Nsg8
S'OTHER'
p6931
sg10
Nsg17
NsbsS'appearances'
p6932
g0
(g1
g2
Ntp6933
Rp6934
(dp6935
g6
Nsg8
S'PERSON'
p6936
sg10
Nsg17
NsbsS'drink'
p6937
g0
(g1
g2
Ntp6938
Rp6939
(dp6940
g6
Nsg8
S'OTHER'
p6941
sg10
Nsg17
NsbsS'whale'
p6942
g0
(g1
g2
Ntp6943
Rp6944
(dp6945
g6
Nsg8
S'OTHER'
p6946
sg10
Nsg17
NsbsS'identity'
p6947
g0
(g1
g2
Ntp6948
Rp6949
(dp6950
g6
Nsg8
S'PERSON'
p6951
sg10
Nsg17
NsbsS'center'
p6952
g0
(g1
g2
Ntp6953
Rp6954
(dp6955
g6
Nsg8
S'LOCATION'
p6956
sg10
Nsg17
NsbsS'i'
p6957
g0
(g1
g2
Ntp6958
Rp6959
(dp6960
g6
Nsg8
S'LOCATION'
p6961
sg10
Nsg17
NsbsS'weapon'
p6962
g0
(g1
g2
Ntp6963
Rp6964
(dp6965
g6
Nsg8
S'OTHER'
p6966
sg10
Nsg17
NsbsS'variety'
p6967
g0
(g1
g2
Ntp6968
Rp6969
(dp6970
g6
Nsg8
S'OTHER'
p6971
sg10
Nsg17
NsbsS'antonio'
p6972
g0
(g1
g2
Ntp6973
Rp6974
(dp6975
g6
Nsg8
S'PERSON'
p6976
sg10
Nsg17
NsbsS'corporation'
p6977
g0
(g1
g2
Ntp6978
Rp6979
(dp6980
g6
Nsg8
S'ORGANIZATION'
p6981
sg10
Nsg17
NsbsS'deltiologist'
p6982
g0
(g1
g2
Ntp6983
Rp6984
(dp6985
g6
Nsg8
S'OTHER'
p6986
sg10
Nsg17
NsbsS'khrushchev'
p6987
g0
(g1
g2
Ntp6988
Rp6989
(dp6990
g6
Nsg8
S'PERSON'
p6991
sg10
Nsg17
NsbsS'dose'
p6992
g0
(g1
g2
Ntp6993
Rp6994
(dp6995
g6
Nsg8
S'PERSON'
p6996
sg10
Nsg17
NsbsS'batteries'
p6997
g0
(g1
g2
Ntp6998
Rp6999
(dp7000
g6
Nsg8
S'PERSON'
p7001
sg10
Nsg17
NsbsS'seats'
p7002
g0
(g1
g2
Ntp7003
Rp7004
(dp7005
g6
Nsg8
S'NUMBER'
p7006
sg10
Nsg17
NsbsS'web'
p7007
g0
(g1
g2
Ntp7008
Rp7009
(dp7010
g6
Nsg8
S'NUMBER'
p7011
sg10
Nsg17
NsbsS'ads'
p7012
g0
(g1
g2
Ntp7013
Rp7014
(dp7015
g6
Nsg8
S'OTHER'
p7016
sg10
Nsg17
NsbsS'field'
p7017
g0
(g1
g2
Ntp7018
Rp7019
(dp7020
g6
Nsg8
S'OTHER'
p7021
sg10
Nsg17
NsbsS'bell'
p7022
g0
(g1
g2
Ntp7023
Rp7024
(dp7025
g6
Nsg8
S'LOCATION'
p7026
sg10
Nsg17
NsbsS'lake'
p7027
g0
(g1
g2
Ntp7028
Rp7029
(dp7030
g6
Nsg8
S'LOCATION'
p7031
sg10
Nsg17
NsbsS'citizen'
p7032
g0
(g1
g2
Ntp7033
Rp7034
(dp7035
g6
Nsg8
S'PERSON'
p7036
sg10
Nsg17
NsbsS'scoundrel'
p7037
g0
(g1
g2
Ntp7038
Rp7039
(dp7040
g6
Nsg8
S'PERSON'
p7041
sg10
Nsg17
NsbsS'earthquakes'
p7042
g0
(g1
g2
Ntp7043
Rp7044
(dp7045
g6
Nsg8
S'OTHER'
p7046
sg10
Nsg17
NsbsS'gestapo'
p7047
g0
(g1
g2
Ntp7048
Rp7049
(dp7050
g6
Nsg8
S'PERSON'
p7051
sg10
Nsg17
NsbsS'myth'
p7052
g0
(g1
g2
Ntp7053
Rp7054
(dp7055
g6
Nsg8
S'LOCATION'
p7056
sg10
Nsg17
NsbsS'government'
p7057
g0
(g1
g2
Ntp7058
Rp7059
(dp7060
g6
Nsg8
S'ORGANIZATION'
p7061
sg10
Nsg17
NsbsS'press'
p7062
g0
(g1
g2
Ntp7063
Rp7064
(dp7065
g6
Nsg8
S'PERSON'
p7066
sg10
Nsg17
NsbsS'knox'
p7067
g0
(g1
g2
Ntp7068
Rp7069
(dp7070
g6
Nsg8
S'OTHER'
p7071
sg10
Nsg17
NsbsS'lincoln'
p7072
g0
(g1
g2
Ntp7073
Rp7074
(dp7075
g6
Nsg8
S'LOCATION'
p7076
sg10
Nsg17
NsbsS'sizes'
p7077
g0
(g1
g2
Ntp7078
Rp7079
(dp7080
g6
Nsg8
S'NUMBER'
p7081
sg10
Nsg17
NsbsS'chairs'
p7082
g0
(g1
g2
Ntp7083
Rp7084
(dp7085
g6
Nsg8
S'NUMBER'
p7086
sg10
Nsg17
NsbsS'clown'
p7087
g0
(g1
g2
Ntp7088
Rp7089
(dp7090
g6
Nsg8
S'PERSON'
p7091
sg10
Nsg17
NsbsS'journalist'
p7092
g0
(g1
g2
Ntp7093
Rp7094
(dp7095
g6
Nsg8
S'PERSON'
p7096
sg10
Nsg17
NsbsS'james'
p7097
g0
(g1
g2
Ntp7098
Rp7099
(dp7100
g6
Nsg8
S'NUMBER'
p7101
sg10
Nsg17
NsbsS'page'
p7102
g0
(g1
g2
Ntp7103
Rp7104
(dp7105
g6
Nsg8
S'LOCATION'
p7106
sg10
Nsg17
NsbsS'x-man'
p7107
g0
(g1
g2
Ntp7108
Rp7109
(dp7110
g6
Nsg8
S'PERSON'
p7111
sg10
Nsg17
NsbsS'wonders'
p7112
g0
(g1
g2
Ntp7113
Rp7114
(dp7115
g6
Nsg8
S'OTHER'
p7116
sg10
Nsg17
NsbsS'amendment'
p7117
g0
(g1
g2
Ntp7118
Rp7119
(dp7120
g6
Nsg8
S'DATE'
p7121
sg10
Nsg17
NsbsS'habitat'
p7122
g0
(g1
g2
Ntp7123
Rp7124
(dp7125
g6
Nsg8
S'LOCATION'
p7126
sg10
Nsg17
NsbsS'elevators'
p7127
g0
(g1
g2
Ntp7128
Rp7129
(dp7130
g6
Nsg8
S'NUMBER'
p7131
sg10
Nsg17
NsbsS'library'
p7132
g0
(g1
g2
Ntp7133
Rp7134
(dp7135
g6
Nsg8
S'LOCATION'
p7136
sg10
Nsg17
NsbsS'hair'
p7137
g0
(g1
g2
Ntp7138
Rp7139
(dp7140
g6
Nsg8
S'OTHER'
p7141
sg10
Nsg17
NsbsS'export'
p7142
g0
(g1
g2
Ntp7143
Rp7144
(dp7145
g6
Nsg8
S'OTHER'
p7146
sg10
Nsg17
NsbsS'archenemy'
p7147
g0
(g1
g2
Ntp7148
Rp7149
(dp7150
g6
Nsg8
S'PERSON'
p7151
sg10
Nsg17
NsbsS'home'
p7152
g0
(g1
g2
Ntp7153
Rp7154
(dp7155
g6
Nsg8
S'LOCATION'
p7156
sg10
Nsg17
NsbsS'novelist'
p7157
g0
(g1
g2
Ntp7158
Rp7159
(dp7160
g6
Nsg8
S'PERSON'
p7161
sg10
Nsg17
NsbsS'competitor'
p7162
g0
(g1
g2
Ntp7163
Rp7164
(dp7165
g6
Nsg8
S'ORGANIZATION'
p7166
sg10
Nsg17
NsbsS'arch-enemy'
p7167
g0
(g1
g2
Ntp7168
Rp7169
(dp7170
g6
Nsg8
S'PERSON'
p7171
sg10
Nsg17
NsbsS'hurricane'
p7172
g0
(g1
g2
Ntp7173
Rp7174
(dp7175
g6
Nsg8
S'OTHER'
p7176
sg10
Nsg17
NsbsS'mines'
p7177
g0
(g1
g2
Ntp7178
Rp7179
(dp7180
g6
Nsg8
S'NUMBER'
p7181
sg10
Nsg17
NsbsS'leader'
p7182
g0
(g1
g2
Ntp7183
Rp7184
(dp7185
g6
Nsg8
S'PERSON'
p7186
sg10
Nsg17
NsbsS'journal'
p7187
g0
(g1
g2
Ntp7188
Rp7189
(dp7190
g6
Nsg8
S'DATE'
p7191
sg10
Nsg17
NsbsS'rock'
p7192
g0
(g1
g2
Ntp7193
Rp7194
(dp7195
g6
Nsg8
S'LOCATION'
p7196
sg10
Nsg17
NsbsS'host'
p7197
g0
(g1
g2
Ntp7198
Rp7199
(dp7200
g6
Nsg8
S'PERSON'
p7201
sg10
Nsg17
NsbsS'counties'
p7202
g0
(g1
g2
Ntp7203
Rp7204
(dp7205
g6
Nsg8
S'NUMBER'
p7206
sg10
Nsg17
NsbsS'science'
p7207
g0
(g1
g2
Ntp7208
Rp7209
(dp7210
g6
Nsg8
S'OTHER'
p7211
sg10
Nsg17
NsbsS'pike'
p7212
g0
(g1
g2
Ntp7213
Rp7214
(dp7215
g6
Nsg8
S'PERSON'
p7216
sg10
Nsg17
NsbsS'sister'
p7217
g0
(g1
g2
Ntp7218
Rp7219
(dp7220
g6
Nsg8
S'PERSON'
p7221
sg10
Nsg17
NsbsS'gandhi'
p7222
g0
(g1
g2
Ntp7223
Rp7224
(dp7225
g6
Nsg8
S'PERSON'
p7226
sg10
Nsg17
NsbsS'camels'
p7227
g0
(g1
g2
Ntp7228
Rp7229
(dp7230
g6
Nsg8
S'OTHER'
p7231
sg10
Nsg17
NsbsS'emperor'
p7232
g0
(g1
g2
Ntp7233
Rp7234
(dp7235
g6
Nsg8
S'PERSON'
p7236
sg10
Nsg17
NsbsS'swimming'
p7237
g0
(g1
g2
Ntp7238
Rp7239
(dp7240
g6
Nsg8
S'DATE'
p7241
sg10
Nsg17
NsbsS'burma'
p7242
g0
(g1
g2
Ntp7243
Rp7244
(dp7245
g6
Nsg8
S'LOCATION'
p7246
sg10
Nsg17
NsbsS'letters'
p7247
g0
(g1
g2
Ntp7248
Rp7249
(dp7250
g6
Nsg8
S'OTHER'
p7251
sg10
Nsg17
NsbsS'washington'
p7252
g0
(g1
g2
Ntp7253
Rp7254
(dp7255
g6
Nsg8
S'LOCATION'
p7256
sg10
Nsg17
NsbsS'weather'
p7257
g0
(g1
g2
Ntp7258
Rp7259
(dp7260
g6
Nsg8
S'PERSON'
p7261
sg10
Nsg17
NsbsS'brush'
p7262
g0
(g1
g2
Ntp7263
Rp7264
(dp7265
g6
Nsg8
S'OTHER'
p7266
sg10
Nsg17
NsbsS'yankee'
p7267
g0
(g1
g2
Ntp7268
Rp7269
(dp7270
g6
Nsg8
S'PERSON'
p7271
sg10
Nsg17
NsbsS'vegetables'
p7272
g0
(g1
g2
Ntp7273
Rp7274
(dp7275
g6
Nsg8
S'OTHER'
p7276
sg10
Nsg17
NsbsS'elephants'
p7277
g0
(g1
g2
Ntp7278
Rp7279
(dp7280
g6
Nsg8
S'NUMBER'
p7281
sg10
Nsg17
NsbsS'synthesizer'
p7282
g0
(g1
g2
Ntp7283
Rp7284
(dp7285
g6
Nsg8
S'PERSON'
p7286
sg10
Nsg17
NsbsS'airline'
p7287
g0
(g1
g2
Ntp7288
Rp7289
(dp7290
g6
Nsg8
S'ORGANIZATION'
p7291
sg10
Nsg17
NsbsS'bros.'
p7292
g0
(g1
g2
Ntp7293
Rp7294
(dp7295
g6
Nsg8
S'OTHER'
p7296
sg10
Nsg17
NsbsS'prewett'
p7297
g0
(g1
g2
Ntp7298
Rp7299
(dp7300
g6
Nsg8
S'PERSON'
p7301
sg10
Nsg17
NsbsS'brand'
p7302
g0
(g1
g2
Ntp7303
Rp7304
(dp7305
g6
Nsg8
S'OTHER'
p7306
sg10
Nsg17
NsbsS'sequel'
p7307
g0
(g1
g2
Ntp7308
Rp7309
(dp7310
g6
Nsg8
S'OTHER'
p7311
sg10
Nsg17
NsbsS'ear'
p7312
g0
(g1
g2
Ntp7313
Rp7314
(dp7315
g6
Nsg8
S'OTHER'
p7316
sg10
Nsg17
NsbsS'count'
p7317
g0
(g1
g2
Ntp7318
Rp7319
(dp7320
g6
Nsg8
S'PERSON'
p7321
sg10
Nsg17
NsbsS'breweries'
p7322
g0
(g1
g2
Ntp7323
Rp7324
(dp7325
g6
Nsg8
S'LOCATION'
p7326
sg10
Nsg17
NsbsS'birthdate'
p7327
g0
(g1
g2
Ntp7328
Rp7329
(dp7330
g6
Nsg8
S'DATE'
p7331
sg10
Nsg17
NsbsS'record'
p7332
g0
(g1
g2
Ntp7333
Rp7334
(dp7335
g6
Nsg8
S'PERSON'
p7336
sg10
Nsg17
NsbsS'frequency'
p7337
g0
(g1
g2
Ntp7338
Rp7339
(dp7340
g6
Nsg8
S'NUMBER'
p7341
sg10
Nsg17
NsbsS'stories'
p7342
g0
(g1
g2
Ntp7343
Rp7344
(dp7345
g6
Nsg8
S'OTHER'
p7346
sg10
Nsg17
NsbsS'piece'
p7347
g0
(g1
g2
Ntp7348
Rp7349
(dp7350
g6
Nsg8
S'OTHER'
p7351
sg10
Nsg17
NsbsS'minutes'
p7352
g0
(g1
g2
Ntp7353
Rp7354
(dp7355
g6
Nsg8
S'NUMBER'
p7356
sg10
Nsg17
NsbsS'menstruation'
p7357
g0
(g1
g2
Ntp7358
Rp7359
(dp7360
g6
Nsg8
S'DATE'
p7361
sg10
Nsg17
NsbsS'gulliver'
p7362
g0
(g1
g2
Ntp7363
Rp7364
(dp7365
g6
Nsg8
S'LOCATION'
p7366
sg10
Nsg17
NsbsS'condiment'
p7367
g0
(g1
g2
Ntp7368
Rp7369
(dp7370
g6
Nsg8
S'OTHER'
p7371
sg10
Nsg17
NsbsS'rubble'
p7372
g0
(g1
g2
Ntp7373
Rp7374
(dp7375
g6
Nsg8
S'LOCATION'
p7376
sg10
Nsg17
NsbsS'fiddlers'
p7377
g0
(g1
g2
Ntp7378
Rp7379
(dp7380
g6
Nsg8
S'NUMBER'
p7381
sg10
Nsg17
NsbsS'ingredients'
p7382
g0
(g1
g2
Ntp7383
Rp7384
(dp7385
g6
Nsg8
S'OTHER'
p7386
sg10
Nsg17
NsbsS'marley'
p7387
g0
(g1
g2
Ntp7388
Rp7389
(dp7390
g6
Nsg8
S'OTHER'
p7391
sg10
Nsg17
NsbsS'guitarist'
p7392
g0
(g1
g2
Ntp7393
Rp7394
(dp7395
g6
Nsg8
S'PERSON'
p7396
sg10
Nsg17
NsbsS'percent'
p7397
g0
(g1
g2
Ntp7398
Rp7399
(dp7400
g6
Nsg8
S'PERCENT'
p7401
sg10
Nsg17
NsbsS'book'
p7402
g0
(g1
g2
Ntp7403
Rp7404
(dp7405
g6
Nsg8
S'OTHER'
p7406
sg10
Nsg17
NsbsS'boob'
p7407
g0
(g1
g2
Ntp7408
Rp7409
(dp7410
g6
Nsg8
S'OTHER'
p7411
sg10
Nsg17
NsbsS'star'
p7412
g0
(g1
g2
Ntp7413
Rp7414
(dp7415
g6
Nsg8
S'PERSON'
p7416
sg10
Nsg17
NsbsS'chance'
p7417
g0
(g1
g2
Ntp7418
Rp7419
(dp7420
g6
Nsg8
S'PERCENT'
p7421
sg10
Nsg17
NsbsS'golfer'
p7422
g0
(g1
g2
Ntp7423
Rp7424
(dp7425
g6
Nsg8
S'PERSON'
p7426
sg10
Nsg17
NsbsS'ghost'
p7427
g0
(g1
g2
Ntp7428
Rp7429
(dp7430
g6
Nsg8
S'PERSON'
p7431
sg10
Nsg17
NsbsS'flatfish'
p7432
g0
(g1
g2
Ntp7433
Rp7434
(dp7435
g6
Nsg8
S'OTHER'
p7436
sg10
Nsg17
NsbsS'craft'
p7437
g0
(g1
g2
Ntp7438
Rp7439
(dp7440
g6
Nsg8
S'OTHER'
p7441
sg10
Nsg17
Nsbssg17
Nsb.