ccopy_reg
_reconstructor
p0
(cnltk.classify.maxent
MaxentClassifier
p1
c__builtin__
object
p2
Ntp3
Rp4
(dp5
S'_logarithmic'
p6
I01
sS'_encoding'
p7
g0
(cnltk.classify.maxent
BinaryMaxentFeatureEncoding
p8
g2
Ntp9
Rp10
(dp11
S'_length'
p12
I1703
sS'_labels'
p13
(lp14
S'MONEY'
p15
aS'PERCENT'
p16
aS'NUMBER'
p17
aS'PERSON'
p18
aS'OTHER'
p19
aS'LOCATION'
p20
aS'TIME'
p21
aS'DATE'
p22
aS'ORGANIZATION'
p23
asS'_unseen'
p24
NsS'_alwayson'
p25
NsS'_mapping'
p26
(dp27
(S'head'
p28
S'rockefeller'
p29
S'DATE'
p30
tp31
I1154
s(g28
S'guitar'
p32
S'PERSON'
p33
tp34
I1610
s(g28
S'cardinal'
p35
S'PERSON'
p36
tp37
I1002
s(g28
S'percentage'
p38
S'PERCENT'
p39
tp40
I921
s(g28
S'delicacy'
p41
S'OTHER'
p42
tp43
I1539
s(g28
S'franklin'
p44
S'OTHER'
p45
tp46
I1111
s(g28
S'superbowl'
p47
S'PERSON'
p48
tp49
I1000
s(g28
S'vegetable'
p50
S'OTHER'
p51
tp52
I972
s(g28
S'quantity'
p53
S'NUMBER'
p54
tp55
I227
s(g28
S'continents'
p56
S'NUMBER'
p57
tp58
I1332
s(g28
S'stewart'
p59
S'OTHER'
p60
tp61
I513
s(g28
S'oven'
p62
S'OTHER'
p63
tp64
I703
s(g28
S'make-up'
p65
S'PERSON'
p66
tp67
I61
s(g28
S'sonnets'
p68
S'NUMBER'
p69
tp70
I204
s(g28
S'islands'
p71
S'LOCATION'
p72
tp73
I821
s(g28
S'percent'
p74
S'PERCENT'
p75
tp76
I381
s(g28
S'normans'
p77
S'PERSON'
p78
tp79
I1531
s(g28
S'events'
p80
S'NUMBER'
p81
tp82
I1511
s(g28
S'chapel'
p83
S'PERSON'
p84
tp85
I425
s(g28
S'dipsomaniac'
p86
S'OTHER'
p87
tp88
I656
s(g28
S'bible'
p89
S'DATE'
p90
tp91
I1609
s(g28
S'shipwreck'
p92
S'OTHER'
p93
tp94
I698
s(g28
S'words'
p95
S'OTHER'
p96
tp97
I823
s(g28
S'ranger'
p98
S'PERSON'
p99
tp100
I280
s(g28
S'population'
p101
S'NUMBER'
p102
tp103
I185
s(g28
S'rating'
p104
S'PERCENT'
p105
tp106
I536
s(g28
S'conservationist'
p107
S'PERSON'
p108
tp109
I885
s(g28
S'wall'
p110
S'LOCATION'
p111
tp112
I1504
s(g28
S'fastener'
p113
S'OTHER'
p114
tp115
I306
s(g28
S'times'
p116
S'NUMBER'
p117
tp118
I380
s(g28
S'name'
p119
S'PERSON'
p120
tp121
I112
s(g28
S'college'
p122
S'ORGANIZATION'
p123
tp124
I298
s(g28
S'pub'
p125
S'PERSON'
p126
tp127
I819
s(g28
S'dot'
p128
S'OTHER'
p129
tp130
I830
s(g28
S'superstar'
p131
S'PERSON'
p132
tp133
I282
s(g28
S'abby'
p134
S'PERSON'
p135
tp136
I515
s(g28
S'cohan'
p137
S'PERSON'
p138
tp139
I1617
s(g28
S'lack'
p140
S'OTHER'
p141
tp142
I1153
s(g28
S'picts'
p143
S'PERSON'
p144
tp145
I696
s(g28
S'awards'
p146
S'DATE'
p147
tp148
I1562
s(g28
S'runs'
p149
S'NUMBER'
p150
tp151
I449
s(g28
S'bar'
p152
S'OTHER'
p153
tp154
I691
s(g28
S'breweries'
p155
S'LOCATION'
p156
tp157
I570
s(g28
S'bowl'
p158
S'OTHER'
p159
tp160
I820
s(g28
S'collector'
p161
S'PERSON'
p162
tp163
I1584
s(g28
S'nun'
p164
S'PERSON'
p165
tp166
I46
s(g28
S'gulliver'
p167
S'LOCATION'
p168
tp169
I1576
s(g28
S'monk'
p170
S'PERSON'
p171
tp172
I1071
s(g28
S'beard'
p173
S'PERSON'
p174
tp175
I611
s(g28
S'helens'
p176
S'DATE'
p177
tp178
I1288
s(g28
S'house'
p179
S'DATE'
p180
tp181
I1563
s(g28
S'crop'
p182
S'OTHER'
p183
tp184
I223
s(g28
S''
p185
S'MONEY'
p186
tp187
I82
s(g28
S'enemies'
p188
S'ORGANIZATION'
p189
tp190
I674
s(g28
S'killer'
p191
S'OTHER'
p192
tp193
I584
s(g28
S'hunter'
p194
S'PERSON'
p195
tp196
I5
s(g28
S'referees'
p197
S'NUMBER'
p198
tp199
I264
s(g28
S'carson'
p200
S'PERSON'
p201
tp202
I927
s(g28
S'flower'
p203
S'OTHER'
p204
tp205
I535
s(g28
S'rate'
p206
S'MONEY'
p207
tp208
I684
s(g28
S'angelica'
p209
S'LOCATION'
p210
tp211
I767
s(g28
S'pyramid-builders'
p212
S'OTHER'
p213
tp214
I1462
s(g28
S'message'
p215
S'PERSON'
p216
tp217
I1045
s(g28
S'bill'
p218
S'PERSON'
p219
tp220
I1700
s(g28
S'chain'
p221
S'PERSON'
p222
tp223
I768
s(g28
S'brothers'
p224
S'PERSON'
p225
tp226
I54
s(g28
S'spermologer'
p227
S'OTHER'
p228
tp229
I20
s(g28
S'emperor'
p230
S'PERSON'
p231
tp232
I333
s(g28
S'odds'
p233
S'PERCENT'
p234
tp235
I650
s(g28
S'birthstone'
p236
S'OTHER'
p237
tp238
I410
s(g28
S'electricity'
p239
S'PERSON'
p240
tp241
I93
s(g28
S'show'
p242
S'DATE'
p243
tp244
I1570
s(g28
S'bra'
p245
S'PERSON'
p246
tp247
I1473
s(g28
S'studio'
p248
S'PERSON'
p249
tp250
I1580
s(g28
S'hospital'
p251
S'LOCATION'
p252
tp253
I694
s(g28
S'code'
p254
S'NUMBER'
p255
tp256
I1430
s(g28
S'mountains'
p257
S'NUMBER'
p258
tp259
I1606
s(g28
S'money'
p260
S'OTHER'
p261
tp262
I945
s(g28
S'eidologist'
p263
S'OTHER'
p264
tp265
I1615
s(g28
S'ocean'
p266
S'OTHER'
p267
tp268
I942
s(g28
S'synthesizer'
p269
S'PERSON'
p270
tp271
I1404
s(g28
S'cup'
p272
S'PERSON'
p273
tp274
I1387
s(g28
S'ravens'
p275
S'OTHER'
p276
tp277
I652
s(g28
S'trials'
p278
S'OTHER'
p279
tp280
I689
s(g28
S'huston'
p281
S'OTHER'
p282
tp283
I876
s(g28
S'super'
p284
S'ORGANIZATION'
p285
tp286
I1620
s(g28
S'may'
p287
S'OTHER'
p288
tp289
I1126
s(g28
S'heliologist'
p290
S'OTHER'
p291
tp292
I1064
s(g28
S'game'
p293
S'PERSON'
p294
tp295
I293
s(g28
S'president'
p296
S'ORGANIZATION'
p297
tp298
I360
s(g28
S'swampy'
p299
S'PERSON'
p300
tp301
I697
s(g28
S'actors'
p302
S'NUMBER'
p303
tp304
I1409
s(g28
S'novelist'
p305
S'PERSON'
p306
tp307
I786
s(g28
S'humans'
p308
S'DATE'
p309
tp310
I740
s(g28
S'story'
p311
S'PERSON'
p312
tp313
I1334
s(g28
S'translation'
p314
S'OTHER'
p315
tp316
I675
s(g28
S'penalty'
p317
S'OTHER'
p318
tp319
I632
s(g28
S'constitution'
p320
S'OTHER'
p321
tp322
I386
s(g28
S'composer'
p323
S'PERSON'
p324
tp325
I135
s(g28
S'age'
p326
S'TIME'
p327
tp328
I509
s(g28
S'achievements'
p329
S'OTHER'
p330
tp331
I905
s(g28
S'commune'
p332
S'PERSON'
p333
tp334
I90
s(g28
S'arch-enemy'
p335
S'PERSON'
p336
tp337
I35
s(g28
S'adult'
p338
S'OTHER'
p339
tp340
I778
s(g28
S'brand'
p341
S'NUMBER'
p342
tp343
I690
s(g28
S'mammal'
p344
S'OTHER'
p345
tp346
I617
s(g28
S'pike'
p347
S'PERSON'
p348
tp349
I1692
s(g28
S'phone'
p350
S'NUMBER'
p351
tp352
I541
s(g28
S'building'
p353
S'LOCATION'
p354
tp355
I343
s(g28
S'ingredients'
p356
S'OTHER'
p357
tp358
I1618
s(g28
S'organ'
p359
S'OTHER'
p360
tp361
I1457
s(g28
S'states'
p362
S'NUMBER'
p363
tp364
I668
s(g28
S'cancer'
p365
S'OTHER'
p366
tp367
I552
s(g28
S'hughes'
p368
S'PERSON'
p369
tp370
I904
s(g28
S'months'
p371
S'NUMBER'
p372
tp373
I103
s(g28
S'battery'
p374
S'PERSON'
p375
tp376
I1405
s(g28
S'israel'
p377
S'DATE'
p378
tp379
I566
s(g28
S'book'
p380
S'PERSON'
p381
tp382
I907
s(g28
S'renaud'
p383
S'PERSON'
p384
tp385
I1486
s(g28
S'sculpture'
p386
S'OTHER'
p387
tp388
I897
s(g28
S'piece'
p389
S'OTHER'
p390
tp391
I191
s(g28
S'hands'
p392
S'NUMBER'
p393
tp394
I417
s(g28
S'king'
p395
S'PERSON'
p396
tp397
I560
s(g28
S'writers'
p398
S'PERSON'
p399
tp400
I1449
s(g28
S'camcorders'
p401
S'DATE'
p402
tp403
I678
s(g28
S'way'
p404
S'LOCATION'
p405
tp406
I350
s(g28
S'frequency'
p407
S'NUMBER'
p408
tp409
I796
s(g28
S'nickname'
p410
S'PERSON'
p411
tp412
I362
s(g28
S'fraction'
p413
g16
tp414
I284
s(g28
S'gogh'
p415
S'PERSON'
p416
tp417
I777
s(g28
S'conjugations'
p418
S'OTHER'
p419
tp420
I993
s(g28
S'tours'
p421
S'LOCATION'
p422
tp423
I1626
s(g28
S'roger'
p424
S'OTHER'
p425
tp426
I813
s(g28
S'schools'
p427
S'NUMBER'
p428
tp429
I1146
s(g28
S'razor'
p430
S'OTHER'
p431
tp432
I359
s(g28
S'letters'
p433
S'OTHER'
p434
tp435
I1569
s(g28
S'score'
p436
S'NUMBER'
p437
tp438
I829
s(g28
S'volleyball'
p439
S'PERSON'
p440
tp441
I1530
s(g28
S'pride'
p442
S'PERSON'
p443
tp444
I7
s(g28
S'fuel'
p445
S'OTHER'
p446
tp447
I508
s(g28
S'fire'
p448
S'DATE'
p449
tp450
I432
s(g28
S'aldrin'
p451
S'LOCATION'
p452
tp453
I382
s(g28
S'nostradamus'
p454
S'DATE'
p455
tp456
I966
s(g28
S'city'
p457
S'LOCATION'
p458
tp459
I41
s(g28
S'race'
p460
S'LOCATION'
p461
tp462
I1034
s(g28
S'cage'
p463
S'PERSON'
p464
tp465
I1501
s(g28
S'four'
p466
S'OTHER'
p467
tp468
I1269
s(g28
S'elements'
p469
S'NUMBER'
p470
tp471
I1131
s(g28
S'buxom'
p472
S'PERSON'
p473
tp474
I1027
s(g28
S'card'
p475
S'ORGANIZATION'
p476
tp477
I1022
s(g28
S'animal'
p478
S'OTHER'
p479
tp480
I161
s(g28
S'manufacturer'
p481
S'ORGANIZATION'
p482
tp483
I493
s(g28
S'santos-dumont'
p484
S'PERSON'
p485
tp486
I1216
s(g28
g185
S'LOCATION'
p487
tp488
I43
s(g28
S'tools'
p489
S'OTHER'
p490
tp491
I911
s(g28
S'sport'
p492
S'OTHER'
p493
tp494
I334
s(g28
S'holidays'
p495
S'OTHER'
p496
tp497
I467
s(g28
S'loop'
p498
S'LOCATION'
p499
tp500
I38
s(g28
S'holiday'
p501
S'OTHER'
p502
tp503
I209
s(g28
S'fountain'
p504
S'PERSON'
p505
tp506
I1370
s(g28
S'acreage'
p507
S'NUMBER'
p508
tp509
I133
s(g28
S'corporation'
p510
S'ORGANIZATION'
p511
tp512
I1625
s(g28
S'glasgow'
p513
S'LOCATION'
p514
tp515
I1557
s(g28
S'control'
p516
S'DATE'
p517
tp518
I1694
s(g28
S'newscast'
p519
S'PERSON'
p520
tp521
I379
s(g28
S'eyes'
p522
S'PERSON'
p523
tp524
I847
s(g28
S'rams'
p525
S'PERSON'
p526
tp527
I973
s(g28
S'information'
p528
S'LOCATION'
p529
tp530
I1582
s(g28
S'citizen'
p531
S'PERSON'
p532
tp533
I561
s(g28
S'lap'
p534
S'PERSON'
p535
tp536
I947
s(g28
S'name'
p537
S'ORGANIZATION'
p538
tp539
I322
s(g28
S'cats'
p540
S'OTHER'
p541
tp542
I585
s(g28
S'tastes'
p543
S'OTHER'
p544
tp545
I1248
s(g28
S'playboy'
p546
S'OTHER'
p547
tp548
I1367
s(g28
S'rock'
p549
S'LOCATION'
p550
tp551
I1663
s(g28
S'helium'
p552
S'LOCATION'
p553
tp554
I747
s(g28
S'explorer'
p555
S'PERSON'
p556
tp557
I123
s(g28
S'treatment'
p558
S'OTHER'
p559
tp560
I537
s(g28
S'adventures'
p561
S'LOCATION'
p562
tp563
I26
s(g28
S'jfk'
p564
S'PERSON'
p565
tp566
I1641
s(g28
S'forest'
p567
S'LOCATION'
p568
tp569
I423
s(g28
S'canals'
p570
S'LOCATION'
p571
tp572
I1339
s(g28
S'group'
p573
S'ORGANIZATION'
p574
tp575
I478
s(g28
S'drake'
p576
S'OTHER'
p577
tp578
I27
s(g28
S'county'
p579
S'LOCATION'
p580
tp581
I372
s(g28
S'telescope'
p582
S'LOCATION'
p583
tp584
I1232
s(g28
S'store'
p585
S'ORGANIZATION'
p586
tp587
I854
s(g28
S'drinks'
p588
S'LOCATION'
p589
tp590
I1417
s(g28
S'battle'
p591
S'OTHER'
p592
tp593
I604
s(g28
S'maneuver'
p594
S'OTHER'
p595
tp596
I1660
s(g28
S'blackhawks'
p597
S'LOCATION'
p598
tp599
I858
s(g28
S'form'
p600
S'OTHER'
p601
tp602
I557
s(g28
S'golf'
p603
S'OTHER'
p604
tp605
I1623
s(g28
S'men'
p606
S'OTHER'
p607
tp608
I887
s(g28
S'types'
p609
S'OTHER'
p610
tp611
I229
s(g28
S'tourists'
p612
S'LOCATION'
p613
tp614
I304
s(g28
S'wonders'
p615
S'OTHER'
p616
tp617
I776
s(g28
S'names'
p618
S'OTHER'
p619
tp620
I489
s(g28
S'circle'
p621
S'OTHER'
p622
tp623
I451
s(g28
S'sex'
p624
S'OTHER'
p625
tp626
I712
s(g28
S'stingers'
p627
S'OTHER'
p628
tp629
I1264
s(g28
S'word'
p630
S'OTHER'
p631
tp632
I254
s(g28
S'romania'
p633
S'LOCATION'
p634
tp635
I988
s(g28
S'architect'
p636
S'PERSON'
p637
tp638
I669
s(g28
S'strips'
p639
S'OTHER'
p640
tp641
I1436
s(g28
S'u.s.'
p642
S'LOCATION'
p643
tp644
I785
s(g28
S'pitchers'
p645
S'NUMBER'
p646
tp647
I1143
s(g28
S'paine'
p648
S'OTHER'
p649
tp650
I1156
s(g28
S'company'
p651
S'PERSON'
p652
tp653
I1157
s(g28
S'opposition'
p654
S'PERSON'
p655
tp656
I1132
s(g28
S'waterways'
p657
S'LOCATION'
p658
tp659
I1281
s(g28
S'dwarfs'
p660
S'PERSON'
p661
tp662
I1095
s(g28
S'meat'
p663
S'OTHER'
p664
tp665
I1414
s(g28
S'dimensions'
p666
S'NUMBER'
p667
tp668
I671
s(g28
S'business'
p669
S'ORGANIZATION'
p670
tp671
I568
s(g28
S'mascot'
p672
S'OTHER'
p673
tp674
I149
s(g28
S'speech'
p675
S'PERSON'
p676
tp677
I1308
s(g28
S'stereo'
p678
S'ORGANIZATION'
p679
tp680
I269
s(g28
S'street'
p681
S'LOCATION'
p682
tp683
I487
s(g28
S'lawnmower'
p684
S'PERSON'
p685
tp686
I1190
s(g28
S'fatman'
p687
S'PERSON'
p688
tp689
I1505
s(g28
S'amendment'
p690
S'DATE'
p691
tp692
I233
s(g28
S'bacall'
p693
S'PERSON'
p694
tp695
I705
s(g28
S'airline'
p696
S'ORGANIZATION'
p697
tp698
I1475
s(g28
S'member'
p699
S'OTHER'
p700
tp701
I1305
s(g28
S'ancients'
p702
S'OTHER'
p703
tp704
I1338
s(g28
S'pendulum'
p705
S'PERSON'
p706
tp707
I1234
s(g28
S'caesar'
p708
S'PERSON'
p709
tp710
I189
s(g28
S'constellation'
p711
S'LOCATION'
p712
tp713
I763
s(g28
S'jones'
p714
S'PERSON'
p715
tp716
I590
s(g28
S'cocktail'
p717
S'OTHER'
p718
tp719
I30
s(g28
S'principles'
p720
S'OTHER'
p721
tp722
I1311
s(g28
S'palace'
p723
S'LOCATION'
p724
tp725
I952
s(g28
S'tree'
p726
S'OTHER'
p727
tp728
I1556
s(g28
S'line'
p729
S'ORGANIZATION'
p730
tp731
I1593
s(g28
S'habits'
p732
S'OTHER'
p733
tp734
I1535
s(g28
S'square'
p735
S'LOCATION'
p736
tp737
I1142
s(g28
S'gamble'
p738
S'LOCATION'
p739
tp740
I243
s(g28
S'approaches'
p741
S'OTHER'
p742
tp743
I198
s(g28
S'harper'
p744
S'OTHER'
p745
tp746
I1258
s(g28
S'caps'
p747
S'MONEY'
p748
tp749
I1602
s(g28
S'drink'
p750
S'OTHER'
p751
tp752
I310
s(g28
S'cities'
p753
S'LOCATION'
p754
tp755
I370
s(g28
S'radio'
p756
S'PERSON'
p757
tp758
I196
s(g28
S'golfer'
p759
S'PERSON'
p760
tp761
I190
s(g28
S'country'
p762
S'LOCATION'
p763
tp764
I33
s(g28
S'daughter'
p765
S'PERSON'
p766
tp767
I398
s(g28
S'head'
p768
S'NUMBER'
p769
tp770
I1497
s(g28
S'terrorist'
p771
S'PERSON'
p772
tp773
I661
s(g28
S'school'
p774
S'NUMBER'
p775
tp776
I1354
s(g28
S'artist'
p777
S'PERSON'
p778
tp779
I274
s(g28
S'wheel'
p780
S'OTHER'
p781
tp782
I717
s(g28
S'period'
p783
S'TIME'
p784
tp785
I1589
s(g28
S'web'
p786
S'NUMBER'
p787
tp788
I1016
s(g28
S'magic'
p789
S'OTHER'
p790
tp791
I287
s(g28
S'leos'
p792
S'NUMBER'
p793
tp794
I814
s(g28
S'stethoscope'
p795
S'PERSON'
p796
tp797
I1077
s(g28
S'source'
p798
S'OTHER'
p799
tp800
I1230
s(g28
S'countries'
p801
S'NUMBER'
p802
tp803
I141
s(g28
S'species'
p804
S'OTHER'
p805
tp806
I413
s(g28
S'lacan'
p807
S'PERSON'
p808
tp809
I543
s(g28
S'wives'
p810
S'NUMBER'
p811
tp812
I292
s(g28
S'horsemen'
p813
S'PERSON'
p814
tp815
I1595
s(g28
S'us'
p816
S'PERSON'
p817
tp818
I1224
s(g28
S'weir'
p819
S'PERSON'
p820
tp821
I1270
s(g28
S'monet'
p822
S'PERSON'
p823
tp824
I518
s(g28
S'bremer'
p825
S'PERSON'
p826
tp827
I1114
s(g28
S'grange'
p828
S'PERSON'
p829
tp830
I1211
s(g28
S'army'
p831
S'ORGANIZATION'
p832
tp833
I308
s(g28
S'comedian'
p834
S'PERSON'
p835
tp836
I558
s(g28
S'eels'
p837
S'LOCATION'
p838
tp839
I709
s(g28
S'answers'
p840
S'NUMBER'
p841
tp842
I1075
s(g28
S'crooner'
p843
S'PERSON'
p844
tp845
I75
s(g28
S'exercises'
p846
S'OTHER'
p847
tp848
I995
s(g28
S'members'
p849
S'NUMBER'
p850
tp851
I1081
s(g28
S'opener'
p852
S'PERSON'
p853
tp854
I1307
s(g28
S'molecules'
p855
S'OTHER'
p856
tp857
I682
s(g28
S'poe'
p858
S'LOCATION'
p859
tp860
I1018
s(g28
S'pitches'
p861
S'NUMBER'
p862
tp863
I1019
s(g28
S'substance'
p864
S'OTHER'
p865
tp866
I329
s(g28
S'year'
p867
S'DATE'
p868
tp869
I55
s(g28
S'alternate'
p870
S'OTHER'
p871
tp872
I1035
s(g28
S'equivalent'
p873
S'NUMBER'
p874
tp875
I197
s(g28
S'stops'
p876
S'LOCATION'
p877
tp878
I1259
s(g28
S'harrison'
p879
S'PERSON'
p880
tp881
I800
s(g28
S'flood'
p882
S'DATE'
p883
tp884
I1536
s(g28
S'damocles'
p885
S'PERSON'
p886
tp887
I1177
s(g28
S'gemstone'
p888
S'OTHER'
p889
tp890
I1172
s(g28
S'fish'
p891
S'OTHER'
p892
tp893
I801
s(g28
S'steamboat'
p894
S'PERSON'
p895
tp896
I1151
s(g28
S'clock'
p897
S'OTHER'
p898
tp899
I445
s(g28
S'disks'
p900
S'NUMBER'
p901
tp902
I743
s(g28
S'element'
p903
S'OTHER'
p904
tp905
I597
s(g28
S'letter'
p906
S'PERSON'
p907
tp908
I1460
s(g28
S'jews'
p909
g17
tp910
I11
s(g28
S'louisiana'
p911
S'LOCATION'
p912
tp913
I1204
s(g28
S'saliva'
p914
S'OTHER'
p915
tp916
I1349
s(g28
S'races'
p917
S'ORGANIZATION'
p918
tp919
I1105
s(g28
S'salt'
p920
S'NUMBER'
p921
tp922
I877
s(g28
S'palpatine'
p923
S'PERSON'
p924
tp925
I1245
s(g28
S'ali'
p926
S'PERSON'
p927
tp928
I795
s(g28
S'world'
p929
S'PERSON'
p930
tp931
I1158
s(g28
S'hit'
p932
S'OTHER'
p933
tp934
I851
s(g28
S'dummy'
p935
S'PERSON'
p936
tp937
I119
s(g28
S'nominee'
p938
S'PERSON'
p939
tp940
I385
s(g28
S'condiment'
p941
S'OTHER'
p942
tp943
I446
s(g28
S'line'
p944
S'OTHER'
p945
tp946
I1529
s(g28
S'films'
p947
S'NUMBER'
p948
tp949
I835
s(g28
S'nationality'
p950
S'LOCATION'
p951
tp952
I724
s(g28
S'plant'
p953
S'OTHER'
p954
tp955
I315
s(g28
S'signs'
p956
S'OTHER'
p957
tp958
I673
s(g28
S'type'
p959
S'OTHER'
p960
tp961
I1373
s(g28
S'competitor'
p962
S'ORGANIZATION'
p963
tp964
I194
s(g28
S'darius'
p965
S'PERSON'
p966
tp967
I610
s(g28
S'poem'
p968
S'PERSON'
p969
tp970
I1215
s(g28
S'mountains'
p971
S'LOCATION'
p972
tp973
I217
s(g28
g185
S'NUMBER'
p974
tp975
I28
s(g28
S'computer'
p976
S'OTHER'
p977
tp978
I605
s(g28
S'lyricist'
p979
S'PERSON'
p980
tp981
I1456
s(g28
S'handicraft'
p982
S'OTHER'
p983
tp984
I676
s(g28
S'rate'
p985
S'PERCENT'
p986
tp987
I564
s(g28
S'pedometer'
p988
S'OTHER'
p989
tp990
I1558
s(g28
S'procedure'
p991
S'OTHER'
p992
tp993
I1163
s(g28
S'prankster'
p994
S'PERSON'
p995
tp996
I1423
s(g28
S'administration'
p997
S'ORGANIZATION'
p998
tp999
I1101
s(g28
S'cartoon'
p1000
S'PERSON'
p1001
tp1002
I538
s(g28
S'tuberculosis'
p1003
S'LOCATION'
p1004
tp1005
I1189
s(g28
S'company'
p1006
S'OTHER'
p1007
tp1008
I1331
s(g28
S'seaport'
p1009
S'LOCATION'
p1010
tp1011
I295
s(g28
S'calories'
p1012
S'NUMBER'
p1013
tp1014
I186
s(g28
S'leader'
p1015
S'PERSON'
p1016
tp1017
I213
s(g28
S'gates'
p1018
S'LOCATION'
p1019
tp1020
I328
s(g28
S'scoundrel'
p1021
g18
tp1022
I2
s(g28
S'soldier'
p1023
S'PERSON'
p1024
tp1025
I761
s(g28
S'alloy'
p1026
S'OTHER'
p1027
tp1028
I1484
s(g28
S'olympics'
p1029
S'LOCATION'
p1030
tp1031
I1242
s(g28
S'side'
p1032
S'OTHER'
p1033
tp1034
I1117
s(g28
S'daniel'
p1035
S'LOCATION'
p1036
tp1037
I1590
s(g28
S'baseball'
p1038
S'ORGANIZATION'
p1039
tp1040
I565
s(g28
S'series'
p1041
S'PERSON'
p1042
tp1043
I720
s(g28
S'shorn'
p1044
S'DATE'
p1045
tp1046
I454
s(g28
S'hampshire'
p1047
S'LOCATION'
p1048
tp1049
I1028
s(g28
S'beanie'
p1050
S'NUMBER'
p1051
tp1052
I1470
s(g28
S'verses'
p1053
S'NUMBER'
p1054
tp1055
I1271
s(g28
S'cigarette'
p1056
S'ORGANIZATION'
p1057
tp1058
I923
s(g28
S'meter'
p1059
S'OTHER'
p1060
tp1061
I594
s(g28
S'master'
p1062
S'PERSON'
p1063
tp1064
I781
s(g28
S'guam'
p1065
S'LOCATION'
p1066
tp1067
I520
s(g28
S'mules'
p1068
S'PERSON'
p1069
tp1070
I1522
s(g28
S'first-aid'
p1071
S'OTHER'
p1072
tp1073
I925
s(g28
S'parthenon'
p1074
S'DATE'
p1075
tp1076
I1605
s(g28
S'statistics'
p1077
S'NUMBER'
p1078
tp1079
I731
s(g28
S'cards'
p1080
S'NUMBER'
p1081
tp1082
I1037
s(g28
S'bowl'
p1083
S'LOCATION'
p1084
tp1085
I99
s(g28
S'format'
p1086
S'OTHER'
p1087
tp1088
I490
s(g28
S'value'
p1089
S'OTHER'
p1090
tp1091
I811
s(g28
S'money'
p1092
g15
tp1093
I71
s(g28
S'prewett'
p1094
S'PERSON'
p1095
tp1096
I1450
s(g28
S'scotch'
p1097
S'OTHER'
p1098
tp1099
I1119
s(g28
S'antichrist'
p1100
S'PERSON'
p1101
tp1102
I1066
s(g28
S'thomas'
p1103
S'LOCATION'
p1104
tp1105
I1020
s(g28
S'university'
p1106
S'ORGANIZATION'
p1107
tp1108
I612
s(g28
S'wonderbra'
p1109
S'PERSON'
p1110
tp1111
I971
s(g28
S'river'
p1112
S'LOCATION'
p1113
tp1114
I434
s(g28
S'zero'
p1115
S'LOCATION'
p1116
tp1117
I1406
s(g28
S'mark'
p1118
S'OTHER'
p1119
tp1120
I664
s(g28
S'cupboard'
p1121
S'PERSON'
p1122
tp1123
I636
s(g28
S'hours'
p1124
S'NUMBER'
p1125
tp1126
I1123
s(g28
S'clay'
p1127
S'OTHER'
p1128
tp1129
I994
s(g28
S'general'
p1130
S'LOCATION'
p1131
tp1132
I1265
s(g28
S'weather'
p1133
S'PERSON'
p1134
tp1135
I1044
s(g28
S'astronauts'
p1136
S'NUMBER'
p1137
tp1138
I456
s(g28
S'snake'
p1139
S'OTHER'
p1140
tp1141
I69
s(g28
S'director'
p1142
S'PERSON'
p1143
tp1144
I1201
s(g28
S'commander'
p1145
S'PERSON'
p1146
tp1147
I1161
s(g28
S'flag'
p1148
S'OTHER'
p1149
tp1150
I1639
s(g28
S'chances'
p1151
S'PERCENT'
p1152
tp1153
I1056
s(g28
S'lake'
p1154
S'LOCATION'
p1155
tp1156
I651
s(g28
S'costume'
p1157
S'PERSON'
p1158
tp1159
I593
s(g28
S'tesla'
p1160
S'LOCATION'
p1161
tp1162
I1482
s(g28
S'ladybugs'
p1163
S'OTHER'
p1164
tp1165
I1344
s(g28
S'wine'
p1166
S'OTHER'
p1167
tp1168
I1312
s(g28
S'bridge'
p1169
S'LOCATION'
p1170
tp1171
I759
s(g28
S'radio'
p1172
S'ORGANIZATION'
p1173
tp1174
I641
s(g28
S'fingers'
p1175
S'NUMBER'
p1176
tp1177
I389
s(g28
S'bid'
p1178
S'OTHER'
p1179
tp1180
I1226
s(g28
S'policeman'
p1181
S'OTHER'
p1182
tp1183
I797
s(g28
S'christ'
p1184
S'DATE'
p1185
tp1186
I1416
s(g28
S'angels'
p1187
S'PERSON'
p1188
tp1189
I253
s(g28
S'chemical'
p1190
S'OTHER'
p1191
tp1192
I1092
s(g28
S'inches'
p1193
S'NUMBER'
p1194
tp1195
I1250
s(g28
S'pizza'
p1196
S'NUMBER'
p1197
tp1198
I645
s(g28
S'document'
p1199
S'OTHER'
p1200
tp1201
I716
s(g28
S'ingredient'
p1202
S'OTHER'
p1203
tp1204
I982
s(g28
S'hockey'
p1205
S'PERSON'
p1206
tp1207
I1495
s(g28
S'stations'
p1208
S'NUMBER'
p1209
tp1210
I863
s(g28
S'gallery'
p1211
S'LOCATION'
p1212
tp1213
I608
s(g28
S'gate'
p1214
S'LOCATION'
p1215
tp1216
I1089
s(g28
S'system'
p1217
S'OTHER'
p1218
tp1219
I128
s(g28
S'swimming'
p1220
S'DATE'
p1221
tp1222
I1636
s(g28
S'center'
p1223
S'LOCATION'
p1224
tp1225
I235
s(g28
S'ussr'
p1226
S'DATE'
p1227
tp1228
I1521
s(g28
S'tune'
p1229
S'OTHER'
p1230
tp1231
I1653
s(g28
S'thatcher'
p1232
S'DATE'
p1233
tp1234
I1356
s(g28
S'films'
p1235
g19
tp1236
I0
s(g28
S'languages'
p1237
S'NUMBER'
p1238
tp1239
I482
s(g28
S'birthplace'
p1240
S'LOCATION'
p1241
tp1242
I924
s(g28
S'deodorant'
p1243
S'PERSON'
p1244
tp1245
I1674
s(g28
S'class'
p1246
S'OTHER'
p1247
tp1248
I1402
s(g28
S'sign'
p1249
S'OTHER'
p1250
tp1251
I325
s(g28
S'painter'
p1252
S'PERSON'
p1253
tp1254
I47
s(g28
S'toy'
p1255
S'ORGANIZATION'
p1256
tp1257
I171
s(g28
S'naples'
p1258
S'PERSON'
p1259
tp1260
I1282
s(g28
S'typewriter'
p1261
S'DATE'
p1262
tp1263
I1328
s(g28
S'gland'
p1264
S'OTHER'
p1265
tp1266
I441
s(g28
S'nothing'
p1267
S'PERSON'
p1268
tp1269
I1541
s(g28
S'troops'
p1270
S'DATE'
p1271
tp1272
I475
s(g28
S'shostakovich'
p1273
S'OTHER'
p1274
tp1275
I327
s(g28
S'burma'
p1276
S'LOCATION'
p1277
tp1278
I1583
s(g28
S'record'
p1279
S'PERSON'
p1280
tp1281
I865
s(g28
S'domestica'
p1282
S'OTHER'
p1283
tp1284
I45
s(g28
S'mission'
p1285
S'OTHER'
p1286
tp1287
I964
s(g28
S'letter'
p1288
S'OTHER'
p1289
tp1290
I367
s(g28
S'syrup'
p1291
S'OTHER'
p1292
tp1293
I895
s(g28
S'toothbrush'
p1294
S'PERSON'
p1295
tp1296
I311
s(g28
S'rios'
p1297
S'LOCATION'
p1298
tp1299
I603
s(g28
S'fine'
p1300
S'MONEY'
p1301
tp1302
I1076
s(g28
S'respirator'
p1303
S'OTHER'
p1304
tp1305
I483
s(g28
S'grooves'
p1306
S'NUMBER'
p1307
tp1308
I915
s(g28
S'company'
p1309
S'ORGANIZATION'
p1310
tp1311
I126
s(g28
S'member'
p1312
S'PERSON'
p1313
tp1314
I165
s(g28
S'self-portrait'
p1315
S'PERSON'
p1316
tp1317
I935
s(g28
S'chair'
p1318
S'PERSON'
p1319
tp1320
I1286
s(g28
S'colonies'
p1321
S'NUMBER'
p1322
tp1323
I109
s(g28
S'admiral'
p1324
S'PERSON'
p1325
tp1326
I374
s(g28
S'liner'
p1327
S'OTHER'
p1328
tp1329
I403
s(g28
S'crocodile'
p1330
S'OTHER'
p1331
tp1332
I1068
s(g28
S'bros.'
p1333
S'OTHER'
p1334
tp1335
I1378
s(g28
S'marley'
p1336
S'OTHER'
p1337
tp1338
I238
s(g28
S'inventor'
p1339
S'PERSON'
p1340
tp1341
I16
s(g28
S'airman'
p1342
S'PERSON'
p1343
tp1344
I618
s(g28
S'trademark'
p1345
S'OTHER'
p1346
tp1347
I886
s(g28
S'night'
p1348
S'PERSON'
p1349
tp1350
I256
s(g28
S'digits'
p1351
S'NUMBER'
p1352
tp1353
I1274
s(g28
S'cover'
p1354
S'PERSON'
p1355
tp1356
I397
s(g28
S'tv'
p1357
S'PERSON'
p1358
tp1359
I270
s(g28
S'airwaves'
p1360
S'PERSON'
p1361
tp1362
I337
s(g28
S'ottawa'
p1363
S'PERSON'
p1364
tp1365
I516
s(g28
S'allen'
p1366
S'OTHER'
p1367
tp1368
I1361
s(g28
S'lucia'
p1369
S'LOCATION'
p1370
tp1371
I732
s(g28
S'hulk'
p1372
S'PERSON'
p1373
tp1374
I1238
s(g28
S'holmes'
p1375
S'PERSON'
p1376
tp1377
I1051
s(g28
S'cherubs'
p1378
S'NUMBER'
p1379
tp1380
I1695
s(g28
S'woman'
p1381
S'DATE'
p1382
tp1383
I1093
s(g28
S'hymn'
p1384
S'OTHER'
p1385
tp1386
I1543
s(g28
S'toilet'
p1387
S'DATE'
p1388
tp1389
I742
s(g28
S'athlete'
p1390
S'PERSON'
p1391
tp1392
I91
s(g28
S'waterfall'
p1393
S'LOCATION'
p1394
tp1395
I17
s(g28
S'knox'
p1396
S'OTHER'
p1397
tp1398
I1448
s(g28
S'fowl'
p1399
S'OTHER'
p1400
tp1401
I1
s(g28
S'snowman'
p1402
S'LOCATION'
p1403
tp1404
I312
s(g28
S'attractions'
p1405
S'LOCATION'
p1406
tp1407
I525
s(g28
S'orinoco'
p1408
S'LOCATION'
p1409
tp1410
I85
s(g28
S'rogers'
p1411
S'PERSON'
p1412
tp1413
I1099
s(g28
S'colleges'
p1414
S'ORGANIZATION'
p1415
tp1416
I1324
s(g28
S'salesman'
p1417
S'PERSON'
p1418
tp1419
I521
s(g28
S'genius'
p1420
S'PERSON'
p1421
tp1422
I1657
s(g28
S'fool'
p1423
S'PERSON'
p1424
tp1425
I1621
s(g28
S'sea'
p1426
S'LOCATION'
p1427
tp1428
I168
s(g28
S'trophy'
p1429
S'OTHER'
p1430
tp1431
I842
s(g28
S'megawatts'
p1432
S'NUMBER'
p1433
tp1434
I990
s(g28
S'resources'
p1435
S'LOCATION'
p1436
tp1437
I1118
s(g28
S'esquire'
p1438
S'OTHER'
p1439
tp1440
I1599
s(g28
S'dogs'
p1441
S'OTHER'
p1442
tp1443
I1506
s(g28
S'symptom'
p1444
S'OTHER'
p1445
tp1446
I700
s(g28
S'genesis'
p1447
S'OTHER'
p1448
tp1449
I1031
s(g28
S'trade'
p1450
S'OTHER'
p1451
tp1452
I1390
s(g28
S'price'
p1453
S'MONEY'
p1454
tp1455
I393
s(g28
S'mines'
p1456
S'NUMBER'
p1457
tp1458
I1452
s(g28
S'zeros'
p1459
S'NUMBER'
p1460
tp1461
I1187
s(g28
S'comic'
p1462
S'PERSON'
p1463
tp1464
I825
s(g28
S'ishmael'
p1465
S'PERSON'
p1466
tp1467
I881
s(g28
S'press'
p1468
S'PERSON'
p1469
tp1470
I633
s(g28
S'revolutionary'
p1471
S'PERSON'
p1472
tp1473
I1690
s(g28
S'faces'
p1474
S'OTHER'
p1475
tp1476
I1337
s(g28
S'athlete'
p1477
S'OTHER'
p1478
tp1479
I735
s(g28
S'napolean'
p1480
S'PERSON'
p1481
tp1482
I1523
s(g28
S'dew'
p1483
S'LOCATION'
p1484
tp1485
I1304
s(g28
S'habitat'
p1486
S'LOCATION'
p1487
tp1488
I1491
s(g28
S'brother'
p1489
S'PERSON'
p1490
tp1491
I505
s(g28
S'thing'
p1492
S'LOCATION'
p1493
tp1494
I1424
s(g28
S'today'
p1495
S'NUMBER'
p1496
tp1497
I1701
s(g28
S'banner'
p1498
S'DATE'
p1499
tp1500
I542
s(g28
S'prophet'
p1501
S'PERSON'
p1502
tp1503
I34
s(g28
S'structure'
p1504
S'OTHER'
p1505
tp1506
I1108
s(g28
S'listeners'
p1507
S'PERSON'
p1508
tp1509
I577
s(g28
S'term'
p1510
S'OTHER'
p1511
tp1512
I37
s(g28
S'acid'
p1513
S'NUMBER'
p1514
tp1515
I807
s(g28
S'amsterdam'
p1516
S'LOCATION'
p1517
tp1518
I774
s(g28
S'connection'
p1519
S'OTHER'
p1520
tp1521
I725
s(g28
S'companies'
p1522
S'OTHER'
p1523
tp1524
I498
s(g28
S'amount'
p1525
S'MONEY'
p1526
tp1527
I1568
s(g28
S'ads'
p1528
S'OTHER'
p1529
tp1530
I1579
s(g28
S'elevators'
p1531
S'NUMBER'
p1532
tp1533
I623
s(g28
S'celebrity'
p1534
S'PERSON'
p1535
tp1536
I1477
s(g28
S'names'
p1537
S'NUMBER'
p1538
tp1539
I1631
s(g28
S'fans'
p1540
S'PERSON'
p1541
tp1542
I1083
s(g28
S'daughters'
p1543
S'PERSON'
p1544
tp1545
I1086
s(g28
S'shots'
p1546
S'NUMBER'
p1547
tp1548
I330
s(g28
S'engine'
p1549
S'PERSON'
p1550
tp1551
I602
s(g28
S'bend'
p1552
S'LOCATION'
p1553
tp1554
I1688
s(g28
S'suit'
p1555
S'OTHER'
p1556
tp1557
I1545
s(g28
S'cnn'
p1558
S'DATE'
p1559
tp1560
I56
s(g28
S'sequel'
p1561
S'OTHER'
p1562
tp1563
I683
s(g28
S'bill'
p1564
S'DATE'
p1565
tp1566
I856
s(g28
S'titles'
p1567
S'OTHER'
p1568
tp1569
I1192
s(g28
S'chiropodist'
p1570
S'OTHER'
p1571
tp1572
I1088
s(g28
S'antonio'
p1573
S'PERSON'
p1574
tp1575
I638
s(g28
S'stardust'
p1576
S'PERSON'
p1577
tp1578
I214
s(g28
S'dwarf'
p1579
S'LOCATION'
p1580
tp1581
I219
s(g28
S'food'
p1582
S'OTHER'
p1583
tp1584
I1008
s(g28
S'singular'
p1585
S'OTHER'
p1586
tp1587
I1499
s(g28
S'maggio'
p1588
S'PERSON'
p1589
tp1590
I1564
s(g28
S'flavors'
p1591
S'NUMBER'
p1592
tp1593
I1476
s(g28
S'airplane'
p1594
S'ORGANIZATION'
p1595
tp1596
I1262
s(g28
S'castle'
p1597
S'LOCATION'
p1598
tp1599
I419
s(g28
S'george'
p1600
S'LOCATION'
p1601
tp1602
I1060
s(g28
S'explosive'
p1603
S'OTHER'
p1604
tp1605
I551
s(g28
S'winners'
p1606
S'PERSON'
p1607
tp1608
I1549
s(g28
S'inoco'
p1609
S'LOCATION'
p1610
tp1611
I861
s(g28
S'agency'
p1612
S'ORGANIZATION'
p1613
tp1614
I1494
s(g28
S'cars'
p1615
S'LOCATION'
p1616
tp1617
I782
s(g28
S'strokes'
p1618
S'OTHER'
p1619
tp1620
I1643
s(g28
S'record'
p1621
S'ORGANIZATION'
p1622
tp1623
I555
s(g28
S'team'
p1624
S'PERSON'
p1625
tp1626
I63
s(g28
S'singing'
p1627
S'PERSON'
p1628
tp1629
I479
s(g28
S'race'
p1630
S'OTHER'
p1631
tp1632
I1381
s(g28
S'government'
p1633
S'ORGANIZATION'
p1634
tp1635
I1273
s(g28
S'object'
p1636
S'OTHER'
p1637
tp1638
I1166
s(g28
S'nnp'
p1639
S'PERSON'
p1640
tp1641
I143
s(g28
S'force'
p1642
S'PERSON'
p1643
tp1644
I1046
s(g28
S'advertising'
p1645
S'DATE'
p1646
tp1647
I1666
s(g28
S'review'
p1648
S'OTHER'
p1649
tp1650
I491
s(g28
S'machine'
p1651
S'PERSON'
p1652
tp1653
I1213
s(g28
S'williams'
p1654
S'PERSON'
p1655
tp1656
I1218
s(g28
S'fish'
p1657
S'DATE'
p1658
tp1659
I621
s(g28
S'i'
p1660
S'LOCATION'
p1661
tp1662
I1600
s(g28
S'phobophobe'
p1663
S'OTHER'
p1664
tp1665
I1313
s(g28
S'latin'
p1666
S'OTHER'
p1667
tp1668
I169
s(g28
S'move'
p1669
S'OTHER'
p1670
tp1671
I1343
s(g28
S'squares'
p1672
S'NUMBER'
p1673
tp1674
I772
s(g28
S'sport'
p1675
S'LOCATION'
p1676
tp1677
I871
s(g28
S'performer'
p1678
S'PERSON'
p1679
tp1680
I805
s(g28
S'forces'
p1681
S'LOCATION'
p1682
tp1683
I1578
s(g28
S'new'
p1684
S'PERSON'
p1685
tp1686
I1411
s(g28
S'advertizing'
p1687
S'PERSON'
p1688
tp1689
I193
s(g28
S'newtons'
p1690
S'NUMBER'
p1691
tp1692
I1024
s(g28
S'rate'
p1693
S'NUMBER'
p1694
tp1695
I184
s(g28
S'sizes'
p1696
S'NUMBER'
p1697
tp1698
I1185
s(g28
S'aeul'
p1699
S'DATE'
p1700
tp1701
I760
s(g28
S'dna'
p1702
S'PERSON'
p1703
tp1704
I262
s(g28
S'volcano'
p1705
S'LOCATION'
p1706
tp1707
I1658
s(g28
S'strip'
p1708
S'OTHER'
p1709
tp1710
I977
s(g28
S'shores'
p1711
S'PERSON'
p1712
tp1713
I1140
s(g28
S'barroom'
p1714
S'PERSON'
p1715
tp1716
I447
s(g28
S'hamed'
p1717
S'PERSON'
p1718
tp1719
I1357
s(g28
S'engineer'
p1720
S'PERSON'
p1721
tp1722
I958
s(g28
S'businesses'
p1723
S'NUMBER'
p1724
tp1725
I1661
s(g28
S'livestock'
p1726
S'OTHER'
p1727
tp1728
I1021
s(g28
S'thor'
p1729
S'PERSON'
p1730
tp1731
I708
s(g28
S'zebras'
p1732
S'LOCATION'
p1733
tp1734
I1565
s(g28
S'cologne'
p1735
S'OTHER'
p1736
tp1737
I1503
s(g28
S'jockey'
p1738
S'PERSON'
p1739
tp1740
I908
s(g28
S'lindbergh'
p1741
S'DATE'
p1742
tp1743
I1697
s(g28
S'board'
p1744
S'OTHER'
p1745
tp1746
I111
s(g28
S'film'
p1747
S'OTHER'
p1748
tp1749
I79
s(g28
S'comedienne'
p1750
S'PERSON'
p1751
tp1752
I588
s(g28
S'regular'
p1753
S'OTHER'
p1754
tp1755
I719
s(g28
S'world'
p1756
S'LOCATION'
p1757
tp1758
I1309
s(g28
S'department'
p1759
S'PERSON'
p1760
tp1761
I711
s(g28
S'winner'
p1762
S'OTHER'
p1763
tp1764
I1553
s(g28
S'thousands'
p1765
S'NUMBER'
p1766
tp1767
I1559
s(g28
S'businesses'
p1768
S'ORGANIZATION'
p1769
tp1770
I1335
s(g28
S'roosevelt'
p1771
S'DATE'
p1772
tp1773
I1197
s(g28
S'singer'
p1774
S'PERSON'
p1775
tp1776
I474
s(g28
S'hotel'
p1777
S'LOCATION'
p1778
tp1779
I150
s(g28
S'glass'
p1780
S'OTHER'
p1781
tp1782
I787
s(g28
S'cone'
p1783
S'PERSON'
p1784
tp1785
I948
s(g28
S'phonograph'
p1786
S'PERSON'
p1787
tp1788
I406
s(g28
S'vocalist'
p1789
S'PERSON'
p1790
tp1791
I1043
s(g28
S'magazine'
p1792
S'OTHER'
p1793
tp1794
I591
s(g28
S'fischer'
p1795
S'PERSON'
p1796
tp1797
I546
s(g28
S'satellites'
p1798
S'OTHER'
p1799
tp1800
I1023
s(g28
S'rubble'
p1801
S'LOCATION'
p1802
tp1803
I66
s(g28
S'question'
p1804
S'PERSON'
p1805
tp1806
I968
s(g28
S'bands'
p1807
S'OTHER'
p1808
tp1809
I902
s(g28
S'award'
p1810
S'OTHER'
p1811
tp1812
I852
s(g28
S'oil'
p1813
S'OTHER'
p1814
tp1815
I1261
s(g28
S'champion'
p1816
S'PERSON'
p1817
tp1818
I1353
s(g28
S'money'
p1819
S'ORGANIZATION'
p1820
tp1821
I1182
s(g28
S'benson'
p1822
S'PERSON'
p1823
tp1824
I1345
s(g28
S'cobb'
p1825
S'LOCATION'
p1826
tp1827
I1260
s(g28
S'vowel'
p1828
S'OTHER'
p1829
tp1830
I15
s(g28
S'muhammad'
p1831
S'DATE'
p1832
tp1833
I297
s(g28
S'expedition'
p1834
S'OTHER'
p1835
tp1836
I843
s(g28
S'teaspoon'
p1837
S'NUMBER'
p1838
tp1839
I497
s(g28
S'ballad'
p1840
S'OTHER'
p1841
tp1842
I913
s(g28
S'boys'
p1843
S'NUMBER'
p1844
tp1845
I453
s(g28
S'materials'
p1846
S'OTHER'
p1847
tp1848
I1681
s(g28
S'song'
p1849
S'PERSON'
p1850
tp1851
I349
s(g28
S'auh2o'
p1852
S'PERSON'
p1853
tp1854
I1676
s(g28
S'luther'
p1855
S'OTHER'
p1856
tp1857
I1222
s(g28
S'suffering'
p1858
S'OTHER'
p1859
tp1860
I1646
s(g28
S'hass'
p1861
S'OTHER'
p1862
tp1863
I721
s(g28
S'software'
p1864
S'OTHER'
p1865
tp1866
I1464
s(g28
S'tax'
p1867
S'MONEY'
p1868
tp1869
I1207
s(g28
S'ambassador'
p1870
S'PERSON'
p1871
tp1872
I864
s(g28
S'tarantula'
p1873
S'OTHER'
p1874
tp1875
I687
s(g28
S'forces'
p1876
S'PERSON'
p1877
tp1878
I1127
s(g28
S'death'
p1879
S'PERSON'
p1880
tp1881
I1670
s(g28
S'compound'
p1882
S'OTHER'
p1883
tp1884
I1671
s(g28
S'waste'
p1885
S'NUMBER'
p1886
tp1887
I580
s(g28
S'commanders'
p1888
S'PERSON'
p1889
tp1890
I642
s(g28
S'feet'
p1891
S'PERSON'
p1892
tp1893
I324
s(g28
S'landmark'
p1894
S'LOCATION'
p1895
tp1896
I718
s(g28
S'deodorant'
p1897
S'OTHER'
p1898
tp1899
I574
s(g28
S'ghost'
p1900
S'PERSON'
p1901
tp1902
I1320
s(g28
S'earthworms'
p1903
S'NUMBER'
p1904
tp1905
I755
s(g28
S'frickett'
p1906
S'PERSON'
p1907
tp1908
I1278
s(g28
S'friend'
p1909
S'PERSON'
p1910
tp1911
I1217
s(g28
S'synonym'
p1912
S'OTHER'
p1913
tp1914
I1194
s(g28
S'jews'
p1915
S'OTHER'
p1916
tp1917
I1679
s(g28
S'trilogy'
p1918
S'OTHER'
p1919
tp1920
I457
s(g28
S'language'
p1921
S'OTHER'
p1922
tp1923
I261
s(g28
S'seal'
p1924
S'OTHER'
p1925
tp1926
I624
s(g28
S'art'
p1927
S'DATE'
p1928
tp1929
I1689
s(g28
S'melbourne'
p1930
S'LOCATION'
p1931
tp1932
I1097
s(g28
S'variety'
p1933
S'OTHER'
p1934
tp1935
I987
s(g28
S'hour'
p1936
S'LOCATION'
p1937
tp1938
I1082
s(g28
S'war'
p1939
S'DATE'
p1940
tp1941
I1395
s(g28
S'residence'
p1942
S'LOCATION'
p1943
tp1944
I1067
s(g28
S'surfing'
p1945
S'LOCATION'
p1946
tp1947
I1330
s(g28
S'service'
p1948
S'ORGANIZATION'
p1949
tp1950
I528
s(g28
S'hugo'
p1951
S'LOCATION'
p1952
tp1953
I1145
s(g28
S'url'
p1954
S'NUMBER'
p1955
tp1956
I707
s(g28
S'gate'
p1957
S'DATE'
p1958
tp1959
I435
s(g28
S'dates'
p1960
S'DATE'
p1961
tp1962
I1138
s(g28
S'rosanna-dana'
p1963
S'PERSON'
p1964
tp1965
I473
s(g28
S'casinos'
p1966
S'NUMBER'
p1967
tp1968
I433
s(g28
S'iq'
p1969
S'NUMBER'
p1970
tp1971
I177
s(g28
S'longitude'
p1972
S'NUMBER'
p1973
tp1974
I181
s(g28
S'charcter'
p1975
S'PERSON'
p1976
tp1977
I1418
s(g28
S'bends'
p1978
S'NUMBER'
p1979
tp1980
I92
s(g28
S'instrument'
p1981
S'OTHER'
p1982
tp1983
I148
s(g28
S'founders'
p1984
S'PERSON'
p1985
tp1986
I356
s(g28
S'jack'
p1987
S'OTHER'
p1988
tp1989
I1699
s(g28
S'camels'
p1990
S'OTHER'
p1991
tp1992
I693
s(g28
S'writer'
p1993
S'PERSON'
p1994
tp1995
I371
s(g28
S'lakes'
p1996
S'NUMBER'
p1997
tp1998
I1227
s(g28
S'observances'
p1999
S'OTHER'
p2000
tp2001
I1285
s(g28
S'pole'
p2002
S'OTHER'
p2003
tp2004
I1080
s(g28
S'weekend'
p2005
S'DATE'
p2006
tp2007
I1150
s(g28
S'flag'
p2008
S'LOCATION'
p2009
tp2010
I1175
s(g28
S'scales'
p2011
S'NUMBER'
p2012
tp2013
I1358
s(g28
S'doctor'
p2014
S'PERSON'
p2015
tp2016
I1152
s(g28
S'revolutions'
p2017
S'NUMBER'
p2018
tp2019
I137
s(g28
S'people'
p2020
S'LOCATION'
p2021
tp2022
I232
s(g28
S'senator'
p2023
S'PERSON'
p2024
tp2025
I1191
s(g28
S'hyenas'
p2026
S'LOCATION'
p2027
tp2028
I260
s(g28
S'cover'
p2029
S'OTHER'
p2030
tp2031
I941
s(g28
S'vehicles'
p2032
S'OTHER'
p2033
tp2034
I1319
s(g28
S'hair'
p2035
S'OTHER'
p2036
tp2037
I257
s(g28
S'host'
p2038
S'PERSON'
p2039
tp2040
I279
s(g28
S'device'
p2041
S'OTHER'
p2042
tp2043
I978
s(g28
S'isps'
p2044
S'ORGANIZATION'
p2045
tp2046
I31
s(g28
S'slaughter'
p2047
S'OTHER'
p2048
tp2049
I1144
s(g28
S'block'
p2050
S'LOCATION'
p2051
tp2052
I1134
s(g28
S'pope'
p2053
S'PERSON'
p2054
tp2055
I790
s(g28
S'distributions'
p2056
S'LOCATION'
p2057
tp2058
I361
s(g28
S'godfather'
p2059
S'PERSON'
p2060
tp2061
I1526
s(g28
S'world'
p2062
S'OTHER'
p2063
tp2064
I1228
s(g28
S'therapy'
p2065
S'OTHER'
p2066
tp2067
I115
s(g28
S'party'
p2068
S'ORGANIZATION'
p2069
tp2070
I421
s(g28
S'wrestling'
p2071
S'PERSON'
p2072
tp2073
I303
s(g28
S'metalious'
p2074
S'OTHER'
p2075
tp2076
I1104
s(g28
S'engine'
p2077
S'DATE'
p2078
tp2079
I934
s(g28
S'worth'
p2080
S'MONEY'
p2081
tp2082
I1302
s(g28
S'depression'
p2083
S'DATE'
p2084
tp2085
I394
s(g28
S'airport'
p2086
S'LOCATION'
p2087
tp2088
I458
s(g28
S'manager'
p2089
S'PERSON'
p2090
tp2091
I640
s(g28
S'games'
p2092
S'NUMBER'
p2093
tp2094
I600
s(g28
S'biographer'
p2095
S'PERSON'
p2096
tp2097
I1585
s(g28
S'rommel'
p2098
S'PERSON'
p2099
tp2100
I1469
s(g28
S'son'
p2101
S'PERSON'
p2102
tp2103
I916
s(g28
S'bureau'
p2104
S'ORGANIZATION'
p2105
tp2106
I1047
s(g28
S'descendents'
p2107
S'OTHER'
p2108
tp2109
I738
s(g28
S'tale'
p2110
S'OTHER'
p2111
tp2112
I932
s(g28
S'disaster'
p2113
S'OTHER'
p2114
tp2115
I9
s(g28
S'career'
p2116
S'PERSON'
p2117
tp2118
I872
s(g28
S'week'
p2119
S'OTHER'
p2120
tp2121
I802
s(g28
S'putty'
p2122
S'PERSON'
p2123
tp2124
I404
s(g28
S'collection'
p2125
S'PERSON'
p2126
tp2127
I355
s(g28
S'girl'
p2128
S'PERSON'
p2129
tp2130
I1656
s(g28
S'jolson'
p2131
S'PERSON'
p2132
tp2133
I1241
s(g28
S'picasso'
p2134
S'PERSON'
p2135
tp2136
I1571
s(g28
S'syllables'
p2137
S'NUMBER'
p2138
tp2139
I510
s(g28
S'resurrectionist'
p2140
S'OTHER'
p2141
tp2142
I1236
s(g28
S'marvel'
p2143
S'LOCATION'
p2144
tp2145
I1691
s(g28
S'dots'
p2146
S'NUMBER'
p2147
tp2148
I313
s(g28
S'dam'
p2149
S'LOCATION'
p2150
tp2151
I1275
s(g28
S'musical'
p2152
S'OTHER'
p2153
tp2154
I86
s(g28
S'location'
p2155
S'LOCATION'
p2156
tp2157
I635
s(g28
S'railroad'
p2158
S'DATE'
p2159
tp2160
I1655
s(g28
S'peacocks'
p2161
S'OTHER'
p2162
tp2163
I909
s(g28
S'income'
p2164
S'MONEY'
p2165
tp2166
I506
s(g28
S'cyberspace'
p2167
S'PERSON'
p2168
tp2169
I414
s(g28
S'hurricane'
p2170
S'OTHER'
p2171
tp2172
I1446
s(g28
S'rockefeller'
p2173
S'PERSON'
p2174
tp2175
I1121
s(g28
S'product'
p2176
S'OTHER'
p2177
tp2178
I195
s(g28
S'muppets'
p2179
S'PERSON'
p2180
tp2181
I1219
s(g28
S'montenegro'
p2182
S'LOCATION'
p2183
tp2184
I1555
s(g28
S'point'
p2185
S'LOCATION'
p2186
tp2187
I65
s(g28
S'showers'
p2188
S'LOCATION'
p2189
tp2190
I1377
s(g28
S'band'
p2191
S'ORGANIZATION'
p2192
tp2193
I750
s(g28
S'garment'
p2194
S'OTHER'
p2195
tp2196
I1029
s(g28
S'window'
p2197
S'DATE'
p2198
tp2199
I1634
s(g28
S'children'
p2200
S'NUMBER'
p2201
tp2202
I875
s(g28
S'deserts'
p2203
S'LOCATION'
p2204
tp2205
I1384
s(g28
S'record'
p2206
S'NUMBER'
p2207
tp2208
I1422
s(g28
S'occupation'
p2209
S'PERSON'
p2210
tp2211
I113
s(g28
S'americans'
p2212
S'NUMBER'
p2213
tp2214
I375
s(g28
S'ybarra'
p2215
S'PERSON'
p2216
tp2217
I396
s(g28
S'oil'
p2218
S'ORGANIZATION'
p2219
tp2220
I276
s(g28
S'vietnamese'
p2221
S'NUMBER'
p2222
tp2223
I409
s(g28
S'player'
p2224
S'PERSON'
p2225
tp2226
I1074
s(g28
S'i'
p2227
S'DATE'
p2228
tp2229
I152
s(g28
S'outcome'
p2230
S'OTHER'
p2231
tp2232
I1415
s(g28
S'vaccine'
p2233
S'PERSON'
p2234
tp2235
I601
s(g28
S'boss'
p2236
S'PERSON'
p2237
tp2238
I1662
s(g28
S'strange'
p2239
S'PERSON'
p2240
tp2241
I1322
s(g28
S'theory'
p2242
S'PERSON'
p2243
tp2244
I1292
s(g28
S'basophobic'
p2245
S'OTHER'
p2246
tp2247
I302
s(g28
S'concerts'
p2248
S'OTHER'
p2249
tp2250
I1180
s(g28
S'ports'
p2251
S'LOCATION'
p2252
tp2253
I1284
s(g28
S'electricity'
p2254
S'NUMBER'
p2255
tp2256
I504
s(g28
S'field'
p2257
S'OTHER'
p2258
tp2259
I248
s(g28
S'tennis'
p2260
S'OTHER'
p2261
tp2262
I1012
s(g28
S'gaming'
p2263
S'OTHER'
p2264
tp2265
I207
s(g28
S'nephew'
p2266
S'PERSON'
p2267
tp2268
I1277
s(g28
S'bay'
p2269
S'LOCATION'
p2270
tp2271
I1073
s(g28
S'seine'
p2272
S'LOCATION'
p2273
tp2274
I1684
s(g28
S'dose'
p2275
S'PERSON'
p2276
tp2277
I1094
s(g28
S'translations'
p2278
S'OTHER'
p2279
tp2280
I1519
s(g28
S'milligrams'
p2281
S'NUMBER'
p2282
tp2283
I766
s(g28
S'magoo'
p2284
S'OTHER'
p2285
tp2286
I613
s(g28
S'elephants'
p2287
S'NUMBER'
p2288
tp2289
I1325
s(g28
S'railways'
p2290
S'ORGANIZATION'
p2291
tp2292
I1445
s(g28
S'time'
p2293
S'TIME'
p2294
tp2295
I583
s(g28
S'members'
p2296
S'PERSON'
p2297
tp2298
I883
s(g28
S'woman'
p2299
S'PERSON'
p2300
tp2301
I472
s(g28
S'swimmer'
p2302
S'PERSON'
p2303
tp2304
I241
s(g28
S'gang'
p2305
S'OTHER'
p2306
tp2307
I556
s(g28
S'zip'
p2308
S'NUMBER'
p2309
tp2310
I1465
s(g28
S'labor'
p2311
S'DATE'
p2312
tp2313
I1289
s(g28
S'words'
p2314
S'NUMBER'
p2315
tp2316
I1581
s(g28
S'goodall'
p2317
S'PERSON'
p2318
tp2319
I657
s(g28
S'microsoft'
p2320
S'DATE'
p2321
tp2322
I1682
s(g28
S'part'
p2323
S'OTHER'
p2324
tp2325
I48
s(g28
S'equivalent'
p2326
S'OTHER'
p2327
tp2328
I1652
s(g28
S'profession'
p2329
S'PERSON'
p2330
tp2331
I4
s(g28
S'time'
p2332
S'NUMBER'
p2333
tp2334
I1650
s(g28
S'war'
p2335
S'OTHER'
p2336
tp2337
I97
s(g28
S'provider'
p2338
S'MONEY'
p2339
tp2340
I321
s(g28
S'motto'
p2341
S'ORGANIZATION'
p2342
tp2343
I646
s(g28
S'days'
p2344
S'NUMBER'
p2345
tp2346
I1350
s(g28
S'seizure'
p2347
S'ORGANIZATION'
p2348
tp2349
I1280
s(g28
S'bible'
p2350
S'PERSON'
p2351
tp2352
I1254
s(g28
S'cotrubas'
p2353
S'LOCATION'
p2354
tp2355
I906
s(g28
S'rousseau'
p2356
S'DATE'
p2357
tp2358
I998
s(g28
S'panties'
p2359
S'PERSON'
p2360
tp2361
I1647
s(g28
S'theresa'
p2362
S'PERSON'
p2363
tp2364
I1619
s(g28
S'thucydides'
p2365
S'PERSON'
p2366
tp2367
I681
s(g28
S'place'
p2368
S'LOCATION'
p2369
tp2370
I1566
s(g28
S'day'
p2371
S'PERSON'
p2372
tp2373
I1327
s(g28
S'head'
p2374
S'PERSON'
p2375
tp2376
I1176
s(g28
S'brothers'
p2377
S'LOCATION'
p2378
tp2379
I953
s(g28
S'boob'
p2380
S'OTHER'
p2381
tp2382
I464
s(g28
S'chef'
p2383
S'OTHER'
p2384
tp2385
I1514
s(g28
S'day'
p2386
S'DATE'
p2387
tp2388
I158
s(g28
S'bar-code'
p2389
S'DATE'
p2390
tp2391
I1443
s(g28
S'dam'
p2392
S'DATE'
p2393
tp2394
I1293
s(g28
S'washington'
p2395
S'OTHER'
p2396
tp2397
I1253
s(g28
S'women'
p2398
S'PERSON'
p2399
tp2400
I991
s(g28
S'superbowls'
p2401
S'NUMBER'
p2402
tp2403
I828
s(g28
S'cities'
p2404
S'NUMBER'
p2405
tp2406
I1168
s(g28
S'pangaea'
p2407
S'DATE'
p2408
tp2409
I1400
s(g28
S'man'
p2410
S'DATE'
p2411
tp2412
I24
s(g28
S'congress'
p2413
S'DATE'
p2414
tp2415
I1179
s(g28
S'soldiers'
p2416
S'NUMBER'
p2417
tp2418
I903
s(g28
S'reference'
p2419
S'LOCATION'
p2420
tp2421
I1323
s(g28
S'vatican'
p2422
S'PERSON'
p2423
tp2424
I1630
s(g28
S'chance'
p2425
S'PERCENT'
p2426
tp2427
I679
s(g28
S'johnson'
p2428
S'OTHER'
p2429
tp2430
I476
s(g28
S'spectacle'
p2431
S'OTHER'
p2432
tp2433
I1109
s(g28
S'eruption'
p2434
S'DATE'
p2435
tp2436
I1493
s(g28
S'oceans'
p2437
S'LOCATION'
p2438
tp2439
I67
s(g28
S'james'
p2440
S'NUMBER'
p2441
tp2442
I503
s(g28
S'revolutionaries'
p2443
S'DATE'
p2444
tp2445
I1673
s(g28
S'school'
p2446
S'ORGANIZATION'
p2447
tp2448
I405
s(g28
S'abolitionists'
p2449
S'OTHER'
p2450
tp2451
I1487
s(g28
S'corporal'
p2452
S'PERSON'
p2453
tp2454
I437
s(g28
S'paper'
p2455
S'OTHER'
p2456
tp2457
I799
s(g28
S'labianca'
p2458
S'PERSON'
p2459
tp2460
I460
s(g28
S'methods'
p2461
S'OTHER'
p2462
tp2463
I1591
s(g28
S'yemen'
p2464
S'DATE'
p2465
tp2466
I728
s(g28
S'gutenberg'
p2467
S'NUMBER'
p2468
tp2469
I442
s(g28
S'web'
p2470
S'LOCATION'
p2471
tp2472
I1466
s(g28
S'day'
p2473
S'OTHER'
p2474
tp2475
I1214
s(g28
S'institute'
p2476
S'LOCATION'
p2477
tp2478
I912
s(g28
S'auto'
p2479
S'OTHER'
p2480
tp2481
I468
s(g28
S'millions'
p2482
S'OTHER'
p2483
tp2484
I1481
s(g28
S'passenger'
p2485
S'LOCATION'
p2486
tp2487
I60
s(g28
S'court'
p2488
S'LOCATION'
p2489
tp2490
I765
s(g28
S'bulls'
p2491
S'ORGANIZATION'
p2492
tp2493
I341
s(g28
S'macdowell'
p2494
S'PERSON'
p2495
tp2496
I1181
s(g28
S'body'
p2497
S'OTHER'
p2498
tp2499
I980
s(g28
S'lengths'
p2500
S'NUMBER'
p2501
tp2502
I526
s(g28
S'presidents'
p2503
S'PERSON'
p2504
tp2505
I1240
s(g28
S'trinidad'
p2506
S'LOCATION'
p2507
tp2508
I335
s(g28
S'teenager'
p2509
S'PERSON'
p2510
tp2511
I569
s(g28
S'laboratory'
p2512
S'PERSON'
p2513
tp2514
I1300
s(g28
S'ocean'
p2515
S'LOCATION'
p2516
tp2517
I202
s(g28
S'television'
p2518
S'PERSON'
p2519
tp2520
I1538
s(g28
S'oswald'
p2521
S'PERSON'
p2522
tp2523
I1210
s(g28
S'lyrics'
p2524
S'PERSON'
p2525
tp2526
I1407
s(g28
S'qatar'
p2527
S'LOCATION'
p2528
tp2529
I1385
s(g28
S'chocolate'
p2530
S'LOCATION'
p2531
tp2532
I211
s(g28
S'chronicles'
p2533
S'LOCATION'
p2534
tp2535
I662
s(g28
S'program'
p2536
S'OTHER'
p2537
tp2538
I937
s(g28
S'hyatt'
p2539
S'PERSON'
p2540
tp2541
I338
s(g28
S'points'
p2542
S'NUMBER'
p2543
tp2544
I21
s(g28
S'sister'
p2545
S'PERSON'
p2546
tp2547
I1389
s(g28
S'sides'
p2548
S'NUMBER'
p2549
tp2550
I931
s(g28
S'astroturf'
p2551
S'PERSON'
p2552
tp2553
I1420
s(g28
S'coach'
p2554
S'PERSON'
p2555
tp2556
I208
s(g28
S'stadium'
p2557
S'LOCATION'
p2558
tp2559
I175
s(g28
S'gender'
p2560
S'OTHER'
p2561
tp2562
I647
s(g28
S'generation'
p2563
S'OTHER'
p2564
tp2565
I514
s(g28
S'lens'
p2566
S'OTHER'
p2567
tp2568
I986
s(g28
S'pseudonym'
p2569
S'PERSON'
p2570
tp2571
I485
s(g28
S'realm'
p2572
S'PERSON'
p2573
tp2574
I1396
s(g28
S'calculator'
p2575
S'OTHER'
p2576
tp2577
I339
s(g28
S'man'
p2578
S'OTHER'
p2579
tp2580
I648
s(g28
S'statues'
p2581
S'OTHER'
p2582
tp2583
I357
s(g28
S'dictator'
p2584
S'PERSON'
p2585
tp2586
I268
s(g28
S'sculptress'
p2587
S'PERSON'
p2588
tp2589
I596
s(g28
S'child'
p2590
S'PERSON'
p2591
tp2592
I258
s(g28
S'fear'
p2593
S'OTHER'
p2594
tp2595
I53
s(g28
S'vaccine'
p2596
S'OTHER'
p2597
tp2598
I901
s(g28
S'website'
p2599
S'LOCATION'
p2600
tp2601
I427
s(g28
S'mathematician'
p2602
S'PERSON'
p2603
tp2604
I1103
s(g28
S'crack'
p2605
S'OTHER'
p2606
tp2607
I815
s(g28
S'engines'
p2608
S'NUMBER'
p2609
tp2610
I495
s(g28
S'kane'
p2611
S'PERSON'
p2612
tp2613
I1004
s(g28
S'jell-o'
p2614
S'OTHER'
p2615
tp2616
I517
s(g28
S'song'
p2617
S'OTHER'
p2618
tp2619
I247
s(g28
S'ukulele'
p2620
S'LOCATION'
p2621
tp2622
I1479
s(g28
S'tutu'
p2623
S'PERSON'
p2624
tp2625
I344
s(g28
S'pythagoras'
p2626
S'LOCATION'
p2627
tp2628
I1447
s(g28
S'peak'
p2629
S'LOCATION'
p2630
tp2631
I242
s(g28
S'eyes'
p2632
S'NUMBER'
p2633
tp2634
I1433
s(g28
S'symbol'
p2635
S'OTHER'
p2636
tp2637
I783
s(g28
S'chain'
p2638
S'ORGANIZATION'
p2639
tp2640
I1297
s(g28
S'miles'
p2641
S'NUMBER'
p2642
tp2643
I245
s(g28
S'cop'
p2644
S'PERSON'
p2645
tp2646
I1546
s(g28
S'fare'
p2647
S'MONEY'
p2648
tp2649
I463
s(g28
S'humans'
p2650
S'OTHER'
p2651
tp2652
I1574
s(g28
S'craft'
p2653
S'OTHER'
p2654
tp2655
I1129
s(g28
S'ribavirin'
p2656
S'OTHER'
p2657
tp2658
I309
s(g28
S'creature'
p2659
S'OTHER'
p2660
tp2661
I187
s(g28
S'body'
p2662
S'LOCATION'
p2663
tp2664
I1220
s(g28
S'mother'
p2665
S'PERSON'
p2666
tp2667
I136
s(g28
S'encyclopedia'
p2668
S'DATE'
p2669
tp2670
I342
s(g28
S'logo'
p2671
S'ORGANIZATION'
p2672
tp2673
I58
s(g28
S'festival'
p2674
S'DATE'
p2675
tp2676
I265
s(g28
S'court'
p2677
S'ORGANIZATION'
p2678
tp2679
I833
s(g28
S'partner'
p2680
S'PERSON'
p2681
tp2682
I1039
s(g28
S'chemicals'
p2683
S'OTHER'
p2684
tp2685
I170
s(g28
S'power'
p2686
S'PERSON'
p2687
tp2688
I910
s(g28
S'pastorius'
p2689
S'DATE'
p2690
tp2691
I1483
s(g28
S'designer'
p2692
S'PERSON'
p2693
tp2694
I749
s(g28
S'phenomenon'
p2695
S'OTHER'
p2696
tp2697
I443
s(g28
S'david'
p2698
S'PERSON'
p2699
tp2700
I715
s(g28
S'explorer'
p2701
S'LOCATION'
p2702
tp2703
I806
s(g28
S'part'
p2704
S'PERSON'
p2705
tp2706
I188
s(g28
S'layers'
p2707
S'NUMBER'
p2708
tp2709
I860
s(g28
S'secretary'
p2710
S'PERSON'
p2711
tp2712
I545
s(g28
S'oscars'
p2713
S'PERSON'
p2714
tp2715
I940
s(g28
S'washington'
p2716
S'LOCATION'
p2717
tp2718
I142
s(g28
S'hostages'
p2719
S'NUMBER'
p2720
tp2721
I87
s(g28
S'stroke'
p2722
S'OTHER'
p2723
tp2724
I138
s(g28
S'team'
p2725
S'LOCATION'
p2726
tp2727
I1120
s(g28
S'boyfriend'
p2728
S'PERSON'
p2729
tp2730
I430
s(g28
S'person'
p2731
S'PERSON'
p2732
tp2733
I459
s(g28
S'playwright'
p2734
S'PERSON'
p2735
tp2736
I1608
s(g28
S'gymnast'
p2737
S'PERSON'
p2738
tp2739
I145
s(g28
S'wife'
p2740
S'PERSON'
p2741
tp2742
I846
s(g28
S'table'
p2743
S'PERSON'
p2744
tp2745
I1459
s(g28
S'man'
p2746
S'PERSON'
p2747
tp2748
I199
s(g28
S'camp'
p2749
S'LOCATION'
p2750
tp2751
I1510
s(g28
S'religion'
p2752
S'OTHER'
p2753
tp2754
I25
s(g28
S'rabbit'
p2755
S'OTHER'
p2756
tp2757
I64
s(g28
S'concert'
p2758
S'DATE'
p2759
tp2760
I1518
s(g28
S'u.s.'
p2761
S'NUMBER'
p2762
tp2763
I563
s(g28
S'net'
p2764
S'OTHER'
p2765
tp2766
I496
s(g28
S'finger'
p2767
S'PERSON'
p2768
tp2769
I1453
s(g28
S'boat'
p2770
S'PERSON'
p2771
tp2772
I182
s(g28
S'guitarist'
p2773
S'PERSON'
p2774
tp2775
I692
s(g28
S'college'
p2776
S'LOCATION'
p2777
tp2778
I575
s(g28
S'sites'
p2779
S'LOCATION'
p2780
tp2781
I1235
s(g28
S'trail'
p2782
S'LOCATION'
p2783
tp2784
I653
s(g28
S'carter'
p2785
S'OTHER'
p2786
tp2787
I1629
s(g28
S'look'
p2788
S'PERSON'
p2789
tp2790
I701
s(g28
S'president-to-be'
p2791
S'PERSON'
p2792
tp2793
I392
s(g28
S'bocci'
p2794
S'LOCATION'
p2795
tp2796
I794
s(g28
S'war'
p2797
S'PERSON'
p2798
tp2799
I466
s(g28
S'baseball'
p2800
S'OTHER'
p2801
tp2802
I779
s(g28
S'currency'
p2803
S'OTHER'
p2804
tp2805
I1702
s(g28
S'horses'
p2806
S'NUMBER'
p2807
tp2808
I579
s(g28
S'civilization'
p2809
S'ORGANIZATION'
p2810
tp2811
I950
s(g28
S'newspaper'
p2812
S'OTHER'
p2813
tp2814
I933
s(g28
S'soap'
p2815
S'OTHER'
p2816
tp2817
I221
s(g28
S'statue'
p2818
S'OTHER'
p2819
tp2820
I281
s(g28
S'classic'
p2821
S'OTHER'
p2822
tp2823
I547
s(g28
S'garfield'
p2824
S'PERSON'
p2825
tp2826
I660
s(g28
S'area'
p2827
S'LOCATION'
p2828
tp2829
I179
s(g28
S'prize'
p2830
S'OTHER'
p2831
tp2832
I822
s(g28
S'strait'
p2833
S'LOCATION'
p2834
tp2835
I1628
s(g28
S'name'
p2836
S'LOCATION'
p2837
tp2838
I110
s(g28
S'counties'
p2839
S'NUMBER'
p2840
tp2841
I960
s(g28
S'shortstop'
p2842
S'PERSON'
p2843
tp2844
I1135
s(g28
S'architecture'
p2845
S'DATE'
p2846
tp2847
I59
s(g28
S'author'
p2848
S'PERSON'
p2849
tp2850
I164
s(g28
S'isle'
p2851
S'LOCATION'
p2852
tp2853
I658
s(g28
S'indians'
p2854
S'LOCATION'
p2855
tp2856
I1017
s(g28
S'award'
p2857
S'PERSON'
p2858
tp2859
I218
s(g28
S'nino'
p2860
S'OTHER'
p2861
tp2862
I862
s(g28
S'tragedy'
p2863
S'OTHER'
p2864
tp2865
I488
s(g28
S'ben'
p2866
S'PERSON'
p2867
tp2868
I734
s(g28
S'skater'
p2869
S'PERSON'
p2870
tp2871
I1058
s(g28
S'overalls'
p2872
S'OTHER'
p2873
tp2874
I723
s(g28
S'president'
p2875
S'PERSON'
p2876
tp2877
I154
s(g28
S'tristan'
p2878
S'OTHER'
p2879
tp2880
I1141
s(g28
S'dog'
p2881
S'OTHER'
p2882
tp2883
I80
s(g28
S'games'
p2884
S'PERSON'
p2885
tp2886
I992
s(g28
S'norway'
p2887
S'PERSON'
p2888
tp2889
I695
s(g28
S'toy'
p2890
S'OTHER'
p2891
tp2892
I1624
s(g28
S'shape'
p2893
S'LOCATION'
p2894
tp2895
I874
s(g28
S'pins'
p2896
S'NUMBER'
p2897
tp2898
I1388
s(g28
S'cowboy'
p2899
S'PERSON'
p2900
tp2901
I29
s(g28
S'unsafe'
p2902
S'PERSON'
p2903
tp2904
I1159
s(g28
S'7847'
p2905
S'NUMBER'
p2906
tp2907
I928
s(g28
S'january'
p2908
S'OTHER'
p2909
tp2910
I1659
s(g28
S'japanese'
p2911
S'OTHER'
p2912
tp2913
I967
s(g28
S'address'
p2914
S'LOCATION'
p2915
tp2916
I192
s(g28
S'sperm'
p2917
S'NUMBER'
p2918
tp2919
I358
s(g28
S'cobain'
p2920
S'PERSON'
p2921
tp2922
I1090
s(g28
S'flavor'
p2923
S'OTHER'
p2924
tp2925
I271
s(g28
S'people'
p2926
S'NUMBER'
p2927
tp2928
I129
s(g28
S'spielberg'
p2929
S'DATE'
p2930
tp2931
I162
s(g28
S'bird'
p2932
S'OTHER'
p2933
tp2934
I51
s(g28
S'month'
p2935
S'DATE'
p2936
tp2937
I1011
s(g28
S'test'
p2938
S'DATE'
p2939
tp2940
I1438
s(g28
S'worth'
p2941
S'LOCATION'
p2942
tp2943
I727
s(g28
S'explorers'
p2944
S'PERSON'
p2945
tp2946
I429
s(g28
S'bakery'
p2947
S'OTHER'
p2948
tp2949
I1693
s(g28
S'bridge'
p2950
S'PERSON'
p2951
tp2952
I1508
s(g28
S'bestselling'
p2953
S'PERSON'
p2954
tp2955
I1588
s(g28
S'mormons'
p2956
S'DATE'
p2957
tp2958
I975
s(g28
S'natick'
p2959
S'LOCATION'
p2960
tp2961
I868
s(g28
S'olympic'
p2962
S'OTHER'
p2963
tp2964
I354
s(g28
S'hawking'
p2965
S'PERSON'
p2966
tp2967
I957
s(g28
S'charley'
p2968
S'OTHER'
p2969
tp2970
I1451
s(g28
S'producer'
p2971
S'ORGANIZATION'
p2972
tp2973
I1015
s(g28
S'duckling'
p2974
S'PERSON'
p2975
tp2976
I1507
s(g28
S'golfing'
p2977
S'OTHER'
p2978
tp2979
I228
s(g28
S'faith'
p2980
S'PERSON'
p2981
tp2982
I1597
s(g28
S'generals'
p2983
S'NUMBER'
p2984
tp2985
I1078
s(g28
S'tail'
p2986
S'OTHER'
p2987
tp2988
I1340
s(g28
S'couple'
p2989
S'PERSON'
p2990
tp2991
I1515
s(g28
S'actress'
p2992
S'PERSON'
p2993
tp2994
I83
s(g28
S'hand'
p2995
S'OTHER'
p2996
tp2997
I1057
s(g28
S'woodstock'
p2998
S'LOCATION'
p2999
tp3000
I1315
s(g28
S'governor'
p3001
S'PERSON'
p3002
tp3003
I758
s(g28
S'length'
p3004
S'NUMBER'
p3005
tp3006
I1283
s(g28
S'traditions'
p3007
S'OTHER'
p3008
tp3009
I1149
s(g28
S'deltiologist'
p3010
S'OTHER'
p3011
tp3012
I836
s(g28
S'chairs'
p3013
S'NUMBER'
p3014
tp3015
I1231
s(g28
S'clark'
p3016
S'DATE'
p3017
tp3018
I540
s(g28
S'rum'
p3019
S'OTHER'
p3020
tp3021
I140
s(g28
S'astaire'
p3022
S'PERSON'
p3023
tp3024
I239
s(g28
S'holes'
p3025
S'NUMBER'
p3026
tp3027
I317
s(g28
S'vesuvius'
p3028
S'DATE'
p3029
tp3030
I1399
s(g28
S'crops'
p3031
S'OTHER'
p3032
tp3033
I1376
s(g28
S'finn'
p3034
S'PERSON'
p3035
tp3036
I1551
s(g28
S'god'
p3037
S'PERSON'
p3038
tp3039
I837
s(g28
S'quotation'
p3040
S'PERSON'
p3041
tp3042
I622
s(g28
S'bells'
p3043
S'NUMBER'
p3044
tp3045
I1193
s(g28
S'appearances'
p3046
S'PERSON'
p3047
tp3048
I984
s(g28
S'model'
p3049
S'OTHER'
p3050
tp3051
I1298
s(g28
S'batteries'
p3052
S'PERSON'
p3053
tp3054
I484
s(g28
S'steel'
p3055
S'LOCATION'
p3056
tp3057
I255
s(g28
S'plural'
p3058
S'OTHER'
p3059
tp3060
I368
s(g28
S'feet'
p3061
S'NUMBER'
p3062
tp3063
I153
s(g28
S'desert'
p3064
S'LOCATION'
p3065
tp3066
I116
s(g28
S'plants'
p3067
S'OTHER'
p3068
tp3069
I390
s(g28
S'nations'
p3070
S'LOCATION'
p3071
tp3072
I299
s(g28
S'mozambique'
p3073
S'LOCATION'
p3074
tp3075
I401
s(g28
S'bomb'
p3076
S'OTHER'
p3077
tp3078
I817
s(g28
S'mccain'
p3079
S'PERSON'
p3080
tp3081
I1677
s(g28
S'species'
p3082
S'NUMBER'
p3083
tp3084
I1492
s(g28
S'ailment'
p3085
S'OTHER'
p3086
tp3087
I780
s(g28
S'ear'
p3088
S'OTHER'
p3089
tp3090
I891
s(g28
S'slinky'
p3091
S'DATE'
p3092
tp3093
I531
s(g28
S'grandfather'
p3094
S'PERSON'
p3095
tp3096
I1178
s(g28
S'dubliners'
p3097
S'PERSON'
p3098
tp3099
I1299
s(g28
S'dracula'
p3100
S'PERSON'
p3101
tp3102
I620
s(g28
S'star'
p3103
S'LOCATION'
p3104
tp3105
I259
s(g28
S'countries'
p3106
S'LOCATION'
p3107
tp3108
I95
s(g28
S'mentor'
p3109
S'PERSON'
p3110
tp3111
I1351
s(g28
S'nba'
p3112
S'PERSON'
p3113
tp3114
I770
s(g28
S'period'
p3115
S'DATE'
p3116
tp3117
I848
s(g28
S'badge'
p3118
S'PERSON'
p3119
tp3120
I944
s(g28
S'fraze'
p3121
S'DATE'
p3122
tp3123
I599
s(g28
S'mutiny'
p3124
S'DATE'
p3125
tp3126
I77
s(g28
S'malick'
p3127
S'PERSON'
p3128
tp3129
I147
s(g28
S'office'
p3130
S'NUMBER'
p3131
tp3132
I792
s(g28
S'age'
p3133
S'OTHER'
p3134
tp3135
I415
s(g28
S'americans'
p3136
S'DATE'
p3137
tp3138
I1488
s(g28
S'spaces'
p3139
S'NUMBER'
p3140
tp3141
I436
s(g28
S'wage'
p3142
S'MONEY'
p3143
tp3144
I730
s(g28
S'community'
p3145
S'NUMBER'
p3146
tp3147
I23
s(g28
S'games'
p3148
S'DATE'
p3149
tp3150
I589
s(g28
S'vegetation'
p3151
S'NUMBER'
p3152
tp3153
I855
s(g28
S'speaker'
p3154
S'PERSON'
p3155
tp3156
I1560
s(g28
S'car'
p3157
S'ORGANIZATION'
p3158
tp3159
I100
s(g28
S'moore'
p3160
S'PERSON'
p3161
tp3162
I1461
s(g28
S'bunch'
p3163
S'PERSON'
p3164
tp3165
I812
s(g28
S'books'
p3166
S'OTHER'
p3167
tp3168
I1255
s(g28
S'noriega'
p3169
S'DATE'
p3170
tp3171
I1342
s(g28
S'pitcher'
p3172
S'PERSON'
p3173
tp3174
I1202
s(g28
S'coin'
p3175
S'OTHER'
p3176
tp3177
I352
s(g28
S'penny-farthings'
p3178
S'NUMBER'
p3179
tp3180
I630
s(g28
S'super-teams'
p3181
S'ORGANIZATION'
p3182
tp3183
I502
s(g28
S'stradivarius'
p3184
S'NUMBER'
p3185
tp3186
I1251
s(g28
S'plagues'
p3187
S'OTHER'
p3188
tp3189
I1412
s(g28
S'stockyards'
p3190
S'LOCATION'
p3191
tp3192
I873
s(g28
S'brand'
p3193
S'OTHER'
p3194
tp3195
I1203
s(g28
S'league'
p3196
S'ORGANIZATION'
p3197
tp3198
I784
s(g28
S'automobile'
p3199
S'ORGANIZATION'
p3200
tp3201
I1645
s(g28
S'maclaine'
p3202
S'PERSON'
p3203
tp3204
I869
s(g28
S'recipe'
p3205
S'OTHER'
p3206
tp3207
I983
s(g28
S'schoolhouse'
p3208
S'LOCATION'
p3209
tp3210
I1375
s(g28
S'horse'
p3211
S'OTHER'
p3212
tp3213
I383
s(g28
S'accident'
p3214
S'DATE'
p3215
tp3216
I1336
s(g28
S'notes'
p3217
S'OTHER'
p3218
tp3219
I1183
s(g28
S'coyote'
p3220
S'LOCATION'
p3221
tp3222
I1125
s(g28
S'battle'
p3223
S'DATE'
p3224
tp3225
I160
s(g28
S'cnn'
p3226
S'PERSON'
p3227
tp3228
I1561
s(g28
S'series'
p3229
S'OTHER'
p3230
tp3231
I224
s(g28
S'chip'
p3232
S'OTHER'
p3233
tp3234
I919
s(g28
S'photoshop'
p3235
S'ORGANIZATION'
p3236
tp3237
I1432
s(g28
S'seats'
p3238
S'NUMBER'
p3239
tp3240
I1036
s(g28
S'music'
p3241
S'PERSON'
p3242
tp3243
I838
s(g28
S'challengers'
p3244
S'ORGANIZATION'
p3245
tp3246
I206
s(g28
S'sweeter'
p3247
S'OTHER'
p3248
tp3249
I1471
s(g28
S'nixon'
p3250
S'LOCATION'
p3251
tp3252
I562
s(g28
S'card'
p3253
S'OTHER'
p3254
tp3255
I222
s(g28
S'possession'
p3256
S'LOCATION'
p3257
tp3258
I511
s(g28
S'par'
p3259
S'NUMBER'
p3260
tp3261
I1061
s(g28
S'brothers'
p3262
S'NUMBER'
p3263
tp3264
I1467
s(g28
S'nickname'
p3265
S'ORGANIZATION'
p3266
tp3267
I586
s(g28
S'potlatch'
p3268
S'PERSON'
p3269
tp3270
I1085
s(g28
S'frames'
p3271
S'NUMBER'
p3272
tp3273
I997
s(g28
S'character'
p3274
S'PERSON'
p3275
tp3276
I172
s(g28
S'debts'
p3277
S'MONEY'
p3278
tp3279
I1257
s(g28
S'queen'
p3280
S'OTHER'
p3281
tp3282
I1267
s(g28
S'www.questions.com'
p3283
S'DATE'
p3284
tp3285
I326
s(g28
S'probability'
p3286
S'PERCENT'
p3287
tp3288
I480
s(g28
S'colony'
p3289
S'PERSON'
p3290
tp3291
I663
s(g28
S'iron'
p3292
S'NUMBER'
p3293
tp3294
I1355
s(g28
S'officer'
p3295
S'PERSON'
p3296
tp3297
I1612
s(g28
S'network'
p3298
S'ORGANIZATION'
p3299
tp3300
I1006
s(g28
S'example'
p3301
S'ORGANIZATION'
p3302
tp3303
I951
s(g28
S'year'
p3304
S'NUMBER'
p3305
tp3306
I1364
s(g28
S'hockey'
p3307
S'ORGANIZATION'
p3308
tp3309
I1212
s(g28
S'voices'
p3310
S'PERSON'
p3311
tp3312
I1428
s(g28
S'project'
p3313
S'LOCATION'
p3314
tp3315
I1575
s(g28
S'mill'
p3316
S'DATE'
p3317
tp3318
I144
s(g28
S'barrier'
p3319
S'PERSON'
p3320
tp3321
I1030
s(g28
S'weight'
p3322
S'NUMBER'
p3323
tp3324
I889
s(g28
S'menstruation'
p3325
S'DATE'
p3326
tp3327
I1637
s(g28
S'teaspoons'
p3328
S'NUMBER'
p3329
tp3330
I1455
s(g28
S'medicine'
p3331
S'OTHER'
p3332
tp3333
I1500
s(g28
S'apartments'
p3334
S'LOCATION'
p3335
tp3336
I1233
s(g28
S'home'
p3337
S'LOCATION'
p3338
tp3339
I644
s(g28
S'mountain'
p3340
S'LOCATION'
p3341
tp3342
I230
s(g28
S'minutes'
p3343
S'NUMBER'
p3344
tp3345
I582
s(g28
S'symphony'
p3346
S'OTHER'
p3347
tp3348
I548
s(g28
S'zoo'
p3349
S'LOCATION'
p3350
tp3351
I1171
s(g28
S'kinds'
p3352
S'OTHER'
p3353
tp3354
I769
s(g28
S'jinnah'
p3355
S'PERSON'
p3356
tp3357
I1598
s(g28
S'university'
p3358
S'LOCATION'
p3359
tp3360
I492
s(g28
S'fruit'
p3361
S'OTHER'
p3362
tp3363
I1649
s(g28
S'diseases'
p3364
S'OTHER'
p3365
tp3366
I1648
s(g28
S'car'
p3367
S'OTHER'
p3368
tp3369
I477
s(g28
S'brandt'
p3370
S'PERSON'
p3371
tp3372
I1672
s(g28
S'www'
p3373
S'PERSON'
p3374
tp3375
I1162
s(g28
S'locations'
p3376
S'OTHER'
p3377
tp3378
I1633
s(g28
S'bible'
p3379
S'OTHER'
p3380
tp3381
I275
s(g28
S'taste'
p3382
S'OTHER'
p3383
tp3384
I1362
s(g28
S'sound'
p3385
S'LOCATION'
p3386
tp3387
I629
s(g28
S'pines'
p3388
S'PERSON'
p3389
tp3390
I870
s(g28
S'manatees'
p3391
S'OTHER'
p3392
tp3393
I408
s(g28
S'order'
p3394
S'PERSON'
p3395
tp3396
I288
s(g28
S'students'
p3397
S'NUMBER'
p3398
tp3399
I465
s(g28
S'autobiography'
p3400
S'PERSON'
p3401
tp3402
I250
s(g28
S'ways'
p3403
S'OTHER'
p3404
tp3405
I155
s(g28
S'nicolet'
p3406
S'PERSON'
p3407
tp3408
I634
s(g28
S'articles'
p3409
S'OTHER'
p3410
tp3411
I173
s(g28
S'meters'
p3412
S'NUMBER'
p3413
tp3414
I764
s(g28
S'span'
p3415
S'TIME'
p3416
tp3417
I667
s(g28
S'cost'
p3418
S'MONEY'
p3419
tp3420
I461
s(g28
S'detective'
p3421
S'PERSON'
p3422
tp3423
I1478
s(g28
S't.v.'
p3424
S'OTHER'
p3425
tp3426
I107
s(g28
S'elements'
p3427
S'OTHER'
p3428
tp3429
I81
s(g28
S'player'
p3430
S'OTHER'
p3431
tp3432
I1664
s(g28
S'languages'
p3433
S'OTHER'
p3434
tp3435
I376
s(g28
S'months'
p3436
S'DATE'
p3437
tp3438
I114
s(g28
S'mystery'
p3439
S'PERSON'
p3440
tp3441
I626
s(g28
S'stalin'
p3442
S'PERSON'
p3443
tp3444
I616
s(g28
S'entertainer'
p3445
S'OTHER'
p3446
tp3447
I1198
s(g28
S'increase'
p3448
S'MONEY'
p3449
tp3450
I1365
s(g28
S'monster'
p3451
S'OTHER'
p3452
tp3453
I534
s(g28
S'monarch'
p3454
S'PERSON'
p3455
tp3456
I351
s(g28
S'pyramid'
p3457
S'ORGANIZATION'
p3458
tp3459
I1165
s(g28
S'no.'
p3460
S'PERSON'
p3461
tp3462
I512
s(g28
S'philatelist'
p3463
S'OTHER'
p3464
tp3465
I666
s(g28
S'hitler'
p3466
S'DATE'
p3467
tp3468
I898
s(g28
S'wings'
p3469
S'NUMBER'
p3470
tp3471
I882
s(g28
S'park'
p3472
S'LOCATION'
p3473
tp3474
I353
s(g28
S'presidents'
p3475
S'NUMBER'
p3476
tp3477
I775
s(g28
S'buildings'
p3478
S'LOCATION'
p3479
tp3480
I1485
s(g28
S'tennis'
p3481
S'PERSON'
p3482
tp3483
I1290
s(g28
S'milton'
p3484
S'OTHER'
p3485
tp3486
I1426
s(g28
S'astronaut'
p3487
S'PERSON'
p3488
tp3489
I751
s(g28
S'battle'
p3490
S'PERSON'
p3491
tp3492
I954
s(g28
S'cartier'
p3493
S'OTHER'
p3494
tp3495
I1206
s(g28
S'airplane'
p3496
S'OTHER'
p3497
tp3498
I1184
s(g28
S'clown'
p3499
S'PERSON'
p3500
tp3501
I1489
s(g28
S'commodity'
p3502
S'OTHER'
p3503
tp3504
I1587
s(g28
S'seas'
p3505
S'LOCATION'
p3506
tp3507
I637
s(g28
S'judson'
p3508
S'PERSON'
p3509
tp3510
I888
s(g28
S'monster'
p3511
S'PERSON'
p3512
tp3513
I1091
s(g28
S'feminist'
p3514
S'PERSON'
p3515
tp3516
I1352
s(g28
S'honecker'
p3517
S'LOCATION'
p3518
tp3519
I665
s(g28
S'huxley'
p3520
S'DATE'
p3521
tp3522
I736
s(g28
S'goldfish'
p3523
S'OTHER'
p3524
tp3525
I1054
s(g28
S'gandhi'
p3526
S'PERSON'
p3527
tp3528
I8
s(g28
S'dumpty'
p3529
S'PERSON'
p3530
tp3531
I554
s(g28
S'treat'
p3532
S'OTHER'
p3533
tp3534
I1540
s(g28
S'callosum'
p3535
S'LOCATION'
p3536
tp3537
I1050
s(g28
S'headquarters'
p3538
S'LOCATION'
p3539
tp3540
I627
s(g28
S'speed'
p3541
S'NUMBER'
p3542
tp3543
I200
s(g28
S'viagra'
p3544
S'PERSON'
p3545
tp3546
I609
s(g28
S'cinzano'
p3547
S'PERSON'
p3548
tp3549
I939
s(g28
S'credit'
p3550
S'PERSON'
p3551
tp3552
I1084
s(g28
S'lawyer'
p3553
S'PERSON'
p3554
tp3555
I277
s(g28
S'baseball'
p3556
S'NUMBER'
p3557
tp3558
I917
s(g28
S'show'
p3559
S'OTHER'
p3560
tp3561
I1321
s(g28
S'jaws'
p3562
S'PERSON'
p3563
tp3564
I106
s(g28
S'almanac'
p3565
S'PERSON'
p3566
tp3567
I1070
s(g28
S'helen'
p3568
S'DATE'
p3569
tp3570
I151
s(g28
S'chairman'
p3571
S'PERSON'
p3572
tp3573
I448
s(g28
S'horoscope'
p3574
S'PERSON'
p3575
tp3576
I1532
s(g28
S'general'
p3577
S'PERSON'
p3578
tp3579
I527
s(g28
S'jeroboams'
p3580
S'OTHER'
p3581
tp3582
I1386
s(g28
S'counterpart'
p3583
S'OTHER'
p3584
tp3585
I1572
s(g28
S'bernstein'
p3586
S'PERSON'
p3587
tp3588
I1062
s(g28
S'police'
p3589
S'ORGANIZATION'
p3590
tp3591
I1613
s(g28
S'plea'
p3592
S'PERSON'
p3593
tp3594
I748
s(g28
S'election'
p3595
S'PERSON'
p3596
tp3597
I1687
s(g28
S'goalie'
p3598
S'LOCATION'
p3599
tp3600
I236
s(g28
S'actor'
p3601
S'OTHER'
p3602
tp3603
I395
s(g28
S'prize'
p3604
S'PERSON'
p3605
tp3606
I205
s(g28
S'myth'
p3607
S'LOCATION'
p3608
tp3609
I301
s(g28
S'lady'
p3610
S'PERSON'
p3611
tp3612
I745
s(g28
S'nixon'
p3613
S'PERSON'
p3614
tp3615
I680
s(g28
S'size'
p3616
S'NUMBER'
p3617
tp3618
I163
s(g28
S'chocolate'
p3619
S'ORGANIZATION'
p3620
tp3621
I771
s(g28
S'father'
p3622
S'PERSON'
p3623
tp3624
I655
s(g28
S'menace'
p3625
S'OTHER'
p3626
tp3627
I1632
s(g28
S'mccheese'
p3628
S'LOCATION'
p3629
tp3630
I1033
s(g28
S'day'
p3631
S'NUMBER'
p3632
tp3633
I639
s(g28
S'pyramid'
p3634
S'PERSON'
p3635
tp3636
I1654
s(g28
S'kennedy'
p3637
S'PERSON'
p3638
tp3639
I522
s(g28
S'reactivity'
p3640
S'NUMBER'
p3641
tp3642
I494
s(g28
S'lime'
p3643
S'PERSON'
p3644
tp3645
I1401
s(g28
S'jordan'
p3646
S'PERSON'
p3647
tp3648
I384
s(g28
S'color'
p3649
S'OTHER'
p3650
tp3651
I36
s(g28
S'games'
p3652
S'OTHER'
p3653
tp3654
I989
s(g28
S'process'
p3655
S'PERSON'
p3656
tp3657
I1393
s(g28
S'editor'
p3658
S'PERSON'
p3659
tp3660
I757
s(g28
S'mutombo'
p3661
S'LOCATION'
p3662
tp3663
I1435
s(g28
S'attack'
p3664
S'DATE'
p3665
tp3666
I628
s(g28
S'makeup'
p3667
S'LOCATION'
p3668
tp3669
I1638
s(g28
S'leaders'
p3670
S'PERSON'
p3671
tp3672
I1164
s(g28
S'science'
p3673
S'OTHER'
p3674
tp3675
I1627
s(g28
S'congressman'
p3676
S'PERSON'
p3677
tp3678
I418
s(g28
S'queen'
p3679
S'PERSON'
p3680
tp3681
I606
s(g28
S'automobile'
p3682
S'OTHER'
p3683
tp3684
I174
s(g28
S'personas'
p3685
S'PERSON'
p3686
tp3687
I426
s(g28
S'mayonnaise'
p3688
S'OTHER'
p3689
tp3690
I1333
s(g28
S'circumnavigator'
p3691
S'PERSON'
p3692
tp3693
I1279
s(g28
S'beatles'
p3694
S'NUMBER'
p3695
tp3696
I215
s(g28
S'caffeine'
p3697
S'NUMBER'
p3698
tp3699
I808
s(g28
S'basketball'
p3700
S'PERSON'
p3701
tp3702
I598
s(g28
S'juices'
p3703
S'NUMBER'
p3704
tp3705
I996
s(g28
S'french'
p3706
S'OTHER'
p3707
tp3708
I791
s(g28
S'years'
p3709
S'NUMBER'
p3710
tp3711
I84
s(g28
S'level'
p3712
S'OTHER'
p3713
tp3714
I159
s(g28
S'canyon'
p3715
S'LOCATION'
p3716
tp3717
I936
s(g28
S'primary'
p3718
S'PERSON'
p3719
tp3720
I1295
s(g28
S'watts'
p3721
S'NUMBER'
p3722
tp3723
I1596
s(g28
S'soda'
p3724
S'OTHER'
p3725
tp3726
I1287
s(g28
S'lincoln'
p3727
S'LOCATION'
p3728
tp3729
I364
s(g28
S'cds'
p3730
S'NUMBER'
p3731
tp3732
I438
s(g28
S'technique'
p3733
S'OTHER'
p3734
tp3735
I592
s(g28
S'team'
p3736
g23
tp3737
I3
s(g28
S'beethoven'
p3738
S'DATE'
p3739
tp3740
I134
s(g28
S'edberg'
p3741
S'LOCATION'
p3742
tp3743
I1007
s(g28
S'farrier'
p3744
S'OTHER'
p3745
tp3746
I1348
s(g28
S'palate'
p3747
S'OTHER'
p3748
tp3749
I118
s(g28
S'groups'
p3750
S'ORGANIZATION'
p3751
tp3752
I1496
s(g28
S'aids'
p3753
S'OTHER'
p3754
tp3755
I544
s(g28
S'composition'
p3756
S'OTHER'
p3757
tp3758
I985
s(g28
S'erected'
p3759
S'DATE'
p3760
tp3761
I1665
s(g28
S'characters'
p3762
S'PERSON'
p3763
tp3764
I318
s(g28
S'bell'
p3765
S'LOCATION'
p3766
tp3767
I1069
s(g28
S'numbers'
p3768
S'PERSON'
p3769
tp3770
I1427
s(g28
S'title'
p3771
S'PERSON'
p3772
tp3773
I363
s(g28
S'premier'
p3774
S'PERSON'
p3775
tp3776
I1025
s(g28
S'luther'
p3777
S'LOCATION'
p3778
tp3779
I884
s(g28
S'salary'
p3780
S'MONEY'
p3781
tp3782
I976
s(g28
S'iii'
p3783
S'PERSON'
p3784
tp3785
I210
s(g28
S'energy'
p3786
S'NUMBER'
p3787
tp3788
I567
s(g28
S'debate'
p3789
S'PERSON'
p3790
tp3791
I1616
s(g28
S'chefs'
p3792
S'OTHER'
p3793
tp3794
I737
s(g28
S'angles'
p3795
S'NUMBER'
p3796
tp3797
I220
s(g28
S'avenue'
p3798
S'LOCATION'
p3799
tp3800
I1169
s(g28
S'gulf'
p3801
S'LOCATION'
p3802
tp3803
I1440
s(g28
S'shakespeare'
p3804
S'OTHER'
p3805
tp3806
I1577
s(g28
S'stories'
p3807
S'OTHER'
p3808
tp3809
I699
s(g28
S'forms'
p3810
S'OTHER'
p3811
tp3812
I132
s(g28
S'operating'
p3813
S'OTHER'
p3814
tp3815
I670
s(g28
S'hero'
p3816
S'PERSON'
p3817
tp3818
I444
s(g28
S'hole'
p3819
S'LOCATION'
p3820
tp3821
I252
s(g28
S'wall'
p3822
S'DATE'
p3823
tp3824
I146
s(g28
S'corners'
p3825
S'NUMBER'
p3826
tp3827
I962
s(g28
S'ability'
p3828
S'OTHER'
p3829
tp3830
I1294
s(g28
S'canadians'
p3831
S'NUMBER'
p3832
tp3833
I481
s(g28
S'children'
p3834
S'PERSON'
p3835
tp3836
I1458
s(g28
S'survivor'
p3837
S'PERSON'
p3838
tp3839
I1548
s(g28
S'number'
p3840
S'NUMBER'
p3841
tp3842
I290
s(g28
S'villain'
p3843
S'PERSON'
p3844
tp3845
I533
s(g28
S'terror'
p3846
S'OTHER'
p3847
tp3848
I1133
s(g28
S'play'
p3849
S'OTHER'
p3850
tp3851
I753
s(g28
S'colleges'
p3852
S'NUMBER'
p3853
tp3854
I294
s(g28
S'rites'
p3855
S'OTHER'
p3856
tp3857
I127
s(g28
S'individual'
p3858
S'LOCATION'
p3859
tp3860
I1128
s(g28
S'fields'
p3861
S'PERSON'
p3862
tp3863
I1148
s(g28
S'mahal'
p3864
S'LOCATION'
p3865
tp3866
I1502
s(g28
S'calcium'
p3867
S'NUMBER'
p3868
tp3869
I1614
s(g28
S'alley'
p3870
S'LOCATION'
p3871
tp3872
I424
s(g28
S'dogs'
p3873
S'NUMBER'
p3874
tp3875
I1136
s(g28
S'sons'
p3876
S'PERSON'
p3877
tp3878
I157
s(g28
S'son-in-law'
p3879
S'PERSON'
p3880
tp3881
I1474
s(g28
S'osbourne'
p3882
g22
tp3883
I6
s(g28
S'best-seller'
p3884
S'OTHER'
p3885
tp3886
I1048
s(g28
S'tips'
p3887
S'OTHER'
p3888
tp3889
I407
s(g28
S'charles'
p3890
S'DATE'
p3891
tp3892
I810
s(g28
S'word'
p3893
S'PERSON'
p3894
tp3895
I1296
s(g28
S'stations'
p3896
S'LOCATION'
p3897
tp3898
I1509
s(g28
S'degrees'
p3899
S'NUMBER'
p3900
tp3901
I273
s(g28
S'season'
p3902
S'DATE'
p3903
tp3904
I98
s(g28
S'pickering'
p3905
S'PERSON'
p3906
tp3907
I722
s(g28
S'primate'
p3908
S'OTHER'
p3909
tp3910
I930
s(g28
S'vice-president'
p3911
S'PERSON'
p3912
tp3913
I943
s(g28
S'whale'
p3914
S'OTHER'
p3915
tp3916
I422
s(g28
S'hit'
p3917
S'PERSON'
p3918
tp3919
I1439
s(g28
S'funeral'
p3920
S'PERSON'
p3921
tp3922
I922
s(g28
S'oceans'
p3923
S'NUMBER'
p3924
tp3925
I377
s(g28
S'indians'
p3926
S'OTHER'
p3927
tp3928
I1586
s(g28
S'worm'
p3929
S'PERSON'
p3930
tp3931
I1366
s(g28
S'vessel'
p3932
S'OTHER'
p3933
tp3934
I439
s(g28
S'albums'
p3935
S'OTHER'
p3936
tp3937
I1053
s(g28
S'laureate'
p3938
S'PERSON'
p3939
tp3940
I581
s(g28
S'game'
p3941
S'OTHER'
p3942
tp3943
I305
s(g28
S'piano'
p3944
S'ORGANIZATION'
p3945
tp3946
I76
s(g28
S'belize'
p3947
S'LOCATION'
p3948
tp3949
I1155
s(g28
S'nino'
p3950
S'PERSON'
p3951
tp3952
I266
s(g28
S'spy'
p3953
S'PERSON'
p3954
tp3955
I251
s(g28
S'date'
p3956
S'DATE'
p3957
tp3958
I12
s(g28
S'shampoo'
p3959
S'OTHER'
p3960
tp3961
I1065
s(g28
S'ticker'
p3962
S'PERSON'
p3963
tp3964
I1252
s(g28
S'rights'
p3965
S'PERSON'
p3966
tp3967
I1419
s(g28
S'berry'
p3968
S'OTHER'
p3969
tp3970
I1680
s(g28
S'lobsters'
p3971
S'LOCATION'
p3972
tp3973
I1534
s(g28
S'eriksen'
p3974
S'PERSON'
p3975
tp3976
I240
s(g28
S'baseball'
p3977
S'PERSON'
p3978
tp3979
I291
s(g28
S'battlefield'
p3980
S'LOCATION'
p3981
tp3982
I959
s(g28
S'confucius'
p3983
S'PERSON'
p3984
tp3985
I1490
s(g28
S'count'
p3986
S'PERSON'
p3987
tp3988
I649
s(g28
S'tenses'
p3989
S'OTHER'
p3990
tp3991
I1463
s(g28
S'resource'
p3992
S'OTHER'
p3993
tp3994
I49
s(g28
S'foundation'
p3995
S'PERSON'
p3996
tp3997
I1537
s(g28
S'yards'
p3998
S'OTHER'
p3999
tp4000
I1010
s(g28
S'freleng'
p4001
S'PERSON'
p4002
tp4003
I1124
s(g28
S'fellow'
p4004
S'PERSON'
p4005
tp4006
I859
s(g28
S'planet'
p4007
S'LOCATION'
p4008
tp4009
I867
s(g28
S'airports'
p4010
S'LOCATION'
p4011
tp4012
I788
s(g28
S'province'
p4013
S'LOCATION'
p4014
tp4015
I499
s(g28
S'hawaii'
p4016
S'PERSON'
p4017
tp4018
I1394
s(g28
S'vegetables'
p4019
S'OTHER'
p4020
tp4021
I1237
s(g28
S'genie'
p4022
S'PERSON'
p4023
tp4024
I1567
s(g28
g185
S'OTHER'
p4025
tp4026
I13
s(g28
S'toll'
p4027
S'NUMBER'
p4028
tp4029
I365
s(g28
S'cathedral'
p4030
S'LOCATION'
p4031
tp4032
I754
s(g28
g185
g21
tp4033
I74
s(g28
S'transplant'
p4034
S'DATE'
p4035
tp4036
I1594
s(g28
S'club'
p4037
S'OTHER'
p4038
tp4039
I470
s(g28
S'music'
p4040
S'OTHER'
p4041
tp4042
I818
s(g28
S'korea'
p4043
S'DATE'
p4044
tp4045
I1052
s(g28
S'foods'
p4046
S'OTHER'
p4047
tp4048
I824
s(g28
S'medium'
p4049
S'OTHER'
p4050
tp4051
I70
s(g28
S'founder'
p4052
S'PERSON'
p4053
tp4054
I44
s(g28
S'vegas'
p4055
S'LOCATION'
p4056
tp4057
I1243
s(g28
S'florida'
p4058
S'PERSON'
p4059
tp4060
I1603
s(g28
S'gestapo'
p4061
S'PERSON'
p4062
tp4063
I746
s(g28
S'witch'
p4064
S'PERSON'
p4065
tp4066
I752
s(g28
S'birds'
p4067
S'OTHER'
p4068
tp4069
I469
s(g28
S'town'
p4070
S'LOCATION'
p4071
tp4072
I713
s(g28
S'martyrs'
p4073
S'PERSON'
p4074
tp4075
I14
s(g28
S'remains'
p4076
S'LOCATION'
p4077
tp4078
I892
s(g28
S'birthdate'
p4079
S'DATE'
p4080
tp4081
I1520
s(g28
S'rings'
p4082
S'NUMBER'
p4083
tp4084
I1115
s(g28
S'groups'
p4085
S'LOCATION'
p4086
tp4087
I440
s(g28
S'classification'
p4088
S'OTHER'
p4089
tp4090
I1001
s(g28
g185
S'DATE'
p4091
tp4092
I124
s(g28
S'vessels'
p4093
S'OTHER'
p4094
tp4095
I1249
s(g28
S'ranges'
p4096
S'LOCATION'
p4097
tp4098
I963
s(g28
S'brush'
p4099
S'OTHER'
p4100
tp4101
I893
s(g28
S'feet'
p4102
S'OTHER'
p4103
tp4104
I1223
s(g28
g185
S'PERSON'
p4105
tp4106
I62
s(g28
S'liston'
p4107
S'PERSON'
p4108
tp4109
I500
s(g28
S'valley'
p4110
S'LOCATION'
p4111
tp4112
I102
s(g28
S'culture'
p4113
S'ORGANIZATION'
p4114
tp4115
I762
s(g28
S'belt'
p4116
S'OTHER'
p4117
tp4118
I340
s(g28
S'shillings'
p4119
S'NUMBER'
p4120
tp4121
I686
s(g28
S'amtrak'
p4122
S'DATE'
p4123
tp4124
I1130
s(g28
S'hearts'
p4125
S'NUMBER'
p4126
tp4127
I314
s(g28
S'turkey'
p4128
S'PERSON'
p4129
tp4130
I1498
s(g28
S'model'
p4131
S'PERSON'
p4132
tp4133
I237
s(g28
S'video'
p4134
S'OTHER'
p4135
tp4136
I1096
s(g28
S'weapon'
p4137
S'OTHER'
p4138
tp4139
I32
s(g28
S'rivers'
p4140
S'LOCATION'
p4141
tp4142
I890
s(g28
S'drug'
p4143
S'OTHER'
p4144
tp4145
I523
s(g28
S'mayor'
p4146
S'PERSON'
p4147
tp4148
I101
s(g28
S'balls'
p4149
S'OTHER'
p4150
tp4151
I1379
s(g28
S'butler'
p4152
S'PERSON'
p4153
tp4154
I1256
s(g28
S'tiger'
p4155
S'OTHER'
p4156
tp4157
I345
s(g28
S'task'
p4158
S'PERSON'
p4159
tp4160
I1316
s(g28
S'high'
p4161
S'NUMBER'
p4162
tp4163
I894
s(g28
S'fiddlers'
p4164
S'NUMBER'
p4165
tp4166
I816
s(g28
S'spice'
p4167
S'OTHER'
p4168
tp4169
I1003
s(g28
S'store'
p4170
S'LOCATION'
p4171
tp4172
I926
s(g28
S'damage'
p4173
S'OTHER'
p4174
tp4175
I803
s(g28
S'cigarette'
p4176
S'OTHER'
p4177
tp4178
I710
s(g28
S'arch'
p4179
S'LOCATION'
p4180
tp4181
I348
s(g28
S'physician'
p4182
S'PERSON'
p4183
tp4184
I1113
s(g28
S'youngsters'
p4185
S'PERSON'
p4186
tp4187
I955
s(g28
S'ruin'
p4188
S'OTHER'
p4189
tp4190
I1601
s(g28
S'sun'
p4191
S'DATE'
p4192
tp4193
I1122
s(g28
S'way'
p4194
S'OTHER'
p4195
tp4196
I178
s(g28
S'stonehenge'
p4197
S'PERSON'
p4198
tp4199
I756
s(g28
S'shrubs'
p4200
S'OTHER'
p4201
tp4202
I130
s(g28
S'muscles'
p4203
S'NUMBER'
p4204
tp4205
I1524
s(g28
S'bridge'
p4206
S'OTHER'
p4207
tp4208
I285
s(g28
S'nicholas'
p4209
S'LOCATION'
p4210
tp4211
I1431
s(g28
S'stages'
p4212
S'OTHER'
p4213
tp4214
I201
s(g28
S'disease'
p4215
S'OTHER'
p4216
tp4217
I139
s(g28
S'woman'
p4218
S'OTHER'
p4219
tp4220
I961
s(g28
S'course'
p4221
S'OTHER'
p4222
tp4223
I18
s(g28
S'baby'
p4224
S'PERSON'
p4225
tp4226
I1110
s(g28
S'church'
p4227
S'PERSON'
p4228
tp4229
I1186
s(g28
S'clinic'
p4230
S'LOCATION'
p4231
tp4232
I773
s(g28
S'd.a.'
p4233
S'PERSON'
p4234
tp4235
I1317
s(g28
S'players'
p4236
S'PERSON'
p4237
tp4238
I1188
s(g28
S'congress'
p4239
S'OTHER'
p4240
tp4241
I1059
s(g28
S'teenager'
p4242
S'DATE'
p4243
tp4244
I249
s(g28
S'page'
p4245
S'LOCATION'
p4246
tp4247
I550
s(g28
S'warlock'
p4248
S'OTHER'
p4249
tp4250
I1527
s(g28
S'innings'
p4251
S'NUMBER'
p4252
tp4253
I289
s(g28
S'noun'
p4254
S'OTHER'
p4255
tp4256
I1542
s(g28
S'colors'
p4257
S'NUMBER'
p4258
tp4259
I1139
s(g28
S'story'
p4260
S'OTHER'
p4261
tp4262
I789
s(g28
S'gama'
p4263
S'OTHER'
p4264
tp4265
I1554
s(g28
S'inuits'
p4266
S'LOCATION'
p4267
tp4268
I946
s(g28
S'soundtrack'
p4269
S'OTHER'
p4270
tp4271
I1291
s(g28
S'native'
p4272
S'LOCATION'
p4273
tp4274
I1525
s(g28
S'belushi'
p4275
S'OTHER'
p4276
tp4277
I402
s(g28
S'year'
p4278
S'OTHER'
p4279
tp4280
I1032
s(g28
S'agencies'
p4281
S'ORGANIZATION'
p4282
tp4283
I1392
s(g28
S'measures'
p4284
S'OTHER'
p4285
tp4286
I1263
s(g28
S'method'
p4287
S'OTHER'
p4288
tp4289
I809
s(g28
S'kind'
p4290
S'OTHER'
p4291
tp4292
I388
s(g28
S'tootsie'
p4293
S'PERSON'
p4294
tp4295
I40
s(g28
S'office'
p4296
S'TIME'
p4297
tp4298
I706
s(g28
S'music'
p4299
S'DATE'
p4300
tp4301
I896
s(g28
S'region'
p4302
S'LOCATION'
p4303
tp4304
I1678
s(g28
S'queen'
p4305
S'NUMBER'
p4306
tp4307
I1413
s(g28
S'work'
p4308
S'OTHER'
p4309
tp4310
I68
s(g28
S'mutiny'
p4311
S'PERSON'
p4312
tp4313
I1049
s(g28
S'clone'
p4314
S'OTHER'
p4315
tp4316
I1408
s(g28
S'album'
p4317
S'OTHER'
p4318
tp4319
I96
s(g28
S'schools'
p4320
S'ORGANIZATION'
p4321
tp4322
I918
s(g28
S'spider'
p4323
S'OTHER'
p4324
tp4325
I1318
s(g28
S'county'
p4326
S'ORGANIZATION'
p4327
tp4328
I117
s(g28
S'voice'
p4329
S'PERSON'
p4330
tp4331
I450
s(g28
S'brothers'
p4332
S'OTHER'
p4333
tp4334
I539
s(g28
S'century'
p4335
S'DATE'
p4336
tp4337
I455
s(g28
S'emperor'
p4338
S'OTHER'
p4339
tp4340
I1174
s(g28
S'period'
p4341
S'OTHER'
p4342
tp4343
I1167
s(g28
S'seagull'
p4344
S'OTHER'
p4345
tp4346
I1380
s(g28
S'pounds'
p4347
S'NUMBER'
p4348
tp4349
I1229
s(g28
S'products'
p4350
S'OTHER'
p4351
tp4352
I73
s(g28
S'resident'
p4353
S'PERSON'
p4354
tp4355
I183
s(g28
S'sergeant'
p4356
S'PERSON'
p4357
tp4358
I1369
s(g28
S'questions'
p4359
S'NUMBER'
p4360
tp4361
I553
s(g28
S'monarchy'
p4362
S'LOCATION'
p4363
tp4364
I1696
s(g28
S'capital'
p4365
S'LOCATION'
p4366
tp4367
I39
s(g28
S'nfl'
p4368
S'DATE'
p4369
tp4370
I1106
s(g28
S'nebbish'
p4371
S'PERSON'
p4372
tp4373
I1173
s(g28
S'votes'
p4374
S'NUMBER'
p4375
tp4376
I798
s(g28
S'force'
p4377
S'ORGANIZATION'
p4378
tp4379
I1669
s(g28
S'nation'
p4380
S'LOCATION'
p4381
tp4382
I1272
s(g28
S'thrillers'
p4383
S'PERSON'
p4384
tp4385
I1604
s(g28
S'bone'
p4386
S'OTHER'
p4387
tp4388
I879
s(g28
S'job'
p4389
S'PERSON'
p4390
tp4391
I532
s(g28
S'attorneys'
p4392
S'PERSON'
p4393
tp4394
I929
s(g28
S'identity'
p4395
S'PERSON'
p4396
tp4397
I832
s(g28
S'themes'
p4398
S'PERSON'
p4399
tp4400
I105
s(g28
S'powell'
p4401
S'PERSON'
p4402
tp4403
I412
s(g28
S'quarters'
p4404
S'NUMBER'
p4405
tp4406
I346
s(g28
S'company'
p4407
S'DATE'
p4408
tp4409
I804
s(g28
S'time'
p4410
S'DATE'
p4411
tp4412
I938
s(g28
S'wingspan'
p4413
S'NUMBER'
p4414
tp4415
I373
s(g28
S'actor'
p4416
S'PERSON'
p4417
tp4418
I122
s(g28
S'guy'
p4419
S'PERSON'
p4420
tp4421
I1668
s(g28
S'cookie'
p4422
S'OTHER'
p4423
tp4424
I1622
s(g28
S'cereal'
p4425
S'OTHER'
p4426
tp4427
I549
s(g28
S'use'
p4428
S'DATE'
p4429
tp4430
I1651
s(g28
S'companies'
p4431
S'ORGANIZATION'
p4432
tp4433
I1517
s(g28
S'dish'
p4434
S'OTHER'
p4435
tp4436
I519
s(g28
S'smokey'
p4437
S'OTHER'
p4438
tp4439
I486
s(g28
S'epic'
p4440
S'OTHER'
p4441
tp4442
I1398
s(g28
S'sound'
p4443
S'OTHER'
p4444
tp4445
I1434
s(g28
S'manufacturers'
p4446
S'ORGANIZATION'
p4447
tp4448
I1239
s(g28
S'chop'
p4449
S'LOCATION'
p4450
tp4451
I1303
s(g28
S'goes'
p4452
S'LOCATION'
p4453
tp4454
I1170
s(g28
S'feud'
p4455
S'OTHER'
p4456
tp4457
I729
s(g28
S'flatfish'
p4458
S'OTHER'
p4459
tp4460
I332
s(g28
S'surname'
p4461
S'PERSON'
p4462
tp4463
I793
s(g28
S'snakes'
p4464
S'OTHER'
p4465
tp4466
I827
s(g28
S'expectancy'
p4467
S'TIME'
p4468
tp4469
I741
s(g28
S'thrilled'
p4470
S'OTHER'
p4471
tp4472
I1196
s(g28
S'thing'
p4473
S'OTHER'
p4474
tp4475
I849
s(g28
S'image'
p4476
S'PERSON'
p4477
tp4478
I900
s(g28
S'jong'
p4479
S'OTHER'
p4480
tp4481
I1038
s(g28
S'layer'
p4482
S'OTHER'
p4483
tp4484
I1429
s(g28
S'softball'
p4485
S'OTHER'
p4486
tp4487
I1326
s(g28
S'otters'
p4488
S'OTHER'
p4489
tp4490
I1550
s(g28
S'colors'
p4491
S'OTHER'
p4492
tp4493
I180
s(g28
S'ball'
p4494
S'OTHER'
p4495
tp4496
I125
s(g28
S'figure'
p4497
S'PERSON'
p4498
tp4499
I1100
s(g28
S'ages'
p4500
S'OTHER'
p4501
tp4502
I1014
s(g28
S'rose'
p4503
S'PERSON'
p4504
tp4505
I431
s(g28
S'cables'
p4506
S'NUMBER'
p4507
tp4508
I1368
s(g28
S'submarine'
p4509
S'OTHER'
p4510
tp4511
I965
s(g28
S'skin'
p4512
S'OTHER'
p4513
tp4514
I999
s(g28
S'name'
p4515
S'OTHER'
p4516
tp4517
I72
s(g28
S'barbie'
p4518
S'DATE'
p4519
tp4520
I840
s(g28
S'witness'
p4521
S'PERSON'
p4522
tp4523
I1642
s(g28
S'mall'
p4524
S'LOCATION'
p4525
tp4526
I631
s(g28
S'ship'
p4527
S'OTHER'
p4528
tp4529
I1005
s(g28
S'positions'
p4530
S'PERSON'
p4531
tp4532
I614
s(g28
S'movies'
p4533
S'NUMBER'
p4534
tp4535
I1209
s(g28
S'earthquakes'
p4536
S'OTHER'
p4537
tp4538
I1516
s(g28
S'villi'
p4539
S'NUMBER'
p4540
tp4541
I52
s(g28
S'names'
p4542
S'PERSON'
p4543
tp4544
I347
s(g28
S'davies'
p4545
S'LOCATION'
p4546
tp4547
I471
s(g28
S'video'
p4548
S'PERSON'
p4549
tp4550
I316
s(g28
S'talking'
p4551
S'PERSON'
p4552
tp4553
I369
s(g28
g185
S'ORGANIZATION'
p4554
tp4555
I22
s(g28
S'characters'
p4556
S'NUMBER'
p4557
tp4558
I1547
s(g28
S'stars'
p4559
S'OTHER'
p4560
tp4561
I1112
s(g28
S'coastlines'
p4562
S'LOCATION'
p4563
tp4564
I530
s(g28
S'spumante'
p4565
S'ORGANIZATION'
p4566
tp4567
I88
s(g28
S'sort'
p4568
S'OTHER'
p4569
tp4570
I1244
s(g28
S'bowling'
p4571
S'PERSON'
p4572
tp4573
I826
s(g28
S'household'
p4574
S'OTHER'
p4575
tp4576
I283
s(g28
S'temperature'
p4577
S'NUMBER'
p4578
tp4579
I300
s(g28
S'kid'
p4580
S'OTHER'
p4581
tp4582
I979
s(g28
S'hamlet'
p4583
S'PERSON'
p4584
tp4585
I857
s(g28
S'prison'
p4586
S'LOCATION'
p4587
tp4588
I1199
s(g28
S'account'
p4589
S'PERCENT'
p4590
tp4591
I1276
s(g28
S'god'
p4592
S'OTHER'
p4593
tp4594
I462
s(g28
S'grammys'
p4595
S'NUMBER'
p4596
tp4597
I507
s(g28
S'trademark'
p4598
S'ORGANIZATION'
p4599
tp4600
I1635
s(g28
S'wedding'
p4601
S'DATE'
p4602
tp4603
I121
s(g28
S'sperm'
p4604
S'OTHER'
p4605
tp4606
I920
s(g28
S'captain'
p4607
S'PERSON'
p4608
tp4609
I956
s(g28
S'canal'
p4610
S'LOCATION'
p4611
tp4612
I1055
s(g28
S'way'
p4613
S'PERSON'
p4614
tp4615
I89
s(g28
S'amendements'
p4616
S'OTHER'
p4617
tp4618
I559
s(g28
S'journal'
p4619
S'DATE'
p4620
tp4621
I120
s(g28
S'pigs'
p4622
S'LOCATION'
p4623
tp4624
I529
s(g28
S'danube'
p4625
S'LOCATION'
p4626
tp4627
I378
s(g28
S'star'
p4628
S'PERSON'
p4629
tp4630
I307
s(g28
S'singer'
p4631
S'LOCATION'
p4632
tp4633
I572
s(g28
S'lawyers'
p4634
S'NUMBER'
p4635
tp4636
I595
s(g28
S'people'
p4637
S'OTHER'
p4638
tp4639
I1685
s(g28
S'invention'
p4640
S'OTHER'
p4641
tp4642
I1544
s(g28
S'lion'
p4643
S'PERSON'
p4644
tp4645
I1087
s(g28
S'morgan'
p4646
S'PERSON'
p4647
tp4648
I880
s(g28
S'columbus'
p4649
S'LOCATION'
p4650
tp4651
I166
s(g28
S'ruby'
p4652
S'DATE'
p4653
tp4654
I1683
s(g28
S'tv'
p4655
S'OTHER'
p4656
tp4657
I212
s(g28
S'components'
p4658
S'OTHER'
p4659
tp4660
I1200
s(g28
S'patents'
p4661
S'PERSON'
p4662
tp4663
I1686
s(g28
S'songs'
p4664
S'OTHER'
p4665
tp4666
I366
s(g28
S'life'
p4667
S'PERSON'
p4668
tp4669
I576
s(g28
S'surfboard'
p4670
S'PERSON'
p4671
tp4672
I834
s(g28
S'kemper'
p4673
S'PERSON'
p4674
tp4675
I1441
s(g28
S'horsepower'
p4676
S'NUMBER'
p4677
tp4678
I733
s(g28
S'creator'
p4679
S'PERSON'
p4680
tp4681
I643
s(g28
S'droppings'
p4682
S'OTHER'
p4683
tp4684
I1397
s(g28
S'conference'
p4685
S'OTHER'
p4686
tp4687
I702
s(g28
S'liquid'
p4688
S'OTHER'
p4689
tp4690
I1116
s(g28
S'railway'
p4691
S'DATE'
p4692
tp4693
I970
s(g28
S'opera'
p4694
S'OTHER'
p4695
tp4696
I1208
s(g28
S'scrabble'
p4697
S'PERSON'
p4698
tp4699
I739
s(g28
S'kennedy'
p4700
S'OTHER'
p4701
tp4702
I1640
s(g28
S'example'
p4703
S'OTHER'
p4704
tp4705
I1009
s(g28
S'minister'
p4706
S'PERSON'
p4707
tp4708
I216
s(g28
S'ruth'
p4709
S'DATE'
p4710
tp4711
I1468
s(g28
S'mine'
p4712
S'OTHER'
p4713
tp4714
I1013
s(g28
S'limit'
p4715
S'OTHER'
p4716
tp4717
I1359
s(g28
S'names'
p4718
S'LOCATION'
p4719
tp4720
I42
s(g28
S'encounters'
p4721
S'OTHER'
p4722
tp4723
I1102
s(g28
S'tournaments'
p4724
S'OTHER'
p4725
tp4726
I1040
s(g28
S'information'
p4727
S'PERSON'
p4728
tp4729
I850
s(g28
S'predators'
p4730
S'OTHER'
p4731
tp4732
I225
s(g28
S'stocks'
p4733
S'LOCATION'
p4734
tp4735
I296
s(g28
S'maclaine'
p4736
S'OTHER'
p4737
tp4738
I1310
s(g28
S'libraries'
p4739
S'LOCATION'
p4740
tp4741
I714
s(g28
S'nickname'
p4742
S'OTHER'
p4743
tp4744
I1301
s(g28
S'florida'
p4745
S'DATE'
p4746
tp4747
I1363
s(g28
S'husband'
p4748
S'PERSON'
p4749
tp4750
I416
s(g28
S'ice'
p4751
S'OTHER'
p4752
tp4753
I853
s(g28
S'badu'
p4754
S'LOCATION'
p4755
tp4756
I1644
s(g28
S'basketball'
p4757
S'OTHER'
p4758
tp4759
I685
s(g28
S'meeting'
p4760
S'LOCATION'
p4761
tp4762
I969
s(g28
S'room'
p4763
S'PERSON'
p4764
tp4765
I1442
s(g28
S'visine'
p4766
S'OTHER'
p4767
tp4768
I949
s(g28
S'tribe'
p4769
S'ORGANIZATION'
p4770
tp4771
I108
s(g28
S'tiles'
p4772
S'NUMBER'
p4773
tp4774
I1454
s(g28
S'gordon'
p4775
S'PERSON'
p4776
tp4777
I1573
s(g28
S'clouds'
p4778
S'OTHER'
p4779
tp4780
I571
s(g28
S'shape'
p4781
S'OTHER'
p4782
tp4783
I1675
s(g28
S'clip'
p4784
S'PERSON'
p4785
tp4786
I704
s(g28
S'quetzalcoatl'
p4787
S'PERSON'
p4788
tp4789
I1072
s(g28
S'offices'
p4790
S'ORGANIZATION'
p4791
tp4792
I131
s(g28
g185
S'PERCENT'
p4793
tp4794
I320
s(g28
S'cherokee'
p4795
S'PERSON'
p4796
tp4797
I677
s(g28
S'andrews'
p4798
S'PERSON'
p4799
tp4800
I1341
s(g28
S'lindbergh'
p4801
S'PERSON'
p4802
tp4803
I1383
s(g28
S'animals'
p4804
S'OTHER'
p4805
tp4806
I244
s(g28
S'diary'
p4807
S'PERSON'
p4808
tp4809
I272
s(g28
S'novel'
p4810
S'OTHER'
p4811
tp4812
I78
s(g28
S'poet'
p4813
S'PERSON'
p4814
tp4815
I203
s(g28
S'dog'
p4816
S'PERSON'
p4817
tp4818
I914
s(g28
S'event'
p4819
S'OTHER'
p4820
tp4821
I387
s(g28
S'bodies'
p4822
S'LOCATION'
p4823
tp4824
I1512
s(g28
S'role'
p4825
S'PERSON'
p4826
tp4827
I176
s(g28
S'nickname'
p4828
S'LOCATION'
p4829
tp4830
I50
s(g28
S'broadcast'
p4831
S'DATE'
p4832
tp4833
I672
s(g28
S'american'
p4834
S'PERSON'
p4835
tp4836
I94
s(g28
S'flowers'
p4837
S'OTHER'
p4838
tp4839
I1391
s(g28
S'sailors'
p4840
S'OTHER'
p4841
tp4842
I1314
s(g28
S'boxer'
p4843
S'PERSON'
p4844
tp4845
I1347
s(g28
S'formula'
p4846
S'OTHER'
p4847
tp4848
I831
s(g28
S'snow'
p4849
S'NUMBER'
p4850
tp4851
I246
s(g28
S'cult'
p4852
S'OTHER'
p4853
tp4854
I1667
s(g28
S'restaurant'
p4855
S'LOCATION'
p4856
tp4857
I578
s(g28
S'journalist'
p4858
S'PERSON'
p4859
tp4860
I1425
s(g28
S'people'
p4861
S'ORGANIZATION'
p4862
tp4863
I234
s(g28
S'walker'
p4864
S'LOCATION'
p4865
tp4866
I974
s(g28
S'numbers'
p4867
S'NUMBER'
p4868
tp4869
I1063
s(g28
S'hawkins'
p4870
S'OTHER'
p4871
tp4872
I1205
s(g28
S'tammy'
p4873
S'PERSON'
p4874
tp4875
I1041
s(g28
S'department'
p4876
S'ORGANIZATION'
p4877
tp4878
I1221
s(g28
S'clinton'
p4879
S'LOCATION'
p4880
tp4881
I1611
s(g28
S'sailor'
p4882
S'PERSON'
p4883
tp4884
I573
s(g28
S'inventors'
p4885
S'PERSON'
p4886
tp4887
I899
s(g28
S'penguins'
p4888
S'OTHER'
p4889
tp4890
I1266
s(g28
S'owner'
p4891
S'OTHER'
p4892
tp4893
I607
s(g28
S'brontosauruses'
p4894
S'OTHER'
p4895
tp4896
I156
s(g28
S'surgeon'
p4897
S'PERSON'
p4898
tp4899
I981
s(g28
S'coronado'
p4900
S'PERSON'
p4901
tp4902
I331
s(g28
S'abstract'
p4903
S'LOCATION'
p4904
tp4905
I1246
s(g28
S'italians'
p4906
S'OTHER'
p4907
tp4908
I167
s(g28
S'producer'
p4909
S'OTHER'
p4910
tp4911
I399
s(g28
S'archenemy'
p4912
S'PERSON'
p4913
tp4914
I1374
s(g28
S'movie'
p4915
S'OTHER'
p4916
tp4917
I267
s(g28
S'steps'
p4918
S'LOCATION'
p4919
tp4920
I104
s(g28
S'simon'
p4921
S'OTHER'
p4922
tp4923
I1360
s(g28
S'englishmen'
p4924
S'NUMBER'
p4925
tp4926
I1403
s(g28
S'marlowe'
p4927
S'PERSON'
p4928
tp4929
I411
s(g28
S'island'
p4930
S'LOCATION'
p4931
tp4932
I278
s(g28
S'bear'
p4933
S'OTHER'
p4934
tp4935
I319
s(g28
S'flight'
p4936
S'OTHER'
p4937
tp4938
I844
s(g28
S'islands'
p4939
S'NUMBER'
p4940
tp4941
I1160
s(g28
S'racehorse'
p4942
S'OTHER'
p4943
tp4944
I1268
s(g28
S'dow'
p4945
S'DATE'
p4946
tp4947
I420
s(g28
S'kid'
p4948
S'PERSON'
p4949
tp4950
I323
s(g28
S'library'
p4951
S'LOCATION'
p4952
tp4953
I1552
s(g28
S'fingernails'
p4954
S'OTHER'
p4955
tp4956
I845
s(g28
S'enterprise'
p4957
S'PERSON'
p4958
tp4959
I878
s(g28
S'khrushchev'
p4960
S'PERSON'
p4961
tp4962
I1513
s(g28
S'tools'
p4963
S'PERSON'
p4964
tp4965
I1372
s(g28
S'husbands'
p4966
S'PERSON'
p4967
tp4968
I1247
s(g28
S'room'
p4969
S'LOCATION'
p4970
tp4971
I1371
s(g28
S'diamonds'
p4972
S'LOCATION'
p4973
tp4974
I1472
s(g28
S'owner'
p4975
S'PERSON'
p4976
tp4977
I1329
s(g28
S'yankee'
p4978
S'PERSON'
p4979
tp4980
I744
s(g28
S'organization'
p4981
S'ORGANIZATION'
p4982
tp4983
I336
s(g28
S'stars'
p4984
S'NUMBER'
p4985
tp4986
I524
s(g28
S'battle'
p4987
S'LOCATION'
p4988
tp4989
I625
s(g28
S'site'
p4990
S'LOCATION'
p4991
tp4992
I587
s(g28
S'websites'
p4993
S'LOCATION'
p4994
tp4995
I1306
s(g28
S'millennium'
p4996
S'DATE'
p4997
tp4998
I659
s(g28
S'bones'
p4999
S'NUMBER'
p5000
tp5001
I1026
s(g28
S'people'
p5002
S'PERSON'
p5003
tp5004
I400
s(g28
S'continent'
p5005
S'LOCATION'
p5006
tp5007
I615
s(g28
S'group'
p5008
S'DATE'
p5009
tp5010
I1042
s(g28
S'yards'
p5011
S'NUMBER'
p5012
tp5013
I1592
s(g28
S'majal'
p5014
S'OTHER'
p5015
tp5016
I1346
s(g28
S'ambassador'
p5017
S'DATE'
p5018
tp5019
I1410
s(g28
S'parks'
p5020
S'PERSON'
p5021
tp5022
I452
s(g28
S'hugo'
p5023
S'DATE'
p5024
tp5025
I391
s(g28
S'residents'
p5026
S'ORGANIZATION'
p5027
tp5028
I1107
s(g28
S'advocate'
p5029
S'PERSON'
p5030
tp5031
I1528
s(g28
S'republic'
p5032
S'LOCATION'
p5033
tp5034
I231
s(g28
S'leg'
p5035
S'OTHER'
p5036
tp5037
I839
s(g28
S'museum'
p5038
S'LOCATION'
p5039
tp5040
I841
s(g28
S'complex'
p5041
S'LOCATION'
p5042
tp5043
I1437
s(g28
S'children'
p5044
S'OTHER'
p5045
tp5046
I263
s(g28
S'reign'
p5047
S'PERSON'
p5048
tp5049
I688
s(g28
S'direction'
p5050
S'LOCATION'
p5051
tp5052
I1421
s(g28
S'wordsworth'
p5053
S'PERSON'
p5054
tp5055
I1382
s(g28
S'nixon'
p5056
S'DATE'
p5057
tp5058
I1079
s(g28
S'ridder'
p5059
S'OTHER'
p5060
tp5061
I1225
s(g28
S'house'
p5062
S'LOCATION'
p5063
tp5064
I1147
s(g28
S'export'
p5065
S'OTHER'
p5066
tp5067
I286
s(g28
S'events'
p5068
S'OTHER'
p5069
tp5070
I428
s(g28
S'college'
p5071
S'NUMBER'
p5072
tp5073
I1533
s(g28
S'paganini'
p5074
S'PERSON'
p5075
tp5076
I619
s(g28
S'x-man'
p5077
S'PERSON'
p5078
tp5079
I1480
s(g28
S'alphabet'
p5080
S'OTHER'
p5081
tp5082
I654
s(g28
S'medals'
p5083
S'PERSON'
p5084
tp5085
I1444
s(g28
S'russians'
p5086
S'NUMBER'
p5087
tp5088
I1195
s(g28
S'state'
p5089
g20
tp5090
I10
s(g28
S'athletes'
p5091
S'NUMBER'
p5092
tp5093
I1698
s(g28
S'book'
p5094
S'OTHER'
p5095
tp5096
I57
s(g28
S'society'
p5097
S'ORGANIZATION'
p5098
tp5099
I1607
s(g28
S'beer'
p5100
S'OTHER'
p5101
tp5102
I226
s(g28
S'birthday'
p5103
S'DATE'
p5104
tp5105
I501
s(g28
S'pillar'
p5106
S'PERSON'
p5107
tp5108
I1098
s(g28
S'witch'
p5109
S'OTHER'
p5110
tp5111
I1137
s(g28
S'victoria'
p5112
S'DATE'
p5113
tp5114
I726
s(g28
S'cards'
p5115
S'OTHER'
p5116
tp5117
I866
s(g28
S'states'
p5118
S'LOCATION'
p5119
tp5120
I19
ssbsS'_weights'
p5121
cnumpy.core.multiarray
_reconstruct
p5122
(cnumpy
ndarray
p5123
(I0
tp5124
S'b'
p5125
tp5126
Rp5127
(I1
(I1703
tp5128
cnumpy
dtype
p5129
(S'f8'
p5130
I0
I1
tp5131
Rp5132
(I3
S'<'
p5133
NNNI-1
I-1
I0
tp5134
bI00
S'L\xbc\x86\x9a\xb9\xe1 @\xda\x06\x9e\xa3)C#@\xec\x06\x9e\xa3)C#@\x1e\xee\xd6\xde\x96#!@\xec\x06\x9e\xa3)C#@\xec\x06\x9e\xa3)C#@\xcb\x06\x9e\xa3)C#@\xec\x06\x9e\xa3)C#@\xec\x06\x9e\xa3)C#@\xda\x06\x9e\xa3)C#@\xd9\x06\x9e\xa3)C#@L\xbc\x86\x9a\xb9\xe1 @\xca\x06\x9e\xa3)C#@\x16\xba\xdb\x93>\x8b\xf1?\xec\x06\x9e\xa3)C#@\xda\x06\x9e\xa3)C#@\xec\x06\x9e\xa3)C#@\xda\x06\x9e\xa3)C#@\xda\x06\x9e\xa3)C#@\xdcL\x9c\x0cfh!@\xda\x06\x9e\xa3)C#@\xf4\x06\x9e\xa3)C#@O\xb3\x85\xfd\x1b\n\xfd\xbf\xf4\x06\x9e\xa3)C#@\xbc-7\xea\xe64\x18@\xda\x06\x9e\xa3)C#@\xda\x06\x9e\xa3)C#@\xda\x06\x9e\xa3)C#@\xa68\x039\xa5(\xee?\xec\x06\x9e\xa3)C#@\xda\x06\x9e\xa3)C#@\xb9\x06\x9e\xa3)C#@\xda\x06\x9e\xa3)C#@\xdb\x06\x9e\xa3)C#@\xe7\x06\x9e\xa3)C#@\xec\x06\x9e\xa3)C#@\xdc\x06\x9e\xa3)C#@\xd4\x06\x9e\xa3)C#@\xda\x06\x9e\xa3)C#@\xdd\x06\x9e\xa3)C#@\xec\x06\x9e\xa3)C#@\xe2\x06\x9e\xa3)C#@\x14s1\x8dq\x80\x17@\xf1\xf7\x97\xa0>\xc5\xe6?\xec\x06\x9e\xa3)C#@\xda\x06\x9e\xa3)C#@\xec\x06\x9e\xa3)C#@\xec\x06\x9e\xa3)C#@\x1f\xbc\xb1\xfa[D!@\xda\x06\x9e\xa3)C#@\xa6\x8c\x1ci\x01\xda\x1b@\xd5\x06\x9e\xa3)C#@\xf4\x06\x9e\xa3)C#@\xdb\x06\x9e\xa3)C#@T\xa6_\xe4Y\x90\x1e@F\xd8`\xf7TQ"@\xc2\xc9\x12f9\xb6!@\xb8_\xce\xcf\\\xbf"@\xb9\x06\x9e\xa3)C#@\xcb\x06\x9e\xa3)C#@\xda\x06\x9e\xa3)C#@\xec\x06\x9e\xa3)C#@\t\xc3\x11\x93\xc5\xc9\xe2?\x80\xc9\xeb\xe6rc\x1d@\xda\x06\x9e\xa3)C#@\xda\x06\x9e\xa3)C#@\xda\x06\x9e\xa3)C#@\xd2\xc9\x12f9\xb6!@\xda\x06\x9e\xa3)C#@\xda\x06\x9e\xa3)C#@\xd5\x06\x9e\xa3)C#@9\xee\xd6\xde\x96#!@2\'\xe6So\x18\x1f@\xd5\x06\x9e\xa3)C#@2\x80\x8b`\x01[\xd6\xbf\xec\x06\x9e\xa3)C#@\xb9\x06\x9e\xa3)C#@<\xbc\x86\x9a\xb9\xe1 @\xd4\x06\x9e\xa3)C#@\xd9\x06\x9e\xa3)C#@\xcd\xc9\x12f9\xb6!@\xc6g(\xd8\xe5<"@Uu:\xe9j\xce\xf4\xbf\xec\x06\x9e\xa3)C#@\xf4\x06\x9e\xa3)C#@\xda\x06\x9e\xa3)C#@\xda\x06\x9e\xa3)C#@\xf4\x06\x9e\xa3)C#@\xb9\x06\x9e\xa3)C#@\x1a2\x1fS\xe7\x8b\x1a@\xec\x06\x9e\xa3)C#@G\xbc\x86\x9a\xb9\xe1 @\xf4\x06\x9e\xa3)C#@Q\xbc\x86\x9a\xb9\xe1 @\xec\x06\x9e\xa3)C#@u\xf8\xa30Tf"@\xda\x06\x9e\xa3)C#@u1\xa5\x1b\xa0\xcc!@\xcb\x06\x9e\xa3)C#@\xcb\xc9\x12f9\xb6!@\x90\x92\r5s\xc3\x1d@\xec\x06\x9e\xa3)C#@\xda\x06\x9e\xa3)C#@\xd8\xc9\x12f9\xb6!@\xda\x06\x9e\xa3)C#@\xec\x06\x9e\xa3)C#@\xec\x06\x9e\xa3)C#@\xda\x06\x9e\xa3)C#@\xb9\x06\x9e\xa3)C#@\xf4\x06\x9e\xa3)C#@\xae\xb8o\xbd\xaf\x87\x16@\xda\x06\x9e\xa3)C#@\x0fK\x87\xea@\x9d\x1e@\xe7\x06\x9e\xa3)C#@\xaf\x93%\xccrl\x1f@\xda\x06\x9e\xa3)C#@\xda\x06\x9e\xa3)C#@\x90\x92\r5s\xc3\x1d@\xda\x06\x9e\xa3)C#@\xec\x06\x9e\xa3)C#@\xcb\x06\x9e\xa3)C#@\xcb\x06\x9e\xa3)C#@8j\x96\x03\xfc\xaa"@\xdf\xc9\x12f9\xb6!@\\\xb8\x92\xd0\x0e3\x03\xc0\xda\x06\x9e\xa3)C#@\x0ev\xb7\xfbp\x92!@\xda\x06\x9e\xa3)C#@\xda\x06\x9e\xa3)C#@\xbb\x1c8\xe0\xffv @\xda\x06\x9e\xa3)C#@\xb9\x06\x9e\xa3)C#@\xda\x06\x9e\xa3)C#@\xf4\x06\x9e\xa3)C#@\xcb\x06\x9e\xa3)C#@\xe7\x06\x9e\xa3)C#@\xec\x06\x9e\xa3)C#@\xf4\x06\x9e\xa3)C#@\xda\x06\x9e\xa3)C#@\xd5\x06\x9e\xa3)C#@\xda\x06\x9e\xa3)C#@I\xc2D#3\xf6\x1a@\xcb\xc9\x12f9\xb6!@\xec\x06\x9e\xa3)C#@\xcb\x06\x9e\xa3)C#@\xec\x06\x9e\xa3)C#@-\xbc\x86\x9a\xb9\xe1 @\xec\x06\x9e\xa3)C#@\xda\x06\x9e\xa3)C#@\xda\x06\x9e\xa3)C#@\xda\x06\x9e\xa3)C#@\xcb\x06\x9e\xa3)C#@-\xbc\x86\x9a\xb9\xe1 @\xc5\xf2\x8c\x00\xeax!@\t?tU\xcd\xd2"@\xd5\x06\x9e\xa3)C#@\xda\x06\x9e\xa3)C#@\xec\x06\x9e\xa3)C#@\x8b\xd0\xa9\xab`\x86 @\xda\x06\x9e\xa3)C#@\xab\x884\x00\x01\x83\x1d@\xd5\x06\x9e\xa3)C#@\xcb\x06\x9e\xa3)C#@\xf9\x06\x9e\xa3)C#@\xec\x06\x9e\xa3)C#@\xceg(\xd8\xe5<"@\xda\x06\x9e\xa3)C#@\xda\x06\x9e\xa3)C#@\xda\x06\x9e\xa3)C#@\xda\x06\x9e\xa3)C#@\xd5\x06\x9e\xa3)C#@.\xbc\x86\x9a\xb9\xe1 @\xec\x06\x9e\xa3)C#@\xda\x06\x9e\xa3)C#@.\xbc\x86\x9a\xb9\xe1 @\xda\x06\x9e\xa3)C#@\xec\x06\x9e\xa3)C#@\xf4\x06\x9e\xa3)C#@g\x88w\x12\xf4\x9c!@\xda\x06\x9e\xa3)C#@m)Z\x9b\xdc\x93!@\xf9\x06\x9e\xa3)C#@\xec\x06\x9e\xa3)C#@\xec\x06\x9e\xa3)C#@\x80\xe5\xee$\xe89\x1f@\xf9\x06\x9e\xa3)C#@\xf4\x06\x9e\xa3)C#@\xda\x06\x9e\xa3)C#@\xcc\xb3%/\xdco @\xec\x06\x9e\xa3)C#@\xe7\x06\x9e\xa3)C#@\xda\x06\x9e\xa3)C#@\xda\x06\x9e\xa3)C#@\xec\x06\x9e\xa3)C#@\xb9\x06\x9e\xa3)C#@\xda\x06\x9e\xa3)C#@\x81\x93%\xccrl\x1f@\x07\xc1\xfa\xce9\r"@\xda\x06\x9e\xa3)C#@\x8b\x8e\x8f\xa9\xf3E!@\xf9\x06\x9e\xa3)C#@\xda\x06\x9e\xa3)C#@\xf1\xd2%/\xdco"@\xec\x06\x9e\xa3)C#@\xf4\x06\x9e\xa3)C#@G\xbc\x86\x9a\xb9\xe1 @\xb9\x06\x9e\xa3)C#@\xda\x06\x9e\xa3)C#@\xe7\x06\x9e\xa3)C#@\xda\x06\x9e\xa3)C#@\xec\x06\x9e\xa3)C#@+\xbc\x86\x9a\xb9\xe1 @r)Z\x9b\xdc\x93!@\xec\x06\x9e\xa3)C#@\xec\x06\x9e\xa3)C#@\xf4\x06\x9e\xa3)C#@\xec\x06\x9e\xa3)C#@=\xbc\x86\x9a\xb9\xe1 @\xd8\xc9\x12f9\xb6!@\xda\x06\x9e\xa3)C#@\xf4\x06\x9e\xa3)C#@\xda\x06\x9e\xa3)C#@\xff\xe1[:\x17\x7f"@\xd5\x06\x9e\xa3)C#@G\xbc\x86\x9a\xb9\xe1 @\xda\x06\x9e\xa3)C#@\xda\x06\x9e\xa3)C#@\xf4\x06\x9e\xa3)C#@\xda\x06\x9e\xa3)C#@\xd5\x06\x9e\xa3)C#@\xd5\x06\x9e\xa3)C#@\xda\x06\x9e\xa3)C#@dx\xcb\xd2WM\x15@\xcb\x06\x9e\xa3)C#@dx\xcb\xd2WM\x11@\xda\x06\x9e\xa3)C#@\xda\x06\x9e\xa3)C#@G\xbc\x86\x9a\xb9\xe1 @\xda\x06\x9e\xa3)C#@\xec\x06\x9e\xa3)C#@\xec\x06\x9e\xa3)C#@\xec\x06\x9e\xa3)C#@\xda\x06\x9e\xa3)C#@\xda\x06\x9e\xa3)C#@\xda\x06\x9e\xa3)C#@\xf4\x06\x9e\xa3)C#@\xf4\x06\x9e\xa3)C#@\xfd\xc0\xfa\xce9\r"@\xda\x06\x9e\xa3)C#@<\xbc\x86\x9a\xb9\xe1 @\xe7\x06\x9e\xa3)C#@\xec\x06\x9e\xa3)C#@\xda\x06\x9e\xa3)C#@\xec\x06\x9e\xa3)C#@,\x9c\x94\x1f\x81\xb7"@\xda\x06\x9e\xa3)C#@\xe7\x06\x9e\xa3)C#@\xd5\x06\x9e\xa3)C#@\xec\x06\x9e\xa3)C#@\xbe\x93%\xccrl\x1f@\xda\x06\x9e\xa3)C#@\xd5\x06\x9e\xa3)C#@\xec\x06\x9e\xa3)C#@\xf6\x05\x1fS\xe7\x8b\x1e@\xf4\x06\x9e\xa3)C#@\xcb\x06\x9e\xa3)C#@G\xbc\x86\x9a\xb9\xe1 @\xd5\x06\x9e\xa3)C#@\xe7\x06\x9e\xa3)C#@\xb9\x06\x9e\xa3)C#@\xccP\n\xf7\xfd\xec\x1f@\xda\x06\x9e\xa3)C#@\xec\x06\x9e\xa3)C#@\xf4\x06\x9e\xa3)C#@\xec\x06\x9e\xa3)C#@\xd8\x05\x1fS\xe7\x8b\x1e@.\xbc\x86\x9a\xb9\xe1 @\xec\x06\x9e\xa3)C#@\xd4\x06\x9e\xa3)C#@\xec\x06\x9e\xa3)C#@\xec\x06\x9e\xa3)C#@\xda\x06\x9e\xa3)C#@\xec\x06\x9e\xa3)C#@\xda\x06\x9e\xa3)C#@\xf4\x06\x9e\xa3)C#@\x02\x1c\x1fS\xe7\x8b\x1a@\xda\x06\x9e\xa3)C#@\xda\x06\x9e\xa3)C#@\xec\x06\x9e\xa3)C#@\xf4\x06\x9e\xa3)C#@\xf8\x06\x9e\xa3)C#@\x87U\x1a\x80\x80\xc1 @\xf4\x06\x9e\xa3)C#@h\xbb=cr\x15\x1d@;\xbc\x86\x9a\xb9\xe1 @\xdd\x06\x9e\xa3)C#@\xda\x06\x9e\xa3)C#@\xcb\x06\x9e\xa3)C#@"\xf4\x8c\x00\xeax!@\xda\x06\x9e\xa3)C#@\xf9\x06\x9e\xa3)C#@\xda\x06\x9e\xa3)C#@\xda\x06\x9e\xa3)C#@\xec\x06\x9e\xa3)C#@\xda\x06\x9e\xa3)C#@\xbf\xdes\xd1\x16("@\xda\x06\x9e\xa3)C#@\xdf\xc9\x12f9\xb6!@\xb9\x06\x9e\xa3)C#@\xda\x06\x9e\xa3)C#@\xd5\x06\x9e\xa3)C#@\xec\x06\x9e\xa3)C#@\xda\x06\x9e\xa3)C#@\xf4\x06\x9e\xa3)C#@\xf4\x06\x9e\xa3)C#@\xda\x06\x9e\xa3)C#@G\xbc\x86\x9a\xb9\xe1 @\xf4\x06\x9e\xa3)C#@\xb5\x93%\xccrl\x1f@\xda\x06\x9e\xa3)C#@/\x19mF6\x15\x07\xc0\xf4\x06\x9e\xa3)C#@\x19fAf\xc7w\x13@\xd8\xc9\x12f9\xb6!@\xd2\x13]|,\xa8\x19@\xd5\x06\x9e\xa3)C#@\xcb\x06\x9e\xa3)C#@\xda\x06\x9e\xa3)C#@\xda\x06\x9e\xa3)C#@\xda\x06\x9e\xa3)C#@\xf4\x06\x9e\xa3)C#@\xec\x06\x9e\xa3)C#@\xda\x06\x9e\xa3)C#@G\xbc\x86\x9a\xb9\xe1 @0\x9c\x94\x1f\x81\xb7"@\xda\x06\x9e\xa3)C#@\xb9\x06\x9e\xa3)C#@\xec\x06\x9e\xa3)C#@\xec\x06\x9e\xa3)C#@\xda\x06\x9e\xa3)C#@\xda\x06\x9e\xa3)C#@\xb9\x06\x9e\xa3)C#@\xcb\x06\x9e\xa3)C#@\xdd\x06\x9e\xa3)C#@\xec\x06\x9e\xa3)C#@\xda\x06\x9e\xa3)C#@\xf4\x06\x9e\xa3)C#@\xdbP\x9aes\xab @\xda\x06\x9e\xa3)C#@\xa0\x92\r5s\xc3\x1d@\x1a2\x1fS\xe7\x8b\x16@\xec\x06\x9e\xa3)C#@\xda\x06\x9e\xa3)C#@\xdd\x06\x9e\xa3)C#@\xda\x06\x9e\xa3)C#@\xec\x06\x9e\xa3)C#@\xec\x06\x9e\xa3)C#@\xda\x06\x9e\xa3)C#@\xa4\x93%\xccrl\x1f@\xda\x06\x9e\xa3)C#@\xc9\xf3(WH`\x0e@\xda\x06\x9e\xa3)C#@\xb1O\xef\x1f\xde^ @\xec\x06\x9e\xa3)C#@\xda\x06\x9e\xa3)C#@\xf4\x06\x9e\xa3)C#@\xda\x06\x9e\xa3)C#@&Hq(\r["@\xda\x06\x9e\xa3)C#@\xec\x06\x9e\xa3)C#@\xf5\xbc\xe3\xbdR\x9b"@\xe7\x06\x9e\xa3)C#@\xf5\xc0\xfa\xce9\r"@\xf4\x06\x9e\xa3)C#@\xec\x06\x9e\xa3)C#@\x03\xc1\xfa\xce9\r"@G\xbc\x86\x9a\xb9\xe1 @\xa4\x93%\xccrl\x1f@\xda\x06\x9e\xa3)C#@\xec\x06\x9e\xa3)C#@\xf4\x06\x9e\xa3)C#@\xf4\x06\x9e\xa3)C#@\xda\x06\x9e\xa3)C#@\xda\x06\x9e\xa3)C#@\xec\x06\x9e\xa3)C#@\xec\x06\x9e\xa3)C#@\xda\x06\x9e\xa3)C#@\xda\x06\x9e\xa3)C#@\xd5\x06\x9e\xa3)C#@\xf4\x06\x9e\xa3)C#@\xda\x06\x9e\xa3)C#@-\xbc\x86\x9a\xb9\xe1 @\xec\x06\x9e\xa3)C#@\xf4\x06\x9e\xa3)C#@\xcb\x06\x9e\xa3)C#@W\xe3c\xf5\xb7\x88\x16@\xec\x06\x9e\xa3)C#@G\xbc\x86\x9a\xb9\xe1 @\xec\x06\x9e\xa3)C#@r\x92\r5s\xc3\x1d@\xbeg\xb3;X\xa4\x13@\xda\x06\x9e\xa3)C#@\xda\x06\x9e\xa3)C#@\xda\x06\x9e\xa3)C#@\xec\x06\x9e\xa3)C#@\x04Hq(\r["@\xec\x06\x9e\xa3)C#@\xda\x06\x9e\xa3)C#@\xda\x06\x9e\xa3)C#@\xf4\x06\x9e\xa3)C#@\xda\x06\x9e\xa3)C#@\xec\x06\x9e\xa3)C#@\xec\x06\x9e\xa3)C#@\xfd\xc0\xfa\xce9\r"@\xec\x06\x9e\xa3)C#@\xd0\xc1\r5s\xc3\x19@\xec\x06\x9e\xa3)C#@\xf4\x06\x9e\xa3)C#@\xec\x06\x9e\xa3)C#@\xda\x06\x9e\xa3)C#@\xcb\x06\x9e\xa3)C#@\xb8\x06\x9e\xa3)C#@\xda\x06\x9e\xa3)C#@\xda\x06\x9e\xa3)C#@\xda\x06\x9e\xa3)C#@\xec\x06\x9e\xa3)C#@\xec\x06\x9e\xa3)C#@\xd5\x06\x9e\xa3)C#@\xfd\xc0\xfa\xce9\r"@\xec\x06\x9e\xa3)C#@\xec\x06\x9e\xa3)C#@\xec\x06\x9e\xa3)C#@\xcb\x06\x9e\xa3)C#@\xf4\x06\x9e\xa3)C#@\xe2\x06\x9e\xa3)C#@\xc2\xc9\x12f9\xb6!@\xf4\x06\x9e\xa3)C#@\xec\x06\x9e\xa3)C#@\xf4\x06\x9e\xa3)C#@\xda\x06\x9e\xa3)C#@+\xbc\x86\x9a\xb9\xe1 @\xda\x06\x9e\xa3)C#@\xf4\x06\x9e\xa3)C#@\xda\x06\x9e\xa3)C#@\xec\x06\x9e\xa3)C#@\xda\x06\x9e\xa3)C#@\xda\x06\x9e\xa3)C#@\xec\x06\x9e\xa3)C#@\xec\x06\x9e\xa3)C#@\xf4\x06\x9e\xa3)C#@\xec\x06\x9e\xa3)C#@\xda\x06\x9e\xa3)C#@\xec\x06\x9e\xa3)C#@\xf4\x06\x9e\xa3)C#@\xcb\x06\x9e\xa3)C#@\xc9\x06\x9e\xa3)C#@\xf4\x06\x9e\xa3)C#@\xda\x06\x9e\xa3)C#@\xda\x06\x9e\xa3)C#@\xe7\x06\x9e\xa3)C#@\xec\x06\x9e\xa3)C#@\xf4\x06\x9e\xa3)C#@\xaf\x93%\xccrl\x1f@\xf4\x06\x9e\xa3)C#@\xda\x06\x9e\xa3)C#@\xf4\x06\x9e\xa3)C#@\x90sb\xce?B\x19@\xda\x06\x9e\xa3)C#@\xda\x06\x9e\xa3)C#@\xda\x06\x9e\xa3)C#@\xda\x06\x9e\xa3)C#@\xda\x06\x9e\xa3)C#@.\x13\xeek\xc7\xea!@\xec\x06\x9e\xa3)C#@&Hq(\r["@\xcb\x06\x9e\xa3)C#@\xda\x06\x9e\xa3)C#@\xf5\xc0\xfa\xce9\r"@\xc6n\x10A\xe6\x93"@\xe7\x06\x9e\xa3)C#@\xf4\x06\x9e\xa3)C#@\xf4\x06\x9e\xa3)C#@G\xbc\x86\x9a\xb9\xe1 @\xda\x06\x9e\xa3)C#@\xec\x06\x9e\xa3)C#@\xec\x06\x9e\xa3)C#@\xda\x06\x9e\xa3)C#@\xdd\x06\x9e\xa3)C#@\xda\x06\x9e\xa3)C#@ob\x19\xf6q\xd7\x19@\xda\x06\x9e\xa3)C#@\xda\x06\x9e\xa3)C#@|\x88c\xf5\xb7\x88\x1e@\xb9\x06\x9e\xa3)C#@\xf4\x06\x9e\xa3)C#@\xf4\x06\x9e\xa3)C#@\xda\x06\x9e\xa3)C#@\xf4\x06\x9e\xa3)C#@\x81\x93%\xccrl\x1f@\xda\x06\x9e\xa3)C#@\xec\x06\x9e\xa3)C#@\xcb\x06\x9e\xa3)C#@\xb9\x06\x9e\xa3)C#@\xf4\x06\x9e\xa3)C#@Q\xbc\x86\x9a\xb9\xe1 @\xec\x06\x9e\xa3)C#@\xf4\x06\x9e\xa3)C#@\xf4\x06\x9e\xa3)C#@\xda\x06\x9e\xa3)C#@\xf3\xe1[:\x17\x7f"@\xf4\x06\x9e\xa3)C#@\xda\x06\x9e\xa3)C#@\xec\x06\x9e\xa3)C#@\xda\x06\x9e\xa3)C#@\xda\x06\x9e\xa3)C#@\xec\x06\x9e\xa3)C#@\xec\x06\x9e\xa3)C#@\xda\x06\x9e\xa3)C#@\xec\x06\x9e\xa3)C#@\xda\x06\x9e\xa3)C#@\xda\x06\x9e\xa3)C#@\xec\x06\x9e\xa3)C#@G\xbc\x86\x9a\xb9\xe1 @\xda\x06\x9e\xa3)C#@\xd8\xc9\x12f9\xb6!@\xda\x06\x9e\xa3)C#@\xf4\x06\x9e\xa3)C#@\x9e\xf5\x9e1\xb9\x8a"@\xb9\x06\x9e\xa3)C#@\xda\x06\x9e\xa3)C#@\xda\x06\x9e\xa3)C#@\xcb\x06\x9e\xa3)C#@\xe7\x06\x9e\xa3)C#@\xec\x06\x9e\xa3)C#@G\xbc\x86\x9a\xb9\xe1 @\xda\x06\x9e\xa3)C#@\xf4\x06\x9e\xa3)C#@\xda\x06\x9e\xa3)C#@\xec\x06\x9e\xa3)C#@T\xa6_\xe4Y\x90\x1a@\xcb\x06\x9e\xa3)C#@\xf4\x06\x9e\xa3)C#@\xcb\x06\x9e\xa3)C#@\xec\x06\x9e\xa3)C#@\xda\x06\x9e\xa3)C#@\xec\x06\x9e\xa3)C#@\xec\x06\x9e\xa3)C#@\xda\x06\x9e\xa3)C#@\xda\x06\x9e\xa3)C#@\xda\x06\x9e\xa3)C#@\xdd\x06\x9e\xa3)C#@\xda\x06\x9e\xa3)C#@\xda\x06\x9e\xa3)C#@\xf4\x06\x9e\xa3)C#@\xec\x06\x9e\xa3)C#@w%J7@\x99\x1f@\xda\x06\x9e\xa3)C#@\xda\x06\x9e\xa3)C#@\xe7\x06\x9e\xa3)C#@\xda\x06\x9e\xa3)C#@\xec\x06\x9e\xa3)C#@\xe7\x06\x9e\xa3)C#@\x7f/J7@\x99\x1b@\xe8L\x9c\x0cfh!@\x80\xe5\xee$\xe89\x1f@\x0f\xab4\x00\x01\x83\x19@\xcb\x06\x9e\xa3)C#@\xf4\x06\x9e\xa3)C#@\xb9\x06\x9e\xa3)C#@<\xbc\x86\x9a\xb9\xe1 @\xda\x06\x9e\xa3)C#@\xda\x06\x9e\xa3)C#@\x93\xbe%\xccrl\x1b@\xec\x06\x9e\xa3)C#@G\xbc\x86\x9a\xb9\xe1 @\xe6\x05E\xe5,\xff\x1b@\xec\x06\x9e\xa3)C#@\xec\x06\x9e\xa3)C#@\xda\x06\x9e\xa3)C#@\xf4\x06\x9e\xa3)C#@\xf4\x06\x9e\xa3)C#@\xec\x06\x9e\xa3)C#@\xf4\x06\x9e\xa3)C#@\x94~.>\x16\xd4 @\xda\x06\x9e\xa3)C#@\xda\x06\x9e\xa3)C#@L\x9d4\x00\x01\x83\x15@\xda\x06\x9e\xa3)C#@\xec\x06\x9e\xa3)C#@L\xa6_\xe4Y\x90\x1a@\xec\x06\x9e\xa3)C#@\xd5\x06\x9e\xa3)C#@\xda\x06\x9e\xa3)C#@\xec\x06\x9e\xa3)C#@\xda\x06\x9e\xa3)C#@\xf4\x06\x9e\xa3)C#@\xec\x06\x9e\xa3)C#@\xda\x06\x9e\xa3)C#@\n\xc1\xfa\xce9\r"@\xcb\x06\x9e\xa3)C#@L\xa6_\xe4Y\x90\x1a@G\xbc\x86\x9a\xb9\xe1 @<\xbc\x86\x9a\xb9\xe1 @\xda\x06\x9e\xa3)C#@\xab\x884\x00\x01\x83\x1d@\xda\x06\x9e\xa3)C#@#}\x03\xdesq @G\xbc\x86\x9a\xb9\xe1 @\xda\x06\x9e\xa3)C#@\xec\x06\x9e\xa3)C#@\xec\x06\x9e\xa3)C#@\xec\x06\x9e\xa3)C#@\x1a-\x10\xbd/\xe9!@\xda\x06\x9e\xa3)C#@\xec\x06\x9e\xa3)C#@\xda\x06\x9e\xa3)C#@\xec\x06\x9e\xa3)C#@\xd5\x06\x9e\xa3)C#@\xec\x06\x9e\xa3)C#@\xec\x06\x9e\xa3)C#@\xec\x06\x9e\xa3)C#@6\xbc\x86\x9a\xb9\xe1 @\xec\x06\x9e\xa3)C#@\xf4\x06\x9e\xa3)C#@\xda\x06\x9e\xa3)C#@\xab\x884\x00\x01\x83\x19@\xec\x06\x9e\xa3)C#@\xda\x06\x9e\xa3)C#@\xcb\x06\x9e\xa3)C#@=\xbc\x86\x9a\xb9\xe1 @\xf4\x06\x9e\xa3)C#@\xda\x06\x9e\xa3)C#@\xda\x06\x9e\xa3)C#@\xec\x06\x9e\xa3)C#@\xec\x06\x9e\xa3)C#@\xda\x06\x9e\xa3)C#@\xec\x06\x9e\xa3)C#@\xda\x06\x9e\xa3)C#@\xec\x06\x9e\xa3)C#@o\x90;\xc0\xc1c\x1b@\xec\x06\x9e\xa3)C#@\xc1\xc9\x12f9\xb6!@\xec\x06\x9e\xa3)C#@\xec\x06\x9e\xa3)C#@\xda\x06\x9e\xa3)C#@\xf4\x06\x9e\xa3)C#@\xb9\x06\x9e\xa3)C#@\xda\x06\x9e\xa3)C#@\xbc-7\xea\xe64\x1c@\xec\x06\x9e\xa3)C#@\xf4\x06\x9e\xa3)C#@\xda\x06\x9e\xa3)C#@\xda\x06\x9e\xa3)C#@\xda\x06\x9e\xa3)C#@\xda\x06\x9e\xa3)C#@\xec\x06\x9e\xa3)C#@\xda\x06\x9e\xa3)C#@\xec\x06\x9e\xa3)C#@\xda\x06\x9e\xa3)C#@\xcb\x06\x9e\xa3)C#@\xec\x06\x9e\xa3)C#@\xec\x06\x9e\xa3)C#@\xda\x06\x9e\xa3)C#@\xec\x06\x9e\xa3)C#@\xda\x06\x9e\xa3)C#@\xda\x06\x9e\xa3)C#@\xda\x06\x9e\xa3)C#@\xcc\x06\x9e\xa3)C#@.U(\xd8\xe5< @\xec\x06\x9e\xa3)C#@\xda\x06\x9e\xa3)C#@\xf4\x06\x9e\xa3)C#@\xcb\x06\x9e\xa3)C#@\xda\x06\x9e\xa3)C#@\xb9\x06\x9e\xa3)C#@\xda\x06\x9e\xa3)C#@\xda\x06\x9e\xa3)C#@\xec\x06\x9e\xa3)C#@\xcb\x06\x9e\xa3)C#@\xf4\x06\x9e\xa3)C#@\x7f/J7@\x99\x1b@\xec\x06\x9e\xa3)C#@\xda\x06\x9e\xa3)C#@\xd5\x06\x9e\xa3)C#@&\xf6\x06\xbc\xe7\xe2\x1c@\xba\x92\r5s\xc3\x1d@\xf4\x06\x9e\xa3)C#@\xda\x06\x9e\xa3)C#@\xec\x06\x9e\xa3)C#@\xda\x06\x9e\xa3)C#@L\xbc\x86\x9a\xb9\xe1 @\xda\x06\x9e\xa3)C#@\xec\x06\x9e\xa3)C#@\xda\x06\x9e\xa3)C#@\xda\x06\x9e\xa3)C#@\xec\x06\x9e\xa3)C#@\xec\x06\x9e\xa3)C#@\xec\x06\x9e\xa3)C#@\xda\x06\x9e\xa3)C#@\xda\x06\x9e\xa3)C#@\xda\x06\x9e\xa3)C#@\xec\x06\x9e\xa3)C#@\xda\x06\x9e\xa3)C#@\xda\x06\x9e\xa3)C#@\xec\x06\x9e\xa3)C#@\xec\x06\x9e\xa3)C#@7\xbc\x86\x9a\xb9\xe1 @\xf4\x06\x9e\xa3)C#@\xec\x06\x9e\xa3)C#@\xda\x06\x9e\xa3)C#@\xc4\xc9\x12f9\xb6!@4\xbc\x86\x9a\xb9\xe1 @\xda\x06\x9e\xa3)C#@\xda\x06\x9e\xa3)C#@\xda\x06\x9e\xa3)C#@\xec\x06\x9e\xa3)C#@\xda\x06\x9e\xa3)C#@\xda\x06\x9e\xa3)C#@\xda\x06\x9e\xa3)C#@\xda\x06\x9e\xa3)C#@G\xbc\x86\x9a\xb9\xe1 @\xda\x06\x9e\xa3)C#@\xec\x06\x9e\xa3)C#@\xda\x06\x9e\xa3)C#@\xdd\x06\x9e\xa3)C#@\xda\x06\x9e\xa3)C#@\xcb\x06\x9e\xa3)C#@O\xbc\x86\x9a\xb9\xe1 @\xcb\x06\x9e\xa3)C#@\xda\x06\x9e\xa3)C#@\xf4\x06\x9e\xa3)C#@\xf9\x06\x9e\xa3)C#@\xda\x06\x9e\xa3)C#@\xf4\x06\x9e\xa3)C#@\xec\x06\x9e\xa3)C#@G\xbc\x86\x9a\xb9\xe1 @\xcb\x06\x9e\xa3)C#@\xda\x06\x9e\xa3)C#@\xda\x06\x9e\xa3)C#@\xec\x06\x9e\xa3)C#@6\xbc\x86\x9a\xb9\xe1 @\xc3\x06\x9e\xa3)C#@\xcb\x06\x9e\xa3)C#@\xf4\x06\x9e\xa3)C#@\xec\x06\x9e\xa3)C#@\xec\x06\x9e\xa3)C#@\xec\x06\x9e\xa3)C#@\xda\x06\x9e\xa3)C#@\xec\x06\x9e\xa3)C#@\xec\x06\x9e\xa3)C#@\xb9\x06\x9e\xa3)C#@\xe7\x06\x9e\xa3)C#@G\xbc\x86\x9a\xb9\xe1 @\xda\x06\x9e\xa3)C#@\xda\x06\x9e\xa3)C#@\xf4\x06\x9e\xa3)C#@\xec\x06\x9e\xa3)C#@\xe7\x06\x9e\xa3)C#@\xe7\x06\x9e\xa3)C#@\x01\x8e\x8f\xa9\xf3E!@\xcb\x06\x9e\xa3)C#@\xec\x06\x9e\xa3)C#@\xb9\x06\x9e\xa3)C#@\xdd\x06\x9e\xa3)C#@\xf4\x06\x9e\xa3)C#@+\xbc\x86\x9a\xb9\xe1 @\xf4\x06\x9e\xa3)C#@\xda\x06\x9e\xa3)C#@4\xbc\x86\x9a\xb9\xe1 @\xda\x06\x9e\xa3)C#@\xec\x06\x9e\xa3)C#@+\xbc\x86\x9a\xb9\xe1 @\xf4\x06\x9e\xa3)C#@\xda\x06\x9e\xa3)C#@\xda\x06\x9e\xa3)C#@\xb5\x93%\xccrl\x1f@\xda\x06\x9e\xa3)C#@\xec\x06\x9e\xa3)C#@\xda\x06\x9e\xa3)C#@\x0f\xab4\x00\x01\x83\x15@\xda\x06\x9e\xa3)C#@\xec\x06\x9e\xa3)C#@\xda\x06\x9e\xa3)C#@\xd5\x06\x9e\xa3)C#@\xb8\x06\x9e\xa3)C#@;U(\xd8\xe5< @\xec\x06\x9e\xa3)C#@\xda\x06\x9e\xa3)C#@\xda\x06\x9e\xa3)C#@\xaf\x93%\xccrl\x1f@\xec\x06\x9e\xa3)C#@\xda\x06\x9e\xa3)C#@7\xbc\x86\x9a\xb9\xe1 @\xec\x06\x9e\xa3)C#@\xda\x06\x9e\xa3)C#@\xec\x06\x9e\xa3)C#@\xf4\x06\x9e\xa3)C#@\xda\x06\x9e\xa3)C#@\xf4\x06\x9e\xa3)C#@\xda\x06\x9e\xa3)C#@\xec\x06\x9e\xa3)C#@6\xbc\x86\x9a\xb9\xe1 @\xda\x06\x9e\xa3)C#@\xda\x06\x9e\xa3)C#@\xc6$TW\xc1\x0c\x11@\xec\x06\x9e\xa3)C#@\xbe\x93%\xccrl\x1f@\xf4\x06\x9e\xa3)C#@\xf4\x06\x9e\xa3)C#@\xda\x06\x9e\xa3)C#@\xcb\x06\x9e\xa3)C#@\xda\x06\x9e\xa3)C#@\xec\x06\x9e\xa3)C#@\xda\x06\x9e\xa3)C#@\xf4\x06\x9e\xa3)C#@\xda\x06\x9e\xa3)C#@\xf4\x06\x9e\xa3)C#@\xda\x06\x9e\xa3)C#@\xd8\x05\x1fS\xe7\x8b\x1e@\xec\x06\x9e\xa3)C#@\x95\x93%\xccrl\x1f@\xbe\x93%\xccrl\x1f@G\xbc\x86\x9a\xb9\xe1 @\xc6g(\xd8\xe5<"@\xd5\x06\x9e\xa3)C#@\xec\x06\x9e\xa3)C#@\xec\x06\x9e\xa3)C#@\xda\x06\x9e\xa3)C#@\xf4\x06\x9e\xa3)C#@\xf9\x06\x9e\xa3)C#@\xda\x06\x9e\xa3)C#@\xd5\x06\x9e\xa3)C#@\xe7\x06\x9e\xa3)C#@+\xbc\x86\x9a\xb9\xe1 @\xec\x06\x9e\xa3)C#@L\xbc\x86\x9a\xb9\xe1 @\xda\x06\x9e\xa3)C#@\xd8\xc9\x12f9\xb6!@\xd8\x05\x1fS\xe7\x8b\x1e@\xda\x06\x9e\xa3)C#@\xcb\x06\x9e\xa3)C#@\xda\x06\x9e\xa3)C#@\xda\x06\x9e\xa3)C#@\xda\x06\x9e\xa3)C#@\xda\x06\x9e\xa3)C#@\xda\x06\x9e\xa3)C#@\xec\x06\x9e\xa3)C#@Q\xbc\x86\x9a\xb9\xe1 @~|\x03\xdesq @\xfb\xc0\xfa\xce9\r"@G\xbc\x86\x9a\xb9\xe1 @G\xbc\x86\x9a\xb9\xe1 @\xaf\x93%\xccrl\x1f@\xda\x06\x9e\xa3)C#@\xe3\xc0\xfa\xce9\r"@\xf4\x06\x9e\xa3)C#@<\xbc\x86\x9a\xb9\xe1 @\xec\x06\x9e\xa3)C#@\xda\x06\x9e\xa3)C#@\xec\x06\x9e\xa3)C#@\xf4\x06\x9e\xa3)C#@\xda\x06\x9e\xa3)C#@G\xbc\x86\x9a\xb9\xe1 @=\xbc\x86\x9a\xb9\xe1 @<\xbc\x86\x9a\xb9\xe1 @w%J7@\x99\x1f@L\xbc\x86\x9a\xb9\xe1 @\xda\x06\x9e\xa3)C#@\xda\x06\x9e\xa3)C#@G\xbc\x86\x9a\xb9\xe1 @\xec\x06\x9e\xa3)C#@\x14\x14>cr\x15\x15@\xec\x06\x9e\xa3)C#@\xda\x06\x9e\xa3)C#@\x95\x93%\xccrl\x1f@\xf6\x05\x1fS\xe7\x8b\x1e@\xda\x06\x9e\xa3)C#@\xf4\x06\x9e\xa3)C#@\xec\x06\x9e\xa3)C#@\xda\x06\x9e\xa3)C#@\xec\x06\x9e\xa3)C#@\xec\x06\x9e\xa3)C#@\xf4\x06\x9e\xa3)C#@Q\xbc\x86\x9a\xb9\xe1 @=\xbc\x86\x9a\xb9\xe1 @\xec\x06\x9e\xa3)C#@\xc4\xc9\x12f9\xb6!@\xda\x06\x9e\xa3)C#@\xec\x06\x9e\xa3)C#@\xf4\x06\x9e\xa3)C#@\xda\x06\x9e\xa3)C#@\xda\x06\x9e\xa3)C#@\xda\x06\x9e\xa3)C#@\xda\x06\x9e\xa3)C#@\xf4\x06\x9e\xa3)C#@\xda\x06\x9e\xa3)C#@\xd8\x05\x1fS\xe7\x8b\x1e@\xda\x06\x9e\xa3)C#@\xcb\x06\x9e\xa3)C#@\xec\x06\x9e\xa3)C#@\xec\x06\x9e\xa3)C#@G\xbc\x86\x9a\xb9\xe1 @\xda\x06\x9e\xa3)C#@\xf4\x06\x9e\xa3)C#@\xec\x06\x9e\xa3)C#@\xda\x06\x9e\xa3)C#@\xda\x06\x9e\xa3)C#@\xff\xcd\n\xf7\xfd\xec\x13@\xec\x06\x9e\xa3)C#@\xda\x06\x9e\xa3)C#@\xec\x06\x9e\xa3)C#@G\xbc\x86\x9a\xb9\xe1 @\xda\x06\x9e\xa3)C#@\xda\x06\x9e\xa3)C#@\x9a\x93%\xccrl\x1f@\xf4\x06\x9e\xa3)C#@\xe7\x06\x9e\xa3)C#@\x0f\xab4\x00\x01\x83\x15@;\xbc\x86\x9a\xb9\xe1 @\xda\x06\x9e\xa3)C#@\xd2\xc9\x12f9\xb6!@\xf4\x06\x9e\xa3)C#@\xec\x06\x9e\xa3)C#@\x88\x93%\xccrl\x1f@\xdd\x06\x9e\xa3)C#@\xda\x06\x9e\xa3)C#@l\x92\r5s\xc3\x1d@\xec\x06\x9e\xa3)C#@\xf4\x06\x9e\xa3)C#@\xec\x06\x9e\xa3)C#@\xda\x06\x9e\xa3)C#@\xf9\x06\x9e\xa3)C#@\xda\x06\x9e\xa3)C#@\xda\x06\x9e\xa3)C#@<\xbc\x86\x9a\xb9\xe1 @\xec\x06\x9e\xa3)C#@\xda\x06\x9e\xa3)C#@\xd5\x06\x9e\xa3)C#@(\xfd\\|,\xa8\x1d@\xec\x06\x9e\xa3)C#@\xec\x06\x9e\xa3)C#@G\xbc\x86\x9a\xb9\xe1 @\x88\xb6c\xf5\xb7\x88\x1a@\xe7\x06\x9e\xa3)C#@\xec\x06\x9e\xa3)C#@\xb5\xc9\xeb\xe6rc\x1d@\xda\x06\x9e\xa3)C#@\xec\x06\x9e\xa3)C#@\xec\x06\x9e\xa3)C#@\xda\x06\x9e\xa3)C#@\xb9\x06\x9e\xa3)C#@.\xbc\x86\x9a\xb9\xe1 @\xda\x06\x9e\xa3)C#@T\xa6_\xe4Y\x90\x1a@\xab\x884\x00\x01\x83\x19@\xec\x06\x9e\xa3)C#@\xec\x06\x9e\xa3)C#@\xec\x06\x9e\xa3)C#@\xec\x06\x9e\xa3)C#@\xda\x06\x9e\xa3)C#@\xf4\x06\x9e\xa3)C#@\xa2T\x1fS\xe7\x8b\x16@\xf4\x06\x9e\xa3)C#@\xda\x06\x9e\xa3)C#@\xda\x06\x9e\xa3)C#@\xda\x06\x9e\xa3)C#@\xcb\x06\x9e\xa3)C#@\xda\x06\x9e\xa3)C#@\xec\x06\x9e\xa3)C#@\xda\x06\x9e\xa3)C#@\xcb\x06\x9e\xa3)C#@\xec\x06\x9e\xa3)C#@\xda\x06\x9e\xa3)C#@\xec\x06\x9e\xa3)C#@\xda\x06\x9e\xa3)C#@\xcb\x06\x9e\xa3)C#@\xf4\x06\x9e\xa3)C#@\xd5\x06\x9e\xa3)C#@\xda\x06\x9e\xa3)C#@\xaf\x93%\xccrl\x1f@=\xbc\x86\x9a\xb9\xe1 @\xec\x06\x9e\xa3)C#@\xda\x06\x9e\xa3)C#@\xda\x06\x9e\xa3)C#@\xec\x06\x9e\xa3)C#@\xda\x06\x9e\xa3)C#@\xda\x06\x9e\xa3)C#@\xda\x06\x9e\xa3)C#@\xda\x06\x9e\xa3)C#@L\xa6_\xe4Y\x90\x1e@\xf4\x06\x9e\xa3)C#@\xec\x06\x9e\xa3)C#@L\xa6_\xe4Y\x90\x1a@\xda\x06\x9e\xa3)C#@\xda\x06\x9e\xa3)C#@\xda\x06\x9e\xa3)C#@\xf4\x06\x9e\xa3)C#@\xf4\x06\x9e\xa3)C#@\xcb\x06\x9e\xa3)C#@\xda\x06\x9e\xa3)C#@\xec\x06\x9e\xa3)C#@\xda\x06\x9e\xa3)C#@\xec\x06\x9e\xa3)C#@\xda\x06\x9e\xa3)C#@\xec\x06\x9e\xa3)C#@\xd5\x06\x9e\xa3)C#@\xb9\x06\x9e\xa3)C#@\xda\x06\x9e\xa3)C#@\xda\x06\x9e\xa3)C#@.\xbc\x86\x9a\xb9\xe1 @L\xbc\x86\x9a\xb9\xe1 @\xc9\x06\x9e\xa3)C#@G\xbc\x86\x9a\xb9\xe1 @\xda\x06\x9e\xa3)C#@\xda\x06\x9e\xa3)C#@\xe6\xc0\xfa\xce9\r"@=\xbc\x86\x9a\xb9\xe1 @=\xbc\x86\x9a\xb9\xe1 @\xda\x06\x9e\xa3)C#@\xf4\x06\x9e\xa3)C#@\xda\x06\x9e\xa3)C#@\xda\x06\x9e\xa3)C#@\xe8\xc1\r5s\xc3\x19@\xda\x06\x9e\xa3)C#@\xf4\x06\x9e\xa3)C#@\xec\x06\x9e\xa3)C#@\xf4\x06\x9e\xa3)C#@\xec\x06\x9e\xa3)C#@\xda\x06\x9e\xa3)C#@\xda\x06\x9e\xa3)C#@\xec\x06\x9e\xa3)C#@\xda\x06\x9e\xa3)C#@A\x00j0\x03V\r@\xda\x06\x9e\xa3)C#@\x9c\x92\r5s\xc3\x1d@\xda\x06\x9e\xa3)C#@\xf4\x06\x9e\xa3)C#@L\xbc\x86\x9a\xb9\xe1 @\xda\x06\x9e\xa3)C#@\xec\x06\x9e\xa3)C#@\xda\x06\x9e\xa3)C#@\xec\x06\x9e\xa3)C#@\xd7\xfeP\xb0\xcby\x18@\xec\x06\x9e\xa3)C#@\xec\x06\x9e\xa3)C#@\xec\x06\x9e\xa3)C#@4\xbc\x86\x9a\xb9\xe1 @\xb9\x06\x9e\xa3)C#@\xda\x06\x9e\xa3)C#@<\xbc\x86\x9a\xb9\xe1 @\xda\x06\x9e\xa3)C#@\xec\x06\x9e\xa3)C#@\xcb\x06\x9e\xa3)C#@\xda\x06\x9e\xa3)C#@\xda\x06\x9e\xa3)C#@\xda\x06\x9e\xa3)C#@\xf4\x06\x9e\xa3)C#@\xda\x06\x9e\xa3)C#@\xec\x06\x9e\xa3)C#@6\xbc\x86\x9a\xb9\xe1 @\xda\x06\x9e\xa3)C#@\xf4\x06\x9e\xa3)C#@\xec\x06\x9e\xa3)C#@Q\xbc\x86\x9a\xb9\xe1 @\xda\x06\x9e\xa3)C#@\xda\x06\x9e\xa3)C#@\xec\x06\x9e\xa3)C#@\xda\x06\x9e\xa3)C#@\xda\x06\x9e\xa3)C#@\xda\x06\x9e\xa3)C#@\xec\x06\x9e\xa3)C#@\xec\x06\x9e\xa3)C#@\xec\x06\x9e\xa3)C#@\xda\x06\x9e\xa3)C#@G\xbc\x86\x9a\xb9\xe1 @\xf4\x06\x9e\xa3)C#@\xf4\x06\x9e\xa3)C#@\xec\x06\x9e\xa3)C#@\xf4\x06\x9e\xa3)C#@m\x0f\x19P \xf8 @\xda\x06\x9e\xa3)C#@Q\xbc\x86\x9a\xb9\xe1 @\xda\x06\x9e\xa3)C#@\xec\x06\x9e\xa3)C#@\xec\x06\x9e\xa3)C#@\xec\x06\x9e\xa3)C#@\xec\x06\x9e\xa3)C#@\xec\x06\x9e\xa3)C#@\xda\x06\x9e\xa3)C#@\x83\x93%\xccrl\x1f@\xec\x06\x9e\xa3)C#@G\xbc\x86\x9a\xb9\xe1 @\xda\x06\x9e\xa3)C#@\xa2T\x1fS\xe7\x8b\x16@\xec\x06\x9e\xa3)C#@\xec\x06\x9e\xa3)C#@G\xbc\x86\x9a\xb9\xe1 @\xda\x06\x9e\xa3)C#@\xec\x06\x9e\xa3)C#@\xec\x06\x9e\xa3)C#@\xec\x06\x9e\xa3)C#@\xb9\x06\x9e\xa3)C#@\xda\x06\x9e\xa3)C#@\xec\x06\x9e\xa3)C#@\xda\x06\x9e\xa3)C#@\xb9\x06\x9e\xa3)C#@\xcb\x06\x9e\xa3)C#@\xb9\x06\x9e\xa3)C#@\xda\x06\x9e\xa3)C#@\xda\x06\x9e\xa3)C#@\xec\x06\x9e\xa3)C#@\xda\x06\x9e\xa3)C#@\xaf\x93%\xccrl\x1f@\xec\x06\x9e\xa3)C#@\xec\x06\x9e\xa3)C#@\xf4\x06\x9e\xa3)C#@\xda\x06\x9e\xa3)C#@\xda\x06\x9e\xa3)C#@\xda\x06\x9e\xa3)C#@\xda\x06\x9e\xa3)C#@%\xda\x03~r\x0c\x17@<\xbc\x86\x9a\xb9\xe1 @\xcb\x06\x9e\xa3)C#@\xf4\x06\x9e\xa3)C#@\xec\x06\x9e\xa3)C#@\xda\x06\x9e\xa3)C#@\xda\x06\x9e\xa3)C#@G\xbc\x86\x9a\xb9\xe1 @\xda\x06\x9e\xa3)C#@\xda\x06\x9e\xa3)C#@\xcb\x06\x9e\xa3)C#@\x8b\xcfP\xb0\xcby\x1c@\xec\x06\x9e\xa3)C#@\xda\x06\x9e\xa3)C#@\xda\x06\x9e\xa3)C#@\xec\x06\x9e\xa3)C#@L\xbc\x86\x9a\xb9\xe1 @G\xbc\x86\x9a\xb9\xe1 @\xcb\x06\x9e\xa3)C#@\xc3P\n\xf7\xfd\xec\x1f@\xec\x06\x9e\xa3)C#@\xda\x06\x9e\xa3)C#@\xda\x06\x9e\xa3)C#@\xf4\x06\x9e\xa3)C#@\xda\x06\x9e\xa3)C#@-\xbc\x86\x9a\xb9\xe1 @;\xbc\x86\x9a\xb9\xe1 @-\xbc\x86\x9a\xb9\xe1 @\xec\x06\x9e\xa3)C#@\xda\x06\x9e\xa3)C#@\xcb\x06\x9e\xa3)C#@\xec\x06\x9e\xa3)C#@\xe7\x06\x9e\xa3)C#@\xda\x06\x9e\xa3)C#@<\xbc\x86\x9a\xb9\xe1 @\xda\x06\x9e\xa3)C#@\xda\x06\x9e\xa3)C#@\xc6$TW\xc1\x0c\x11@\xda\x05\x1fS\xe7\x8b\x1e@\xec\x06\x9e\xa3)C#@\xdf\xc9\x12f9\xb6!@\xec\x06\x9e\xa3)C#@\xec\x06\x9e\xa3)C#@\xda\x06\x9e\xa3)C#@\xec\x06\x9e\xa3)C#@4\xbc\x86\x9a\xb9\xe1 @\xda\x06\x9e\xa3)C#@\xfc\xf8\x06\xbc\xe7\xe2\x1c@1\xa8\n\xf7\xfd\xec\x17@\xda\x06\x9e\xa3)C#@\xda\x06\x9e\xa3)C#@\xda\x06\x9e\xa3)C#@\xda\x06\x9e\xa3)C#@\xec\x06\x9e\xa3)C#@G\xbc\x86\x9a\xb9\xe1 @=\xbc\x86\x9a\xb9\xe1 @\xdb\xc9\x12f9\xb6!@\xec\x06\x9e\xa3)C#@\xec\x06\x9e\xa3)C#@6\xbc\x86\x9a\xb9\xe1 @\xda\x06\x9e\xa3)C#@\xec\x06\x9e\xa3)C#@[\xda\x03~r\x0c\x17@\xda\x06\x9e\xa3)C#@.\xbc\x86\x9a\xb9\xe1 @\xf4\x06\x9e\xa3)C#@\xec\x06\x9e\xa3)C#@\xf4\x06\x9e\xa3)C#@\xec\x06\x9e\xa3)C#@\xda\x06\x9e\xa3)C#@\xec\x06\x9e\xa3)C#@\xec\x06\x9e\xa3)C#@\xda\x06\x9e\xa3)C#@\xf4\x06\x9e\xa3)C#@\xda\x06\x9e\xa3)C#@\xf4\x06\x9e\xa3)C#@\xda\x06\x9e\xa3)C#@\xcb\x06\x9e\xa3)C#@\xda\x06\x9e\xa3)C#@\xda\x06\x9e\xa3)C#@\xda\x06\x9e\xa3)C#@\xe7\x06\x9e\xa3)C#@\xec\x06\x9e\xa3)C#@L\xbc\x86\x9a\xb9\xe1 @\xda\x06\x9e\xa3)C#@\xda\x06\x9e\xa3)C#@\xda\x06\x9e\xa3)C#@\xf4\x06\x9e\xa3)C#@\xda\x06\x9e\xa3)C#@\xf4\x06\x9e\xa3)C#@\xec\x06\x9e\xa3)C#@\xec\x06\x9e\xa3)C#@4\xbc\x86\x9a\xb9\xe1 @\xec\x06\x9e\xa3)C#@\x15\xa1SW\xc1\x0c\x15@\xec\x06\x9e\xa3)C#@\xec\x06\x9e\xa3)C#@\xec\x06\x9e\xa3)C#@\xec\x06\x9e\xa3)C#@\xec\x06\x9e\xa3)C#@=\xbc\x86\x9a\xb9\xe1 @4\xbc\x86\x9a\xb9\xe1 @=\xbc\x86\x9a\xb9\xe1 @\xd2\x13]|,\xa8\x19@\xec\x06\x9e\xa3)C#@\xda\x06\x9e\xa3)C#@\xda\x06\x9e\xa3)C#@\xf4\x06\x9e\xa3)C#@\xda\x05\x1fS\xe7\x8b\x1e@\xf4\x06\x9e\xa3)C#@\xda\x06\x9e\xa3)C#@\xf4\x06\x9e\xa3)C#@\xda\x06\x9e\xa3)C#@\xda\x06\x9e\xa3)C#@\xec\x06\x9e\xa3)C#@\xdd\x06\x9e\xa3)C#@\xda\x06\x9e\xa3)C#@\xda\x06\x9e\xa3)C#@\xec\x06\x9e\xa3)C#@\xb9\x06\x9e\xa3)C#@\xdb\xc9\x12f9\xb6!@\xec\x06\x9e\xa3)C#@\xda\x06\x9e\xa3)C#@\xda\x06\x9e\xa3)C#@\xda\x06\x9e\xa3)C#@\xec\x06\x9e\xa3)C#@\xda\x06\x9e\xa3)C#@\xec\x06\x9e\xa3)C#@\xda\x06\x9e\xa3)C#@\xda\x06\x9e\xa3)C#@\xf4\x06\x9e\xa3)C#@\xf4\x06\x9e\xa3)C#@\xec\x06\x9e\xa3)C#@\x95\x93%\xccrl\x1f@\xd8\x05\x1fS\xe7\x8b\x1e@\xda\x06\x9e\xa3)C#@\xec\x06\x9e\xa3)C#@\xf4\x06\x9e\xa3)C#@\xda\x06\x9e\xa3)C#@\xda\x06\x9e\xa3)C#@\xda\x06\x9e\xa3)C#@.\xbc\x86\x9a\xb9\xe1 @.\xbc\x86\x9a\xb9\xe1 @\xda\x06\x9e\xa3)C#@\xda\x06\x9e\xa3)C#@<\xeb=cr\x15\x19@\xda\x06\x9e\xa3)C#@\xec\n\x1fS\xe7\x8b\x1e@\xda\x06\x9e\xa3)C#@\xda\x06\x9e\xa3)C#@\xec\x06\x9e\xa3)C#@\xf4\x06\x9e\xa3)C#@\xdd\x06\x9e\xa3)C#@\xb9\x06\x9e\xa3)C#@\xf9\x06\x9e\xa3)C#@-\xbc\x86\x9a\xb9\xe1 @\xf4\x06\x9e\xa3)C#@\xec\x06\x9e\xa3)C#@\xec\x06\x9e\xa3)C#@\xec\x06\x9e\xa3)C#@\xb9\x06\x9e\xa3)C#@\xda\x06\x9e\xa3)C#@\xec\x06\x9e\xa3)C#@\xf4\x06\x9e\xa3)C#@\xda\x06\x9e\xa3)C#@\xda\x06\x9e\xa3)C#@\xec\x06\x9e\xa3)C#@\xda\x06\x9e\xa3)C#@\xcb\x06\x9e\xa3)C#@\xcb\x06\x9e\xa3)C#@G\xbc\x86\x9a\xb9\xe1 @\xda\x06\x9e\xa3)C#@\xec\x06\x9e\xa3)C#@-\xbc\x86\x9a\xb9\xe1 @\xda\x06\x9e\xa3)C#@\xec\x06\x9e\xa3)C#@\x0c\x14>cr\x15\x15@4\xbc\x86\x9a\xb9\xe1 @G\xbc\x86\x9a\xb9\xe1 @\xec\x06\x9e\xa3)C#@\xec\x06\x9e\xa3)C#@L\x9d4\x00\x01\x83\x15@O\xbc\x86\x9a\xb9\xe1 @\xda\x06\x9e\xa3)C#@\xda\x06\x9e\xa3)C#@\x9b\xcfP\xb0\xcby\x1c@\xda\x06\x9e\xa3)C#@\xec\x06\x9e\xa3)C#@\xec\x06\x9e\xa3)C#@\xda\x05\x1fS\xe7\x8b\x1e@G\xbc\x86\x9a\xb9\xe1 @\xda\x06\x9e\xa3)C#@\xda\x06\x9e\xa3)C#@\xda\x06\x9e\xa3)C#@\xda\x06\x9e\xa3)C#@\xda\x06\x9e\xa3)C#@\xec\x06\x9e\xa3)C#@\xec\x06\x9e\xa3)C#@\xda\x06\x9e\xa3)C#@\xda\x06\x9e\xa3)C#@\xec\x06\x9e\xa3)C#@6\xbc\x86\x9a\xb9\xe1 @\xec\x06\x9e\xa3)C#@\xda\x06\x9e\xa3)C#@;\xbc\x86\x9a\xb9\xe1 @\xf4\x06\x9e\xa3)C#@\xda\x06\x9e\xa3)C#@\x15\xa1SW\xc1\x0c\x15@\xcb\x06\x9e\xa3)C#@G\xbc\x86\x9a\xb9\xe1 @\xda\x06\x9e\xa3)C#@\xc6$TW\xc1\x0c\x11@\xf4\x06\x9e\xa3)C#@\xda\x06\x9e\xa3)C#@\xd8\xc9\x12f9\xb6!@;\xbc\x86\x9a\xb9\xe1 @\xcb\x06\x9e\xa3)C#@\xda\x06\x9e\xa3)C#@\xda\x06\x9e\xa3)C#@\xda\x06\x9e\xa3)C#@\xda\x06\x9e\xa3)C#@\xec\x06\x9e\xa3)C#@\xcb\x06\x9e\xa3)C#@\xda\x06\x9e\xa3)C#@\xda\x06\x9e\xa3)C#@\xec\x06\x9e\xa3)C#@\xda\x06\x9e\xa3)C#@\xec\x06\x9e\xa3)C#@\xda\x06\x9e\xa3)C#@\xda\x06\x9e\xa3)C#@\xf4\x06\x9e\xa3)C#@\xec\x06\x9e\xa3)C#@\xec\x06\x9e\xa3)C#@\xec\x06\x9e\xa3)C#@O\xbe%\xccrl\x1b@\xf4\x06\x9e\xa3)C#@\xcb\x06\x9e\xa3)C#@\xec\x06\x9e\xa3)C#@\xf4\x06\x9e\xa3)C#@\xda\x06\x9e\xa3)C#@\xda\x06\x9e\xa3)C#@\xda\x06\x9e\xa3)C#@\xda\x06\x9e\xa3)C#@<\xbc\x86\x9a\xb9\xe1 @A\x00j0\x03V\r@\xf4\x06\x9e\xa3)C#@\xec\x06\x9e\xa3)C#@\xda\x06\x9e\xa3)C#@\xf4\x06\x9e\xa3)C#@\xec\x06\x9e\xa3)C#@\xec\x06\x9e\xa3)C#@G\xbc\x86\x9a\xb9\xe1 @G\xbc\x86\x9a\xb9\xe1 @\xda\x06\x9e\xa3)C#@\xec\x06\x9e\xa3)C#@\xda\x06\x9e\xa3)C#@\xda\x06\x9e\xa3)C#@\xda\x06\x9e\xa3)C#@\xda\x06\x9e\xa3)C#@\xda\x06\x9e\xa3)C#@\xda\x06\x9e\xa3)C#@\xfb\xc0\xfa\xce9\r"@\xec\x06\x9e\xa3)C#@<\xbc\x86\x9a\xb9\xe1 @\xda\x06\x9e\xa3)C#@\xda\x06\x9e\xa3)C#@\xda\x06\x9e\xa3)C#@\xec\x06\x9e\xa3)C#@\xf4\x06\x9e\xa3)C#@\xec\x06\x9e\xa3)C#@\xda\x06\x9e\xa3)C#@\xda\x06\x9e\xa3)C#@\xb9\x06\x9e\xa3)C#@\xec\x06\x9e\xa3)C#@\xec\x06\x9e\xa3)C#@\x90sb\xce?B\x15@\xec\x06\x9e\xa3)C#@\xda\x06\x9e\xa3)C#@\xda\x06\x9e\xa3)C#@\xcb\x06\x9e\xa3)C#@\xcb\x06\x9e\xa3)C#@\xec\x06\x9e\xa3)C#@\xda\x06\x9e\xa3)C#@\xf4\x06\x9e\xa3)C#@\xec\x06\x9e\xa3)C#@\xec\x06\x9e\xa3)C#@\xda\x06\x9e\xa3)C#@\xec\x06\x9e\xa3)C#@\xda\x06\x9e\xa3)C#@\xf4\x06\x9e\xa3)C#@<\xbc\x86\x9a\xb9\xe1 @\xec\x06\x9e\xa3)C#@\xda\x06\x9e\xa3)C#@\xec\n\x1fS\xe7\x8b\x1a@\xda\x06\x9e\xa3)C#@\xda\x06\x9e\xa3)C#@\xcb\x06\x9e\xa3)C#@\xda\x06\x9e\xa3)C#@\xec\x06\x9e\xa3)C#@\xec\x06\x9e\xa3)C#@\xec\x06\x9e\xa3)C#@\xda\x06\x9e\xa3)C#@w%J7@\x99\x1b@\xec\x06\x9e\xa3)C#@\x9c\x92\r5s\xc3\x1d@\xec\x06\x9e\xa3)C#@\xda\x06\x9e\xa3)C#@Q\xbc\x86\x9a\xb9\xe1 @\xec\x06\x9e\xa3)C#@\xda\x06\x9e\xa3)C#@\xf4\x06\x9e\xa3)C#@\xda\x06\x9e\xa3)C#@\xb9\x06\x9e\xa3)C#@Q\xbc\x86\x9a\xb9\xe1 @=\xbc\x86\x9a\xb9\xe1 @\xda\x06\x9e\xa3)C#@\xda\x06\x9e\xa3)C#@\xda\x06\x9e\xa3)C#@\xcb\x06\x9e\xa3)C#@G\xbc\x86\x9a\xb9\xe1 @\xda\x06\x9e\xa3)C#@\xec\x06\x9e\xa3)C#@G\xbc\x86\x9a\xb9\xe1 @\xcb\x06\x9e\xa3)C#@\xec\x06\x9e\xa3)C#@\xb9\x06\x9e\xa3)C#@\xda\x06\x9e\xa3)C#@\xda\x06\x9e\xa3)C#@\xda\x06\x9e\xa3)C#@\xec\x06\x9e\xa3)C#@\xec\x06\x9e\xa3)C#@\xda\x06\x9e\xa3)C#@\xf4\x06\x9e\xa3)C#@\xec\x06\x9e\xa3)C#@\xf4\x06\x9e\xa3)C#@\xf4\x06\x9e\xa3)C#@\xec\x06\x9e\xa3)C#@\xda\x06\x9e\xa3)C#@\xf6\x05\x1fS\xe7\x8b\x1e@\xec\x06\x9e\xa3)C#@\x94\xbe%\xccrl\x1b@\xec\x06\x9e\xa3)C#@\xda\x06\x9e\xa3)C#@\xda\x06\x9e\xa3)C#@\xda\x06\x9e\xa3)C#@\xf4\x06\x9e\xa3)C#@=\xbc\x86\x9a\xb9\xe1 @T\xa6_\xe4Y\x90\x1a@\xcb\x06\x9e\xa3)C#@\xec\x06\x9e\xa3)C#@\xf4\x06\x9e\xa3)C#@\xda\x06\x9e\xa3)C#@\xda\x06\x9e\xa3)C#@\xec\x06\x9e\xa3)C#@\xec\x06\x9e\xa3)C#@\xb9\x06\x9e\xa3)C#@\xf4\x06\x9e\xa3)C#@\xec\x06\x9e\xa3)C#@\xec\x06\x9e\xa3)C#@\xda\x06\x9e\xa3)C#@\xec\x06\x9e\xa3)C#@\xda\x06\x9e\xa3)C#@\xda\x06\x9e\xa3)C#@\xcb\x06\x9e\xa3)C#@\xda\x06\x9e\xa3)C#@\xda\x06\x9e\xa3)C#@\xec\x06\x9e\xa3)C#@\xda\x06\x9e\xa3)C#@\xac\x92\r5s\xc3\x1d@\xec\x06\x9e\xa3)C#@\xec\x06\x9e\xa3)C#@\xda\x06\x9e\xa3)C#@\xa0\x92\r5s\xc3\x1d@\xcb\x06\x9e\xa3)C#@\xb9\x06\x9e\xa3)C#@4\xbc\x86\x9a\xb9\xe1 @+\xbc\x86\x9a\xb9\xe1 @\xb5\x93%\xccrl\x1f@\xec\x06\x9e\xa3)C#@\xda\x06\x9e\xa3)C#@\xda\x06\x9e\xa3)C#@\xec\x06\x9e\xa3)C#@\xda\x06\x9e\xa3)C#@\xda\x06\x9e\xa3)C#@-\xbc\x86\x9a\xb9\xe1 @\xec\x06\x9e\xa3)C#@L\xbc\x86\x9a\xb9\xe1 @\xec\x06\x9e\xa3)C#@\x02\x1c\x1fS\xe7\x8b\x1a@=\xbc\x86\x9a\xb9\xe1 @\xda\x06\x9e\xa3)C#@\xa0\x92\r5s\xc3\x1d@\xda\x06\x9e\xa3)C#@\xec\x06\x9e\xa3)C#@\xda\x06\x9e\xa3)C#@\xec\x06\x9e\xa3)C#@\xda\x06\x9e\xa3)C#@\xc1\xc9\x12f9\xb6!@\xcb\x06\x9e\xa3)C#@\xda\x06\x9e\xa3)C#@\xcb\x06\x9e\xa3)C#@\xcb\x06\x9e\xa3)C#@\xec\x06\x9e\xa3)C#@\xec\x06\x9e\xa3)C#@\xf4\x06\x9e\xa3)C#@\xda\x06\x9e\xa3)C#@\xec\x06\x9e\xa3)C#@\xda\x06\x9e\xa3)C#@\xec\x06\x9e\xa3)C#@.\xbc\x86\x9a\xb9\xe1 @\xec\x06\x9e\xa3)C#@\xec\x06\x9e\xa3)C#@\xec\x06\x9e\xa3)C#@\x8c\x16]|,\xa8\x15@\xda\x06\x9e\xa3)C#@\xda\x06\x9e\xa3)C#@\xcb\x06\x9e\xa3)C#@\xec\x06\x9e\xa3)C#@\xec\x06\x9e\xa3)C#@\xda\x06\x9e\xa3)C#@\xda\x06\x9e\xa3)C#@\xec\x06\x9e\xa3)C#@\xda\x06\x9e\xa3)C#@\xda\x06\x9e\xa3)C#@\xda\x06\x9e\xa3)C#@\xda\x06\x9e\xa3)C#@\xec\x06\x9e\xa3)C#@\xdb\xc9\x12f9\xb6!@\xec\x06\x9e\xa3)C#@\xec\x06\x9e\xa3)C#@\xda\x06\x9e\xa3)C#@\xec\x06\x9e\xa3)C#@\xda\x06\x9e\xa3)C#@\xda\x06\x9e\xa3)C#@\xda\x06\x9e\xa3)C#@\xda\x06\x9e\xa3)C#@\xda\x06\x9e\xa3)C#@\xda\x06\x9e\xa3)C#@\xda\x06\x9e\xa3)C#@\xf4\x06\x9e\xa3)C#@\xec\x06\x9e\xa3)C#@\x83\x93%\xccrl\x1f@\xcb\x06\x9e\xa3)C#@-\xbc\x86\x9a\xb9\xe1 @\xec\x06\x9e\xa3)C#@\xda\x06\x9e\xa3)C#@\xda\x06\x9e\xa3)C#@\xec\x06\x9e\xa3)C#@\xf4\x06\x9e\xa3)C#@\xda\x06\x9e\xa3)C#@6\xbc\x86\x9a\xb9\xe1 @\xec\x06\x9e\xa3)C#@\xda\x06\x9e\xa3)C#@\xec\x06\x9e\xa3)C#@6\xbc\x86\x9a\xb9\xe1 @\xda\x06\x9e\xa3)C#@\xda\x06\x9e\xa3)C#@\xda\x06\x9e\xa3)C#@G\xbc\x86\x9a\xb9\xe1 @\xda\x06\x9e\xa3)C#@\xec\x06\x9e\xa3)C#@\x8b\xcfP\xb0\xcby\x1c@G\xbc\x86\x9a\xb9\xe1 @\xda\x06\x9e\xa3)C#@\xec\x06\x9e\xa3)C#@\xec\x06\x9e\xa3)C#@=\xbc\x86\x9a\xb9\xe1 @\xda\x06\x9e\xa3)C#@\xec\x06\x9e\xa3)C#@\xfc\xf8\x06\xbc\xe7\xe2\x1c@\xda\x06\x9e\xa3)C#@\xda\x06\x9e\xa3)C#@L\xbc\x86\x9a\xb9\xe1 @.\xbc\x86\x9a\xb9\xe1 @\xcb\x06\x9e\xa3)C#@\xec\x06\x9e\xa3)C#@\xf4\x06\x9e\xa3)C#@\xec\x06\x9e\xa3)C#@\xec\x06\x9e\xa3)C#@\xda\x06\x9e\xa3)C#@-\xbc\x86\x9a\xb9\xe1 @\xda\x06\x9e\xa3)C#@\xf4\x06\x9e\xa3)C#@<\xbc\x86\x9a\xb9\xe1 @\xec\x06\x9e\xa3)C#@\xcb\x06\x9e\xa3)C#@=\xbc\x86\x9a\xb9\xe1 @\xb9\x06\x9e\xa3)C#@\xec\x06\x9e\xa3)C#@\xd8\x05\x1fS\xe7\x8b\x1e@\xec\x06\x9e\xa3)C#@\xda\x06\x9e\xa3)C#@\xec\x06\x9e\xa3)C#@\xb9\x06\x9e\xa3)C#@\xf4\x06\x9e\xa3)C#@\xda\x06\x9e\xa3)C#@\xec\x06\x9e\xa3)C#@\xec\x06\x9e\xa3)C#@\xda\x06\x9e\xa3)C#@\xec\x06\x9e\xa3)C#@\xb9\x06\x9e\xa3)C#@\xec\x06\x9e\xa3)C#@\xda\x06\x9e\xa3)C#@\xda\x06\x9e\xa3)C#@.\xbc\x86\x9a\xb9\xe1 @\xb9\x06\x9e\xa3)C#@\xda\x06\x9e\xa3)C#@\xda\x06\x9e\xa3)C#@\xda\x06\x9e\xa3)C#@\xda\x06\x9e\xa3)C#@\xec\x06\x9e\xa3)C#@\x14s1\x8dq\x80\x13@\xda\x06\x9e\xa3)C#@\xda\x06\x9e\xa3)C#@\xcb\x06\x9e\xa3)C#@\x88\x93%\xccrl\x1f@\xcb\x06\x9e\xa3)C#@\xcb\x06\x9e\xa3)C#@\xda\x06\x9e\xa3)C#@=\xbc\x86\x9a\xb9\xe1 @G\xbc\x86\x9a\xb9\xe1 @\xec\x06\x9e\xa3)C#@\xec\x06\x9e\xa3)C#@\xda\x06\x9e\xa3)C#@\xda\x06\x9e\xa3)C#@.\xbc\x86\x9a\xb9\xe1 @\xda\x06\x9e\xa3)C#@\xec\x06\x9e\xa3)C#@\xda\x06\x9e\xa3)C#@\xda\x06\x9e\xa3)C#@(\xfd\\|,\xa8\x19@\xcb\x06\x9e\xa3)C#@\xb4\x92\r5s\xc3\x1d@\xda\x06\x9e\xa3)C#@4\xbc\x86\x9a\xb9\xe1 @\xcb\x06\x9e\xa3)C#@\xec\x06\x9e\xa3)C#@\xec\x06\x9e\xa3)C#@\xda\x06\x9e\xa3)C#@\xda\x06\x9e\xa3)C#@\xda\x06\x9e\xa3)C#@;\xbc\x86\x9a\xb9\xe1 @\xec\x06\x9e\xa3)C#@\xda\x06\x9e\xa3)C#@G\xbc\x86\x9a\xb9\xe1 @\xcb\x06\x9e\xa3)C#@\xcb\x06\x9e\xa3)C#@\xda\x06\x9e\xa3)C#@\xec\x06\x9e\xa3)C#@4\xbc\x86\x9a\xb9\xe1 @\xec\x06\x9e\xa3)C#@\xda\x06\x9e\xa3)C#@\xec\x06\x9e\xa3)C#@\xcb\x06\x9e\xa3)C#@G\xbc\x86\x9a\xb9\xe1 @\xcb\xc9\x12f9\xb6!@\xec\x06\x9e\xa3)C#@\xec\x06\x9e\xa3)C#@\xda\x06\x9e\xa3)C#@L\xbc\x86\x9a\xb9\xe1 @\xda\x06\x9e\xa3)C#@\xda\x06\x9e\xa3)C#@\xcb\x06\x9e\xa3)C#@\xcb\x06\x9e\xa3)C#@\xda\x06\x9e\xa3)C#@\xca\xf0\x96\xa5\xaf\x9a\n@\xec\x06\x9e\xa3)C#@\xec\x06\x9e\xa3)C#@\xda\x06\x9e\xa3)C#@\xcb\x06\x9e\xa3)C#@\xec\x06\x9e\xa3)C#@\xda\x06\x9e\xa3)C#@\xec\x06\x9e\xa3)C#@\xda\x06\x9e\xa3)C#@\xcb\x06\x9e\xa3)C#@\xf4\x06\x9e\xa3)C#@\xda\x06\x9e\xa3)C#@<\xbc\x86\x9a\xb9\xe1 @\xf4\x06\x9e\xa3)C#@\xda\x06\x9e\xa3)C#@<\xbc\x86\x9a\xb9\xe1 @\xf4\x06\x9e\xa3)C#@\xda\x06\x9e\xa3)C#@'
p5135
tp5136
bsb.