ccopy_reg
_reconstructor
p0
(cnltk.classify.naivebayes
NaiveBayesClassifier
p1
c__builtin__
object
p2
Ntp3
Rp4
(dp5
S'_labels'
p6
(lp7
S'OTHER'
p8
aS'PERSON'
p9
aS'LOCATION'
p10
aS'NUMBER'
p11
aS'DATE'
p12
aS'TIME'
p13
aS'MONEY'
p14
aS'PERCENT'
p15
asS'_feature_probdist'
p16
(dp17
(g13
S'noun'
p18
tp19
g0
(cnltk.probability
ELEProbDist
p20
g2
Ntp21
Rp22
(dp23
S'_gamma'
p24
F0.5
sS'_N'
p25
I75
sS'_freqdist'
p26
g0
(cnltk.probability
FreqDist
p27
c__builtin__
dict
p28
(dp29
S''
p30
I6
sS'anglican'
p31
I1
sS'carter'
p32
I1
sS'shea'
p33
I1
sS'appalachian'
p34
I1
sS'washington'
p35
I1
sS'roe'
p36
I1
sS'community'
p37
I1
sS'pig'
p38
I1
sS'human'
p39
I1
sS'earth'
p40
I1
sS'cocaine'
p41
I1
sS'web'
p42
I1
sS'intercourse'
p43
I1
sS'person'
p44
I1
sS'tv'
p45
I1
sS'sun'
p46
I1
sS'sunlight'
p47
I1
sS'moon'
p48
I1
sS'attack'
p49
I1
sS'edmund'
p50
I1
sS'way'
p51
I1
sS'hen'
p52
I1
sS'puppy'
p53
I1
sS'piven'
p54
I1
sS'hermit'
p55
I1
sS'body'
p56
I1
sS'life'
p57
I4
sS'ball'
p58
I1
sS'dog'
p59
I1
sS'gestation'
p60
I2
sS'freedy'
p61
I1
sS'ferret'
p62
I1
sS'blood'
p63
I2
sS'child'
p64
I1
sS'debt'
p65
I1
sS'cool'
p66
I1
sS'oj'
p67
I1
sS'britney'
p68
I1
sS'artist'
p69
I2
sS'stevie'
p70
I2
sS'universe'
p71
I1
sS'age'
p72
I7
sS'tokyo'
p73
I1
sS'hiccup'
p74
I1
sS'did'
p75
I4
sS'american'
p76
I1
sS'time'
p77
I4
sS'gene'
p78
I1
sS'bond'
p79
I2
stp80
Rp81
(dp82
g25
I75
sS'_max_cache'
p83
NsS'_item_cache'
p84
NsS'_Nr_cache'
p85
NsbsS'_bins'
p86
I1604
sS'_divisor'
p87
F877.0
sbs(g8
S'first'
p88
tp89
g0
(g20
g2
Ntp90
Rp91
(dp92
g24
F0.5
sg25
I1250
sg26
g0
(g27
g28
(dp93
S'in which'
p94
I3
sS'winnie'
p95
I1
sS'in order'
p96
I1
sS'at'
p97
I1
sS'madonna'
p98
I2
sS'on what'
p99
I1
sS'in the'
p100
I1
sS'ray'
p101
I2
sS'what'
p102
I1112
sS'italy'
p103
I1
sS'for'
p104
I1
sS'how'
p105
I7
sS'when'
p106
I1
sS'to'
p107
I2
sS'in beetle'
p108
I1
sS'garry'
p109
I1
sS'which'
p110
I43
sS'aspartame'
p111
I3
sS'musician'
p112
I1
sS'in hemingway'
p113
I1
sS'who'
p114
I2
sS'on which'
p115
I1
sS'mississippi'
p116
I1
sS'in ad'
p117
I1
sS'in what'
p118
I10
sS'in kafka'
p119
I1
sS'a'
p120
I1
sS'name'
p121
I34
sS'jude'
p122
I2
sS'stuart'
p123
I2
sS'the'
p124
I6
sS'where'
p125
I2
sS'names'
p126
I1
stp127
Rp128
(dp129
g25
I1250
sg83
Nsg84
Nsg85
Nsbsg86
I62
sg87
F1281.0
sbs(g13
g88
tp130
g0
(g20
g2
Ntp131
Rp132
(dp133
g24
F0.5
sg25
I75
sg26
g0
(g27
g28
(dp134
S'how'
p135
I57
sS'what'
p136
I14
sS'at'
p137
I1
sg33
I1
sS'on average'
p138
I1
sS'the'
p139
I1
stp140
Rp141
(dp142
g25
I75
sg83
Nsg84
Nsg85
Nsbsg86
I62
sg87
F106.0
sbs(g11
g18
tp143
g0
(g20
g2
Ntp144
Rp145
(dp146
g24
F0.5
sg25
I505
sg26
g0
(g27
g28
(dp147
g30
I44
sS'pope'
p148
I2
sS'sprocket'
p149
I1
sS'dollar'
p150
I2
sS'ge'
p151
I1
sS'mile'
p152
I5
sS'shoe'
p153
I1
sS'kilamanjaro'
p154
I1
sS'disk'
p155
I2
sS'milk'
p156
I1
sS'ground'
p157
I1
sS'chinese'
p158
I1
sS'head'
p159
I1
sS'electricity'
p160
I1
sS'rico'
p161
I1
sS'teaspoon'
p162
I2
sS'maryland'
p163
I1
sS'replica'
p164
I1
sS'carolina'
p165
I1
sS'hiv'
p166
I1
sS'honda'
p167
I1
sS'acreage'
p168
I1
sS'tuberculosis'
p169
I3
sS'frankenstein'
p170
I1
sS'bat'
p171
I1
sS'did'
p172
I1
sS'michael'
p173
I1
sS'mackinaw'
p174
I1
sS'terabyte'
p175
I1
sS'gram'
p176
I1
sS'venus'
p177
I1
sS'louie'
p178
I1
sS'revolution'
p179
I2
sS'tel'
p180
I1
sS'carter'
p181
I1
sS'ten'
p182
I1
sS'corvette'
p183
I1
sS'villi'
p184
I1
sS'rate'
p185
I1
sS'college'
p186
I2
sS'acid'
p187
I2
sS'israeli'
p188
I1
sS'richard'
p189
I1
sS'guinea'
p190
I1
sS'panama'
p191
I1
sS'caffeine'
p192
I2
sS'liberty'
p193
I1
sS'crossword'
p194
I1
sS'state'
p195
I1
sS'score'
p196
I3
sS'galaxy'
p197
I1
sS'europe'
p198
I1
sS'iditarod'
p199
I1
sS'iron'
p200
I1
sS'nickel-cadmium'
p201
I1
sS'water'
p202
I1
sS'protection'
p203
I1
sS'baseball'
p204
I2
sS'pursuit'
p205
I2
sS'tristar'
p206
I3
sS'c'
p207
I1
sS'country'
p208
I1
sS'bow'
p209
I1
sS'airport'
p210
I1
sS'spritsail'
p211
I1
sS'decathlon'
p212
I1
sS'apple'
p213
I1
sS'family'
p214
I1
sS'africa'
p215
I1
sS'period'
p216
I1
sS'community'
p217
I1
sS'height'
p218
I1
sS'polo'
p219
I1
sS'attendance'
p220
I1
sS'lottery'
p221
I1
sS'barrymore'
p222
I1
sS'zip'
p223
I1
sS'union'
p224
I1
sS'five-team'
p225
I1
sS'visit'
p226
I1
sS'poodle'
p227
I1
sS'france'
p228
I1
sS'pearl'
p229
I1
sS'teeth'
p230
I1
sS'waste'
p231
I1
sS'marx'
p232
I1
sS'sort'
p233
I1
sS'resting'
p234
I1
sS'life'
p235
I1
sS'stradivarius'
p236
I1
sS'scalene'
p237
I1
sS'obelisk'
p238
I1
sS'reign'
p239
I1
sS'glass'
p240
I1
sS'export'
p241
I1
sS'craft'
p242
I4
sS'mayfly'
p243
I1
sS'adult'
p244
I1
sS'chile'
p245
I1
sS'baby'
p246
I1
sS'smoking'
p247
I1
sS'hole'
p248
I1
sS'word'
p249
I1
sS'presidency'
p250
I1
sS'tokyo'
p251
I1
sS'car'
p252
I1
sS'bill'
p253
I1
sS'cat'
p254
I1
sS'calcium'
p255
I1
sS'nebraska'
p256
I1
sS'coca'
p257
I1
sS'shark'
p258
I1
sS'pound'
p259
I2
sS'iq'
p260
I2
sS'chappellet'
p261
I1
sS'telephone'
p262
I2
sS'surface'
p263
I2
sS'player'
p264
I3
sS'kenya'
p265
I1
sS'concentration'
p266
I1
sS'spacecraft'
p267
I1
sS'winter'
p268
I1
sS'tsetse'
p269
I1
sS'border'
p270
I1
sS'oven'
p271
I2
sS'length'
p272
I1
sS'five-zone'
p273
I1
sS'member'
p274
I1
sS'rubik'
p275
I1
sS'goat'
p276
I1
sS'pizza'
p277
I1
sS'kilowatt'
p278
I1
sS'beauty'
p279
I1
sS'mountain'
p280
I1
sS'par'
p281
I2
sS'hand'
p282
I2
sS'mac'
p283
I1
sS'fruit'
p284
I1
sS'student'
p285
I1
sS'pasture'
p286
I1
sS'man'
p287
I1
sS'tomato'
p288
I1
sS'beanie'
p289
I1
sS'boeing'
p290
I1
sS'database'
p291
I1
sS'amount'
p292
I1
sS'racetrack'
p293
I1
sS'ocean'
p294
I1
sS'bottle'
p295
I1
sS'soviet'
p296
I1
sS'order'
p297
I1
sS'doody'
p298
I1
sS'wine'
p299
I1
sS'unemployment'
p300
I2
sS'baskin'
p301
I1
sS'sperm'
p302
I1
sS'brain'
p303
I1
sS'paper'
p304
I2
sS'london'
p305
I1
sS'actor'
p306
I1
sS'human'
p307
I3
sS'matterhorn'
p308
I1
sS'speed'
p309
I3
sS'prince'
p310
I1
sS'batmobile'
p311
I1
sS'perfect'
p312
I1
sS'web'
p313
I1
sS'death'
p314
I2
sS'fit'
p315
I1
sS'recetrack'
p316
I1
sS'brigham'
p317
I1
sS'day'
p318
I4
sS'dipper'
p319
I1
sS'yaroslavl'
p320
I1
sS'lp'
p321
I1
sS'latitude'
p322
I3
sS'soccer'
p323
I1
sS'wingspan'
p324
I1
sS'australia'
p325
I1
sS'march'
p326
I1
sS'utah'
p327
I1
sS'school'
p328
I1
sS'nation'
p329
I1
sS'game'
p330
I1
sS'giraffe'
p331
I1
sS'flea'
p332
I1
sS'world'
p333
I9
sS'silver'
p334
I1
sS'name'
p335
I1
sS'university'
p336
I3
sS'slide'
p337
I1
sS'missouri'
p338
I1
sS'stock'
p339
I2
sS'bond'
p340
I1
sS'weight'
p341
I4
sS'shea'
p342
I2
sS'house'
p343
I1
sS'energy'
p344
I1
sS'joyce'
p345
I1
sS'coney'
p346
I1
sS'born'
p347
I1
sS'donald'
p348
I1
sS'frequency'
p349
I2
sS'lobster'
p350
I2
sS'year'
p351
I3
sS'home'
p352
I3
sS'empire'
p353
I1
sS'backgammon'
p354
I1
sS'album'
p355
I1
sS'network'
p356
I1
sS'space'
p357
I2
sS'pentagon'
p358
I1
sS'dime'
p359
I2
sS'fathom'
p360
I4
sS'ice'
p361
I3
sS'moon'
p362
I5
sS'highway'
p363
I2
sS'power'
p364
I2
sS'quart'
p365
I1
sS'california'
p366
I2
sS'vincent'
p367
I1
sS'refuge'
p368
I1
sS'chapter'
p369
I4
sS'stone'
p370
I1
sS'usa'
p371
I2
sS'language'
p372
I1
sS'universe'
p373
I2
sS'ostrich'
p374
I1
sS'whitetail'
p375
I1
sS'thing'
p376
I1
sS'rodeo'
p377
I1
sS'airline'
p378
I1
sS'tenpin'
p379
I2
sS'luck'
p380
I1
sS'octopus'
p381
I1
sS'processor'
p382
I1
sS'south'
p383
I4
sS'number'
p384
I7
sS'rank'
p385
I2
sS'bjorn'
p386
I1
sS'hurdle'
p387
I1
sS'steven'
p388
I1
sS'soy'
p389
I1
sS'fiji'
p390
I1
sS'highschool'
p391
I1
sS'ingmar'
p392
I1
sS'size'
p393
I4
sS'city'
p394
I2
sS'basketball'
p395
I2
sS'temperature'
p396
I4
sS'area'
p397
I3
sS'support'
p398
I1
sS'trillion'
p399
I1
sS'approximate'
p400
I2
sS'fahrenheit'
p401
I1
sS'paint'
p402
I2
sS'regulation'
p403
I1
sS'tom'
p404
I1
sS'john'
p405
I1
sS'war'
p406
I2
sS'cricket'
p407
I1
sS'shelf'
p408
I1
sS'brand'
p409
I1
sS'zeppelin'
p410
I1
sS'line'
p411
I2
sS'population'
p412
I13
sS'king'
p413
I1
sS'warmup'
p414
I1
sS'inside'
p415
I3
sS'official'
p416
I1
sS'mtv'
p417
I1
sS'maximum'
p418
I2
sS'project'
p419
I1
sS'tucson'
p420
I1
sS'uk'
p421
I1
sS'vatican'
p422
I1
sS'poisoning'
p423
I1
sS'coconut'
p424
I1
sS'estonia'
p425
I1
sS'spectrum'
p426
I1
sS'pig'
p427
I1
sS'tide'
p428
I1
sS'britain'
p429
I1
sS'diamond'
p430
I1
sS'spahn'
p431
I1
sS'horsepower'
p432
I2
sS'ship'
p433
I1
sS'work'
p434
I1
sS'nazi'
p435
I1
sS'chromosome'
p436
I2
sS'ray'
p437
I1
sS'circulatory'
p438
I1
sS'rainbow'
p439
I2
sS'lemon'
p440
I1
sS'floor'
p441
I1
sS'snow'
p442
I1
sS'entebbe'
p443
I1
sS'ny'
p444
I1
sS'reactivity'
p445
I4
sS'vietnam'
p446
I4
sS'online'
p447
I1
sS'vegetation'
p448
I1
sS'star'
p449
I1
sS'antigua'
p450
I1
sS'congress'
p451
I1
sS'tablespoon'
p452
I1
sS'symbol'
p453
I2
sS'lustrum'
p454
I1
sS'heptagon'
p455
I1
sS'gutenberg'
p456
I1
sS'germany'
p457
I1
sS'thunder'
p458
I1
sS'eskimo'
p459
I1
sS'america'
p460
I2
sS'oyster'
p461
I1
sS'phone'
p462
I1
sS'url'
p463
I2
sS'salt'
p464
I1
sS'stronger'
p465
I1
sS'write'
p466
I1
sS'bullseye'
p467
I1
sS'time'
p468
I1
sS'walker'
p469
I1
sS'abraham'
p470
I1
sS'frankfurt'
p471
I1
sS'quantity'
p472
I1
stp473
Rp474
(dp475
g25
I505
sg83
Nsg84
Nsg85
Nsbsg86
I1604
sg87
F1307.0
sbs(g8
g18
tp476
g0
(g20
g2
Ntp477
Rp478
(dp479
g24
F0.5
sg25
I1250
sg26
g0
(g27
g28
(dp480
g30
I82
sS'chinese'
p481
I1
sS'ali'
p482
I1
sS'invent'
p483
I2
sS'crocodile'
p484
I1
sS'skin'
p485
I1
sS'dish'
p486
I1
sS'woody'
p487
I1
sS'rossner'
p488
I1
sS'simon'
p489
I2
sS'tv'
p490
I15
sS'hump'
p491
I1
sS'technique'
p492
I2
sS'aaron'
p493
I1
sS'program'
p494
I1
sS'terror'
p495
I1
sS'smile'
p496
I1
sS'ingredient'
p497
I1
sS'woman'
p498
I1
sS'aesop'
p499
I1
sS'confederate'
p500
I1
sS'mixing'
p501
I2
sS'sony'
p502
I1
sS'prize'
p503
I1
sS'level'
p504
I1
sS'did'
p505
I1
sS'die'
p506
I1
sS'try'
p507
I1
sS'race'
p508
I3
sS'car'
p509
I4
sS'hesse'
p510
I1
sS'non-fiction'
p511
I1
sS'carter'
p512
I1
sS'ten'
p513
I1
sS'tea'
p514
I1
sS'crop'
p515
I2
sS'sign'
p516
I2
sS'chef'
p517
I1
sS'battle'
p518
I1
sS'invention'
p519
I1
sS'video'
p520
I1
sS'roosevelt'
p521
I1
sS'lawyer'
p522
I1
sS'michener'
p523
I2
sS'sondheim'
p524
I1
sS'afghanistan'
p525
I1
sS'constitution'
p526
I2
sS'richard'
p527
I1
sS'clock'
p528
I1
sS'colonel'
p529
I1
sS'section'
p530
I1
sS'caffeine'
p531
I1
sS'tarantula'
p532
I1
sS'bird'
p533
I1
sS'body'
p534
I1
sS'hero'
p535
I1
sS'leg'
p536
I1
sS'water'
p537
I1
sS'dipsomaniac'
p538
I1
sS'baseball'
p539
I1
sS'cult'
p540
I1
sS'tragedy'
p541
I1
sS'box'
p542
I1
sS'search'
p543
I1
sS'substance'
p544
I3
sS'institute'
p545
I1
sS'credit'
p546
I1
sS'birthstone'
p547
I1
sS'bayer'
p548
I1
sS'bob'
p549
I1
sS'sheila'
p550
I1
sS'classification'
p551
I1
sS'egypt'
p552
I2
sS'spermologer'
p553
I1
sS'nantucket'
p554
I1
sS'candice'
p555
I1
sS'florence'
p556
I1
sS'golf'
p557
I1
sS'use'
p558
I1
sS'usa'
p559
I1
sS'petroleum'
p560
I1
sS'tail'
p561
I1
sS'france'
p562
I1
sS'symphony'
p563
I1
sS'call'
p564
I2
sS'type'
p565
I11
sS'trophy'
p566
I1
sS'phobophobe'
p567
I1
sS'oscar'
p568
I1
sS'company'
p569
I1
sS'warp'
p570
I1
sS'missile'
p571
I1
sS'casey'
p572
I1
sS'glass'
p573
I1
sS'flag'
p574
I2
sS'adult'
p575
I2
sS'rabbit'
p576
I2
sS'polyorchid'
p577
I1
sS'mascot'
p578
I1
sS'word'
p579
I14
sS'primate'
p580
I1
sS'science'
p581
I1
sS'work'
p582
I1
sg122
I2
sS'hardest'
p583
I1
sS'grenada'
p584
I1
sS'example'
p585
I1
sS'vw'
p586
I1
sS'assent'
p587
I1
sS'currency'
p588
I1
sS'phrase'
p589
I1
sS'airplane'
p590
I2
sS'magenta'
p591
I1
sS'taj'
p592
I1
sS'ceremony'
p593
I1
sS'nevil'
p594
I1
sS'end'
p595
I1
sS'damage'
p596
I1
sS'write'
p597
I1
sS'amazing'
p598
I1
sS'stock'
p599
I1
sS'fare'
p600
I1
sS'spielberg'
p601
I1
sS'cocktail'
p602
I2
sS'clone'
p603
I1
sS'delicacy'
p604
I1
sS'accessory'
p605
I1
sS'blood'
p606
I3
sS'philatelist'
p607
I1
sS'softball'
p608
I1
sS'date'
p609
I1
sS'costner'
p610
I1
sS'eighth'
p611
I1
sS'man'
p612
I3
sS'noun'
p613
I1
sS'sioux'
p614
I2
sS'johnson'
p615
I1
sS'liner'
p616
I2
sS'element'
p617
I3
sS'tale'
p618
I3
sS'greek'
p619
I1
sS'writ'
p620
I1
sS'alloy'
p621
I1
sS'swimming'
p622
I2
sS'order'
p623
I1
sS'wind'
p624
I1
sS'wine'
p625
I2
sS'no.'
p626
I1
sS'producer'
p627
I1
sS'deck'
p628
I1
sS'colt'
p629
I1
sS'fall'
p630
I1
sS'mission'
p631
I1
sS'meter'
p632
I2
sS'kafka'
p633
I1
sS'paper'
p634
I1
sS'oven'
p635
I1
sS'magoo'
p636
I1
sS'perfect'
p637
I1
sS'group'
p638
I1
sS'handheld'
p639
I1
sS'better'
p640
I1
sS'civil'
p641
I1
sS'tweety'
p642
I1
sS'distinguishing'
p643
I1
sS'holiday'
p644
I1
sS'evening'
p645
I1
sS'food'
p646
I8
sS'auto'
p647
I1
sS'killer'
p648
I1
sS'seawater'
p649
I1
sS'therapy'
p650
I1
sS'snake'
p651
I1
sS'resource'
p652
I1
sS'eisenhower'
p653
I1
sS'bread'
p654
I1
sS'term'
p655
I19
sg121
I103
sS'opera'
p656
I1
sS'policeman'
p657
I1
sS'gender'
p658
I1
sS'creature'
p659
I3
sS'side'
p660
I2
sS'bone'
p661
I1
sS'el'
p662
I1
sS'england'
p663
I1
sS'constipation'
p664
I1
sS'generation'
p665
I1
sS'garment'
p666
I1
sS'plant'
p667
I4
sS'ball'
p668
I1
sS'year'
p669
I1
sS'navy'
p670
I2
sS'event'
p671
I1
sS'album'
p672
I1
sS'gangland'
p673
I1
sS'space'
p674
I1
sS'god'
p675
I1
sS'robert'
p676
I1
sS'four-player'
p677
I1
sS'research'
p678
I1
sS'wolverine'
p679
I1
sS'medicine'
p680
I1
sS'formula'
p681
I2
sS'correct'
p682
I2
sS'monster'
p683
I1
sS'lawrence'
p684
I1
sS'california'
p685
I1
sS'york'
p686
I1
sS'grandma'
p687
I1
sS'put'
p688
I1
sS'card'
p689
I6
sS'care'
p690
I1
sS'language'
p691
I8
sS'counterpart'
p692
I1
sS'thing'
p693
I3
sS'american'
p694
I1
sS'threat'
p695
I1
sS'stewart'
p696
I1
sS'statue'
p697
I1
sS'hearing'
p698
I1
sS'drinker'
p699
I1
sS'message'
p700
I1
sS'george'
p701
I1
sS'paine'
p702
I1
sS'city'
p703
I1
sS'horse'
p704
I3
sS'toy'
p705
I1
sS'silent'
p706
I1
sS'automobile'
p707
I1
sS'system'
p708
I3
sS'fiction'
p709
I1
sg109
I1
sS'saint'
p710
I1
sS'miller'
p711
I1
sS'master'
p712
I1
sS'corpus'
p713
I1
sS'john'
p714
I2
sS'syrup'
p715
I1
sS'genesis'
p716
I2
sS'murder'
p717
I1
sS'stomach'
p718
I1
sS'tom'
p719
I1
sS'steinbeck'
p720
I3
sS'part'
p721
I5
sS'cereal'
p722
I2
sS'translation'
p723
I1
sS'grace'
p724
I1
sS'steel'
p725
I1
sS'distance'
p726
I1
sS'television'
p727
I2
sS'commodity'
p728
I1
sS'seuss'
p729
I1
sS'aztec'
p730
I1
sS'marriage'
p731
I1
sS'feeling'
p732
I1
sS'sculpture'
p733
I1
sS'bridge'
p734
I1
sS'sam'
p735
I1
sS'fowl'
p736
I1
sS'modern'
p737
I1
sS'mine'
p738
I1
sS'pedometer'
p739
I1
sS'antarctica'
p740
I1
sS'slam'
p741
I1
sS'breakfast'
p742
I1
sS'kevin'
p743
I1
sg101
I3
sS'malta'
p744
I1
sS'sinatra'
p745
I1
sS'chess'
p746
I1
sS'chiropodist'
p747
I1
sS'soap'
p748
I1
sS'play'
p749
I1
sS'bradbury'
p750
I1
sS'twirl'
p751
I1
sS'victoria'
p752
I1
sS'poker'
p753
I1
sS'cigarette'
p754
I1
sS'mouth'
p755
I1
sS'letter'
p756
I6
sS'device'
p757
I2
sS'america'
p758
I3
sS'class'
p759
I2
sS'value'
p760
I1
sS'lawn'
p761
I1
sS'don'
p762
I2
sS'lose'
p763
I1
sS'frederick'
p764
I1
sS'dog'
p765
I3
sS'scotch'
p766
I2
sS'dot'
p767
I1
sS'bomb'
p768
I1
sS'phenomenon'
p769
I2
sS'gold'
p770
I2
sS'german'
p771
I1
sS'tequila'
p772
I1
sS'indoor'
p773
I1
sS'recipe'
p774
I2
sS'radio'
p775
I2
sS'earth'
p776
I1
sS'fear'
p777
I62
sS'line'
p778
I6
sS'snack'
p779
I1
sS'dice'
p780
I1
sS'gulf'
p781
I1
sS'title'
p782
I2
sS'ruin'
p783
I1
sS'winner'
p784
I1
sS'eat'
p785
I2
sS'penalty'
p786
I1
sS'theme'
p787
I1
sS'fuel'
p788
I2
sS'riding'
p789
I1
sS'spice'
p790
I1
sS'move'
p791
I1
sS'kind'
p792
I39
sS'bear'
p793
I2
sS'da'
p794
I1
sS'aykroyd'
p795
I1
sS'longest'
p796
I1
sS'bunyan'
p797
I1
sS'trade'
p798
I1
sS'bar'
p799
I1
sS'consist'
p800
I1
sS'artist'
p801
I1
sS'saliva'
p802
I1
sS'cumin'
p803
I1
sS'method'
p804
I2
sS'employee'
p805
I1
sS'corgi'
p806
I1
sS'vincent'
p807
I1
sS'gibson'
p808
I1
sS'orca'
p809
I1
sS'hairy'
p810
I1
sS'disaster'
p811
I1
sS'sex'
p812
I2
sS'dungri'
p813
I1
sS'computer'
p814
I5
sS'sea'
p815
I1
sS'seal'
p816
I1
sS'sport'
p817
I18
sS'movie'
p818
I10
sS'review'
p819
I1
sS'exchange'
p820
I1
sS'calhoun'
p821
I1
sS'state'
p822
I3
sS'wembley'
p823
I1
sS'gemstone'
p824
I1
sg111
I3
sS'latin'
p825
I2
sS'ability'
p826
I1
sS'vitamin'
p827
I1
sS'incident'
p828
I1
sS'come'
p829
I1
sS'piece'
p830
I2
sS'country'
p831
I1
sS'region'
p832
I1
sS'gilbert'
p833
I1
sS'drug'
p834
I4
sS'patti'
p835
I1
sS'succotash'
p836
I1
sS'connection'
p837
I1
sS'berry'
p838
I1
sS'witch'
p839
I1
sS'heliologist'
p840
I1
sS'cancer'
p841
I2
sS'color'
p842
I30
sS'leon'
p843
I1
sS'cd'
p844
I1
sS'satisfaction'
p845
I1
sS'tennessee'
p846
I1
sS'church'
p847
I1
sg95
I2
sS'belt'
p848
I1
sS'swimmer'
p849
I1
sS'stretch'
p850
I1
sS'west'
p851
I2
sS'trademark'
p852
I1
sS'breath'
p853
I1
sS'submarine'
p854
I1
sS'beer'
p855
I4
sS'tyler'
p856
I1
sS'treat'
p857
I1
sS'ireland'
p858
I1
sS'poet'
p859
I1
sS'marx'
p860
I1
sS'incompetent'
p861
I1
sS'board'
p862
I1
sS'cyclist'
p863
I1
sS'dialogue'
p864
I1
sS'tournament'
p865
I1
sS'flight'
p866
I1
sS'gas'
p867
I1
sS'luther'
p868
I1
sS'tiger'
p869
I2
sS'craft'
p870
I1
sS'wake'
p871
I1
sS'folklore'
p872
I1
sS'sound'
p873
I1
sS'novel'
p874
I8
sS'frozen'
p875
I1
sS'cash'
p876
I1
sS'irate'
p877
I1
sS'air'
p878
I1
sS'employ'
p879
I1
sS'pizza'
p880
I1
sS'newspaper'
p881
I2
sS'nabokov'
p882
I1
sS'procedure'
p883
I1
sS'layer'
p884
I1
sS'cane'
p885
I1
sS'iv'
p886
I1
sS'player'
p887
I1
sS'someone'
p888
I1
sS'eczema'
p889
I1
sg98
I2
sS'haboob'
p890
I1
sS'alphabet'
p891
I3
sS'bowl'
p892
I1
sS'bella'
p893
I1
sS'member'
p894
I1
sS'grand'
p895
I1
sS'document'
p896
I1
sS'composition'
p897
I1
sS'wheel'
p898
I1
sS'yalta'
p899
I1
sS'oil'
p900
I1
sS'zorro'
p901
I1
sS'drink'
p902
I12
sS'huston'
p903
I1
sS'hand'
p904
I1
sS'fruit'
p905
I1
sS'vowel'
p906
I2
sS'whale'
p907
I1
sS'nickname'
p908
I1
sS'kid'
p909
I1
sS'analysis'
p910
I1
sS'contact'
p911
I1
sS'jersey'
p912
I1
sS'english'
p913
I1
sS'deltiologist'
p914
I1
sS'livestock'
p915
I1
sS'noah'
p916
I1
sS'camel'
p917
I1
sS'money'
p918
I3
sS'product'
p919
I9
sS'shape'
p920
I2
sS'human'
p921
I1
sS'adding'
p922
I1
sS'death'
p923
I1
sS'queen'
p924
I1
sS'alternate'
p925
I1
sS'character'
p926
I2
sS'source'
p927
I1
sS'treatment'
p928
I1
sS'crack'
p929
I1
sS'circumcision'
p930
I1
sS'visine'
p931
I1
sS'australia'
p932
I1
sS'march'
p933
I1
sS'bid'
p934
I1
sS'game'
p935
I7
sS'durante'
p936
I1
sS'birth'
p937
I1
sS'press'
p938
I1
sS'world'
p939
I13
sS'boob'
p940
I1
sS'kennedy'
p941
I2
sS'eidologist'
p942
I1
sS'prologue'
p943
I1
sS'musca'
p944
I1
sS'back'
p945
I1
sS'competition'
p946
I2
sS'hair'
p947
I1
sS'cleveland'
p948
I1
sS'peter'
p949
I1
sS'scale'
p950
I1
sS'hurricane'
p951
I1
sS'ice'
p952
I1
sS'religion'
p953
I2
sS'espionage'
p954
I1
sS'refer'
p955
I1
sS'columbus'
p956
I1
sS'object'
p957
I1
sS'rum'
p958
I3
sS'tour'
p959
I1
sS'equivalent'
p960
I1
sS'clay'
p961
I1
sS'bolt'
p962
I1
sS'vaccine'
p963
I1
sS'meyer'
p964
I1
sS'racoon'
p965
I1
sS'william'
p966
I2
sS'sister'
p967
I1
sS'resurrectionist'
p968
I1
sS'magazine'
p969
I6
sg123
I2
sS'albee'
p970
I1
sS'tongue'
p971
I1
sS'software'
p972
I1
sS'clinton'
p973
I1
sS'facility'
p974
I1
sS'owe'
p975
I1
sS'hemingway'
p976
I1
sS'washington'
p977
I1
sS'litmus'
p978
I1
sS'strip'
p979
I3
sS'fluorine'
p980
I1
sS'ailment'
p981
I1
sS'mississippi'
p982
I2
sS'coin'
p983
I1
sS'secret'
p984
I1
sS'joseph'
p985
I1
sS'way'
p986
I7
sS'suit'
p987
I1
sS'breeding'
p988
I1
sS'war'
p989
I11
sS'warlock'
p990
I1
sS'medium'
p991
I3
sS'amateur'
p992
I1
sS'form'
p993
I3
sS'instrument'
p994
I5
sS'brand'
p995
I6
sS'sequel'
p996
I3
sS'polyester'
p997
I1
sS'vichyssoise'
p998
I1
sS'spider'
p999
I1
sS'synonym'
p1000
I1
sS'injection'
p1001
I1
sS'bug'
p1002
I1
sS'fort'
p1003
I1
sS'operating'
p1004
I1
sS'circulation'
p1005
I1
sS'erica'
p1006
I1
sS'time'
p1007
I3
sS'zodiac'
p1008
I1
sS'z'
p1009
I1
sS'condiment'
p1010
I2
sS'taylor'
p1011
I1
sS'ad'
p1012
I1
sS'taste'
p1013
I2
sS'beetle'
p1014
I1
sS'deer'
p1015
I1
sS'disease'
p1016
I10
sS'gland'
p1017
I1
sS'ink'
p1018
I1
sS'ship'
p1019
I1
sS'education'
p1020
I1
sS'film'
p1021
I20
sS'cream'
p1022
I1
sS'rainbow'
p1023
I1
sS'englishman'
p1024
I1
sS'variety'
p1025
I1
sS'percent'
p1026
I1
sS'actor'
p1027
I1
sS'book'
p1028
I17
sS'boom'
p1029
I1
sS'mayonnaise'
p1030
I1
sS'canada'
p1031
I1
sS'francisco'
p1032
I1
sS'congress'
p1033
I1
sS'ridder'
p1034
I1
sS'symbol'
p1035
I3
sS'football'
p1036
I1
sS'lens'
p1037
I1
sS'nintendo'
p1038
I1
sS'pooh'
p1039
I1
sS'chairbound'
p1040
I1
sS'peugeot'
p1041
I1
sS'lifesaver'
p1042
I1
sS'structure'
p1043
I1
sS'building'
p1044
I1
sS'longer'
p1045
I1
sS'age'
p1046
I1
sS'fastener'
p1047
I1
sS'week'
p1048
I1
sS'teeth'
p1049
I1
sS'menace'
p1050
I1
stp1051
Rp1052
(dp1053
g25
I1250
sg83
Nsg84
Nsg85
Nsbsg86
I1604
sg87
F2052.0
sbs(g10
g18
tp1054
g0
(g20
g2
Ntp1055
Rp1056
(dp1057
g24
F0.5
sg25
I835
sg26
g0
(g27
g28
(dp1058
g30
I66
sS'incorporate'
p1059
I1
sS'thomas'
p1060
I1
sS'kosovo'
p1061
I1
sS'german'
p1062
I1
sS'dicken'
p1063
I1
sS'spacecraft'
p1064
I1
sS'madeira'
p1065
I1
sS'battle'
p1066
I1
sS'nevada'
p1067
I1
sS'birthplace'
p1068
I3
sS'austerlitz'
p1069
I1
sS'ratio'
p1070
I1
sS'gulf'
p1071
I1
sS'title'
p1072
I1
sS'state'
p1073
I53
sS'tape'
p1074
I1
sS'ayer'
p1075
I1
sS'sierra'
p1076
I1
sS'piano'
p1077
I1
sS'spice'
p1078
I1
sS'merchant'
p1079
I1
sS'info'
p1080
I2
sS'keck'
p1081
I1
sS'street'
p1082
I1
sS'ukulele'
p1083
I1
sS'get'
p1084
I1
sS'photograph'
p1085
I1
sS'tuberculosis'
p1086
I1
sS'fractal'
p1087
I1
sS'suey'
p1088
I1
sS'look'
p1089
I1
sS'mauritania'
p1090
I1
sS'chesapeake'
p1091
I1
sS'list'
p1092
I3
sS'gum'
p1093
I1
sS'bay'
p1094
I2
sS'race'
p1095
I1
sS'grimace'
p1096
I1
sS'gran'
p1097
I1
sS'team'
p1098
I1
sS'venus'
p1099
I1
sS'river'
p1100
I10
sS'becket'
p1101
I1
sS'olympia'
p1102
I1
sS'body'
p1103
I3
sS'bill'
p1104
I3
sS'japanese'
p1105
I1
sS'orinoco'
p1106
I1
sS'individual'
p1107
I1
sS'college'
p1108
I3
sS'sea'
p1109
I5
sS'sport'
p1110
I1
sS'constellation'
p1111
I3
sS'victor'
p1112
I1
sS'schoolhouse'
p1113
I1
sS'amtrak'
p1114
I1
sS'mutombo'
p1115
I1
sS'guinea'
p1116
I1
sS'review'
p1117
I1
sS'importer'
p1118
I1
sS'capital'
p1119
I18
sS'europe'
p1120
I1
sS'kalahari'
p1121
I1
sS'henry'
p1122
I1
sS'french'
p1123
I1
sS'sink'
p1124
I1
sS'address'
p1125
I4
sS'nationality'
p1126
I7
sS'come'
p1127
I2
sS'mona'
p1128
I1
sS'institute'
p1129
I1
sS'country'
p1130
I111
sS'region'
p1131
I1
sS'mont'
p1132
I1
sS'climb'
p1133
I1
sS'point'
p1134
I1
sS'wall'
p1135
I1
sS'thatcher'
p1136
I1
sS'county'
p1137
I3
sS'snowboard'
p1138
I1
sS'research'
p1139
I1
sS'eye'
p1140
I1
sS'usa'
p1141
I1
sS'source'
p1142
I1
sS'union'
p1143
I1
sS'hospital'
p1144
I1
sS'visit'
p1145
I1
sS'stadium'
p1146
I2
sS'territory'
p1147
I1
sS'meeting'
p1148
I1
sS'tell'
p1149
I1
sS'today'
p1150
I1
sS'possession'
p1151
I1
sS'main'
p1152
I1
sS'direction'
p1153
I3
sS'liverpool'
p1154
I2
sS'listing'
p1155
I1
sS'spectrum'
p1156
I1
sS'berlin'
p1157
I1
sS'pecan'
p1158
I1
sS'east'
p1159
I1
sS'coyote'
p1160
I1
sS'hole'
p1161
I1
sS'dialing'
p1162
I1
sS'case'
p1163
I2
sS'georgia'
p1164
I1
sS'room'
p1165
I1
sS'hour'
p1166
I1
sS'science'
p1167
I1
sS'ride'
p1168
I1
sS'originate'
p1169
I2
sS'mall'
p1170
I1
sS'learn'
p1171
I1
sS'mythology'
p1172
I1
sS'loop'
p1173
I1
sS'history'
p1174
I2
sS'pony'
p1175
I1
sS'strait'
p1176
I2
sS'share'
p1177
I2
sS'site'
p1178
I2
sS'pro'
p1179
I1
sS'bend'
p1180
I1
sS'helium'
p1181
I1
sS'taj'
p1182
I1
sS'information'
p1183
I17
sS'barney'
p1184
I1
sS'court'
p1185
I2
sS'border'
p1186
I1
sS'airport'
p1187
I4
sS'hampshire'
p1188
I1
sS'wilhelm'
p1189
I1
sS'forest'
p1190
I1
sS'auto'
p1191
I1
sS'isle'
p1192
I1
sS'restaurant'
p1193
I2
sS'status'
p1194
I1
sS'map'
p1195
I1
sS'southern'
p1196
I2
sS'rain'
p1197
I1
sS'waterfall'
p1198
I1
sS'nickname'
p1199
I2
sS'weird'
p1200
I1
sS'earhart'
p1201
I1
sS'center'
p1202
I2
sS'headquarters'
p1203
I1
sS'element'
p1204
I1
sS'tale'
p1205
I1
sS'person'
p1206
I1
sS'swiss'
p1207
I1
sS'kai-shek'
p1208
I1
sS'snowman'
p1209
I1
sS'summer'
p1210
I2
sS'office'
p1211
I1
sS'brenner'
p1212
I1
sS'bocci'
p1213
I1
sS'actress'
p1214
I1
sS'london'
p1215
I4
sS'windshield'
p1216
I1
sS'avenue'
p1217
I1
sS'continent'
p1218
I7
sS'web'
p1219
I5
sS'eli'
p1220
I1
sS'group'
p1221
I3
sS'rose'
p1222
I1
sS'bell'
p1223
I1
sS'royal'
p1224
I1
sS'lake'
p1225
I2
sS'woodstock'
p1226
I1
sS'wright'
p1227
I1
sS'setting'
p1228
I1
sS'location'
p1229
I4
sS'prison'
p1230
I1
sS'orange'
p1231
I3
sS'soccer'
p1232
I1
sS'hat'
p1233
I1
sS'maya'
p1234
I1
sS'tourist'
p1235
I1
sS'myth'
p1236
I1
sS'government'
p1237
I1
sS'dam'
p1238
I1
sS'mayo'
p1239
I1
sS'grand'
p1240
I1
sS'treehouse'
p1241
I1
sS'nation'
p1242
I3
sS'department'
p1243
I1
sS'desk'
p1244
I1
sS'world'
p1245
I20
sS'tourism'
p1246
I1
sS'name'
p1247
I21
sS'opera'
p1248
I1
sS'university'
p1249
I3
sS't'
p1250
I1
sS'clay'
p1251
I1
sS'found'
p1252
I1
sS'mcgwire'
p1253
I1
sS'england'
p1254
I3
sS'habitat'
p1255
I1
sS'back'
p1256
I1
sS'born'
p1257
I2
sS'home'
p1258
I5
sS'danube'
p1259
I1
sS'aldrin'
p1260
I1
sS'jackson'
p1261
I2
sS'videotape'
p1262
I1
sS'pokemon'
p1263
I1
sS'mayan'
p1264
I1
sS'seaport'
p1265
I2
sS'cobb'
p1266
I1
sS'internet'
p1267
I7
sS'temple'
p1268
I1
sS'math'
p1269
I1
sS'columbus'
p1270
I1
sS'horse'
p1271
I4
sS'california'
p1272
I5
sS'york'
p1273
I1
sS'santa'
p1274
I1
sS'ask'
p1275
I1
sS'post'
p1276
I1
sS'ash'
p1277
I1
sS'anything'
p1278
I1
sS'island'
p1279
I7
sS'fein'
p1280
I1
sS'thing'
p1281
I1
sS'american'
p1282
I4
sS'place'
p1283
I2
sS'castle'
p1284
I2
sS'south'
p1285
I1
sS'nixon'
p1286
I1
sS'seeing'
p1287
I1
sS'clinton'
p1288
I1
sS'colorado'
p1289
I1
sS'guam'
p1290
I1
sS'washington'
p1291
I2
sS'coastal'
p1292
I1
sS'strip'
p1293
I1
sS'amsterdam'
p1294
I1
sS'lesson'
p1295
I1
sS'quality'
p1296
I1
sS'city'
p1297
I80
sS'mississippi'
p1298
I1
sS'area'
p1299
I3
sS'arch'
p1300
I1
sS'museum'
p1301
I2
sS'tennis'
p1302
I1
sS'draft'
p1303
I1
sS'seafaring'
p1304
I1
sS'saint'
p1305
I1
sS'corpus'
p1306
I2
sS'valley'
p1307
I1
sS'war'
p1308
I2
sS'vienna'
p1309
I1
sS'north'
p1310
I1
sS'way'
p1311
I1
sS'cisalpine'
p1312
I1
sS'bradbury'
p1313
I1
sS'montenegro'
p1314
I1
sS'part'
p1315
I3
sS'line'
p1316
I1
sS'population'
p1317
I2
sS'steel'
p1318
I1
sS'wide'
p1319
I1
sS'kind'
p1320
I1
sS'target'
p1321
I1
sS'tallest'
p1322
I1
sS'official'
p1323
I1
sS'tree'
p1324
I1
sS'planet'
p1325
I4
sS'r'
p1326
I1
sS'bridge'
p1327
I1
sS'edberg'
p1328
I1
sS'barrymore'
p1329
I1
sS'abstract'
p1330
I1
sS'marijuana'
p1331
I1
sS'alley'
p1332
I1
sS'evidence'
p1333
I1
sS'concentration'
p1334
I1
sS'education'
p1335
I1
sS'benelux'
p1336
I1
sS'windsor'
p1337
I1
sS'superman'
p1338
I2
sS'angelica'
p1339
I1
sS'mountain'
p1340
I11
sS'scotland'
p1341
I1
sS'zoo'
p1342
I1
sS'book'
p1343
I2
sS'online'
p1344
I1
sS'test'
p1345
I1
sS'residence'
p1346
I1
sS'rider'
p1347
I1
sS'channel'
p1348
I1
sS'province'
p1349
I1
sS'picture'
p1350
I1
sS'hotel'
p1351
I2
sS'star'
p1352
I2
sS'park'
p1353
I2
sS'lucia'
p1354
I1
sS'town'
p1355
I1
sS'peak'
p1356
I1
sS'letter'
p1357
I1
sS'desert'
p1358
I3
sS'honecker'
p1359
I1
sS'building'
p1360
I4
sS'badu'
p1361
I1
sS'freeway'
p1362
I1
sS'jamiroquai'
p1363
I1
sS'missouri'
p1364
I1
sS'abraham'
p1365
I1
sS'marvel'
p1366
I1
stp1367
Rp1368
(dp1369
g25
I835
sg83
Nsg84
Nsg85
Nsbsg86
I1604
sg87
F1637.0
sbs(g12
g18
tp1370
g0
(g20
g2
Ntp1371
Rp1372
(dp1373
g24
F0.5
sg25
I218
sg26
g0
(g27
g28
(dp1374
g30
I12
sS'ambassador'
p1375
I1
sS'jimmy'
p1376
I1
sS'clark'
p1377
I4
sS'heart'
p1378
I1
sS'wall'
p1379
I1
sS'period'
p1380
I1
sS'month'
p1381
I6
sS'spielberg'
p1382
I1
sS'ussr'
p1383
I1
sS'battle'
p1384
I2
sS'president'
p1385
I3
sS'go'
p1386
I1
sS'thai'
p1387
I1
sS'hitler'
p1388
I1
sS'san'
p1389
I1
sS'use'
p1390
I1
sS'group'
p1391
I1
sS'paint'
p1392
I1
sS'howdy'
p1393
I1
sS'royal'
p1394
I1
sS'labor'
p1395
I1
sS'iraqi'
p1396
I1
sS'teenager'
p1397
I1
sS'storm'
p1398
I1
sS'bounty'
p1399
I1
sS'thompson'
p1400
I1
sS'bill'
p1401
I1
sS'congress'
p1402
I1
sS'israel'
p1403
I1
sS'woman'
p1404
I1
sS'carolingian'
p1405
I1
sS'season'
p1406
I3
sS'de'
p1407
I1
sS'broadcast'
p1408
I1
sS'test'
p1409
I1
sS'berlin'
p1410
I2
sS'minister'
p1411
I1
sS'world'
p1412
I1
sS'railroad'
p1413
I1
sS'believe'
p1414
I1
sS'banner'
p1415
I1
sS'day'
p1416
I12
sS'spain'
p1417
I1
sS'steel'
p1418
I1
sS'pamplona'
p1419
I1
sS'malaysia'
p1420
I1
sS'die'
p1421
I1
sS'mount'
p1422
I3
sS'nfl'
p1423
I1
sS'roosevelt'
p1424
I1
sS'air'
p1425
I1
sS'architecture'
p1426
I1
sS'manuel'
p1427
I1
sS'become'
p1428
I1
sS'supercontinent'
p1429
I1
sS'history'
p1430
I1
sS'control'
p1431
I1
sS'menstruation'
p1432
I1
sS'suffrage'
p1433
I1
sS'art'
p1434
I2
sS'osbourne'
p1435
I1
sS'century'
p1436
I3
sS'house'
p1437
I1
sS'shirtwaist'
p1438
I1
sS'year'
p1439
I43
sS'parthenon'
p1440
I1
sS'born'
p1441
I3
sS'say'
p1442
I1
sS'flush'
p1443
I1
sS'depression'
p1444
I1
sS'neanderthal'
p1445
I1
sS'christ'
p1446
I1
sS'amtrak'
p1447
I1
sS'barbie'
p1448
I1
sS'sun'
p1449
I1
sS'hugo'
p1450
I1
sS'publish'
p1451
I1
sS'www.questions.com'
p1452
I1
sS'millennium'
p1453
I1
sS'film'
p1454
I1
sS'huxley'
p1455
I1
sS'cnn'
p1456
I2
sS'ruth'
p1457
I1
sS'fraze'
p1458
I1
sS'begin'
p1459
I1
sS'hoover'
p1460
I1
sS'garland'
p1461
I1
sS'eruption'
p1462
I1
sS'commercial'
p1463
I1
sS'brandenburg'
p1464
I2
sS'combustion'
p1465
I1
sS'date'
p1466
I10
sS'vesuvius'
p1467
I1
sS'victoria'
p1468
I1
sS'come'
p1469
I1
sS'princess'
p1470
I1
sS'winter'
p1471
I2
sS'luther'
p1472
I1
sS'glass'
p1473
I1
sS'iraqis'
p1474
I1
sS'florida'
p1475
I1
sS'rockefeller'
p1476
I1
sS'tulip'
p1477
I1
sS'american'
p1478
I2
sS'vietnam'
p1479
I1
sS'advertising'
p1480
I1
sS'time'
p1481
I6
sS'shorn'
p1482
I1
sS'railway'
p1483
I1
sS'chernobyl'
p1484
I1
sS'dow'
p1485
I1
sS'nixon'
p1486
I3
stp1487
Rp1488
(dp1489
g25
I218
sg83
Nsg84
Nsg85
Nsbsg86
I1604
sg87
F1020.0
sbs(g15
g88
tp1490
g0
(g20
g2
Ntp1491
Rp1492
(dp1493
g24
F0.5
sg25
I27
sg26
g0
(g27
g28
(dp1494
S'of'
p1495
I1
sS'what'
p1496
I25
sS'independent'
p1497
I1
stp1498
Rp1499
(dp1500
g25
I27
sg83
Nsg84
Nsg85
Nsbsg86
I62
sg87
F58.0
sbs(g10
g88
tp1501
g0
(g20
g2
Ntp1502
Rp1503
(dp1504
g24
F0.5
sg25
I835
sg26
g0
(g27
g28
(dp1505
S'in which'
p1506
I1
sg1061
I1
sS'on which'
p1507
I1
sg1298
I1
sS'in 139'
p1508
I1
sS'on what'
p1509
I4
sS'in what'
p1510
I15
sS'in sinclair'
p1511
I1
sS'what'
p1512
I523
sg1261
I2
sS'name'
p1513
I7
sS'when'
p1514
I1
sS'which'
p1515
I16
sS'mccarren'
p1516
I1
sS'the'
p1517
I4
sS'where'
p1518
I255
sg1149
I1
stp1519
Rp1520
(dp1521
g25
I835
sg83
Nsg84
Nsg85
Nsbsg86
I62
sg87
F866.0
sbs(g9
g88
tp1522
g0
(g20
g2
Ntp1523
Rp1524
(dp1525
g24
F0.5
sg25
I1223
sg26
g0
(g27
g28
(dp1526
S'in dana'
p1527
I1
sS'saddam'
p1528
I1
sS'who'
p1529
I557
sS'woodrow'
p1530
I1
sS'president'
p1531
I1
sS'in the'
p1532
I2
sS'with'
p1533
I1
sS'in what'
p1534
I1
sS'whose'
p1535
I14
sS'what'
p1536
I533
sS'name'
p1537
I49
sS'when'
p1538
I4
sS'rotary'
p1539
I3
sS'whom'
p1540
I4
sS'silly'
p1541
I1
sS'which'
p1542
I46
sS'cnn'
p1543
I1
sS'the'
p1544
I3
stp1545
Rp1546
(dp1547
g25
I1223
sg83
Nsg84
Nsg85
Nsbsg86
I62
sg87
F1254.0
sbs(g12
g88
tp1548
g0
(g20
g2
Ntp1549
Rp1550
(dp1551
g24
F0.5
sg25
I218
sg26
g0
(g27
g28
(dp1552
S'the'
p1553
I3
sS'what'
p1554
I63
sS'in which'
p1555
I2
sS'when'
p1556
I124
sS'boxing'
p1557
I1
sS'on which'
p1558
I2
sg1456
I2
sS'in what'
p1559
I17
sS'on what'
p1560
I2
sS'in 1990'
p1561
I1
sg1388
I1
stp1562
Rp1563
(dp1564
g25
I218
sg83
Nsg84
Nsg85
Nsbsg86
I62
sg87
F249.0
sbs(g14
g18
tp1565
g0
(g20
g2
Ntp1566
Rp1567
(dp1568
g24
F0.5
sg25
I71
sg26
g0
(g27
g28
(dp1569
g30
I1
sS'fare'
p1570
I1
sS'junk'
p1571
I1
sS'exchange'
p1572
I2
sS'money'
p1573
I7
sS'price'
p1574
I4
sS'clara'
p1575
I1
sS'volkswagen'
p1576
I1
sS'cost'
p1577
I4
sS'california'
p1578
I3
sS'qintex'
p1579
I1
sS'tuberculosis'
p1580
I2
sS'president'
p1581
I1
sS'ticket'
p1582
I2
sS'fine'
p1583
I1
sS'railroad'
p1584
I1
sS'wage'
p1585
I5
sS'salary'
p1586
I6
sS'daycare'
p1587
I2
sS'person'
p1588
I1
sS'stamp'
p1589
I2
sS'twenty'
p1590
I1
sS'tree'
p1591
I2
sS'increase'
p1592
I1
sS'did'
p1593
I9
sS'amount'
p1594
I2
sS'ton'
p1595
I1
sS'income'
p1596
I3
sS'party'
p1597
I1
sS'having'
p1598
I1
sS'namath'
p1599
I1
stp1600
Rp1601
(dp1602
g25
I71
sg83
Nsg84
Nsg85
Nsbsg86
I1604
sg87
F873.0
sbs(g14
g88
tp1603
g0
(g20
g2
Ntp1604
Rp1605
(dp1606
g24
F0.5
sg25
I71
sg26
g0
(g27
g28
(dp1607
S'how'
p1608
I32
sS'what'
p1609
I37
sS'dialing'
p1610
I1
sS'by'
p1611
I1
stp1612
Rp1613
(dp1614
g25
I71
sg83
Nsg84
Nsg85
Nsbsg86
I62
sg87
F102.0
sbs(g11
g88
tp1615
g0
(g20
g2
Ntp1616
Rp1617
(dp1618
g24
F0.5
sg25
I505
sg26
g0
(g27
g28
(dp1619
g120
I1
sS'what'
p1620
I105
sS'about'
p1621
I2
sS'approximately'
p1622
I2
sS'how'
p1623
I390
sS'in south'
p1624
I1
sS'on average'
p1625
I1
sS'the'
p1626
I1
sS'where'
p1627
I2
stp1628
Rp1629
(dp1630
g25
I505
sg83
Nsg84
Nsg85
Nsbsg86
I62
sg87
F536.0
sbs(g15
g18
tp1631
g0
(g20
g2
Ntp1632
Rp1633
(dp1634
g24
F0.5
sg25
I27
sg26
g0
(g27
g28
(dp1635
g30
I2
sg1497
I1
sS'target'
p1636
I1
sS'probability'
p1637
I2
sS'unemployment'
p1638
I1
sS'roulette'
p1639
I1
sS'percent'
p1640
I2
sS'watch'
p1641
I1
sS'pennsylvania'
p1642
I1
sS'chance'
p1643
I1
sS'fraction'
p1644
I2
sS'approval'
p1645
I1
sS'percentage'
p1646
I9
sS'pregnacy'
p1647
I2
stp1648
Rp1649
(dp1650
g25
I27
sg83
Nsg84
Nsg85
Nsbsg86
I1604
sg87
F829.0
sbs(g9
g18
tp1651
g0
(g20
g2
Ntp1652
Rp1653
(dp1654
g24
F0.5
sg25
I1223
sg26
g0
(g27
g28
(dp1655
g30
I92
sS'coach'
p1656
I2
sS'founder'
p1657
I2
sS'jolson'
p1658
I1
sS'resistance'
p1659
I1
sS'dynasty'
p1660
I1
sS'battle'
p1661
I4
sS'woody'
p1662
I1
sS'chair'
p1663
I1
sS'captain'
p1664
I1
sS'milk'
p1665
I1
sS'alcatraz'
p1666
I1
sg1535
I14
sS'chain'
p1667
I1
sS'hunting'
p1668
I1
sS'electricity'
p1669
I1
sS'father'
p1670
I4
sS'literary'
p1671
I1
sS'painter'
p1672
I3
sS'crooner'
p1673
I1
sS'pride'
p1674
I1
sS'fax'
p1675
I1
sS'woman'
p1676
I11
sS'kennedy-nixon'
p1677
I1
sS'diary'
p1678
I1
sS'jack'
p1679
I1
sS'tutu'
p1680
I2
sS'school'
p1681
I2
sS'level'
p1682
I1
sS'lawnmower'
p1683
I1
sS'celebrity'
p1684
I2
sS'michael'
p1685
I2
sS'pea'
p1686
I1
sS'sang'
p1687
I2
sS'wheatfield'
p1688
I1
sS'team'
p1689
I4
sS'guy'
p1690
I1
sS'kemper'
p1691
I1
sS'malick'
p1692
I1
sS'ten'
p1693
I3
sS'lawyer'
p1694
I6
sS'nba'
p1695
I1
sS'folk'
p1696
I1
sS'victor'
p1697
I1
sS'stardom'
p1698
I1
sS'business'
p1699
I3
sS'richard'
p1700
I1
sS'chicago'
p1701
I1
sS'section'
p1702
I1
sS'skywalker'
p1703
I1
sS'liberty'
p1704
I1
sS'rome'
p1705
I1
sS'usenet'
p1706
I1
sS'leader'
p1707
I8
sS'leia'
p1708
I1
sS'badge'
p1709
I1
sS'hero'
p1710
I1
sS'degree'
p1711
I1
sS'theresa'
p1712
I1
sS'french'
p1713
I2
sS'leo'
p1714
I1
sS'baseball'
p1715
I11
sS'hulk'
p1716
I2
sS'benson'
p1717
I1
sS'boy'
p1718
I2
sS'luther'
p1719
I1
sS'daughter'
p1720
I1
sS'naval'
p1721
I1
sS'survivor'
p1722
I1
sS'alaska'
p1723
I1
sS'soldier'
p1724
I1
sS'defeat'
p1725
I1
sS'bunker'
p1726
I1
sS'maker'
p1727
I1
sS'writer'
p1728
I3
sS'carl'
p1729
I1
sS'heart'
p1730
I1
sS'julie'
p1731
I1
sS'reagan'
p1732
I1
sS'fatman'
p1733
I1
sS'composer'
p1734
I3
sS'stern'
p1735
I1
sS'viceroy'
p1736
I1
sS'cocaine'
p1737
I1
sS'singing'
p1738
I2
sS'russell'
p1739
I1
sS'zip'
p1740
I1
sS'army'
p1741
I1
sS'century'
p1742
I2
sS'nobel'
p1743
I2
sS'wonderbra'
p1744
I1
sS'music'
p1745
I1
sS'butler'
p1746
I2
sS'manufacturer'
p1747
I1
sS'diamond'
p1748
I2
sS'conductor'
p1749
I1
sS'faith'
p1750
I1
sS'tootsie'
p1751
I1
sS'company'
p1752
I24
sS'stone'
p1753
I1
sS'casey'
p1754
I1
sS'pugilist'
p1755
I1
sS'stethoscope'
p1756
I1
sS'antichrist'
p1757
I1
sS'communist'
p1758
I1
sS'pulitzer'
p1759
I2
sS'me'
p1760
I1
sS'show-biz'
p1761
I1
sS'middle'
p1762
I1
sS'barroom'
p1763
I1
sS'cowboy'
p1764
I1
sS'monster'
p1765
I1
sS'morgan'
p1766
I1
sS'criticizing'
p1767
I1
sS'male'
p1768
I1
sS'example'
p1769
I1
sS'spy'
p1770
I1
sS'compare'
p1771
I1
sS'bandleader'
p1772
I1
sS'figure'
p1773
I1
sS'process'
p1774
I1
sS'december'
p1775
I1
sS'trial'
p1776
I1
sS'frickett'
p1777
I1
sS'abner'
p1778
I1
sS'villain'
p1779
I1
sS'founding'
p1780
I1
sS'airplane'
p1781
I2
sS'information'
p1782
I1
sS'court'
p1783
I1
sS'chevrolet'
p1784
I1
sS'poetry'
p1785
I1
sS'fame'
p1786
I1
sS'oyl'
p1787
I1
sS'dannon'
p1788
I1
sS'stock'
p1789
I1
sS'bacall'
p1790
I2
sS'horoscope'
p1791
I1
sS'despondent'
p1792
I1
sS'ronald'
p1793
I1
sS'rosanne'
p1794
I1
sS'president'
p1795
I47
sS'bloom'
p1796
I1
sS'man'
p1797
I9
sS'author'
p1798
I9
sS'greek'
p1799
I1
sS'road'
p1800
I1
sS'nixon'
p1801
I2
sS'houston'
p1802
I1
sS'casablanca'
p1803
I1
sS'producer'
p1804
I1
sS'shevardnadze'
p1805
I1
sS'paper'
p1806
I1
sS'costume'
p1807
I2
sS'committee'
p1808
I1
sS'mayor'
p1809
I4
sS'sistine'
p1810
I1
sS'perfect'
p1811
I1
sS'underwater'
p1812
I1
sS'self-portrait'
p1813
I1
sS'group'
p1814
I7
sS'howdy'
p1815
I1
sS'housewife'
p1816
I1
sS'labor'
p1817
I1
sS'farmer'
p1818
I1
sS'hobby'
p1819
I1
sS'argentine'
p1820
I2
sS'fool'
p1821
I1
sS'rann'
p1822
I1
sS'food'
p1823
I1
sS'washington'
p1824
I1
sS'porgy'
p1825
I1
sS'comedienne'
p1826
I2
sS'band'
p1827
I1
sS'party'
p1828
I2
sS'cage'
p1829
I2
sS'day'
p1830
I1
sS'term'
p1831
I1
sg1537
I109
sS'tutankhamun'
p1832
I1
sS'university'
p1833
I4
sS'nfl'
p1834
I2
sS'theory'
p1835
I1
sS'victory'
p1836
I1
sS'rock'
p1837
I2
sS'paganini'
p1838
I1
sS'kane'
p1839
I1
sS'society'
p1840
I2
sS'oil'
p1841
I1
sS'laboratory'
p1842
I1
sS'girl'
p1843
I2
sS'collector'
p1844
I1
sS'explorer'
p1845
I2
sS'living'
p1846
I2
sS'network'
p1847
I1
sS'space'
p1848
I1
sS'doonesbury'
p1849
I1
sS'opener'
p1850
I1
sS'fountain'
p1851
I1
sS'internet'
p1852
I2
sS'yankee'
p1853
I2
sS'cricketer'
p1854
I1
sS'pub'
p1855
I1
sS'basketball'
p1856
I1
sS'california'
p1857
I2
sS'york'
p1858
I6
sS'plea'
p1859
I1
sS'philip'
p1860
I1
sS'card'
p1861
I1
sS'mvp'
p1862
I1
sS'prophet'
p1863
I5
sS'florida'
p1864
I1
sS'thing'
p1865
I1
sS'american'
p1866
I7
sS'farrow'
p1867
I1
sS'place'
p1868
I1
sS'gordon'
p1869
I1
sS'south'
p1870
I1
sS'stewart'
p1871
I1
sS'playwright'
p1872
I1
sS'superbowl'
p1873
I1
sS'fischer'
p1874
I1
sS'cross-your-heart'
p1875
I1
sS'ybarra'
p1876
I1
sS'spanish'
p1877
I2
sS'owner'
p1878
I1
sS'art'
p1879
I1
sS'message'
p1880
I1
sS'engineer'
p1881
I2
sS'mercury'
p1882
I1
sS'gitchee'
p1883
I1
sS'toy'
p1884
I1
sS'silent'
p1885
I1
sS'unknown'
p1886
I1
sS'carson'
p1887
I1
sS'master'
p1888
I1
sS'sergeant'
p1889
I1
sS'speaking'
p1890
I1
sS'beard'
p1891
I1
sS'bremer'
p1892
I1
sS'labianca'
p1893
I1
sS'academy'
p1894
I1
sS'part'
p1895
I4
sS'inventor'
p1896
I2
sS'distance'
p1897
I1
sS'kind'
p1898
I5
sS'ben'
p1899
I1
sS'tree'
p1900
I1
sS'victorian'
p1901
I1
sS'architect'
p1902
I2
sS'friend'
p1903
I1
sS'dana'
p1904
I1
sS'prankster'
p1905
I1
sS'bridge'
p1906
I1
sS'surname'
p1907
I1
sS'nominee'
p1908
I1
sS'astaire'
p1909
I1
sS'premier'
p1910
I1
sS'alley'
p1911
I1
sS'talking'
p1912
I1
sS'rent'
p1913
I1
sS'nazi'
p1914
I1
sS'car'
p1915
I3
sS'realm'
p1916
I1
sS'cherokee'
p1917
I1
sS'caesar'
p1918
I1
sS'chairman'
p1919
I1
sS'martha'
p1920
I1
sS'friz'
p1921
I1
sS'warhol'
p1922
I1
sS'phonograph'
p1923
I1
sg1530
I1
sS'victoria'
p1924
I1
sS'cigarette'
p1925
I1
sS'nothing'
p1926
I1
sS'singer'
p1927
I1
sS'camp'
p1928
I1
sS'dog'
p1929
I1
sS'reputation'
p1930
I1
sS'ku'
p1931
I1
sS'movie'
p1932
I3
sS'marvel'
p1933
I1
sS'husband-and-wife'
p1934
I2
sS'sussex'
p1935
I1
sS'gold'
p1936
I2
sS'show'
p1937
I2
sS'german'
p1938
I1
sS'queen'
p1939
I4
sS'vader'
p1940
I2
sS'radio'
p1941
I4
sS'havoc'
p1942
I1
sS'occupation'
p1943
I3
sS'title'
p1944
I7
sS'dick'
p1945
I2
sS'buxom'
p1946
I1
sS'theme'
p1947
I1
sS'wayne'
p1948
I1
sS'black'
p1949
I5
sS'money'
p1950
I2
sS'suspect'
p1951
I1
sS'bourbon'
p1952
I1
sS'bernstein'
p1953
I1
sS'hit'
p1954
I3
sS'king'
p1955
I7
sS'mormon'
p1956
I1
sS'stop'
p1957
I1
sS'television'
p1958
I3
sS'hussain'
p1959
I1
sS'borrower'
p1960
I1
sS'dt'
p1961
I1
sS'abby'
p1962
I1
sS'alexander'
p1963
I1
sS'prime'
p1964
I5
sS'enemy'
p1965
I1
sS'bestselling'
p1966
I1
sS'artist'
p1967
I2
sS'bay'
p1968
I1
sS'ohio'
p1969
I1
sS'vincent'
p1970
I1
sS'husband'
p1971
I1
sS'temperance'
p1972
I1
sS'humpty'
p1973
I2
sS'creator'
p1974
I1
sS'puddle'
p1975
I1
sS'taiwanese'
p1976
I1
sS'culture'
p1977
I1
sS'lion'
p1978
I1
sS'computer'
p1979
I1
sS'college'
p1980
I10
sS'hammer'
p1981
I1
sS'capone'
p1982
I1
sS'harvey'
p1983
I2
sS'ventura'
p1984
I2
sS'ringo'
p1985
I1
sS'genius'
p1986
I1
sS'state'
p1987
I2
sS'won'
p1988
I4
sS'rowan'
p1989
I1
sS'finger'
p1990
I1
sS'advertizing'
p1991
I1
sS'guitar'
p1992
I1
sS'job'
p1993
I1
sS'conservationist'
p1994
I1
sS'magna'
p1995
I2
sS'police'
p1996
I3
sS'motto'
p1997
I1
sS'roller'
p1998
I1
sS'barrett'
p1999
I1
sS'toothbrush'
p2000
I1
sS'superstar'
p2001
I1
sS'career'
p2002
I1
sS'goldie'
p2003
I1
sS'roman'
p2004
I1
sS'collection'
p2005
I1
sS'witch'
p2006
I1
sS'opposition'
p2007
I1
sS'maclaine'
p2008
I1
sS'sullivan'
p2009
I1
sS'lyricist'
p2010
I1
sS'patricia'
p2011
I1
sS'twin'
p2012
I1
sS'taylor'
p2013
I1
sS'hitler'
p2014
I1
sS'heimlich'
p2015
I1
sS'poem'
p2016
I2
sS'door-to-door'
p2017
I1
sS'union'
p2018
I1
sS'trilogy'
p2019
I1
sS'newscast'
p2020
I1
sS'secret'
p2021
I2
sS'dictator'
p2022
I2
sS'tv'
p2023
I14
sS'poet'
p2024
I3
sS'nicolet'
p2025
I1
sS'marx'
p2026
I1
sS'engine'
p2027
I2
sS'cobain'
p2028
I1
sS'league'
p2029
I4
sS'honorary'
p2030
I1
sS'gas'
p2031
I1
sS'craft'
p2032
I1
sS'minister'
p2033
I4
sS'child'
p2034
I1
sS'rugby'
p2035
I1
sS'hamill'
p2036
I1
sS'present'
p2037
I2
sS'sound'
p2038
I1
sS'wood'
p2039
I1
sS'look'
p2040
I2
sS'bill'
p2041
I1
sS'governor'
p2042
I1
sS'air'
p2043
I1
sS'wild'
p2044
I2
sS'voice'
p2045
I1
sS'tim'
p2046
I1
sS'pyramid'
p2047
I2
sS'mexico'
p2048
I1
sS'telephone'
p2049
I1
sS'commander'
p2050
I1
sS'player'
p2051
I3
sS'triple'
p2052
I1
sS'partner'
p2053
I1
sS'astronaut'
p2054
I2
sS'ivy'
p2055
I1
sS'monroe'
p2056
I1
sS'terrorist'
p2057
I1
sS'doctor'
p2058
I3
sS'administration'
p2059
I1
sS'liston'
p2060
I1
sS'member'
p2061
I5
sS'monarch'
p2062
I3
sS'ruth'
p2063
I1
sS'voyager'
p2064
I1
sS'ball'
p2065
I1
sS'columbia'
p2066
I1
sg1528
I1
sS'drink'
p2067
I1
sS'backstreet'
p2068
I1
sS'director'
p2069
I6
sS'renaissance'
p2070
I1
sS'senator'
p2071
I1
sS'nickname'
p2072
I7
sS'cartoon'
p2073
I2
sS'identity'
p2074
I1
sS'kid'
p2075
I1
sS'task'
p2076
I1
sS'surfboard'
p2077
I1
sS'charlie'
p2078
I4
sS'antonio'
p2079
I1
sS'person'
p2080
I8
sS'moby'
p2081
I1
sS'english'
p2082
I1
sS'organization'
p2083
I7
sS'model'
p2084
I1
sS'ozzie'
p2085
I1
sS'ambassador'
p2086
I1
sS'frankie'
p2087
I1
sS'khrushchev'
p2088
I1
sS'actress'
p2089
I11
sS'harrison'
p2090
I1
sS'speed'
p2091
I1
sS'prince'
p2092
I1
sS'death'
p2093
I1
sS'mother'
p2094
I2
sS'character'
p2095
I8
sS'zadora'
p2096
I1
sS'book'
p2097
I4
sS'punchbowl'
p2098
I1
sS'scoundrel'
p2099
I3
sS'gestapo'
p2100
I1
sS'niece'
p2101
I1
sS'viking'
p2102
I2
sS'government'
p2103
I2
sS'chancellor'
p2104
I1
sS'credit'
p2105
I2
sS'game'
p2106
I2
sS'boxer'
p2107
I2
sS'unification'
p2108
I1
sS'vacuum'
p2109
I1
sS'press'
p2110
I1
sS'world'
p2111
I14
sS'mccain'
p2112
I1
sS'lady'
p2113
I1
sS'meat'
p2114
I1
sS'macarthur'
p2115
I1
sS'success'
p2116
I1
sS'kennedy'
p2117
I2
sS'alice'
p2118
I1
sS'purveyor'
p2119
I1
sS'arthur'
p2120
I1
sS'night'
p2121
I1
sS'judson'
p2122
I1
sS'x-man'
p2123
I1
sS'staff'
p2124
I1
sS'back'
p2125
I1
sS'mighty'
p2126
I1
sS'archenemy'
p2127
I1
sS'home'
p2128
I1
sS'peter'
p2129
I1
sS'employment'
p2130
I1
sS'godfather'
p2131
I1
sS'competitor'
p2132
I1
sS'lead'
p2133
I2
sS'civilization'
p2134
I1
sg1543
I1
sS'temple'
p2135
I1
sS'murdock'
p2136
I1
sS'power'
p2137
I2
sS'palmer'
p2138
I1
sS'host'
p2139
I2
sS'protagonist'
p2140
I1
sS'olsen'
p2141
I1
sS'super'
p2142
I2
sS'frenchman'
p2143
I1
sS'spoke'
p2144
I1
sS'pike'
p2145
I1
sS'sister'
p2146
I1
sS'son-in-law'
p2147
I1
sS'oh'
p2148
I1
sS'island'
p2149
I1
sS'swimmer'
p2150
I1
sS'airline'
p2151
I2
sS'congressman'
p2152
I1
sS'emperor'
p2153
I1
sS'backup'
p2154
I1
sS'block'
p2155
I1
sS'software'
p2156
I1
sS'tribe'
p2157
I1
sS'doodyville'
p2158
I1
sS'garbage'
p2159
I1
sS'civil'
p2160
I1
sS'profession'
p2161
I3
sS'bullwinkle'
p2162
I1
sS'usa'
p2163
I1
sS'son'
p2164
I2
sS'weather'
p2165
I1
sS'female'
p2166
I1
sS'strip'
p2167
I3
sS'inhabit'
p2168
I1
sS'jockey'
p2169
I1
sS'flying'
p2170
I1
sS'question'
p2171
I1
sS'philadelphia'
p2172
I1
sS'center'
p2173
I2
sS'grange'
p2174
I1
sS'camera'
p2175
I1
sS'jane'
p2176
I1
sS'call'
p2177
I1
sS'war'
p2178
I1
sS'head'
p2179
I2
sS'byzantine'
p2180
I1
sS'batman'
p2181
I1
sS'polio'
p2182
I1
sS'ford'
p2183
I1
sS'loco-motion'
p2184
I1
sS'uncle'
p2185
I1
sS'gore'
p2186
I1
sS'line'
p2187
I2
sS'surrender'
p2188
I1
sS'count'
p2189
I1
sS'made'
p2190
I1
sS'glory'
p2191
I1
sS'wife'
p2192
I1
sS'un'
p2193
I1
sS'election'
p2194
I2
sS'gone'
p2195
I1
sS'supreme'
p2196
I2
sS'duckling'
p2197
I1
sS'barrymore'
p2198
I1
sS'abstract'
p2199
I1
sS'cop'
p2200
I1
sS'deer'
p2201
I1
sS'scarlet'
p2202
I1
sS'dawson'
p2203
I1
sS'pit'
p2204
I1
sS'film'
p2205
I4
sS'naseem'
p2206
I1
sS'fast-food'
p2207
I1
sS'corporation'
p2208
I2
sS'endurance'
p2209
I1
sS'guitarist'
p2210
I1
sS'actor'
p2211
I17
sS'field'
p2212
I2
sS'pickering'
p2213
I1
sS'role'
p2214
I3
sS'oscar'
p2215
I1
sS'department'
p2216
I1
sS'hoffman'
p2217
I1
sS'pseudonym'
p2218
I2
sS'eternity'
p2219
I1
sS'star'
p2220
I6
sS'football'
p2221
I2
sS'william'
p2222
I2
sS'pope'
p2223
I3
sS'inspiration'
p2224
I1
sS'studio'
p2225
I1
sS'moog'
p2226
I1
sS'vice'
p2227
I1
sS'time'
p2228
I3
sS'menace'
p2229
I1
sS'buffalo'
p2230
I1
sS'once'
p2231
I1
stp2232
Rp2233
(dp2234
g25
I1223
sg83
Nsg84
Nsg85
Nsbsg86
I1604
sg87
F2025.0
sbssS'_label_probdist'
p2235
g0
(g20
g2
Ntp2236
Rp2237
(dp2238
g24
F0.5
sg25
I4204
sg26
g0
(g27
g28
(dp2239
g14
I71
sg15
I27
sg11
I505
sg9
I1223
sg8
I1250
sg10
I835
sg13
I75
sg12
I218
stp2240
Rp2241
(dp2242
g25
I4204
sg83
Nsg84
(lp2243
(g8
I1250
tp2244
a(g9
I1223
tp2245
a(g10
I835
tp2246
a(g11
I505
tp2247
a(g12
I218
tp2248
a(g13
I75
tp2249
a(g14
I71
tp2250
a(g15
I27
tp2251
asg85
Nsbsg86
I8
sg87
F4208.0
sbsb.