ccopy_reg
_reconstructor
p0
(cnltk.classify.naivebayes
NaiveBayesClassifier
p1
c__builtin__
object
p2
Ntp3
Rp4
(dp5
S'_labels'
p6
(lp7
S'OTHER'
p8
aS'PERSON'
p9
aS'LOCATION'
p10
aS'NUMBER'
p11
aS'DATE'
p12
aS'ORGANIZATION'
p13
aS'TIME'
p14
aS'MONEY'
p15
aS'PERCENT'
p16
asS'_feature_probdist'
p17
(dp18
(g14
S'noun'
p19
tp20
g0
(cnltk.probability
ELEProbDist
p21
g2
Ntp22
Rp23
(dp24
S'_gamma'
p25
F0.5
sS'_N'
p26
I75
sS'_freqdist'
p27
g0
(cnltk.probability
FreqDist
p28
c__builtin__
dict
p29
(dp30
S''
p31
I15
sS'flies'
p32
I1
sS'revolution'
p33
I1
sS'office'
p34
I1
sS'show'
p35
I1
sS'community'
p36
I1
sS'pig'
p37
I1
sS'sunlight'
p38
I1
sS'human'
p39
I1
sS'church'
p40
I1
sS'cocaine'
p41
I1
sS'web'
p42
I1
sS'intercourse'
p43
I1
sS'person'
p44
I1
sS'tv'
p45
I1
sS'sun'
p46
I1
sS'decision'
p47
I1
sS'been'
p48
I1
sS'moon'
p49
I1
sS'attack'
p50
I1
sS'hen'
p51
I1
sS'puppy'
p52
I1
sS'eggs'
p53
I2
sS'hermit'
p54
I1
sS'body'
p55
I1
sS'life'
p56
I4
sS'quarts'
p57
I1
sS'gestation'
p58
I2
sS'ferret'
p59
I1
sS'blood'
p60
I2
sS'child'
p61
I1
sS'debt'
p62
I1
sS'artist'
p63
I2
sS'did'
p64
I4
sS'universe'
p65
I1
sS'age'
p66
I7
sS'dog'
p67
I1
sS'hiccup'
p68
I1
sS'trial'
p69
I1
sS'savings'
p70
I1
sS'materials'
p71
I1
sS'time'
p72
I4
stp73
Rp74
(dp75
g26
I75
sS'_max_cache'
p76
NsS'_item_cache'
p77
NsS'_Nr_cache'
p78
NsbsS'_bins'
p79
I1449
sS'_divisor'
p80
F799.5
sbs(g8
S'first'
p81
tp82
g0
(g21
g2
Ntp83
Rp84
(dp85
g25
F0.5
sg26
I1250
sg27
g0
(g28
g29
(dp86
S'musician'
p87
I1
sS'names'
p88
I1
sS'winnie'
p89
I1
sS'who'
p90
I2
sS'mississippi'
p91
I1
sS'at'
p92
I1
sS'in'
p93
I19
sS'madonna'
p94
I2
sS'ray'
p95
I2
sS'a'
p96
I1
sS'on'
p97
I2
sS'what'
p98
I1112
sS'italy'
p99
I1
sS'name'
p100
I34
sS'for'
p101
I1
sS'how'
p102
I7
sS'when'
p103
I1
sS'jude'
p104
I2
sS'to'
p105
I2
sS'garry'
p106
I1
sS'which'
p107
I43
sS'stuart'
p108
I2
sS'the'
p109
I6
sS'where'
p110
I2
sS'aspartame'
p111
I3
stp112
Rp113
(dp114
g26
I1250
sg76
Nsg77
Nsg78
Nsbsg79
I48
sg80
F1274.0
sbs(g12
g19
tp115
g0
(g21
g2
Ntp116
Rp117
(dp118
g25
F0.5
sg26
I218
sg27
g0
(g28
g29
(dp119
g31
I35
sS'ambassador'
p120
I1
sS'show'
p121
I1
sS'royal'
p122
I1
sS'revolutionaries'
p123
I1
sS'period'
p124
I1
sS'month'
p125
I6
sS'battle'
p126
I1
sS'www.questions.com'
p127
I1
sS'use'
p128
I1
sS'group'
p129
I1
sS'troops'
p130
I1
sS'start'
p131
I2
sS'visit'
p132
I1
sS'live'
p133
I1
sS'labor'
p134
I1
sS'paint'
p135
I1
sS'attack'
p136
I1
sS'music'
p137
I1
sS'teenager'
p138
I1
sS'mutiny'
p139
I1
sS'woman'
p140
I1
sS'get'
p141
I2
sS'fire'
p142
I2
sS'season'
p143
I3
sS'company'
p144
I1
sS'broadcast'
p145
I2
sS'glass'
p146
I1
sS'railroad'
p147
I1
sS'believe'
p148
I1
sS'day'
p149
I9
sS'women'
p150
I1
sS'steel'
p151
I1
sS'die'
p152
I1
sS'air'
p153
I2
sS'heart'
p154
I1
sS'erupt'
p155
I1
sS'become'
p156
I3
sS'supercontinent'
p157
I1
sS'control'
p158
I1
sS'menstruation'
p159
I1
sS'art'
p160
I2
sS'concert'
p161
I1
sS'century'
p162
I3
sS'house'
p163
I1
sS'year'
p164
I44
sS'humans'
p165
I1
sS'direct'
p166
I1
sS'mormons'
p167
I1
sS'born'
p168
I9
sS'flush'
p169
I1
sS'film'
p170
I1
sS'neanderthal'
p171
I1
sS'end'
p172
I2
sS'camcorders'
p173
I1
sS'publish'
p174
I1
sS'write'
p175
I1
sS'flood'
p176
I1
sS'millennium'
p177
I1
sS'test'
p178
I1
sS'gate'
p179
I1
sS'leader'
p180
I1
sS'begin'
p181
I3
sS'power'
p182
I1
sS'eruption'
p183
I3
sS'commercial'
p184
I1
sS'combustion'
p185
I1
sS'shorn'
p186
I1
sS'date'
p187
I13
sS'seasons'
p188
I1
sS'come'
p189
I1
sS'winter'
p190
I2
sS'dates'
p191
I1
sS'accident'
p192
I1
sS'stricken'
p193
I1
sS'birthday'
p194
I4
sS'encyclopedia'
p195
I1
sS'advertising'
p196
I1
sS'time'
p197
I6
sS'built'
p198
I1
sS'painting'
p199
I1
sS'vesuvius'
p200
I1
stp201
Rp202
(dp203
g26
I218
sg76
Nsg77
Nsg78
Nsbsg79
I1449
sg80
F942.5
sbs(g14
g81
tp204
g0
(g21
g2
Ntp205
Rp206
(dp207
g25
F0.5
sg26
I75
sg27
g0
(g28
g29
(dp208
S'on'
p209
I1
sS'what'
p210
I14
sS'at'
p211
I1
sS'how'
p212
I57
sS'shea'
p213
I1
sS'the'
p214
I1
stp215
Rp216
(dp217
g26
I75
sg76
Nsg77
Nsg78
Nsbsg79
I48
sg80
F99.0
sbs(g13
g19
tp218
g0
(g21
g2
Ntp219
Rp220
(dp221
g25
F0.5
sg26
I189
sg27
g0
(g28
g29
(dp222
g31
I4
sS'tribe'
p223
I1
sS'colleges'
p224
I1
sS'agency'
p225
I1
sS'producer'
p226
I1
sS'produces'
p227
I1
sS'football'
p228
I1
sS'businesses'
p229
I2
sS'president'
p230
I1
sS'super-teams'
p231
I1
sS'ballet'
p232
I1
sS'toy'
p233
I1
sS'group'
p234
I7
sS'hunting'
p235
I1
sS'fast'
p236
I1
sS'sports'
p237
I1
sS'camera'
p238
I1
sS'manufactures'
p239
I1
sS'engine'
p240
I2
sS'diamond'
p241
I3
sS'fast-food'
p242
I1
sS'government'
p243
I1
sS'food'
p244
I1
sS'company'
p245
I23
sS'railways'
p246
I1
sS'school'
p247
I3
sS'band'
p248
I1
sS'races'
p249
I1
sS'court'
p250
I1
sS'schools'
p251
I2
sS'world'
p252
I3
sS'championship'
p253
I1
sS'name'
p254
I9
sS'distance'
p255
I1
sS'kind'
p256
I4
sS'middle'
p257
I1
sS'meat'
p258
I1
sS'level'
p259
I1
sS'car'
p260
I2
sS'university'
p261
I5
sS'companies'
p262
I2
sS'purveyor'
p263
I1
sS'rock'
p264
I1
sS'radio'
p265
I2
sS'example'
p266
I1
sS'exhibit'
p267
I1
sS'supreme'
p268
I1
sS'pyramid'
p269
I1
sS'art'
p270
I1
sS'ten'
p271
I1
sS'people'
p272
I2
sS'tree'
p273
I1
sS'telephone'
p274
I1
sS'culture'
p275
I1
sS'computer'
p276
I1
sS'college'
p277
I9
sS'advertise'
p278
I2
sS'airplane'
p279
I2
sS'cocaine'
p280
I1
sS'competitor'
p281
I1
sS'network'
p282
I1
sS'corporation'
p283
I2
sS'manufacturers'
p284
I1
sS'administration'
p285
I1
sS'civilization'
p286
I1
sS'party'
p287
I2
sS'electronics'
p288
I1
sS'play'
p289
I1
sS'oil'
p290
I1
sS'business'
p291
I4
sS'fascist'
p292
I1
sS'cars'
p293
I1
sS'team'
p294
I6
sS'cigarette'
p295
I1
sS'baseball'
p296
I6
sS'groups'
p297
I1
sS'society'
p298
I1
sS'police'
p299
I5
sS'motto'
p300
I1
sS'nickname'
p301
I1
sS'television'
p302
I1
sS'card'
p303
I1
sS'manufacturer'
p304
I1
sS'league'
p305
I2
sS'engines'
p306
I1
sS'wife'
p307
I1
sS'airline'
p308
I2
sS'time'
p309
I1
sS'organization'
p310
I8
sS'residents'
p311
I1
sS'backup'
p312
I1
sS'frequent'
p313
I1
stp314
Rp315
(dp316
g26
I189
sg76
Nsg77
Nsg78
Nsbsg79
I1449
sg80
F913.5
sbs(g13
g81
tp317
g0
(g21
g2
Ntp318
Rp319
(dp320
g25
F0.5
sg26
I189
sg27
g0
(g28
g29
(dp321
S'what'
p322
I137
sS'name'
p323
I14
sS'who'
p324
I15
sS'when'
p325
I1
sS'rotary'
p326
I2
sS'woodrow'
p327
I1
sS'whom'
p328
I1
sS'which'
p329
I16
sS'in'
p330
I1
sS'the'
p331
I1
stp332
Rp333
(dp334
g26
I189
sg76
Nsg77
Nsg78
Nsbsg79
I48
sg80
F213.0
sbs(g11
g19
tp335
g0
(g21
g2
Ntp336
Rp337
(dp338
g25
F0.5
sg26
I505
sg27
g0
(g28
g29
(dp339
g31
I28
sS'colleges'
p340
I1
sS'dollar'
p341
I2
sS'astronauts'
p342
I2
sS'fathom'
p343
I3
sS'spacecraft'
p344
I1
sS'spaces'
p345
I2
sS'businesses'
p346
I2
sS'shoe'
p347
I1
sS'cds'
p348
I1
sS'go'
p349
I1
sS'soldiers'
p350
I6
sS'kilamanjaro'
p351
I1
sS'children'
p352
I2
sS'layers'
p353
I2
sS'votes'
p354
I2
sS'electricity'
p355
I1
sS'megawatts'
p356
I1
sS'languages'
p357
I3
sS'teaspoon'
p358
I2
sS'thousands'
p359
I1
sS'tiles'
p360
I1
sS'oceans'
p361
I1
sS'trees'
p362
I1
sS'acreage'
p363
I1
sS'penny-farthings'
p364
I1
sS'words'
p365
I1
sS'years'
p366
I11
sS'verses'
p367
I1
sS'school'
p368
I1
sS'countries'
p369
I4
sS'did'
p370
I1
sS'bytes'
p371
I1
sS'colors'
p372
I4
sS'casinos'
p373
I1
sS'shots'
p374
I1
sS'inside'
p375
I1
sS'tenths'
p376
I1
sS'leaders'
p377
I1
sS'cheetahs'
p378
I1
sS'villi'
p379
I1
sS'rate'
p380
I1
sS'college'
p381
I1
sS'grooves'
p382
I2
sS'acid'
p383
I2
sS'movies'
p384
I1
sS'thunder'
p385
I1
sS'rings'
p386
I1
sS'fingers'
p387
I1
sS'liberty'
p388
I1
sS'score'
p389
I3
sS'galaxy'
p390
I1
sS'referees'
p391
I1
sS'claws'
p392
I1
sS'human'
p393
I2
sS'men'
p394
I3
sS'answers'
p395
I1
sS'hours'
p396
I2
sS'protection'
p397
I1
sS'baseball'
p398
I1
sS'yards'
p399
I1
sS'furlongs'
p400
I1
sS'cities'
p401
I1
sS'digits'
p402
I3
sS'tractors'
p403
I1
sS'airport'
p404
I1
sS'objects'
p405
I1
sS'games'
p406
I1
sS'canadians'
p407
I1
sS'kinds'
p408
I1
sS'members'
p409
I3
sS'scales'
p410
I1
sS'presidents'
p411
I2
sS'names'
p412
I1
sS'flavors'
p413
I2
sS'attendance'
p414
I1
sS'zip'
p415
I1
sS'copies'
p416
I1
sS'vineyard'
p417
I1
sS'bees'
p418
I1
sS'counties'
p419
I1
sS'films'
p420
I2
sS'sonnets'
p421
I1
sS'milliseconds'
p422
I1
sS'horses'
p423
I2
sS'resting'
p424
I1
sS'diamond'
p425
I1
sS'propellers'
p426
I1
sS'pairs'
p427
I2
sS'telephone'
p428
I1
sS'phone'
p429
I4
sS'angles'
p430
I1
sS'baby'
p431
I1
sS'hole'
p432
I1
sS'emperors'
p433
I1
sS'car'
p434
I1
sS'calcium'
p435
I1
sS'gallons'
p436
I2
sS'pound'
p437
I1
sS'permutations'
p438
I1
sS'teaspoons'
p439
I1
sS'surface'
p440
I1
sS'states'
p441
I3
sS'neurons'
p442
I1
sS'numbers'
p443
I1
sS'bones'
p444
I2
sS'species'
p445
I3
sS'revolutions'
p446
I1
sS'bottles'
p447
I1
sS'lengths'
p448
I1
sS'maids'
p449
I1
sS'oven'
p450
I2
sS'amount'
p451
I1
sS'member'
p452
I1
sS'pins'
p453
I1
sS'colonies'
p454
I2
sS'spears'
p455
I1
sS'events'
p456
I1
sS'stock'
p457
I1
sS'cherubs'
p458
I1
sS'lawyers'
p459
I1
sS'mountain'
p460
I1
sS'fruit'
p461
I1
sS'characters'
p462
I2
sS'law'
p463
I1
sS'types'
p464
I4
sS'man'
p465
I1
sS'varieties'
p466
I2
sS'hearts'
p467
I1
sS'wives'
p468
I1
sS'athletes'
p469
I1
sS'unemployment'
p470
I2
sS'freckles'
p471
I1
sS'quarters'
p472
I1
sS'sperm'
p473
I1
sS'questions'
p474
I2
sS'seats'
p475
I1
sS'speed'
p476
I3
sS'superbowls'
p477
I1
sS'web'
p478
I1
sS'death'
p479
I2
sS'drunk'
p480
I1
sS'acres'
p481
I1
sS'degrees'
p482
I2
sS'latitude'
p483
I3
sS'weeks'
p484
I1
sS'wingspan'
p485
I1
sS'bails'
p486
I1
sS'nation'
p487
I1
sS'records'
p488
I1
sS'giraffe'
p489
I1
sS'hands'
p490
I1
sS'world'
p491
I3
sS'wings'
p492
I1
sS'pounds'
p493
I1
sS'chairs'
p494
I1
sS'corners'
p495
I1
sS'disks'
p496
I1
sS'cullions'
p497
I1
sS'pizza'
p498
I1
sS'jews'
p499
I1
sS'weight'
p500
I4
sS'people'
p501
I35
sS'elevators'
p502
I1
sS'companies'
p503
I1
sS'energy'
p504
I1
sS'frequency'
p505
I2
sS'meters'
p506
I2
sS'year'
p507
I1
sS'home'
p508
I3
sS'dimensions'
p509
I1
sS'blacks'
p510
I1
sS'mines'
p511
I1
sS'moon'
p512
I1
sS'students'
p513
I2
sS'miles'
p514
I9
sS'squares'
p515
I1
sS'eggs'
p516
I1
sS'highway'
p517
I2
sS'millimeters'
p518
I1
sS'equivalent'
p519
I1
sS'lakes'
p520
I1
sS'quart'
p521
I1
sS'caffeine'
p522
I2
sS'statistics'
p523
I1
sS'hostages'
p524
I1
sS'pitchers'
p525
I1
sS'refuge'
p526
I1
sS'chapter'
p527
I4
sS'watts'
p528
I1
sS'engines'
p529
I1
sS'stations'
p530
I1
sS'universe'
p531
I2
sS'dollars'
p532
I1
sS'months'
p533
I2
sS'calories'
p534
I4
sS'days'
p535
I1
sS'times'
p536
I11
sS'whitetail'
p537
I1
sS'length'
p538
I1
sS'extensions'
p539
I2
sS'airline'
p540
I1
sS'islands'
p541
I2
sS'processor'
p542
I1
sS'silver'
p543
I1
sS'size'
p544
I4
sS'letters'
p545
I1
sS'student'
p546
I1
sS'number'
p547
I7
sS'rank'
p548
I2
sS'poodle'
p549
I1
sS'feet'
p550
I6
sS'frames'
p551
I1
sS'earthworms'
p552
I1
sS'bends'
p553
I1
sS'city'
p554
I1
sS'rows'
p555
I2
sS'temperature'
p556
I4
sS'elephants'
p557
I1
sS'approximate'
p558
I2
sS'shillings'
p559
I1
sS'zeros'
p560
I1
sS'stars'
p561
I2
sS'syllables'
p562
I1
sS'dogs'
p563
I1
sS'mountains'
p564
I1
sS'eyes'
p565
I2
sS'muscles'
p566
I2
sS'continents'
p567
I1
sS'inches'
p568
I4
sS'brand'
p569
I1
sS'boys'
p570
I1
sS'population'
p571
I15
sS'waste'
p572
I1
sS'warmup'
p573
I1
sS'cells'
p574
I1
sS'milligrams'
p575
I1
sS'maximum'
p576
I2
sS'war'
p577
I1
sS'iron'
p578
I1
sS'cards'
p579
I3
sS'quadruplets'
p580
I1
sS'minutes'
p581
I1
sS'dots'
p582
I2
sS'holes'
p583
I1
sS'head'
p584
I1
sS'pig'
p585
I1
sS'boardwalk'
p586
I1
sS'replica'
p587
I1
sS'fiddlers'
p588
I1
sS'horsepower'
p589
I2
sS'border'
p590
I1
sS'chromosome'
p591
I2
sS'innings'
p592
I2
sS'russians'
p593
I1
sS'snow'
p594
I1
sS'reactivity'
p595
I4
sS'actors'
p596
I1
sS'grammys'
p597
I1
sS'vegetation'
p598
I1
sS'elements'
p599
I1
sS'star'
p600
I1
sS'teats'
p601
I1
sS'quarts'
p602
I1
sS'teeth'
p603
I1
sS'visitors'
p604
I1
sS'sides'
p605
I3
sS'cables'
p606
I1
sS'stronger'
p607
I1
sS'websites'
p608
I1
sS'points'
p609
I4
sS'time'
p610
I1
sS'weigh'
p611
I1
sS'salt'
p612
I1
sS'quantity'
p613
I1
stp614
Rp615
(dp616
g26
I505
sg76
Nsg77
Nsg78
Nsbsg79
I1449
sg80
F1229.5
sbs(g8
g19
tp617
g0
(g21
g2
Ntp618
Rp619
(dp620
g25
F0.5
sg26
I1250
sg27
g0
(g28
g29
(dp621
g31
I47
sS'melts'
p622
I1
sS'invent'
p623
I3
sS'crocodile'
p624
I1
sS'disc'
p625
I1
sS'publish'
p626
I1
sS'migrates'
p627
I1
sS'skin'
p628
I1
sS'dish'
p629
I1
sS'golf'
p630
I3
sS'centers'
p631
I1
sS'causes'
p632
I1
sS'looking'
p633
I1
sS'baseball'
p634
I1
sS'referring'
p635
I1
sS'tv'
p636
I12
sS'hump'
p637
I1
sS'technique'
p638
I3
sS'languages'
p639
I6
sS'fingernails'
p640
I1
sS'tail'
p641
I1
sS'program'
p642
I2
sS'terror'
p643
I1
sS'smile'
p644
I1
sS'ingredient'
p645
I1
sS'plants'
p646
I2
sS'family'
p647
I1
sS'woman'
p648
I1
sS'translations'
p649
I1
sS'jeroboams'
p650
I1
sS'sons'
p651
I1
sS'mixing'
p652
I2
sS'word'
p653
I14
sS'prize'
p654
I1
sS'level'
p655
I1
sS'did'
p656
I1
sS'gender'
p657
I1
sS'companies'
p658
I1
sS'occurs'
p659
I1
sS'race'
p660
I4
sS'car'
p661
I4
sS'refer'
p662
I1
sS'athlete'
p663
I1
sS'non-fiction'
p664
I1
sS'magazine'
p665
I6
sS'ten'
p666
I1
sS'crop'
p667
I2
sS'sign'
p668
I2
sS'chef'
p669
I1
sS'battle'
p670
I2
sS'titles'
p671
I1
sS'video'
p672
I1
sS'lawyer'
p673
I1
sS'fear'
p674
I62
sS'hymn'
p675
I1
sS'employ'
p676
I1
sS'constitution'
p677
I1
sS'clock'
p678
I1
sS'section'
p679
I1
sS'caffeine'
p680
I1
sS'dangles'
p681
I1
sS'tarantula'
p682
I1
sS'tips'
p683
I1
sS'tournaments'
p684
I1
sS'bird'
p685
I1
sS'body'
p686
I1
sS'hero'
p687
I2
sS'leg'
p688
I1
sS'men'
p689
I1
sS'commercial'
p690
I1
sS'dipsomaniac'
p691
I1
sS'operating'
p692
I2
sS'tragedy'
p693
I1
sS'box'
p694
I1
sS'substance'
p695
I3
sS'credit'
p696
I1
sS'products'
p697
I4
sS'advertising'
p698
I1
sS'birthstone'
p699
I1
sS'otters'
p700
I1
sS'classification'
p701
I1
sS'spermologer'
p702
I1
sS'respirator'
p703
I1
sS'names'
p704
I3
sS'tools'
p705
I1
sS'chefs'
p706
I1
sS'ladybugs'
p707
I1
sS'contains'
p708
I1
sS'arms'
p709
I1
sS'sports'
p710
I3
sS'symphony'
p711
I1
sS'call'
p712
I6
sS'films'
p713
I1
sS'type'
p714
I11
sS'sort'
p715
I1
sS'racoon'
p716
I1
sS'phobophobe'
p717
I1
sS'club'
p718
I1
sS'company'
p719
I2
sS'refrain'
p720
I1
sS'missile'
p721
I1
sS'glass'
p722
I1
sS'flag'
p723
I1
sS'rabbit'
p724
I2
sS'known'
p725
I2
sS'polyorchid'
p726
I1
sS'mascot'
p727
I1
sS'balls'
p728
I1
sS'animals'
p729
I8
sS'primate'
p730
I1
sS'science'
p731
I1
sS'ride'
p732
I1
sS'work'
p733
I1
sS'hardest'
p734
I1
sS'example'
p735
I2
sS'stubborn'
p736
I1
sS'eczema'
p737
I1
sS'assent'
p738
I1
sS'currency'
p739
I1
sS'foods'
p740
I2
sS'airplane'
p741
I2
sS'species'
p742
I3
sS'ceremony'
p743
I1
sS'damage'
p744
I1
sS'write'
p745
I3
sS'sword'
p746
I1
sS'creature'
p747
I3
sS'fare'
p748
I1
sS'plant'
p749
I4
sS'cocktail'
p750
I2
sS'clone'
p751
I1
sS'rites'
p752
I1
sS'accessory'
p753
I1
sS'conjugations'
p754
I1
sS'blood'
p755
I2
sS'philatelist'
p756
I1
sS'softball'
p757
I1
sS'date'
p758
I1
sS'eighth'
p759
I1
sS'types'
p760
I4
sS'man'
p761
I3
sS'noun'
p762
I1
sS'commodity'
p763
I2
sS'liner'
p764
I2
sS'element'
p765
I3
sS'tale'
p766
I2
sS'writ'
p767
I1
sS'keeps'
p768
I1
sS'alloy'
p769
I1
sS'swimming'
p770
I2
sS'playing'
p771
I1
sS'wine'
p772
I1
sS'no.'
p773
I1
sS'words'
p774
I5
sS'producer'
p775
I1
sS'produces'
p776
I1
sS'move'
p777
I1
sS'mission'
p778
I1
sS'meter'
p779
I2
sS'trade'
p780
I1
sS'paper'
p781
I1
sS'motorcycle'
p782
I1
sS'oven'
p783
I1
sS'signs'
p784
I1
sS'birds'
p785
I2
sS'limelight'
p786
I1
sS'group'
p787
I1
sS'handheld'
p788
I1
sS'forms'
p789
I1
sS'civil'
p790
I1
sS'distinguishing'
p791
I1
sS'constitutes'
p792
I1
sS'travelling'
p793
I1
sS'holiday'
p794
I1
sS'diseases'
p795
I1
sS'food'
p796
I7
sS'auto'
p797
I1
sS'killer'
p798
I1
sS'therapy'
p799
I1
sS'snake'
p800
I1
sS'resource'
p801
I1
sS'bread'
p802
I1
sS'articles'
p803
I2
sS'term'
p804
I19
sS'name'
p805
I70
sS'opera'
p806
I2
sS'potatoes'
p807
I1
sS'policeman'
p808
I1
sS'events'
p809
I4
sS'crops'
p810
I1
sS'predators'
p811
I1
sS'side'
p812
I2
sS'bone'
p813
I1
sS'mean'
p814
I1
sS'week'
p815
I1
sS'constipation'
p816
I1
sS'generation'
p817
I1
sS'garment'
p818
I1
sS'spider'
p819
I1
sS'fires'
p820
I1
sS'ball'
p821
I1
sS'year'
p822
I1
sS'aids'
p823
I1
sS'event'
p824
I1
sS'album'
p825
I1
sS'gangland'
p826
I1
sS'space'
p827
I1
sS'four-player'
p828
I1
sS'vessels'
p829
I1
sS'research'
p830
I1
sS'wolverine'
p831
I1
sS'medicine'
p832
I2
sS'formula'
p833
I2
sS'correct'
p834
I2
sS'achievements'
p835
I1
sS'maneuver'
p836
I1
sS'monster'
p837
I1
sS'city'
p838
I1
sS'delicacy'
p839
I1
sS'seventh'
p840
I1
sS'horse'
p841
I2
sS'approaches'
p842
I1
sS'put'
p843
I1
sS'holidays'
p844
I2
sS'card'
p845
I7
sS'care'
p846
I1
sS'language'
p847
I9
sS'deck'
p848
I1
sS'starts'
p849
I1
sS'times'
p850
I1
sS'counterpart'
p851
I2
sS'thing'
p852
I3
sS'tennis'
p853
I2
sS'sentence'
p854
I1
sS'hearing'
p855
I1
sS'feet'
p856
I1
sS'defects'
p857
I1
sS'overalls'
p858
I1
sS'millions'
p859
I1
sS'razor'
p860
I1
sS'story'
p861
I1
sS'toy'
p862
I1
sS'silent'
p863
I1
sS'automobile'
p864
I1
sS'system'
p865
I3
sS'fiction'
p866
I1
sS'paint'
p867
I1
sS'corpus'
p868
I1
sS'syrup'
p869
I1
sS'dogs'
p870
I1
sS'eyes'
p871
I1
sS'murder'
p872
I1
sS'stomach'
p873
I1
sS'way'
p874
I7
sS'chemicals'
p875
I3
sS'part'
p876
I5
sS'cereal'
p877
I2
sS'translation'
p878
I1
sS'flowers'
p879
I1
sS'steel'
p880
I1
sS'distance'
p881
I1
sS'television'
p882
I2
sS'domestica'
p883
I1
sS'invention'
p884
I1
sS'marriage'
p885
I1
sS'cards'
p886
I2
sS'feeling'
p887
I1
sS'sculpture'
p888
I2
sS'fowl'
p889
I1
sS'modern'
p890
I1
sS'ages'
p891
I1
sS'mine'
p892
I1
sS'pedometer'
p893
I1
sS'tastes'
p894
I1
sS'shrubs'
p895
I1
sS'breakfast'
p896
I1
sS'contact'
p897
I1
sS'chess'
p898
I1
sS'chiropodist'
p899
I1
sS'divers'
p900
I1
sS'play'
p901
I4
sS'object'
p902
I1
sS'cigarette'
p903
I2
sS'letter'
p904
I6
sS'exercises'
p905
I1
sS'coin'
p906
I1
sS'class'
p907
I2
sS'synonym'
p908
I1
sS'disease'
p909
I10
sS'order'
p910
I1
sS'flog'
p911
I1
sS'dot'
p912
I1
sS'bomb'
p913
I1
sS'phenomenon'
p914
I2
sS'gold'
p915
I1
sS'tequila'
p916
I1
sS'queen'
p917
I1
sS'recipe'
p918
I2
sS'colors'
p919
I7
sS'radio'
p920
I2
sS'laments'
p921
I1
sS'chicken'
p922
I1
sS'albums'
p923
I1
sS'snack'
p924
I1
sS'dice'
p925
I1
sS'gulf'
p926
I1
sS'title'
p927
I1
sS'series'
p928
I3
sS'ruin'
p929
I1
sS'winner'
p930
I1
sS'penalty'
p931
I1
sS'theme'
p932
I2
sS'molecules'
p933
I1
sS'fuel'
p934
I2
sS'get'
p935
I1
sS'kind'
p936
I40
sS'bear'
p937
I1
sS'da'
p938
I1
sS'longest'
p939
I1
sS'joins'
p940
I1
sS'determines'
p941
I1
sS'bar'
p942
I1
sS'encounters'
p943
I1
sS'saliva'
p944
I1
sS'method'
p945
I2
sS'penguins'
p946
I1
sS'abolitionists'
p947
I1
sS'corgi'
p948
I1
sS'orca'
p949
I1
sS'hairy'
p950
I1
sS'disaster'
p951
I1
sS'ancients'
p952
I1
sS'humans'
p953
I1
sS'sex'
p954
I2
sS'computer'
p955
I5
sS'seal'
p956
I1
sS'sport'
p957
I18
sS'draws'
p958
I1
sS'ways'
p959
I6
sS'movie'
p960
I18
sS'exchange'
p961
I1
sS'state'
p962
I3
sS'gemstone'
p963
I1
sS'ends'
p964
I1
sS'ability'
p965
I1
sS'incident'
p966
I1
sS'wear'
p967
I2
sS'come'
p968
I1
sS'piece'
p969
I2
sS'drug'
p970
I3
sS'connection'
p971
I1
sS'games'
p972
I1
sS'berry'
p973
I1
sS'faces'
p974
I1
sS'witch'
p975
I1
sS'heliologist'
p976
I1
sS'statues'
p977
I1
sS'cancer'
p978
I2
sS'color'
p979
I30
sS'period'
p980
I1
sS'vessel'
p981
I1
sS'poll'
p982
I1
sS'belt'
p983
I1
sS'quit'
p984
I1
sS'instrument'
p985
I7
sS'west'
p986
I1
sS'trademark'
p987
I2
sS'submarine'
p988
I1
sS'beer'
p989
I4
sS'treat'
p990
I1
sS'poet'
p991
I1
sS'incompetent'
p992
I1
sS'board'
p993
I1
sS'cyclist'
p994
I1
sS'dialogue'
p995
I1
sS'senses'
p996
I1
sS'flight'
p997
I1
sS'tiger'
p998
I1
sS'craft'
p999
I1
sS'lives'
p1000
I1
sS'folklore'
p1001
I1
sS'extant'
p1002
I1
sS'ravens'
p1003
I1
sS'sound'
p1004
I1
sS'novel'
p1005
I24
sS'gland'
p1006
I1
sS'frozen'
p1007
I1
sS'originate'
p1008
I1
sS'cash'
p1009
I1
sS'irate'
p1010
I1
sS'droppings'
p1011
I1
sS'newspaper'
p1012
I3
sS'procedure'
p1013
I1
sS'layer'
p1014
I1
sS'prayer'
p1015
I1
sS'player'
p1016
I1
sS'full-length'
p1017
I1
sS'haboob'
p1018
I1
sS'perform'
p1019
I1
sS'alphabet'
p1020
I3
sS'bowl'
p1021
I1
sS'member'
p1022
I1
sS'document'
p1023
I1
sS'composition'
p1024
I1
sS'wheel'
p1025
I1
sS'oil'
p1026
I1
sS'drink'
p1027
I14
sS'hand'
p1028
I2
sS'fruit'
p1029
I1
sS'vowel'
p1030
I2
sS'whale'
p1031
I1
sS'nickname'
p1032
I1
sS'cartoon'
p1033
I1
sS'tune'
p1034
I1
sS'kid'
p1035
I1
sS'peacocks'
p1036
I1
sS'variety'
p1037
I1
sS'materials'
p1038
I1
sS'chronicles'
p1039
I1
sS'components'
p1040
I1
sS'twirl'
p1041
I1
sS'deltiologist'
p1042
I1
sS'advertises'
p1043
I1
sS'plagues'
p1044
I1
sS'livestock'
p1045
I1
sS'camel'
p1046
I1
sS'money'
p1047
I3
sS'product'
p1048
I11
sS'shape'
p1049
I2
sS'fishing'
p1050
I1
sS'flavor'
p1051
I1
sS'adding'
p1052
I1
sS'death'
p1053
I1
sS'campaign'
p1054
I1
sS'alternate'
p1055
I1
sS'character'
p1056
I1
sS'source'
p1057
I1
sS'slits'
p1058
I1
sS'treatment'
p1059
I1
sS'crack'
p1060
I1
sS'grow'
p1061
I1
sS'tenses'
p1062
I1
sS'sailors'
p1063
I1
sS'bid'
p1064
I1
sS'game'
p1065
I8
sS'birth'
p1066
I1
sS'world'
p1067
I6
sS'wings'
p1068
I1
sS'insert'
p1069
I1
sS'nutrients'
p1070
I1
sS'soap'
p1071
I2
sS'communications'
p1072
I1
sS'eidologist'
p1073
I1
sS'clay'
p1074
I1
sS'become'
p1075
I1
sS'wonders'
p1076
I1
sS'vats'
p1077
I1
sS'pyramid-builders'
p1078
I1
sS'methods'
p1079
I1
sS'people'
p1080
I5
sS'begin'
p1081
I1
sS'competition'
p1082
I2
sS'hair'
p1083
I1
sS'brontosauruses'
p1084
I1
sS'scale'
p1085
I1
sS'lead'
p1086
I1
sS'singing'
p1087
I2
sS'hurricane'
p1088
I1
sS'ice'
p1089
I1
sS'religion'
p1090
I2
sS'anti-aids'
p1091
I1
sS'espionage'
p1092
I1
sS'thighs'
p1093
I1
sS'measures'
p1094
I1
sS'rum'
p1095
I2
sS'equivalent'
p1096
I1
sS'lose'
p1097
I1
sS'post'
p1098
I1
sS'refers'
p1099
I1
sS'vaccine'
p1100
I1
sS'trophy'
p1101
I1
sS'sister'
p1102
I1
sS'resurrectionist'
p1103
I1
sS'concerts'
p1104
I1
sS'carries'
p1105
I1
sS'camels'
p1106
I1
sS'ox'
p1107
I1
sS'emperor'
p1108
I1
sS'hocks'
p1109
I1
sS'software'
p1110
I1
sS'letters'
p1111
I1
sS'facility'
p1112
I1
sS'owe'
p1113
I1
sS'litmus'
p1114
I1
sS'device'
p1115
I2
sS'strip'
p1116
I3
sS'ailment'
p1117
I1
sS'vegetables'
p1118
I1
sS'flying'
p1119
I1
sS'secret'
p1120
I1
sS'indoor'
p1121
I1
sS'cats'
p1122
I1
sS'stars'
p1123
I1
sS'suit'
p1124
I1
sS'breeding'
p1125
I1
sS'war'
p1126
I11
sS'opens'
p1127
I1
sS'medium'
p1128
I3
sS'amateur'
p1129
I1
sS'form'
p1130
I3
sS'brand'
p1131
I6
sS'sequel'
p1132
I3
sS'vichyssoise'
p1133
I1
sS'principles'
p1134
I1
sS'needles'
p1135
I1
sS'line'
p1136
I4
sS'eat'
p1137
I2
sS'spice'
p1138
I1
sS'manatees'
p1139
I1
sS'middle'
p1140
I1
sS'consist'
p1141
I1
sS'devices'
p1142
I1
sS'books'
p1143
I1
sS'stories'
p1144
I1
sS'zodiac'
p1145
I1
sS'stages'
p1146
I1
sS'condiment'
p1147
I2
sS'taste'
p1148
I2
sS'strips'
p1149
I1
sS'dog'
p1150
I3
sS'utensils'
p1151
I1
sS'walks'
p1152
I1
sS'ship'
p1153
I2
sS'education'
p1154
I1
sS'film'
p1155
I25
sS'cream'
p1156
I1
sS'ingredients'
p1157
I1
sS'trials'
p1158
I3
sS'flora'
p1159
I1
sS'actor'
p1160
I1
sS'snakes'
p1161
I1
sS'book'
p1162
I21
sS'boom'
p1163
I1
sS'boob'
p1164
I1
sS'elements'
p1165
I4
sS'kinds'
p1166
I2
sS'symbol'
p1167
I3
sS'football'
p1168
I1
sS'lens'
p1169
I1
sS'chairbound'
p1170
I1
sS'structure'
p1171
I1
sS'age'
p1172
I1
sS'vehicles'
p1173
I1
sS'fastener'
p1174
I1
sS'came'
p1175
I1
sS'time'
p1176
I2
sS'menace'
p1177
I1
sS'requires'
p1178
I1
sS'songs'
p1179
I2
stp1180
Rp1181
(dp1182
g26
I1250
sg76
Nsg77
Nsg78
Nsbsg79
I1449
sg80
F1974.5
sbs(g10
g19
tp1183
g0
(g21
g2
Ntp1184
Rp1185
(dp1186
g25
F0.5
sg26
I835
sg27
g0
(g28
g29
(dp1187
g31
I97
sS'lobsters'
p1188
I1
sS'lyrics'
p1189
I3
sS'bocci'
p1190
I1
sS'actress'
p1191
I1
sS'hamlet'
p1192
I1
sS'seaport'
p1193
I3
sS'avenue'
p1194
I1
sS'find'
p1195
I1
sS'cartoon'
p1196
I1
sS'web'
p1197
I3
sS'birthplace'
p1198
I3
sS'group'
p1199
I3
sS'office'
p1200
I1
sS'gulf'
p1201
I1
sS'title'
p1202
I1
sS'point'
p1203
I1
sS'royal'
p1204
I1
sS'lake'
p1205
I2
sS'civil'
p1206
I1
sS'source'
p1207
I1
sS'book'
p1208
I1
sS'tape'
p1209
I1
sS'location'
p1210
I4
sS'prison'
p1211
I1
sS'piano'
p1212
I1
sS'soccer'
p1213
I1
sS'hat'
p1214
I1
sS'resources'
p1215
I1
sS'merchant'
p1216
I1
sS'case'
p1217
I2
sS'screensaver'
p1218
I1
sS'myth'
p1219
I1
sS'get'
p1220
I2
sS'surrounds'
p1221
I2
sS'dam'
p1222
I2
sS'capital'
p1223
I18
sS'photograph'
p1224
I1
sS'arch'
p1225
I1
sS'nation'
p1226
I3
sS'department'
p1227
I1
sS'tuberculosis'
p1228
I1
sS'world'
p1229
I10
sS'fractal'
p1230
I1
sS'suey'
p1231
I1
sS'room'
p1232
I1
sS'airports'
p1233
I1
sS'name'
p1234
I15
sS'countries'
p1235
I24
sS'opera'
p1236
I1
sS'glitters'
p1237
I1
sS'list'
p1238
I3
sS'hole'
p1239
I1
sS'bay'
p1240
I3
sS'miles'
p1241
I1
sS'steps'
p1242
I1
sS'cartoons'
p1243
I1
sS'rock'
p1244
I1
sS'found'
p1245
I1
sS'river'
p1246
I9
sS'ports'
p1247
I1
sS'province'
p1248
I2
sS'breweries'
p1249
I1
sS'art'
p1250
I1
sS'telescope'
p1251
I1
sS'ten'
p1252
I1
sS'apartments'
p1253
I1
sS'seas'
p1254
I1
sS'back'
p1255
I1
sS'rivers'
p1256
I2
sS'born'
p1257
I7
sS'street'
p1258
I3
sS'examples'
p1259
I1
sS'sea'
p1260
I5
sS'erupts'
p1261
I1
sS'home'
p1262
I6
sS'calendar'
p1263
I1
sS'sport'
p1264
I1
sS'constellation'
p1265
I3
sS'wander'
p1266
I1
sS'textiles'
p1267
I1
sS'guinea'
p1268
I1
sS'review'
p1269
I1
sS'sites'
p1270
I1
sS'research'
p1271
I1
sS'libraries'
p1272
I1
sS'state'
p1273
I54
sS'diamonds'
p1274
I1
sS'email'
p1275
I2
sS'subway'
p1276
I1
sS'body'
p1277
I3
sS'monarchs'
p1278
I1
sS'tallest'
p1279
I1
sS'cars'
p1280
I1
sS'answers'
p1281
I1
sS'monsters'
p1282
I1
sS'statistics'
p1283
I1
sS'sink'
p1284
I1
sS'groups'
p1285
I1
sS'address'
p1286
I6
sS'directions'
p1287
I1
sS'nationality'
p1288
I8
sS'canals'
p1289
I1
sS'cities'
p1290
I9
sS'come'
p1291
I2
sS'flytrap'
p1292
I1
sS'deserts'
p1293
I1
sS'publisher'
p1294
I1
sS'zoo'
p1295
I1
sS'anything'
p1296
I1
sS'restaurant'
p1297
I2
sS'country'
p1298
I118
sS'region'
p1299
I1
sS'adventures'
p1300
I1
sS'thing'
p1301
I1
sS'airport'
p1302
I1
sS'place'
p1303
I3
sS'islands'
p1304
I1
sS'weird'
p1305
I1
sS'hospital'
p1306
I1
sS'seeing'
p1307
I1
sS'tennis'
p1308
I1
sS'bell'
p1309
I1
sS'wall'
p1310
I1
sS'attractions'
p1311
I2
sS'county'
p1312
I3
sS'snowboard'
p1313
I1
sS'names'
p1314
I3
sS'coastal'
p1315
I1
sS'strip'
p1316
I1
sS'schematics'
p1317
I1
sS'lesson'
p1318
I1
sS'continent'
p1319
I7
sS'post'
p1320
I1
sS'city'
p1321
I89
sS'basketball'
p1322
I1
sS'span'
p1323
I1
sS'habitat'
p1324
I1
sS'quality'
p1325
I1
sS'area'
p1326
I3
sS'remains'
p1327
I1
sS'nickname'
p1328
I2
sS'museum'
p1329
I3
sS'people'
p1330
I3
sS'desert'
p1331
I5
sS'draft'
p1332
I1
sS'seafaring'
p1333
I1
sS'way'
p1334
I1
sS'ridge'
p1335
I1
sS'corpus'
p1336
I2
sS'territory'
p1337
I1
sS'meeting'
p1338
I1
sS'tourists'
p1339
I1
sS'empty'
p1340
I1
sS'possession'
p1341
I1
sS'mountains'
p1342
I2
sS'direction'
p1343
I3
sS'stadium'
p1344
I1
sS'ash'
p1345
I1
sS'flying'
p1346
I1
sS'contains'
p1347
I1
sS'listing'
p1348
I1
sS'waterways'
p1349
I1
sS'lists'
p1350
I1
sS'site'
p1351
I4
sS'chemicals'
p1352
I1
sS'part'
p1353
I3
sS'pecan'
p1354
I1
sS'line'
p1355
I1
sS'surrender'
p1356
I1
sS'dialing'
p1357
I1
sS'town'
p1358
I3
sS'wide'
p1359
I1
sS'kind'
p1360
I1
sS'target'
p1361
I1
sS'science'
p1362
I1
sS'ride'
p1363
I1
sS'originate'
p1364
I2
sS'tree'
p1365
I1
sS'devices'
p1366
I1
sS'nations'
p1367
I1
sS'planet'
p1368
I4
sS'movies'
p1369
I1
sS'mall'
p1370
I1
sS'individual'
p1371
I1
sS'wrestler'
p1372
I1
sS'island'
p1373
I3
sS'mountain'
p1374
I12
sS'mythology'
p1375
I1
sS'display'
p1376
I1
sS'history'
p1377
I2
sS'bridge'
p1378
I3
sS'pony'
p1379
I1
sS'tabs'
p1380
I1
sS'strait'
p1381
I1
sS'marijuana'
p1382
I1
sS'evidence'
p1383
I1
sS'states'
p1384
I5
sS'want'
p1385
I1
sS'southern'
p1386
I2
sS'concentration'
p1387
I1
sS'border'
p1388
I1
sS'eels'
p1389
I1
sS'court'
p1390
I2
sS'ukulele'
p1391
I1
sS'helium'
p1392
I1
sS'graduate'
p1393
I1
sS'website'
p1394
I1
sS'setting'
p1395
I1
sS'take'
p1396
I2
sS'online'
p1397
I2
sS'test'
p1398
I1
sS'residence'
p1399
I1
sS'status'
p1400
I1
sS'map'
p1401
I1
sS'begin'
p1402
I1
sS'hotel'
p1403
I1
sS'star'
p1404
I2
sS'brothers'
p1405
I2
sS'information'
p1406
I18
sS'singles'
p1407
I1
sS'park'
p1408
I2
sS'rail'
p1409
I1
sS'rain'
p1410
I1
sS'aborigines'
p1411
I1
sS'waterfall'
p1412
I1
sS'peak'
p1413
I1
sS'president'
p1414
I1
sS'stocks'
p1415
I1
sS'data'
p1416
I1
sS'grow'
p1417
I1
sS'building'
p1418
I4
sS'picture'
p1419
I1
sS'center'
p1420
I3
sS'attracts'
p1421
I1
sS'hang'
p1422
I1
sS'headquarters'
p1423
I4
sS'rule'
p1424
I1
sS'midi'
p1425
I1
sS'freeway'
p1426
I1
sS'person'
p1427
I1
sS'maintain'
p1428
I1
sS'official'
p1429
I1
sS'nuclear'
p1430
I1
sS'landmark'
p1431
I1
sS'comparisons'
p1432
I1
sS'spend'
p1433
I1
sS'bodies'
p1434
I1
sS'marvel'
p1435
I1
stp1436
Rp1437
(dp1438
g26
I835
sg76
Nsg77
Nsg78
Nsbsg79
I1449
sg80
F1559.5
sbs(g9
g81
tp1439
g0
(g21
g2
Ntp1440
Rp1441
(dp1442
g25
F0.5
sg26
I1034
sg27
g0
(g28
g29
(dp1443
S'whose'
p1444
I14
sS'what'
p1445
I396
sS'name'
p1446
I35
sS'saddam'
p1447
I1
sS'who'
p1448
I542
sS'when'
p1449
I3
sS'rotary'
p1450
I1
sS'whom'
p1451
I3
sS'silly'
p1452
I1
sS'which'
p1453
I30
sS'in'
p1454
I3
sS'cnn'
p1455
I1
sS'president'
p1456
I1
sS'the'
p1457
I2
sS'with'
p1458
I1
stp1459
Rp1460
(dp1461
g26
I1034
sg76
Nsg77
Nsg78
Nsbsg79
I48
sg80
F1058.0
sbs(g16
g81
tp1462
g0
(g21
g2
Ntp1463
Rp1464
(dp1465
g25
F0.5
sg26
I27
sg27
g0
(g28
g29
(dp1466
S'of'
p1467
I1
sS'what'
p1468
I25
sS'independent'
p1469
I1
stp1470
Rp1471
(dp1472
g26
I27
sg76
Nsg77
Nsg78
Nsbsg79
I48
sg80
F51.0
sbs(g10
g81
tp1473
g0
(g21
g2
Ntp1474
Rp1475
(dp1476
g25
F0.5
sg26
I835
sg27
g0
(g28
g29
(dp1477
S'on'
p1478
I5
sS'what'
p1479
I523
sS'jackson'
p1480
I2
sS'name'
p1481
I7
sS'kosovo'
p1482
I1
sS'when'
p1483
I1
sS'mississippi'
p1484
I1
sS'which'
p1485
I16
sS'in'
p1486
I18
sS'mccarren'
p1487
I1
sS'the'
p1488
I4
sS'where'
p1489
I255
sS'tell'
p1490
I1
stp1491
Rp1492
(dp1493
g26
I835
sg76
Nsg77
Nsg78
Nsbsg79
I48
sg80
F859.0
sbs(g9
g19
tp1494
g0
(g21
g2
Ntp1495
Rp1496
(dp1497
g25
F0.5
sg26
I1034
sg27
g0
(g28
g29
(dp1498
g31
I207
sS'husband-and-wife'
p1499
I1
sS'coach'
p1500
I3
sS'founder'
p1501
I2
sS'show'
p1502
I2
sS'authors'
p1503
I1
sS'celebrities'
p1504
I2
sS'resistance'
p1505
I1
sS'invent'
p1506
I1
sS'leads'
p1507
I1
sS'code'
p1508
I1
sS'radio'
p1509
I2
sS'liberty'
p1510
I1
sS'soldiers'
p1511
I2
sS'chair'
p1512
I1
sS'captain'
p1513
I1
sS'milk'
p1514
I1
sS'staff'
p1515
I1
sS'apartment'
p1516
I1
sS'chain'
p1517
I1
sS'title'
p1518
I8
sS'electricity'
p1519
I1
sS'writer'
p1520
I4
sS'father'
p1521
I8
sS'fans'
p1522
I1
sS'literary'
p1523
I1
sS'regards'
p1524
I1
sS'theme'
p1525
I1
sS'program'
p1526
I1
sS'black'
p1527
I5
sS'present'
p1528
I2
sS'crooner'
p1529
I1
sS'communist'
p1530
I1
sS'quotation'
p1531
I1
sS'fences'
p1532
I1
sS'fax'
p1533
I1
sS'woman'
p1534
I12
sS'hit'
p1535
I3
sS'citizen'
p1536
I2
sS'translations'
p1537
I1
sS'kind'
p1538
I1
sS'bear'
p1539
I1
sS'millionaire'
p1540
I1
sS'sons'
p1541
I2
sS'diary'
p1542
I1
sS'borrower'
p1543
I1
sS'entries'
p1544
I1
sS'races'
p1545
I1
sS'surgeon'
p1546
I1
sS'dose'
p1547
I1
sS'prime'
p1548
I4
sS'bestselling'
p1549
I1
sS'artist'
p1550
I1
sS'positions'
p1551
I1
sS'marry'
p1552
I1
sS'brother'
p1553
I1
sS'grandfather'
p1554
I1
sS'yougurt'
p1555
I1
sS'sang'
p1556
I2
sS'shoplifts'
p1557
I1
sS'delegate'
p1558
I1
sS'barroom'
p1559
I1
sS'guy'
p1560
I1
sS'round'
p1561
I1
sS'husband'
p1562
I2
sS'secretary'
p1563
I1
sS'official'
p1564
I1
sS'temperance'
p1565
I1
sS'leaders'
p1566
I1
sS'ten'
p1567
I2
sS'creator'
p1568
I2
sS'canine'
p1569
I1
sS'seat'
p1570
I1
sS'trilogy'
p1571
I1
sS'governor'
p1572
I2
sS'lawyer'
p1573
I9
sS'wife'
p1574
I2
sS'tender'
p1575
I1
sS'folk'
p1576
I1
sS'cricketer'
p1577
I1
sS'stardom'
p1578
I1
sS'movie'
p1579
I4
sS'section'
p1580
I1
sS'havoc'
p1581
I1
sS'uniform'
p1582
I1
sS'election'
p1583
I2
sS'genius'
p1584
I1
sS'state'
p1585
I1
sS'won'
p1586
I1
sS'suspect'
p1587
I1
sS'finger'
p1588
I1
sS'occupation'
p1589
I5
sS'advertizing'
p1590
I1
sS'hero'
p1591
I1
sS'degree'
p1592
I1
sS'faith'
p1593
I2
sS'men'
p1594
I2
sS'boss'
p1595
I1
sS'guitar'
p1596
I1
sS'wild'
p1597
I1
sS'job'
p1598
I3
sS'dubliners'
p1599
I1
sS'baseball'
p1600
I10
sS'opposition'
p1601
I1
sS'boy'
p1602
I2
sS'voice'
p1603
I1
sS'daughter'
p1604
I2
sS'naval'
p1605
I1
sS'survivor'
p1606
I1
sS'money'
p1607
I1
sS'joke'
p1608
I1
sS'trader'
p1609
I1
sS'host'
p1610
I2
sS'reports'
p1611
I1
sS'tv'
p1612
I12
sS'jogging'
p1613
I1
sS'games'
p1614
I1
sS'defeat'
p1615
I1
sS'senator'
p1616
I1
sS'makes'
p1617
I1
sS'maker'
p1618
I1
sS'patents'
p1619
I1
sS'conservationist'
p1620
I1
sS'cruiser'
p1621
I1
sS'presidents'
p1622
I3
sS'lyricist'
p1623
I1
sS'colony'
p1624
I1
sS'supreme'
p1625
I1
sS'pop'
p1626
I1
sS'twin'
p1627
I1
sS'martyrs'
p1628
I1
sS'husbands'
p1629
I1
sS'names'
p1630
I6
sS'composer'
p1631
I3
sS'toys'
p1632
I1
sS'resident'
p1633
I1
sS'singing'
p1634
I2
sS'rugby'
p1635
I1
sS'conference'
p1636
I1
sS'poem'
p1637
I2
sS'spoke'
p1638
I1
sS'engines'
p1639
I1
sS'army'
p1640
I2
sS'acceptance'
p1641
I1
sS'newscast'
p1642
I1
sS'commission'
p1643
I1
sS'secret'
p1644
I1
sS'wood'
p1645
I1
sS'music'
p1646
I1
sS'films'
p1647
I2
sS'markets'
p1648
I1
sS'abstract'
p1649
I1
sS'empty'
p1650
I1
sS'door'
p1651
I1
sS'conductor'
p1652
I1
sS'cop'
p1653
I1
sS'tennis'
p1654
I1
sS'honorary'
p1655
I1
sS'inventions'
p1656
I1
sS'gas'
p1657
I1
sS'buxom'
p1658
I1
sS'pugilist'
p1659
I1
sS'train'
p1660
I1
sS'stethoscope'
p1661
I1
sS'minister'
p1662
I5
sS'child'
p1663
I1
sS'superstar'
p1664
I2
sS'gold'
p1665
I2
sS'instructor'
p1666
I1
sS'painter'
p1667
I3
sS'women'
p1668
I1
sS'sound'
p1669
I1
sS'novel'
p1670
I1
sS'look'
p1671
I1
sS'presidency'
p1672
I1
sS'rights'
p1673
I1
sS'car'
p1674
I1
sS'work'
p1675
I1
sS'worm'
p1676
I1
sS'honeymooners'
p1677
I1
sS'criticizing'
p1678
I1
sS'male'
p1679
I1
sS'spy'
p1680
I1
sS'compare'
p1681
I1
sS'pyramid'
p1682
I1
sS'bandleader'
p1683
I1
sS'figures'
p1684
I1
sS'figure'
p1685
I2
sS'century'
p1686
I2
sS'process'
p1687
I1
sS'commander'
p1688
I1
sS'middle'
p1689
I2
sS'villain'
p1690
I2
sS'protects'
p1691
I1
sS'numbers'
p1692
I1
sS'partner'
p1693
I1
sS'founding'
p1694
I1
sS'astronaut'
p1695
I3
sS'biography'
p1696
I1
sS'information'
p1697
I1
sS'polio'
p1698
I1
sS'soldier'
p1699
I1
sS'holds'
p1700
I2
sS'administration'
p1701
I1
sS'tour'
p1702
I1
sS'endurance'
p1703
I1
sS'member'
p1704
I5
sS'winners'
p1705
I1
sS'monarch'
p1706
I3
sS'duel'
p1707
I1
sS'stock'
p1708
I1
sS'designer'
p1709
I2
sS'explorer'
p1710
I2
sS'autobiography'
p1711
I1
sS'kennedy-nixon'
p1712
I1
sS'appearances'
p1713
I1
sS'youngsters'
p1714
I1
sS'despondent'
p1715
I1
sS'companion'
p1716
I1
sS'shores'
p1717
I1
sS'kidnaping'
p1718
I1
sS'characters'
p1719
I1
sS'president'
p1720
I19
sS'data'
p1721
I1
sS'cartoon'
p1722
I5
sS'identity'
p1723
I1
sS'man'
p1724
I9
sS'task'
p1725
I1
sS'whores'
p1726
I1
sS'surfboard'
p1727
I1
sS'doctor'
p1728
I3
sS'children'
p1729
I1
sS'person'
p1730
I9
sS'road'
p1731
I1
sS'mother'
p1732
I2
sS'position'
p1733
I1
sS'model'
p1734
I1
sS'order'
p1735
I1
sS'ambassador'
p1736
I1
sS'abilities'
p1737
I1
sS'office'
p1738
I1
sS'gods'
p1739
I1
sS'wedding'
p1740
I1
sS'actress'
p1741
I12
sS'years'
p1742
I3
sS'batteries'
p1743
I1
sS'paper'
p1744
I1
sS'costume'
p1745
I2
sS'replies'
p1746
I1
sS'mayor'
p1747
I5
sS'bombing'
p1748
I1
sS'underwater'
p1749
I1
sS'self-portrait'
p1750
I1
sS'call'
p1751
I1
sS'queen'
p1752
I2
sS'character'
p1753
I11
sS'housewife'
p1754
I1
sS'labor'
p1755
I1
sS'blob'
p1756
I1
sS'personas'
p1757
I1
sS'founders'
p1758
I1
sS'role'
p1759
I4
sS'scoundrel'
p1760
I3
sS'chairman'
p1761
I2
sS'fool'
p1762
I1
sS'missions'
p1763
I1
sS'food'
p1764
I1
sS'chancellor'
p1765
I1
sS'wives'
p1766
I1
sS'band'
p1767
I1
sS'game'
p1768
I2
sS'boxer'
p1769
I3
sS'hands'
p1770
I1
sS'press'
p1771
I1
sS'world'
p1772
I7
sS'lady'
p1773
I1
sS'term'
p1774
I1
sS'panties'
p1775
I1
sS'attorneys'
p1776
I1
sS'name'
p1777
I61
sS'success'
p1778
I1
sS'commanders'
p1779
I1
sS'clown'
p1780
I1
sS'theory'
p1781
I1
sS'victory'
p1782
I1
sS'lawnmower'
p1783
I1
sS'loco-motion'
p1784
I1
sS'inventors'
p1785
I1
sS'celebrity'
p1786
I2
sS'x-man'
p1787
I1
sS'mean'
p1788
I1
sS'people'
p1789
I7
sS'aerodynamics'
p1790
I1
sS'stern'
p1791
I1
sS'back'
p1792
I1
sS'borrow'
p1793
I1
sS'books'
p1794
I1
sS'archenemy'
p1795
I1
sS'home'
p1796
I3
sS'girl'
p1797
I3
sS'perfume'
p1798
I1
sS'try'
p1799
I2
sS'lead'
p1800
I2
sS'space'
p1801
I1
sS'vacuum'
p1802
I1
sS'horoscope'
p1803
I1
sS'opener'
p1804
I1
sS'fountain'
p1805
I1
sS'leader'
p1806
I13
sS'maneuver'
p1807
I1
sS'monster'
p1808
I1
sS'power'
p1809
I2
sS'rock'
p1810
I1
sS'pub'
p1811
I1
sS'appointments'
p1812
I1
sS'protagonist'
p1813
I1
sS'plea'
p1814
I1
sS'poems'
p1815
I1
sS'pitchers'
p1816
I1
sS'explorers'
p1817
I1
sS'fondness'
p1818
I1
sS'director'
p1819
I6
sS'sister'
p1820
I2
sS'son-in-law'
p1821
I2
sS'deer'
p1822
I1
sS'cowboy'
p1823
I1
sS'jeep'
p1824
I1
sS'prophet'
p1825
I4
sS'newspapers'
p1826
I1
sS'door-to-door'
p1827
I1
sS'times'
p1828
I1
sS'thing'
p1829
I1
sS'islands'
p1830
I1
sS'block'
p1831
I1
sS'playwright'
p1832
I1
sS'image'
p1833
I1
sS'cross-your-heart'
p1834
I1
sS'profession'
p1835
I4
sS'comedienne'
p1836
I2
sS'obscene'
p1837
I1
sS'son'
p1838
I4
sS'feet'
p1839
I1
sS'female'
p1840
I1
sS'strip'
p1841
I3
sS'owner'
p1842
I1
sS'message'
p1843
I1
sS'swimmer'
p1844
I1
sS'engineer'
p1845
I2
sS'bull'
p1846
I1
sS'jockey'
p1847
I1
sS'nickname'
p1848
I6
sS'sculptress'
p1849
I1
sS'night'
p1850
I1
sS'question'
p1851
I1
sS'player'
p1852
I3
sS'fought'
p1853
I1
sS'master'
p1854
I1
sS'author'
p1855
I9
sS'bounty'
p1856
I1
sS'dictator'
p1857
I2
sS'speaking'
p1858
I1
sS'head'
p1859
I3
sS'airwaves'
p1860
I1
sS'circumnavigator'
p1861
I1
sS'pitcher'
p1862
I1
sS'cabinet'
p1863
I1
sS'poet'
p1864
I5
sS'part'
p1865
I3
sS'biochemists'
p1866
I1
sS'mules'
p1867
I1
sS'line'
p1868
I1
sS'surrender'
p1869
I1
sS'inventor'
p1870
I2
sS'count'
p1871
I1
sS'king'
p1872
I4
sS'television'
p1873
I3
sS'made'
p1874
I1
sS'glory'
p1875
I1
sS'players'
p1876
I2
sS'project'
p1877
I1
sS'listeners'
p1878
I1
sS'architect'
p1879
I2
sS'friend'
p1880
I2
sS'prankster'
p1881
I1
sS'promises'
p1882
I1
sS'surname'
p1883
I1
sS'nominee'
p1884
I1
sS'pro'
p1885
I1
sS'premier'
p1886
I1
sS'toothbrush'
p1887
I1
sS'strips'
p1888
I1
sS'voices'
p1889
I1
sS'talking'
p1890
I1
sS'rent'
p1891
I1
sS'girlfriend'
p1892
I1
sS'sells'
p1893
I1
sS'novelist'
p1894
I2
sS'film'
p1895
I6
sS'sings'
p1896
I4
sS'dancing'
p1897
I1
sS'come-on'
p1898
I1
sS'lyrics'
p1899
I1
sS'guitarist'
p1900
I1
sS'actor'
p1901
I18
sS'reality'
p1902
I1
sS'majority'
p1903
I2
sS'book'
p1904
I4
sS'actors'
p1905
I1
sS'niece'
p1906
I1
sS'forces'
p1907
I1
sS'department'
p1908
I1
sS'victor'
p1909
I1
sS'pseudonym'
p1910
I2
sS'star'
p1911
I6
sS'brothers'
p1912
I2
sS'living'
p1913
I3
sS'football'
p1914
I1
sS'phonograph'
p1915
I1
sS'heroine'
p1916
I2
sS'inspiration'
p1917
I1
sS'singer'
p1918
I1
sS'studio'
p1919
I1
sS'vice'
p1920
I2
sS'cover'
p1921
I1
sS'dog'
p1922
I1
sS'reputation'
p1923
I1
sS'lives'
p1924
I3
sS'buffalo'
p1925
I1
sS'once'
p1926
I1
stp1927
Rp1928
(dp1929
g26
I1034
sg76
Nsg77
Nsg78
Nsbsg79
I1449
sg80
F1758.5
sbs(g15
g19
tp1930
g0
(g21
g2
Ntp1931
Rp1932
(dp1933
g25
F0.5
sg26
I71
sg27
g0
(g28
g29
(dp1934
S'money'
p1935
I7
sS'cost'
p1936
I3
sS'year'
p1937
I1
sS'fine'
p1938
I1
sS'railroad'
p1939
I1
sS'wage'
p1940
I5
sS'beef'
p1941
I1
sS'stamp'
p1942
I2
sS'twenty'
p1943
I1
sS'debts'
p1944
I1
sS'increase'
p1945
I1
sS'state'
p1946
I1
sS'ton'
p1947
I1
sS'income'
p1948
I3
sS'party'
p1949
I1
sS'get'
p1950
I1
sS'fare'
p1951
I1
sS'junk'
p1952
I1
sS'exchange'
p1953
I2
sS'drugs'
p1954
I1
sS'price'
p1955
I4
sS'gas'
p1956
I1
sS'utilities'
p1957
I1
sS'tuberculosis'
p1958
I1
sS'ticket'
p1959
I2
sS'presidents'
p1960
I1
sS'bug'
p1961
I1
sS'salary'
p1962
I6
sS'daycare'
p1963
I2
sS'did'
p1964
I9
sS'tree'
p1965
I2
sS'contract'
p1966
I1
sS'person'
p1967
I1
sS'amount'
p1968
I2
sS'having'
p1969
I1
stp1970
Rp1971
(dp1972
g26
I71
sg76
Nsg77
Nsg78
Nsbsg79
I1449
sg80
F795.5
sbs(g15
g81
tp1973
g0
(g21
g2
Ntp1974
Rp1975
(dp1976
g25
F0.5
sg26
I71
sg27
g0
(g28
g29
(dp1977
S'how'
p1978
I32
sS'what'
p1979
I37
sS'dialing'
p1980
I1
sS'by'
p1981
I1
stp1982
Rp1983
(dp1984
g26
I71
sg76
Nsg77
Nsg78
Nsbsg79
I48
sg80
F95.0
sbs(g11
g81
tp1985
g0
(g21
g2
Ntp1986
Rp1987
(dp1988
g25
F0.5
sg26
I505
sg27
g0
(g28
g29
(dp1989
S'a'
p1990
I1
sS'on'
p1991
I1
sS'what'
p1992
I105
sS'about'
p1993
I2
sS'approximately'
p1994
I2
sS'how'
p1995
I390
sS'in'
p1996
I1
sS'the'
p1997
I1
sS'where'
p1998
I2
stp1999
Rp2000
(dp2001
g26
I505
sg76
Nsg77
Nsg78
Nsbsg79
I48
sg80
F529.0
sbs(g16
g19
tp2002
g0
(g21
g2
Ntp2003
Rp2004
(dp2005
g25
F0.5
sg26
I27
sg27
g0
(g28
g29
(dp2006
S'account'
p2007
I1
sS'target'
p2008
I1
sS'probability'
p2009
I2
sS'unemployment'
p2010
I1
sS'chances'
p2011
I2
sS'odds'
p2012
I3
sS'percent'
p2013
I2
sS'chance'
p2014
I1
sS'state'
p2015
I1
sS'fraction'
p2016
I2
sS'approval'
p2017
I1
sS'percentage'
p2018
I8
sS'children'
p2019
I2
stp2020
Rp2021
(dp2022
g26
I27
sg76
Nsg77
Nsg78
Nsbsg79
I1449
sg80
F751.5
sbs(g12
g81
tp2023
g0
(g21
g2
Ntp2024
Rp2025
(dp2026
g25
F0.5
sg26
I218
sg27
g0
(g28
g29
(dp2027
S'on'
p2028
I4
sS'what'
p2029
I63
sS'boxing'
p2030
I1
sS'when'
p2031
I124
sS'in'
p2032
I20
sS'cnn'
p2033
I2
sS'the'
p2034
I3
sS'hitler'
p2035
I1
stp2036
Rp2037
(dp2038
g26
I218
sg76
Nsg77
Nsg78
Nsbsg79
I48
sg80
F242.0
sbssS'_label_probdist'
p2039
g0
(g21
g2
Ntp2040
Rp2041
(dp2042
g25
F0.5
sg26
I4204
sg27
g0
(g28
g29
(dp2043
g15
I71
sg16
I27
sg11
I505
sg9
I1034
sg8
I1250
sg10
I835
sg14
I75
sg12
I218
sg13
I189
stp2044
Rp2045
(dp2046
g26
I4204
sg76
Nsg77
(lp2047
(g8
I1250
tp2048
a(g9
I1034
tp2049
a(g10
I835
tp2050
a(g11
I505
tp2051
a(g12
I218
tp2052
a(g13
I189
tp2053
a(g14
I75
tp2054
a(g15
I71
tp2055
a(g16
I27
tp2056
asg78
Nsbsg79
I9
sg80
F4208.5
sbsb.