ccopy_reg
_reconstructor
p0
(cnltk.classify.decisiontree
DecisionTreeClassifier
p1
c__builtin__
object
p2
Ntp3
Rp4
(dp5
S'_fname'
p6
S'noun'
p7
sS'_label'
p8
S'OTHER'
p9
sS'_decisions'
p10
(dp11
S''
p12
g0
(g1
g2
Ntp13
Rp14
(dp15
g6
S'first'
p16
sg8
S'PERSON'
p17
sg10
(dp18
S'on'
p19
g0
(g1
g2
Ntp20
Rp21
(dp22
g6
Nsg8
S'OTHER'
p23
sg10
NsS'_default'
p24
NsbsS'what'
p25
g0
(g1
g2
Ntp26
Rp27
(dp28
g6
Nsg8
S'OTHER'
p29
sg10
Nsg24
NsbsS'name'
p30
g0
(g1
g2
Ntp31
Rp32
(dp33
g6
Nsg8
S'PERSON'
p34
sg10
Nsg24
NsbsS'whose'
p35
g0
(g1
g2
Ntp36
Rp37
(dp38
g6
Nsg8
S'PERSON'
p39
sg10
Nsg24
NsbsS'saddam'
p40
g0
(g1
g2
Ntp41
Rp42
(dp43
g6
Nsg8
S'PERSON'
p44
sg10
Nsg24
NsbsS'who'
p45
g0
(g1
g2
Ntp46
Rp47
(dp48
g6
Nsg8
S'PERSON'
p49
sg10
Nsg24
NsbsS'when'
p50
g0
(g1
g2
Ntp51
Rp52
(dp53
g6
Nsg8
S'DATE'
p54
sg10
Nsg24
NsbsS'mississippi'
p55
g0
(g1
g2
Ntp56
Rp57
(dp58
g6
Nsg8
S'OTHER'
p59
sg10
Nsg24
NsbsS'how'
p60
g0
(g1
g2
Ntp61
Rp62
(dp63
g6
Nsg8
S'NUMBER'
p64
sg10
Nsg24
NsbsS'silly'
p65
g0
(g1
g2
Ntp66
Rp67
(dp68
g6
Nsg8
S'PERSON'
p69
sg10
Nsg24
NsbsS'which'
p70
g0
(g1
g2
Ntp71
Rp72
(dp73
g6
Nsg8
S'PERSON'
p74
sg10
Nsg24
NsbsS'cnn'
p75
g0
(g1
g2
Ntp76
Rp77
(dp78
g6
Nsg8
S'PERSON'
p79
sg10
Nsg24
NsbsS'president'
p80
g0
(g1
g2
Ntp81
Rp82
(dp83
g6
Nsg8
S'PERSON'
p84
sg10
Nsg24
NsbsS'where'
p85
g0
(g1
g2
Ntp86
Rp87
(dp88
g6
Nsg8
S'LOCATION'
p89
sg10
Nsg24
NsbsS'aspartame'
p90
g0
(g1
g2
Ntp91
Rp92
(dp93
g6
Nsg8
S'OTHER'
p94
sg10
Nsg24
Nsbssg24
NsbsS'captain'
p95
g0
(g1
g2
Ntp96
Rp97
(dp98
g6
Nsg8
S'PERSON'
p99
sg10
Nsg24
NsbsS'increase'
p100
g0
(g1
g2
Ntp101
Rp102
(dp103
g6
Nsg8
S'MONEY'
p104
sg10
Nsg24
NsbsS'votes'
p105
g0
(g1
g2
Ntp106
Rp107
(dp108
g6
Nsg8
S'NUMBER'
p109
sg10
Nsg24
NsbsS'electricity'
p110
g0
(g1
g2
Ntp111
Rp112
(dp113
g6
g16
sg8
S'NUMBER'
p114
sg10
(dp115
S'how'
p116
g0
(g1
g2
Ntp117
Rp118
(dp119
g6
Nsg8
g114
sg10
Nsg24
NsbsS'who'
p120
g0
(g1
g2
Ntp121
Rp122
(dp123
g6
Nsg8
S'PERSON'
p124
sg10
Nsg24
Nsbssg24
NsbsS'fingernails'
p125
g0
(g1
g2
Ntp126
Rp127
(dp128
g6
Nsg8
S'OTHER'
p129
sg10
Nsg24
NsbsS'teaspoon'
p130
g0
(g1
g2
Ntp131
Rp132
(dp133
g6
Nsg8
S'NUMBER'
p134
sg10
Nsg24
NsbsS'crooner'
p135
g0
(g1
g2
Ntp136
Rp137
(dp138
g6
Nsg8
S'PERSON'
p139
sg10
Nsg24
NsbsS'merchant'
p140
g0
(g1
g2
Ntp141
Rp142
(dp143
g6
Nsg8
S'LOCATION'
p144
sg10
Nsg24
NsbsS'oceans'
p145
g0
(g1
g2
Ntp146
Rp147
(dp148
g6
Nsg8
S'NUMBER'
p149
sg10
Nsg24
NsbsS'railways'
p150
g0
(g1
g2
Ntp151
Rp152
(dp153
g6
Nsg8
S'ORGANIZATION'
p154
sg10
Nsg24
NsbsS'jeroboams'
p155
g0
(g1
g2
Ntp156
Rp157
(dp158
g6
Nsg8
S'OTHER'
p159
sg10
Nsg24
NsbsS'fractal'
p160
g0
(g1
g2
Ntp161
Rp162
(dp163
g6
Nsg8
S'LOCATION'
p164
sg10
Nsg24
NsbsS'school'
p165
g0
(g1
g2
Ntp166
Rp167
(dp168
g6
g16
sg8
S'ORGANIZATION'
p169
sg10
(dp170
S'how'
p171
g0
(g1
g2
Ntp172
Rp173
(dp174
g6
Nsg8
S'NUMBER'
p175
sg10
Nsg24
NsbsS'what'
p176
g0
(g1
g2
Ntp177
Rp178
(dp179
g6
Nsg8
S'ORGANIZATION'
p180
sg10
Nsg24
Nsbssg24
NsbsS'prize'
p181
g0
(g1
g2
Ntp182
Rp183
(dp184
g6
Nsg8
S'OTHER'
p185
sg10
Nsg24
NsbsS'crops'
p186
g0
(g1
g2
Ntp187
Rp188
(dp189
g6
Nsg8
S'OTHER'
p190
sg10
Nsg24
NsbsS'companies'
p191
g0
(g1
g2
Ntp192
Rp193
(dp194
g6
g16
sg8
S'ORGANIZATION'
p195
sg10
(dp196
S'how'
p197
g0
(g1
g2
Ntp198
Rp199
(dp200
g6
Nsg8
S'NUMBER'
p201
sg10
Nsg24
NsbsS'what'
p202
g0
(g1
g2
Ntp203
Rp204
(dp205
g6
Nsg8
S'ORGANIZATION'
p206
sg10
Nsg24
Nsbssg24
NsbsS'yougurt'
p207
g0
(g1
g2
Ntp208
Rp209
(dp210
g6
Nsg8
S'PERSON'
p211
sg10
Nsg24
NsbsS'casinos'
p212
g0
(g1
g2
Ntp213
Rp214
(dp215
g6
Nsg8
S'NUMBER'
p216
sg10
Nsg24
NsbsS'delegate'
p217
g0
(g1
g2
Ntp218
Rp219
(dp220
g6
Nsg8
S'PERSON'
p221
sg10
Nsg24
NsbsS'leaders'
p222
g0
(g1
g2
Ntp223
Rp224
(dp225
g6
g16
sg8
S'PERSON'
p226
sg10
(dp227
S'how'
p228
g0
(g1
g2
Ntp229
Rp230
(dp231
g6
Nsg8
S'NUMBER'
p232
sg10
Nsg24
NsbsS'who'
p233
g0
(g1
g2
Ntp234
Rp235
(dp236
g6
Nsg8
g226
sg10
Nsg24
Nsbssg24
NsbsS'direct'
p237
g0
(g1
g2
Ntp238
Rp239
(dp240
g6
Nsg8
S'DATE'
p241
sg10
Nsg24
NsbsS'chef'
p242
g0
(g1
g2
Ntp243
Rp244
(dp245
g6
Nsg8
S'OTHER'
p246
sg10
Nsg24
NsbsS'street'
p247
g0
(g1
g2
Ntp248
Rp249
(dp250
g6
Nsg8
S'LOCATION'
p251
sg10
Nsg24
NsbsS'monster'
p252
g0
(g1
g2
Ntp253
Rp254
(dp255
g6
g16
sg8
S'PERSON'
p256
sg10
(dp257
S'what'
p258
g0
(g1
g2
Ntp259
Rp260
(dp261
g6
Nsg8
S'OTHER'
p262
sg10
Nsg24
NsbsS'who'
p263
g0
(g1
g2
Ntp264
Rp265
(dp266
g6
Nsg8
g256
sg10
Nsg24
Nsbssg24
NsbsS'stardom'
p267
g0
(g1
g2
Ntp268
Rp269
(dp270
g6
Nsg8
S'PERSON'
p271
sg10
Nsg24
NsbsS'thunder'
p272
g0
(g1
g2
Ntp273
Rp274
(dp275
g6
Nsg8
S'NUMBER'
p276
sg10
Nsg24
NsbsS'fingers'
p277
g0
(g1
g2
Ntp278
Rp279
(dp280
g6
Nsg8
S'NUMBER'
p281
sg10
Nsg24
NsbsS'liberty'
p282
g0
(g1
g2
Ntp283
Rp284
(dp285
g6
g16
sg8
S'PERSON'
p286
sg10
(dp287
S'how'
p288
g0
(g1
g2
Ntp289
Rp290
(dp291
g6
Nsg8
S'NUMBER'
p292
sg10
Nsg24
NsbsS'who'
p293
g0
(g1
g2
Ntp294
Rp295
(dp296
g6
Nsg8
g286
sg10
Nsg24
Nsbssg24
NsbsS'dangles'
p297
g0
(g1
g2
Ntp298
Rp299
(dp300
g6
Nsg8
S'OTHER'
p301
sg10
Nsg24
NsbsS'tips'
p302
g0
(g1
g2
Ntp303
Rp304
(dp305
g6
Nsg8
S'OTHER'
p306
sg10
Nsg24
NsbsS'hero'
p307
g0
(g1
g2
Ntp308
Rp309
(dp310
g6
Nsg8
S'OTHER'
p311
sg10
Nsg24
NsbsS'men'
p312
g0
(g1
g2
Ntp313
Rp314
(dp315
g6
g16
sg8
S'NUMBER'
p316
sg10
(dp317
S'how'
p318
g0
(g1
g2
Ntp319
Rp320
(dp321
g6
Nsg8
g316
sg10
Nsg24
NsbsS'what'
p322
g0
(g1
g2
Ntp323
Rp324
(dp325
g6
Nsg8
S'NUMBER'
p326
sg10
Nsg24
NsbsS'name'
p327
g0
(g1
g2
Ntp328
Rp329
(dp330
g6
Nsg8
S'OTHER'
p331
sg10
Nsg24
NsbsS'which'
p332
g0
(g1
g2
Ntp333
Rp334
(dp335
g6
Nsg8
S'PERSON'
p336
sg10
Nsg24
Nsbssg24
NsbsS'dipsomaniac'
p337
g0
(g1
g2
Ntp338
Rp339
(dp340
g6
Nsg8
S'OTHER'
p341
sg10
Nsg24
NsbsS'studio'
p342
g0
(g1
g2
Ntp343
Rp344
(dp345
g6
Nsg8
S'PERSON'
p346
sg10
Nsg24
NsbsS'digits'
p347
g0
(g1
g2
Ntp348
Rp349
(dp350
g6
Nsg8
S'NUMBER'
p351
sg10
Nsg24
NsbsS'substance'
p352
g0
(g1
g2
Ntp353
Rp354
(dp355
g6
Nsg8
S'OTHER'
p356
sg10
Nsg24
NsbsS'daughter'
p357
g0
(g1
g2
Ntp358
Rp359
(dp360
g6
Nsg8
S'PERSON'
p361
sg10
Nsg24
NsbsS'reports'
p362
g0
(g1
g2
Ntp363
Rp364
(dp365
g6
Nsg8
S'PERSON'
p366
sg10
Nsg24
NsbsS'credit'
p367
g0
(g1
g2
Ntp368
Rp369
(dp370
g6
Nsg8
S'OTHER'
p371
sg10
Nsg24
NsbsS'jogging'
p372
g0
(g1
g2
Ntp373
Rp374
(dp375
g6
Nsg8
S'PERSON'
p376
sg10
Nsg24
NsbsS'otters'
p377
g0
(g1
g2
Ntp378
Rp379
(dp380
g6
Nsg8
S'OTHER'
p381
sg10
Nsg24
NsbsS'campaign'
p382
g0
(g1
g2
Ntp383
Rp384
(dp385
g6
Nsg8
S'OTHER'
p386
sg10
Nsg24
NsbsS'county'
p387
g0
(g1
g2
Ntp388
Rp389
(dp390
g6
Nsg8
S'LOCATION'
p391
sg10
Nsg24
NsbsS'stern'
p392
g0
(g1
g2
Ntp393
Rp394
(dp395
g6
Nsg8
S'PERSON'
p396
sg10
Nsg24
NsbsS'cocaine'
p397
g0
(g1
g2
Ntp398
Rp399
(dp400
g6
g16
sg8
S'ORGANIZATION'
p401
sg10
(dp402
S'how'
p403
g0
(g1
g2
Ntp404
Rp405
(dp406
g6
Nsg8
S'TIME'
p407
sg10
Nsg24
NsbsS'who'
p408
g0
(g1
g2
Ntp409
Rp410
(dp411
g6
Nsg8
g401
sg10
Nsg24
Nsbssg24
NsbsS'spoke'
p412
g0
(g1
g2
Ntp413
Rp414
(dp415
g6
Nsg8
S'PERSON'
p416
sg10
Nsg24
NsbsS'army'
p417
g0
(g1
g2
Ntp418
Rp419
(dp420
g6
Nsg8
S'PERSON'
p421
sg10
Nsg24
NsbsS'hospital'
p422
g0
(g1
g2
Ntp423
Rp424
(dp425
g6
Nsg8
S'LOCATION'
p426
sg10
Nsg24
NsbsS'arms'
p427
g0
(g1
g2
Ntp428
Rp429
(dp430
g6
Nsg8
S'OTHER'
p431
sg10
Nsg24
NsbsS'symphony'
p432
g0
(g1
g2
Ntp433
Rp434
(dp435
g6
Nsg8
S'OTHER'
p436
sg10
Nsg24
NsbsS'music'
p437
g0
(g1
g2
Ntp438
Rp439
(dp440
g6
g16
sg8
S'DATE'
p441
sg10
(dp442
S'what'
p443
g0
(g1
g2
Ntp444
Rp445
(dp446
g6
Nsg8
S'PERSON'
p447
sg10
Nsg24
NsbsS'when'
p448
g0
(g1
g2
Ntp449
Rp450
(dp451
g6
Nsg8
g441
sg10
Nsg24
Nsbssg24
NsbsS'type'
p452
g0
(g1
g2
Ntp453
Rp454
(dp455
g6
Nsg8
S'OTHER'
p456
sg10
Nsg24
NsbsS'phobophobe'
p457
g0
(g1
g2
Ntp458
Rp459
(dp460
g6
Nsg8
S'OTHER'
p461
sg10
Nsg24
NsbsS'phone'
p462
g0
(g1
g2
Ntp463
Rp464
(dp465
g6
Nsg8
S'NUMBER'
p466
sg10
Nsg24
NsbsS'pecan'
p467
g0
(g1
g2
Ntp468
Rp469
(dp470
g6
Nsg8
S'LOCATION'
p471
sg10
Nsg24
NsbsS'hole'
p472
g0
(g1
g2
Ntp473
Rp474
(dp475
g6
g16
sg8
S'NUMBER'
p476
sg10
(dp477
S'how'
p478
g0
(g1
g2
Ntp479
Rp480
(dp481
g6
Nsg8
g476
sg10
Nsg24
NsbsS'where'
p482
g0
(g1
g2
Ntp483
Rp484
(dp485
g6
Nsg8
S'LOCATION'
p486
sg10
Nsg24
Nsbssg24
NsbsS'flora'
p487
g0
(g1
g2
Ntp488
Rp489
(dp490
g6
Nsg8
S'OTHER'
p491
sg10
Nsg24
NsbsS'word'
p492
g0
(g1
g2
Ntp493
Rp494
(dp495
g6
Nsg8
S'OTHER'
p496
sg10
Nsg24
NsbsS'room'
p497
g0
(g1
g2
Ntp498
Rp499
(dp500
g6
Nsg8
S'LOCATION'
p501
sg10
Nsg24
NsbsS'rights'
p502
g0
(g1
g2
Ntp503
Rp504
(dp505
g6
Nsg8
S'PERSON'
p506
sg10
Nsg24
NsbsS'work'
p507
g0
(g1
g2
Ntp508
Rp509
(dp510
g6
g16
sg8
S'PERSON'
p511
sg10
(dp512
S'what'
p513
g0
(g1
g2
Ntp514
Rp515
(dp516
g6
Nsg8
S'OTHER'
p517
sg10
Nsg24
NsbsS'who'
p518
g0
(g1
g2
Ntp519
Rp520
(dp521
g6
Nsg8
g511
sg10
Nsg24
Nsbssg24
NsbsS'worm'
p522
g0
(g1
g2
Ntp523
Rp524
(dp525
g6
Nsg8
S'PERSON'
p526
sg10
Nsg24
NsbsS'honeymooners'
p527
g0
(g1
g2
Ntp528
Rp529
(dp530
g6
Nsg8
S'PERSON'
p531
sg10
Nsg24
NsbsS'movies'
p532
g0
(g1
g2
Ntp533
Rp534
(dp535
g6
g16
sg8
S'NUMBER'
p536
sg10
(dp537
S'how'
p538
g0
(g1
g2
Ntp539
Rp540
(dp541
g6
Nsg8
g536
sg10
Nsg24
NsbsS'where'
p542
g0
(g1
g2
Ntp543
Rp544
(dp545
g6
Nsg8
S'LOCATION'
p546
sg10
Nsg24
Nsbssg24
NsbsS'criticizing'
p547
g0
(g1
g2
Ntp548
Rp549
(dp550
g6
Nsg8
S'PERSON'
p551
sg10
Nsg24
NsbsS'example'
p552
g0
(g1
g2
Ntp553
Rp554
(dp555
g6
Nsg8
S'OTHER'
p556
sg10
Nsg24
NsbsS'bandleader'
p557
g0
(g1
g2
Ntp558
Rp559
(dp560
g6
Nsg8
S'PERSON'
p561
sg10
Nsg24
NsbsS'eczema'
p562
g0
(g1
g2
Ntp563
Rp564
(dp565
g6
Nsg8
S'OTHER'
p566
sg10
Nsg24
NsbsS'assent'
p567
g0
(g1
g2
Ntp568
Rp569
(dp570
g6
Nsg8
S'OTHER'
p571
sg10
Nsg24
NsbsS'currency'
p572
g0
(g1
g2
Ntp573
Rp574
(dp575
g6
Nsg8
g9
sg10
Nsg24
NsbsS'foods'
p576
g0
(g1
g2
Ntp577
Rp578
(dp579
g6
Nsg8
S'OTHER'
p580
sg10
Nsg24
NsbsS'want'
p581
g0
(g1
g2
Ntp582
Rp583
(dp584
g6
Nsg8
S'LOCATION'
p585
sg10
Nsg24
NsbsS'ceremony'
p586
g0
(g1
g2
Ntp587
Rp588
(dp589
g6
Nsg8
S'OTHER'
p590
sg10
Nsg24
NsbsS'polio'
p591
g0
(g1
g2
Ntp592
Rp593
(dp594
g6
Nsg8
S'PERSON'
p595
sg10
Nsg24
NsbsS'damage'
p596
g0
(g1
g2
Ntp597
Rp598
(dp599
g6
Nsg8
S'OTHER'
p600
sg10
Nsg24
NsbsS'haboob'
p601
g0
(g1
g2
Ntp602
Rp603
(dp604
g6
Nsg8
S'OTHER'
p605
sg10
Nsg24
NsbsS'communist'
p606
g0
(g1
g2
Ntp607
Rp608
(dp609
g6
Nsg8
S'PERSON'
p610
sg10
Nsg24
NsbsS'gate'
p611
g0
(g1
g2
Ntp612
Rp613
(dp614
g6
Nsg8
S'DATE'
p615
sg10
Nsg24
NsbsS'pizza'
p616
g0
(g1
g2
Ntp617
Rp618
(dp619
g6
Nsg8
S'NUMBER'
p620
sg10
Nsg24
NsbsS'cherubs'
p621
g0
(g1
g2
Ntp622
Rp623
(dp624
g6
Nsg8
S'NUMBER'
p625
sg10
Nsg24
NsbsS'horoscope'
p626
g0
(g1
g2
Ntp627
Rp628
(dp629
g6
Nsg8
S'PERSON'
p630
sg10
Nsg24
NsbsS'delicacy'
p631
g0
(g1
g2
Ntp632
Rp633
(dp634
g6
Nsg8
S'OTHER'
p635
sg10
Nsg24
NsbsS'despondent'
p636
g0
(g1
g2
Ntp637
Rp638
(dp639
g6
Nsg8
S'PERSON'
p640
sg10
Nsg24
NsbsS'shores'
p641
g0
(g1
g2
Ntp642
Rp643
(dp644
g6
Nsg8
S'PERSON'
p645
sg10
Nsg24
NsbsS'philatelist'
p646
g0
(g1
g2
Ntp647
Rp648
(dp649
g6
Nsg8
S'OTHER'
p650
sg10
Nsg24
NsbsS'president'
p651
g0
(g1
g2
Ntp652
Rp653
(dp654
g6
g16
sg8
S'PERSON'
p655
sg10
(dp656
S'what'
p657
g0
(g1
g2
Ntp658
Rp659
(dp660
g6
Nsg8
S'PERSON'
p661
sg10
Nsg24
NsbsS'who'
p662
g0
(g1
g2
Ntp663
Rp664
(dp665
g6
Nsg8
S'PERSON'
p666
sg10
Nsg24
NsbsS'where'
p667
g0
(g1
g2
Ntp668
Rp669
(dp670
g6
Nsg8
S'LOCATION'
p671
sg10
Nsg24
NsbsS'woodrow'
p672
g0
(g1
g2
Ntp673
Rp674
(dp675
g6
Nsg8
S'ORGANIZATION'
p676
sg10
Nsg24
NsbsS'which'
p677
g0
(g1
g2
Ntp678
Rp679
(dp680
g6
Nsg8
S'PERSON'
p681
sg10
Nsg24
Nsbssg24
NsbsS'law'
p682
g0
(g1
g2
Ntp683
Rp684
(dp685
g6
Nsg8
S'NUMBER'
p686
sg10
Nsg24
NsbsS'arch'
p687
g0
(g1
g2
Ntp688
Rp689
(dp690
g6
Nsg8
S'LOCATION'
p691
sg10
Nsg24
NsbsS'types'
p692
g0
(g1
g2
Ntp693
Rp694
(dp695
g6
g16
sg8
S'NUMBER'
p696
sg10
(dp697
S'how'
p698
g0
(g1
g2
Ntp699
Rp700
(dp701
g6
Nsg8
S'NUMBER'
p702
sg10
Nsg24
NsbsS'what'
p703
g0
(g1
g2
Ntp704
Rp705
(dp706
g6
Nsg8
S'OTHER'
p707
sg10
Nsg24
Nsbssg24
NsbsS'attracts'
p708
g0
(g1
g2
Ntp709
Rp710
(dp711
g6
Nsg8
S'LOCATION'
p712
sg10
Nsg24
NsbsS'headquarters'
p713
g0
(g1
g2
Ntp714
Rp715
(dp716
g6
Nsg8
S'LOCATION'
p717
sg10
Nsg24
NsbsS'maintain'
p718
g0
(g1
g2
Ntp719
Rp720
(dp721
g6
Nsg8
S'LOCATION'
p722
sg10
Nsg24
NsbsS'keeps'
p723
g0
(g1
g2
Ntp724
Rp725
(dp726
g6
Nsg8
S'OTHER'
p727
sg10
Nsg24
NsbsS'athletes'
p728
g0
(g1
g2
Ntp729
Rp730
(dp731
g6
Nsg8
S'NUMBER'
p732
sg10
Nsg24
NsbsS'order'
p733
g0
(g1
g2
Ntp734
Rp735
(dp736
g6
g16
sg8
S'OTHER'
p737
sg10
(dp738
S'whose'
p739
g0
(g1
g2
Ntp740
Rp741
(dp742
g6
Nsg8
S'PERSON'
p743
sg10
Nsg24
NsbsS'in'
p744
g0
(g1
g2
Ntp745
Rp746
(dp747
g6
Nsg8
g737
sg10
Nsg24
Nsbssg24
NsbsS'wine'
p748
g0
(g1
g2
Ntp749
Rp750
(dp751
g6
Nsg8
S'OTHER'
p752
sg10
Nsg24
NsbsS'office'
p753
g0
(g1
g2
Ntp754
Rp755
(dp756
g6
g16
sg8
S'PERSON'
p757
sg10
(dp758
S'what'
p759
g0
(g1
g2
Ntp760
Rp761
(dp762
g6
Nsg8
g757
sg10
Nsg24
NsbsS'shea'
p763
g0
(g1
g2
Ntp764
Rp765
(dp766
g6
Nsg8
S'TIME'
p767
sg10
Nsg24
Nsbssg24
NsbsS'deck'
p768
g0
(g1
g2
Ntp769
Rp770
(dp771
g6
Nsg8
S'OTHER'
p772
sg10
Nsg24
NsbsS'oven'
p773
g0
(g1
g2
Ntp774
Rp775
(dp776
g6
g16
sg8
S'NUMBER'
p777
sg10
(dp778
S'how'
p779
g0
(g1
g2
Ntp780
Rp781
(dp782
g6
Nsg8
S'NUMBER'
p783
sg10
Nsg24
NsbsS'what'
p784
g0
(g1
g2
Ntp785
Rp786
(dp787
g6
Nsg8
S'OTHER'
p788
sg10
Nsg24
Nsbssg24
NsbsS'ancients'
p789
g0
(g1
g2
Ntp790
Rp791
(dp792
g6
Nsg8
S'OTHER'
p793
sg10
Nsg24
NsbsS'mayor'
p794
g0
(g1
g2
Ntp795
Rp796
(dp797
g6
Nsg8
S'PERSON'
p798
sg10
Nsg24
NsbsS'bombing'
p799
g0
(g1
g2
Ntp800
Rp801
(dp802
g6
Nsg8
S'PERSON'
p803
sg10
Nsg24
NsbsS'albums'
p804
g0
(g1
g2
Ntp805
Rp806
(dp807
g6
Nsg8
S'OTHER'
p808
sg10
Nsg24
NsbsS'distinguishing'
p809
g0
(g1
g2
Ntp810
Rp811
(dp812
g6
Nsg8
S'OTHER'
p813
sg10
Nsg24
NsbsS'personas'
p814
g0
(g1
g2
Ntp815
Rp816
(dp817
g6
Nsg8
S'PERSON'
p818
sg10
Nsg24
NsbsS'weeks'
p819
g0
(g1
g2
Ntp820
Rp821
(dp822
g6
Nsg8
S'NUMBER'
p823
sg10
Nsg24
NsbsS'bails'
p824
g0
(g1
g2
Ntp825
Rp826
(dp827
g6
Nsg8
S'NUMBER'
p828
sg10
Nsg24
NsbsS'diseases'
p829
g0
(g1
g2
Ntp830
Rp831
(dp832
g6
Nsg8
S'OTHER'
p833
sg10
Nsg24
NsbsS'band'
p834
g0
(g1
g2
Ntp835
Rp836
(dp837
g6
g16
sg8
S'PERSON'
p838
sg10
(dp839
S'who'
p840
g0
(g1
g2
Ntp841
Rp842
(dp843
g6
Nsg8
g838
sg10
Nsg24
NsbsS'name'
p844
g0
(g1
g2
Ntp845
Rp846
(dp847
g6
Nsg8
S'ORGANIZATION'
p848
sg10
Nsg24
Nsbssg24
NsbsS'giraffe'
p849
g0
(g1
g2
Ntp850
Rp851
(dp852
g6
Nsg8
S'NUMBER'
p853
sg10
Nsg24
NsbsS'therapy'
p854
g0
(g1
g2
Ntp855
Rp856
(dp857
g6
Nsg8
S'OTHER'
p858
sg10
Nsg24
NsbsS'schools'
p859
g0
(g1
g2
Ntp860
Rp861
(dp862
g6
Nsg8
S'ORGANIZATION'
p863
sg10
Nsg24
NsbsS'silver'
p864
g0
(g1
g2
Ntp865
Rp866
(dp867
g6
Nsg8
S'NUMBER'
p868
sg10
Nsg24
NsbsS'bread'
p869
g0
(g1
g2
Ntp870
Rp871
(dp872
g6
Nsg8
S'OTHER'
p873
sg10
Nsg24
NsbsS'meat'
p874
g0
(g1
g2
Ntp875
Rp876
(dp877
g6
Nsg8
S'ORGANIZATION'
p878
sg10
Nsg24
NsbsS'potatoes'
p879
g0
(g1
g2
Ntp880
Rp881
(dp882
g6
Nsg8
S'OTHER'
p883
sg10
Nsg24
NsbsS'cullions'
p884
g0
(g1
g2
Ntp885
Rp886
(dp887
g6
Nsg8
S'NUMBER'
p888
sg10
Nsg24
NsbsS'victory'
p889
g0
(g1
g2
Ntp890
Rp891
(dp892
g6
Nsg8
S'PERSON'
p893
sg10
Nsg24
NsbsS'side'
p894
g0
(g1
g2
Ntp895
Rp896
(dp897
g6
Nsg8
S'OTHER'
p898
sg10
Nsg24
NsbsS'bone'
p899
g0
(g1
g2
Ntp900
Rp901
(dp902
g6
Nsg8
S'OTHER'
p903
sg10
Nsg24
NsbsS'mean'
p904
g0
(g1
g2
Ntp905
Rp906
(dp907
g6
g16
sg8
S'PERSON'
p908
sg10
(dp909
S'what'
p910
g0
(g1
g2
Ntp911
Rp912
(dp913
g6
Nsg8
S'OTHER'
p914
sg10
Nsg24
NsbsS'who'
p915
g0
(g1
g2
Ntp916
Rp917
(dp918
g6
Nsg8
g908
sg10
Nsg24
Nsbssg24
NsbsS'telescope'
p919
g0
(g1
g2
Ntp920
Rp921
(dp922
g6
Nsg8
S'LOCATION'
p923
sg10
Nsg24
NsbsS'series'
p924
g0
(g1
g2
Ntp925
Rp926
(dp927
g6
Nsg8
S'OTHER'
p928
sg10
Nsg24
NsbsS'principles'
p929
g0
(g1
g2
Ntp930
Rp931
(dp932
g6
Nsg8
S'OTHER'
p933
sg10
Nsg24
NsbsS'aids'
p934
g0
(g1
g2
Ntp935
Rp936
(dp937
g6
Nsg8
S'OTHER'
p938
sg10
Nsg24
NsbsS'network'
p939
g0
(g1
g2
Ntp940
Rp941
(dp942
g6
Nsg8
S'ORGANIZATION'
p943
sg10
Nsg24
NsbsS'four-player'
p944
g0
(g1
g2
Ntp945
Rp946
(dp947
g6
Nsg8
S'OTHER'
p948
sg10
Nsg24
NsbsS'vessels'
p949
g0
(g1
g2
Ntp950
Rp951
(dp952
g6
Nsg8
S'OTHER'
p953
sg10
Nsg24
NsbsS'millennium'
p954
g0
(g1
g2
Ntp955
Rp956
(dp957
g6
Nsg8
S'DATE'
p958
sg10
Nsg24
NsbsS'medicine'
p959
g0
(g1
g2
Ntp960
Rp961
(dp962
g6
Nsg8
S'OTHER'
p963
sg10
Nsg24
NsbsS'size'
p964
g0
(g1
g2
Ntp965
Rp966
(dp967
g6
Nsg8
S'NUMBER'
p968
sg10
Nsg24
NsbsS'hang'
p969
g0
(g1
g2
Ntp970
Rp971
(dp972
g6
Nsg8
S'LOCATION'
p973
sg10
Nsg24
NsbsS'appointments'
p974
g0
(g1
g2
Ntp975
Rp976
(dp977
g6
Nsg8
S'PERSON'
p978
sg10
Nsg24
NsbsS'starts'
p979
g0
(g1
g2
Ntp980
Rp981
(dp982
g6
Nsg8
S'OTHER'
p983
sg10
Nsg24
NsbsS'days'
p984
g0
(g1
g2
Ntp985
Rp986
(dp987
g6
Nsg8
S'NUMBER'
p988
sg10
Nsg24
NsbsS'playwright'
p989
g0
(g1
g2
Ntp990
Rp991
(dp992
g6
Nsg8
S'PERSON'
p993
sg10
Nsg24
NsbsS'attractions'
p994
g0
(g1
g2
Ntp995
Rp996
(dp997
g6
Nsg8
S'LOCATION'
p998
sg10
Nsg24
NsbsS'rank'
p999
g0
(g1
g2
Ntp1000
Rp1001
(dp1002
g6
Nsg8
S'NUMBER'
p1003
sg10
Nsg24
NsbsS'hearing'
p1004
g0
(g1
g2
Ntp1005
Rp1006
(dp1007
g6
Nsg8
S'OTHER'
p1008
sg10
Nsg24
NsbsS'toy'
p1009
g0
(g1
g2
Ntp1010
Rp1011
(dp1012
g6
Nsg8
S'OTHER'
p1013
sg10
Nsg24
NsbsS'fiction'
p1014
g0
(g1
g2
Ntp1015
Rp1016
(dp1017
g6
Nsg8
S'OTHER'
p1018
sg10
Nsg24
NsbsS'zeros'
p1019
g0
(g1
g2
Ntp1020
Rp1021
(dp1022
g6
Nsg8
S'NUMBER'
p1023
sg10
Nsg24
NsbsS'corpus'
p1024
g0
(g1
g2
Ntp1025
Rp1026
(dp1027
g6
g16
sg8
S'LOCATION'
p1028
sg10
(dp1029
S'the'
p1030
g0
(g1
g2
Ntp1031
Rp1032
(dp1033
g6
Nsg8
S'OTHER'
p1034
sg10
Nsg24
NsbsS'where'
p1035
g0
(g1
g2
Ntp1036
Rp1037
(dp1038
g6
Nsg8
S'LOCATION'
p1039
sg10
Nsg24
Nsbssg24
NsbsS'dogs'
p1040
g0
(g1
g2
Ntp1041
Rp1042
(dp1043
g6
g16
sg8
S'OTHER'
p1044
sg10
(dp1045
S'how'
p1046
g0
(g1
g2
Ntp1047
Rp1048
(dp1049
g6
Nsg8
S'NUMBER'
p1050
sg10
Nsg24
NsbsS'who'
p1051
g0
(g1
g2
Ntp1052
Rp1053
(dp1054
g6
Nsg8
g1044
sg10
Nsg24
Nsbssg24
NsbsS'murder'
p1055
g0
(g1
g2
Ntp1056
Rp1057
(dp1058
g6
Nsg8
S'OTHER'
p1059
sg10
Nsg24
NsbsS'airwaves'
p1060
g0
(g1
g2
Ntp1061
Rp1062
(dp1063
g6
Nsg8
S'PERSON'
p1064
sg10
Nsg24
NsbsS'cereal'
p1065
g0
(g1
g2
Ntp1066
Rp1067
(dp1068
g6
Nsg8
S'OTHER'
p1069
sg10
Nsg24
NsbsS'distance'
p1070
g0
(g1
g2
Ntp1071
Rp1072
(dp1073
g6
Nsg8
S'OTHER'
p1074
sg10
Nsg24
NsbsS'domestica'
p1075
g0
(g1
g2
Ntp1076
Rp1077
(dp1078
g6
Nsg8
S'OTHER'
p1079
sg10
Nsg24
NsbsS'target'
p1080
g0
(g1
g2
Ntp1081
Rp1082
(dp1083
g6
Nsg8
S'PERCENT'
p1084
sg10
Nsg24
NsbsS'warmup'
p1085
g0
(g1
g2
Ntp1086
Rp1087
(dp1088
g6
Nsg8
S'NUMBER'
p1089
sg10
Nsg24
NsbsS'tree'
p1090
g0
(g1
g2
Ntp1091
Rp1092
(dp1093
g6
g16
sg8
S'LOCATION'
p1094
sg10
(dp1095
S'how'
p1096
g0
(g1
g2
Ntp1097
Rp1098
(dp1099
g6
Nsg8
S'MONEY'
p1100
sg10
Nsg24
NsbsS'where'
p1101
g0
(g1
g2
Ntp1102
Rp1103
(dp1104
g6
Nsg8
g1094
sg10
Nsg24
NsbsS'dialing'
p1105
g0
(g1
g2
Ntp1106
Rp1107
(dp1108
g6
Nsg8
S'MONEY'
p1109
sg10
Nsg24
NsbsS'name'
p1110
g0
(g1
g2
Ntp1111
Rp1112
(dp1113
g6
Nsg8
S'ORGANIZATION'
p1114
sg10
Nsg24
Nsbssg24
NsbsS'nations'
p1115
g0
(g1
g2
Ntp1116
Rp1117
(dp1118
g6
Nsg8
S'LOCATION'
p1119
sg10
Nsg24
NsbsS'project'
p1120
g0
(g1
g2
Ntp1121
Rp1122
(dp1123
g6
Nsg8
S'PERSON'
p1124
sg10
Nsg24
NsbsS'titles'
p1125
g0
(g1
g2
Ntp1126
Rp1127
(dp1128
g6
Nsg8
S'OTHER'
p1129
sg10
Nsg24
NsbsS'speaking'
p1130
g0
(g1
g2
Ntp1131
Rp1132
(dp1133
g6
Nsg8
S'PERSON'
p1134
sg10
Nsg24
NsbsS'iron'
p1135
g0
(g1
g2
Ntp1136
Rp1137
(dp1138
g6
Nsg8
S'NUMBER'
p1139
sg10
Nsg24
NsbsS'feeling'
p1140
g0
(g1
g2
Ntp1141
Rp1142
(dp1143
g6
Nsg8
S'OTHER'
p1144
sg10
Nsg24
NsbsS'supercontinent'
p1145
g0
(g1
g2
Ntp1146
Rp1147
(dp1148
g6
Nsg8
S'DATE'
p1149
sg10
Nsg24
NsbsS'prankster'
p1150
g0
(g1
g2
Ntp1151
Rp1152
(dp1153
g6
Nsg8
S'PERSON'
p1154
sg10
Nsg24
NsbsS'bridge'
p1155
g0
(g1
g2
Ntp1156
Rp1157
(dp1158
g6
Nsg8
S'LOCATION'
p1159
sg10
Nsg24
NsbsS'modern'
p1160
g0
(g1
g2
Ntp1161
Rp1162
(dp1163
g6
Nsg8
S'OTHER'
p1164
sg10
Nsg24
NsbsS'mine'
p1165
g0
(g1
g2
Ntp1166
Rp1167
(dp1168
g6
Nsg8
S'OTHER'
p1169
sg10
Nsg24
NsbsS'talking'
p1170
g0
(g1
g2
Ntp1171
Rp1172
(dp1173
g6
Nsg8
S'PERSON'
p1174
sg10
Nsg24
NsbsS'shrubs'
p1175
g0
(g1
g2
Ntp1176
Rp1177
(dp1178
g6
Nsg8
S'OTHER'
p1179
sg10
Nsg24
NsbsS'eels'
p1180
g0
(g1
g2
Ntp1181
Rp1182
(dp1183
g6
Nsg8
S'LOCATION'
p1184
sg10
Nsg24
NsbsS'snow'
p1185
g0
(g1
g2
Ntp1186
Rp1187
(dp1188
g6
Nsg8
S'NUMBER'
p1189
sg10
Nsg24
NsbsS'reactivity'
p1190
g0
(g1
g2
Ntp1191
Rp1192
(dp1193
g6
Nsg8
S'NUMBER'
p1194
sg10
Nsg24
NsbsS'materials'
p1195
g0
(g1
g2
Ntp1196
Rp1197
(dp1198
g6
g16
sg8
S'OTHER'
p1199
sg10
(dp1200
S'how'
p1201
g0
(g1
g2
Ntp1202
Rp1203
(dp1204
g6
Nsg8
S'TIME'
p1205
sg10
Nsg24
NsbsS'what'
p1206
g0
(g1
g2
Ntp1207
Rp1208
(dp1209
g6
Nsg8
g1199
sg10
Nsg24
Nsbssg24
NsbsS'chess'
p1210
g0
(g1
g2
Ntp1211
Rp1212
(dp1213
g6
Nsg8
S'OTHER'
p1214
sg10
Nsg24
NsbsS'forces'
p1215
g0
(g1
g2
Ntp1216
Rp1217
(dp1218
g6
Nsg8
S'PERSON'
p1219
sg10
Nsg24
NsbsS'chiropodist'
p1220
g0
(g1
g2
Ntp1221
Rp1222
(dp1223
g6
Nsg8
S'OTHER'
p1224
sg10
Nsg24
NsbsS'panties'
p1225
g0
(g1
g2
Ntp1226
Rp1227
(dp1228
g6
Nsg8
S'PERSON'
p1229
sg10
Nsg24
NsbsS'object'
p1230
g0
(g1
g2
Ntp1231
Rp1232
(dp1233
g6
Nsg8
S'OTHER'
p1234
sg10
Nsg24
NsbsS'phonograph'
p1235
g0
(g1
g2
Ntp1236
Rp1237
(dp1238
g6
Nsg8
S'PERSON'
p1239
sg10
Nsg24
NsbsS'letter'
p1240
g0
(g1
g2
Ntp1241
Rp1242
(dp1243
g6
Nsg8
S'OTHER'
p1244
sg10
Nsg24
NsbsS'exercises'
p1245
g0
(g1
g2
Ntp1246
Rp1247
(dp1248
g6
Nsg8
S'OTHER'
p1249
sg10
Nsg24
NsbsS'coin'
p1250
g0
(g1
g2
Ntp1251
Rp1252
(dp1253
g6
Nsg8
S'OTHER'
p1254
sg10
Nsg24
NsbsS'singer'
p1255
g0
(g1
g2
Ntp1256
Rp1257
(dp1258
g6
Nsg8
S'PERSON'
p1259
sg10
Nsg24
NsbsS'dog'
p1260
g0
(g1
g2
Ntp1261
Rp1262
(dp1263
g6
g16
sg8
S'OTHER'
p1264
sg10
(dp1265
S'how'
p1266
g0
(g1
g2
Ntp1267
Rp1268
(dp1269
g6
Nsg8
S'TIME'
p1270
sg10
Nsg24
NsbsS'what'
p1271
g0
(g1
g2
Ntp1272
Rp1273
(dp1274
g6
Nsg8
S'OTHER'
p1275
sg10
Nsg24
NsbsS'in'
p1276
g0
(g1
g2
Ntp1277
Rp1278
(dp1279
g6
Nsg8
g1264
sg10
Nsg24
Nsbssg24
NsbsS'freeway'
p1280
g0
(g1
g2
Ntp1281
Rp1282
(dp1283
g6
Nsg8
S'LOCATION'
p1284
sg10
Nsg24
NsbsS'reputation'
p1285
g0
(g1
g2
Ntp1286
Rp1287
(dp1288
g6
Nsg8
S'PERSON'
p1289
sg10
Nsg24
NsbsS'screensaver'
p1290
g0
(g1
g2
Ntp1291
Rp1292
(dp1293
g6
Nsg8
S'LOCATION'
p1294
sg10
Nsg24
NsbsS'flog'
p1295
g0
(g1
g2
Ntp1296
Rp1297
(dp1298
g6
Nsg8
S'OTHER'
p1299
sg10
Nsg24
NsbsS'came'
p1300
g0
(g1
g2
Ntp1301
Rp1302
(dp1303
g6
Nsg8
S'OTHER'
p1304
sg10
Nsg24
NsbsS'marvel'
p1305
g0
(g1
g2
Ntp1306
Rp1307
(dp1308
g6
Nsg8
S'LOCATION'
p1309
sg10
Nsg24
NsbsS'bomb'
p1310
g0
(g1
g2
Ntp1311
Rp1312
(dp1313
g6
Nsg8
S'OTHER'
p1314
sg10
Nsg24
NsbsS'lyrics'
p1315
g0
(g1
g2
Ntp1316
Rp1317
(dp1318
g6
g16
sg8
S'PERSON'
p1319
sg10
(dp1320
S'who'
p1321
g0
(g1
g2
Ntp1322
Rp1323
(dp1324
g6
Nsg8
g1319
sg10
Nsg24
NsbsS'where'
p1325
g0
(g1
g2
Ntp1326
Rp1327
(dp1328
g6
Nsg8
S'LOCATION'
p1329
sg10
Nsg24
Nsbssg24
NsbsS'tequila'
p1330
g0
(g1
g2
Ntp1331
Rp1332
(dp1333
g6
Nsg8
S'OTHER'
p1334
sg10
Nsg24
NsbsS'queen'
p1335
g0
(g1
g2
Ntp1336
Rp1337
(dp1338
g6
Nsg8
S'PERSON'
p1339
sg10
Nsg24
NsbsS'plagues'
p1340
g0
(g1
g2
Ntp1341
Rp1342
(dp1343
g6
Nsg8
S'OTHER'
p1344
sg10
Nsg24
NsbsS'colors'
p1345
g0
(g1
g2
Ntp1346
Rp1347
(dp1348
g6
g16
sg8
S'NUMBER'
p1349
sg10
(dp1350
S'how'
p1351
g0
(g1
g2
Ntp1352
Rp1353
(dp1354
g6
Nsg8
S'NUMBER'
p1355
sg10
Nsg24
NsbsS'what'
p1356
g0
(g1
g2
Ntp1357
Rp1358
(dp1359
g6
Nsg8
S'OTHER'
p1360
sg10
Nsg24
Nsbssg24
NsbsS'radio'
p1361
g0
(g1
g2
Ntp1362
Rp1363
(dp1364
g6
g16
sg8
S'PERSON'
p1365
sg10
(dp1366
S'what'
p1367
g0
(g1
g2
Ntp1368
Rp1369
(dp1370
g6
Nsg8
S'OTHER'
p1371
sg10
Nsg24
NsbsS'who'
p1372
g0
(g1
g2
Ntp1373
Rp1374
(dp1375
g6
Nsg8
S'PERSON'
p1376
sg10
Nsg24
NsbsS'which'
p1377
g0
(g1
g2
Ntp1378
Rp1379
(dp1380
g6
Nsg8
S'ORGANIZATION'
p1381
sg10
Nsg24
Nsbssg24
NsbsS'debts'
p1382
g0
(g1
g2
Ntp1383
Rp1384
(dp1385
g6
Nsg8
S'MONEY'
p1386
sg10
Nsg24
NsbsS'buxom'
p1387
g0
(g1
g2
Ntp1388
Rp1389
(dp1390
g6
Nsg8
S'PERSON'
p1391
sg10
Nsg24
NsbsS'theme'
p1392
g0
(g1
g2
Ntp1393
Rp1394
(dp1395
g6
Nsg8
S'OTHER'
p1396
sg10
Nsg24
NsbsS'population'
p1397
g0
(g1
g2
Ntp1398
Rp1399
(dp1400
g6
Nsg8
S'NUMBER'
p1401
sg10
Nsg24
NsbsS'tiles'
p1402
g0
(g1
g2
Ntp1403
Rp1404
(dp1405
g6
Nsg8
S'NUMBER'
p1406
sg10
Nsg24
NsbsS'da'
p1407
g0
(g1
g2
Ntp1408
Rp1409
(dp1410
g6
Nsg8
S'OTHER'
p1411
sg10
Nsg24
NsbsS'borrower'
p1412
g0
(g1
g2
Ntp1413
Rp1414
(dp1415
g6
Nsg8
S'PERSON'
p1416
sg10
Nsg24
NsbsS'wedding'
p1417
g0
(g1
g2
Ntp1418
Rp1419
(dp1420
g6
Nsg8
S'PERSON'
p1421
sg10
Nsg24
NsbsS'bar'
p1422
g0
(g1
g2
Ntp1423
Rp1424
(dp1425
g6
Nsg8
S'OTHER'
p1426
sg10
Nsg24
NsbsS'countries'
p1427
g0
(g1
g2
Ntp1428
Rp1429
(dp1430
g6
g16
sg8
S'LOCATION'
p1431
sg10
(dp1432
S'how'
p1433
g0
(g1
g2
Ntp1434
Rp1435
(dp1436
g6
Nsg8
S'NUMBER'
p1437
sg10
Nsg24
NsbsS'what'
p1438
g0
(g1
g2
Ntp1439
Rp1440
(dp1441
g6
Nsg8
S'LOCATION'
p1442
sg10
Nsg24
Nsbssg24
NsbsS'bay'
p1443
g0
(g1
g2
Ntp1444
Rp1445
(dp1446
g6
Nsg8
S'LOCATION'
p1447
sg10
Nsg24
NsbsS'erupt'
p1448
g0
(g1
g2
Ntp1449
Rp1450
(dp1451
g6
Nsg8
S'DATE'
p1452
sg10
Nsg24
NsbsS'shots'
p1453
g0
(g1
g2
Ntp1454
Rp1455
(dp1456
g6
Nsg8
S'NUMBER'
p1457
sg10
Nsg24
NsbsS'secretary'
p1458
g0
(g1
g2
Ntp1459
Rp1460
(dp1461
g6
Nsg8
S'PERSON'
p1462
sg10
Nsg24
NsbsS'disaster'
p1463
g0
(g1
g2
Ntp1464
Rp1465
(dp1466
g6
Nsg8
S'OTHER'
p1467
sg10
Nsg24
NsbsS'combustion'
p1468
g0
(g1
g2
Ntp1469
Rp1470
(dp1471
g6
Nsg8
S'DATE'
p1472
sg10
Nsg24
NsbsS'draws'
p1473
g0
(g1
g2
Ntp1474
Rp1475
(dp1476
g6
Nsg8
S'OTHER'
p1477
sg10
Nsg24
NsbsS'rings'
p1478
g0
(g1
g2
Ntp1479
Rp1480
(dp1481
g6
Nsg8
S'NUMBER'
p1482
sg10
Nsg24
NsbsS'score'
p1483
g0
(g1
g2
Ntp1484
Rp1485
(dp1486
g6
Nsg8
S'NUMBER'
p1487
sg10
Nsg24
NsbsS'finger'
p1488
g0
(g1
g2
Ntp1489
Rp1490
(dp1491
g6
Nsg8
S'PERSON'
p1492
sg10
Nsg24
NsbsS'encounters'
p1493
g0
(g1
g2
Ntp1494
Rp1495
(dp1496
g6
Nsg8
S'OTHER'
p1497
sg10
Nsg24
NsbsS'claws'
p1498
g0
(g1
g2
Ntp1499
Rp1500
(dp1501
g6
Nsg8
S'NUMBER'
p1502
sg10
Nsg24
NsbsS'boss'
p1503
g0
(g1
g2
Ntp1504
Rp1505
(dp1506
g6
Nsg8
S'PERSON'
p1507
sg10
Nsg24
NsbsS'toothbrush'
p1508
g0
(g1
g2
Ntp1509
Rp1510
(dp1511
g6
Nsg8
S'PERSON'
p1512
sg10
Nsg24
NsbsS'wear'
p1513
g0
(g1
g2
Ntp1514
Rp1515
(dp1516
g6
Nsg8
S'OTHER'
p1517
sg10
Nsg24
NsbsS'motto'
p1518
g0
(g1
g2
Ntp1519
Rp1520
(dp1521
g6
Nsg8
S'ORGANIZATION'
p1522
sg10
Nsg24
NsbsS'debt'
p1523
g0
(g1
g2
Ntp1524
Rp1525
(dp1526
g6
Nsg8
S'TIME'
p1527
sg10
Nsg24
NsbsS'flytrap'
p1528
g0
(g1
g2
Ntp1529
Rp1530
(dp1531
g6
Nsg8
S'LOCATION'
p1532
sg10
Nsg24
NsbsS'cop'
p1533
g0
(g1
g2
Ntp1534
Rp1535
(dp1536
g6
Nsg8
S'PERSON'
p1537
sg10
Nsg24
NsbsS'accident'
p1538
g0
(g1
g2
Ntp1539
Rp1540
(dp1541
g6
Nsg8
S'DATE'
p1542
sg10
Nsg24
NsbsS'country'
p1543
g0
(g1
g2
Ntp1544
Rp1545
(dp1546
g6
Nsg8
S'LOCATION'
p1547
sg10
Nsg24
NsbsS'adventures'
p1548
g0
(g1
g2
Ntp1549
Rp1550
(dp1551
g6
Nsg8
S'LOCATION'
p1552
sg10
Nsg24
NsbsS'players'
p1553
g0
(g1
g2
Ntp1554
Rp1555
(dp1556
g6
Nsg8
S'PERSON'
p1557
sg10
Nsg24
NsbsS'protection'
p1558
g0
(g1
g2
Ntp1559
Rp1560
(dp1561
g6
Nsg8
S'NUMBER'
p1562
sg10
Nsg24
NsbsS'games'
p1563
g0
(g1
g2
Ntp1564
Rp1565
(dp1566
g6
g16
sg8
S'PERSON'
p1567
sg10
(dp1568
S'how'
p1569
g0
(g1
g2
Ntp1570
Rp1571
(dp1572
g6
Nsg8
S'NUMBER'
p1573
sg10
Nsg24
NsbsS'what'
p1574
g0
(g1
g2
Ntp1575
Rp1576
(dp1577
g6
Nsg8
S'OTHER'
p1578
sg10
Nsg24
NsbsS'who'
p1579
g0
(g1
g2
Ntp1580
Rp1581
(dp1582
g6
Nsg8
g1567
sg10
Nsg24
Nsbssg24
NsbsS'faces'
p1583
g0
(g1
g2
Ntp1584
Rp1585
(dp1586
g6
Nsg8
S'OTHER'
p1587
sg10
Nsg24
NsbsS'character'
p1588
g0
(g1
g2
Ntp1589
Rp1590
(dp1591
g6
Nsg8
S'PERSON'
p1592
sg10
Nsg24
NsbsS'directions'
p1593
g0
(g1
g2
Ntp1594
Rp1595
(dp1596
g6
Nsg8
S'LOCATION'
p1597
sg10
Nsg24
NsbsS'conference'
p1598
g0
(g1
g2
Ntp1599
Rp1600
(dp1601
g6
Nsg8
S'PERSON'
p1602
sg10
Nsg24
NsbsS'engines'
p1603
g0
(g1
g2
Ntp1604
Rp1605
(dp1606
g6
g16
sg8
S'PERSON'
p1607
sg10
(dp1608
S'how'
p1609
g0
(g1
g2
Ntp1610
Rp1611
(dp1612
g6
Nsg8
S'NUMBER'
p1613
sg10
Nsg24
NsbsS'rotary'
p1614
g0
(g1
g2
Ntp1615
Rp1616
(dp1617
g6
Nsg8
g1607
sg10
Nsg24
Nsbssg24
NsbsS'been'
p1618
g0
(g1
g2
Ntp1619
Rp1620
(dp1621
g6
Nsg8
S'TIME'
p1622
sg10
Nsg24
NsbsS'submarine'
p1623
g0
(g1
g2
Ntp1624
Rp1625
(dp1626
g6
Nsg8
S'OTHER'
p1627
sg10
Nsg24
NsbsS'beer'
p1628
g0
(g1
g2
Ntp1629
Rp1630
(dp1631
g6
Nsg8
S'OTHER'
p1632
sg10
Nsg24
NsbsS'bees'
p1633
g0
(g1
g2
Ntp1634
Rp1635
(dp1636
g6
Nsg8
S'NUMBER'
p1637
sg10
Nsg24
NsbsS'stadium'
p1638
g0
(g1
g2
Ntp1639
Rp1640
(dp1641
g6
Nsg8
S'LOCATION'
p1642
sg10
Nsg24
NsbsS'tallest'
p1643
g0
(g1
g2
Ntp1644
Rp1645
(dp1646
g6
Nsg8
S'LOCATION'
p1647
sg10
Nsg24
NsbsS'incompetent'
p1648
g0
(g1
g2
Ntp1649
Rp1650
(dp1651
g6
Nsg8
S'OTHER'
p1652
sg10
Nsg24
NsbsS'board'
p1653
g0
(g1
g2
Ntp1654
Rp1655
(dp1656
g6
Nsg8
S'OTHER'
p1657
sg10
Nsg24
NsbsS'website'
p1658
g0
(g1
g2
Ntp1659
Rp1660
(dp1661
g6
Nsg8
S'LOCATION'
p1662
sg10
Nsg24
NsbsS'life'
p1663
g0
(g1
g2
Ntp1664
Rp1665
(dp1666
g6
Nsg8
S'TIME'
p1667
sg10
Nsg24
NsbsS'drugs'
p1668
g0
(g1
g2
Ntp1669
Rp1670
(dp1671
g6
Nsg8
S'MONEY'
p1672
sg10
Nsg24
NsbsS'craft'
p1673
g0
(g1
g2
Ntp1674
Rp1675
(dp1676
g6
Nsg8
S'OTHER'
p1677
sg10
Nsg24
NsbsS'child'
p1678
g0
(g1
g2
Ntp1679
Rp1680
(dp1681
g6
g16
sg8
S'PERSON'
p1682
sg10
(dp1683
S'how'
p1684
g0
(g1
g2
Ntp1685
Rp1686
(dp1687
g6
Nsg8
S'TIME'
p1688
sg10
Nsg24
NsbsS'name'
p1689
g0
(g1
g2
Ntp1690
Rp1691
(dp1692
g6
Nsg8
g1682
sg10
Nsg24
Nsbssg24
NsbsS'presidency'
p1693
g0
(g1
g2
Ntp1694
Rp1695
(dp1696
g6
Nsg8
S'PERSON'
p1697
sg10
Nsg24
NsbsS'originate'
p1698
g0
(g1
g2
Ntp1699
Rp1700
(dp1701
g6
g16
sg8
S'OTHER'
p1702
sg10
(dp1703
S'what'
p1704
g0
(g1
g2
Ntp1705
Rp1706
(dp1707
g6
Nsg8
g1702
sg10
Nsg24
NsbsS'where'
p1708
g0
(g1
g2
Ntp1709
Rp1710
(dp1711
g6
Nsg8
S'LOCATION'
p1712
sg10
Nsg24
Nsbssg24
NsbsS'air'
p1713
g0
(g1
g2
Ntp1714
Rp1715
(dp1716
g6
Nsg8
S'DATE'
p1717
sg10
Nsg24
NsbsS'employ'
p1718
g0
(g1
g2
Ntp1719
Rp1720
(dp1721
g6
Nsg8
S'OTHER'
p1722
sg10
Nsg24
NsbsS'calcium'
p1723
g0
(g1
g2
Ntp1724
Rp1725
(dp1726
g6
Nsg8
S'NUMBER'
p1727
sg10
Nsg24
NsbsS'voice'
p1728
g0
(g1
g2
Ntp1729
Rp1730
(dp1731
g6
Nsg8
S'PERSON'
p1732
sg10
Nsg24
NsbsS'procedure'
p1733
g0
(g1
g2
Ntp1734
Rp1735
(dp1736
g6
Nsg8
S'OTHER'
p1737
sg10
Nsg24
NsbsS'pyramid'
p1738
g0
(g1
g2
Ntp1739
Rp1740
(dp1741
g6
Nsg8
S'PERSON'
p1742
sg10
Nsg24
NsbsS'player'
p1743
g0
(g1
g2
Ntp1744
Rp1745
(dp1746
g6
Nsg8
S'PERSON'
p1747
sg10
Nsg24
NsbsS'sells'
p1748
g0
(g1
g2
Ntp1749
Rp1750
(dp1751
g6
Nsg8
S'PERSON'
p1752
sg10
Nsg24
NsbsS'bottles'
p1753
g0
(g1
g2
Ntp1754
Rp1755
(dp1756
g6
Nsg8
S'NUMBER'
p1757
sg10
Nsg24
NsbsS'perform'
p1758
g0
(g1
g2
Ntp1759
Rp1760
(dp1761
g6
Nsg8
S'OTHER'
p1762
sg10
Nsg24
NsbsS'amount'
p1763
g0
(g1
g2
Ntp1764
Rp1765
(dp1766
g6
Nsg8
S'MONEY'
p1767
sg10
Nsg24
NsbsS'dots'
p1768
g0
(g1
g2
Ntp1769
Rp1770
(dp1771
g6
Nsg8
S'NUMBER'
p1772
sg10
Nsg24
NsbsS'monarch'
p1773
g0
(g1
g2
Ntp1774
Rp1775
(dp1776
g6
Nsg8
S'PERSON'
p1777
sg10
Nsg24
NsbsS'colonies'
p1778
g0
(g1
g2
Ntp1779
Rp1780
(dp1781
g6
Nsg8
S'NUMBER'
p1782
sg10
Nsg24
NsbsS'inventors'
p1783
g0
(g1
g2
Ntp1784
Rp1785
(dp1786
g6
Nsg8
S'PERSON'
p1787
sg10
Nsg24
NsbsS'wheel'
p1788
g0
(g1
g2
Ntp1789
Rp1790
(dp1791
g6
Nsg8
S'OTHER'
p1792
sg10
Nsg24
NsbsS'rail'
p1793
g0
(g1
g2
Ntp1794
Rp1795
(dp1796
g6
Nsg8
S'LOCATION'
p1797
sg10
Nsg24
NsbsS'rain'
p1798
g0
(g1
g2
Ntp1799
Rp1800
(dp1801
g6
Nsg8
S'LOCATION'
p1802
sg10
Nsg24
NsbsS'hand'
p1803
g0
(g1
g2
Ntp1804
Rp1805
(dp1806
g6
Nsg8
S'OTHER'
p1807
sg10
Nsg24
NsbsS'waterfall'
p1808
g0
(g1
g2
Ntp1809
Rp1810
(dp1811
g6
Nsg8
S'LOCATION'
p1812
sg10
Nsg24
NsbsS'characters'
p1813
g0
(g1
g2
Ntp1814
Rp1815
(dp1816
g6
g16
sg8
S'NUMBER'
p1817
sg10
(dp1818
S'how'
p1819
g0
(g1
g2
Ntp1820
Rp1821
(dp1822
g6
Nsg8
S'NUMBER'
p1823
sg10
Nsg24
NsbsS'what'
p1824
g0
(g1
g2
Ntp1825
Rp1826
(dp1827
g6
Nsg8
S'PERSON'
p1828
sg10
Nsg24
Nsbssg24
NsbsS'tune'
p1829
g0
(g1
g2
Ntp1830
Rp1831
(dp1832
g6
Nsg8
S'OTHER'
p1833
sg10
Nsg24
NsbsS'kid'
p1834
g0
(g1
g2
Ntp1835
Rp1836
(dp1837
g6
Nsg8
S'OTHER'
p1838
sg10
Nsg24
NsbsS'peacocks'
p1839
g0
(g1
g2
Ntp1840
Rp1841
(dp1842
g6
Nsg8
S'OTHER'
p1843
sg10
Nsg24
NsbsS'savings'
p1844
g0
(g1
g2
Ntp1845
Rp1846
(dp1847
g6
Nsg8
S'TIME'
p1848
sg10
Nsg24
NsbsS'contact'
p1849
g0
(g1
g2
Ntp1850
Rp1851
(dp1852
g6
Nsg8
S'OTHER'
p1853
sg10
Nsg24
NsbsS'mother'
p1854
g0
(g1
g2
Ntp1855
Rp1856
(dp1857
g6
Nsg8
S'PERSON'
p1858
sg10
Nsg24
NsbsS'hearts'
p1859
g0
(g1
g2
Ntp1860
Rp1861
(dp1862
g6
Nsg8
S'NUMBER'
p1863
sg10
Nsg24
NsbsS'sentence'
p1864
g0
(g1
g2
Ntp1865
Rp1866
(dp1867
g6
Nsg8
S'OTHER'
p1868
sg10
Nsg24
NsbsS'gods'
p1869
g0
(g1
g2
Ntp1870
Rp1871
(dp1872
g6
Nsg8
S'PERSON'
p1873
sg10
Nsg24
NsbsS'verses'
p1874
g0
(g1
g2
Ntp1875
Rp1876
(dp1877
g6
Nsg8
S'NUMBER'
p1878
sg10
Nsg24
NsbsS'human'
p1879
g0
(g1
g2
Ntp1880
Rp1881
(dp1882
g6
Nsg8
S'NUMBER'
p1883
sg10
Nsg24
NsbsS'adding'
p1884
g0
(g1
g2
Ntp1885
Rp1886
(dp1887
g6
Nsg8
S'OTHER'
p1888
sg10
Nsg24
NsbsS'classification'
p1889
g0
(g1
g2
Ntp1890
Rp1891
(dp1892
g6
Nsg8
S'OTHER'
p1893
sg10
Nsg24
NsbsS'royal'
p1894
g0
(g1
g2
Ntp1895
Rp1896
(dp1897
g6
g16
sg8
S'LOCATION'
p1898
sg10
(dp1899
S'what'
p1900
g0
(g1
g2
Ntp1901
Rp1902
(dp1903
g6
Nsg8
g1898
sg10
Nsg24
NsbsS'when'
p1904
g0
(g1
g2
Ntp1905
Rp1906
(dp1907
g6
Nsg8
S'DATE'
p1908
sg10
Nsg24
Nsbssg24
NsbsS'teenager'
p1909
g0
(g1
g2
Ntp1910
Rp1911
(dp1912
g6
Nsg8
S'DATE'
p1913
sg10
Nsg24
NsbsS'prison'
p1914
g0
(g1
g2
Ntp1915
Rp1916
(dp1917
g6
Nsg8
S'LOCATION'
p1918
sg10
Nsg24
NsbsS'hat'
p1919
g0
(g1
g2
Ntp1920
Rp1921
(dp1922
g6
Nsg8
S'LOCATION'
p1923
sg10
Nsg24
NsbsS'sailors'
p1924
g0
(g1
g2
Ntp1925
Rp1926
(dp1927
g6
Nsg8
S'OTHER'
p1928
sg10
Nsg24
NsbsS'boxer'
p1929
g0
(g1
g2
Ntp1930
Rp1931
(dp1932
g6
Nsg8
S'PERSON'
p1933
sg10
Nsg24
NsbsS'birth'
p1934
g0
(g1
g2
Ntp1935
Rp1936
(dp1937
g6
Nsg8
S'OTHER'
p1938
sg10
Nsg24
NsbsS'soap'
p1939
g0
(g1
g2
Ntp1940
Rp1941
(dp1942
g6
Nsg8
S'OTHER'
p1943
sg10
Nsg24
NsbsS'steps'
p1944
g0
(g1
g2
Ntp1945
Rp1946
(dp1947
g6
Nsg8
S'LOCATION'
p1948
sg10
Nsg24
NsbsS'night'
p1949
g0
(g1
g2
Ntp1950
Rp1951
(dp1952
g6
Nsg8
S'PERSON'
p1953
sg10
Nsg24
NsbsS'vats'
p1954
g0
(g1
g2
Ntp1955
Rp1956
(dp1957
g6
Nsg8
S'OTHER'
p1958
sg10
Nsg24
NsbsS'commanders'
p1959
g0
(g1
g2
Ntp1960
Rp1961
(dp1962
g6
Nsg8
S'PERSON'
p1963
sg10
Nsg24
NsbsS'schematics'
p1964
g0
(g1
g2
Ntp1965
Rp1966
(dp1967
g6
Nsg8
S'LOCATION'
p1968
sg10
Nsg24
NsbsS'people'
p1969
g0
(g1
g2
Ntp1970
Rp1971
(dp1972
g6
g16
sg8
S'ORGANIZATION'
p1973
sg10
(dp1974
S'how'
p1975
g0
(g1
g2
Ntp1976
Rp1977
(dp1978
g6
Nsg8
S'NUMBER'
p1979
sg10
Nsg24
NsbsS'what'
p1980
g0
(g1
g2
Ntp1981
Rp1982
(dp1983
g6
Nsg8
S'OTHER'
p1984
sg10
Nsg24
NsbsS'who'
p1985
g0
(g1
g2
Ntp1986
Rp1987
(dp1988
g6
Nsg8
S'PERSON'
p1989
sg10
Nsg24
NsbsS'where'
p1990
g0
(g1
g2
Ntp1991
Rp1992
(dp1993
g6
Nsg8
S'LOCATION'
p1994
sg10
Nsg24
NsbsS'which'
p1995
g0
(g1
g2
Ntp1996
Rp1997
(dp1998
g6
Nsg8
S'PERSON'
p1999
sg10
Nsg24
Nsbssg24
NsbsS'born'
p2000
g0
(g1
g2
Ntp2001
Rp2002
(dp2003
g6
g16
sg8
S'LOCATION'
p2004
sg10
(dp2005
S'when'
p2006
g0
(g1
g2
Ntp2007
Rp2008
(dp2009
g6
Nsg8
S'DATE'
p2010
sg10
Nsg24
NsbsS'where'
p2011
g0
(g1
g2
Ntp2012
Rp2013
(dp2014
g6
Nsg8
S'LOCATION'
p2015
sg10
Nsg24
Nsbssg24
NsbsS'meters'
p2016
g0
(g1
g2
Ntp2017
Rp2018
(dp2019
g6
Nsg8
S'NUMBER'
p2020
sg10
Nsg24
NsbsS'election'
p2021
g0
(g1
g2
Ntp2022
Rp2023
(dp2024
g6
Nsg8
S'PERSON'
p2025
sg10
Nsg24
NsbsS'advertise'
p2026
g0
(g1
g2
Ntp2027
Rp2028
(dp2029
g6
Nsg8
S'ORGANIZATION'
p2030
sg10
Nsg24
NsbsS'ice'
p2031
g0
(g1
g2
Ntp2032
Rp2033
(dp2034
g6
Nsg8
S'OTHER'
p2035
sg10
Nsg24
NsbsS'espionage'
p2036
g0
(g1
g2
Ntp2037
Rp2038
(dp2039
g6
Nsg8
S'OTHER'
p2040
sg10
Nsg24
NsbsS'protagonist'
p2041
g0
(g1
g2
Ntp2042
Rp2043
(dp2044
g6
Nsg8
S'PERSON'
p2045
sg10
Nsg24
NsbsS'post'
p2046
g0
(g1
g2
Ntp2047
Rp2048
(dp2049
g6
g16
sg8
S'LOCATION'
p2050
sg10
(dp2051
S'what'
p2052
g0
(g1
g2
Ntp2053
Rp2054
(dp2055
g6
Nsg8
S'OTHER'
p2056
sg10
Nsg24
NsbsS'where'
p2057
g0
(g1
g2
Ntp2058
Rp2059
(dp2060
g6
Nsg8
g2050
sg10
Nsg24
Nsbssg24
NsbsS'trophy'
p2061
g0
(g1
g2
Ntp2062
Rp2063
(dp2064
g6
Nsg8
S'OTHER'
p2065
sg10
Nsg24
NsbsS'cowboy'
p2066
g0
(g1
g2
Ntp2067
Rp2068
(dp2069
g6
Nsg8
S'PERSON'
p2070
sg10
Nsg24
NsbsS'newspapers'
p2071
g0
(g1
g2
Ntp2072
Rp2073
(dp2074
g6
Nsg8
S'PERSON'
p2075
sg10
Nsg24
NsbsS'months'
p2076
g0
(g1
g2
Ntp2077
Rp2078
(dp2079
g6
Nsg8
S'NUMBER'
p2080
sg10
Nsg24
NsbsS'magazine'
p2081
g0
(g1
g2
Ntp2082
Rp2083
(dp2084
g6
Nsg8
S'OTHER'
p2085
sg10
Nsg24
NsbsS'islands'
p2086
g0
(g1
g2
Ntp2087
Rp2088
(dp2089
g6
g16
sg8
S'NUMBER'
p2090
sg10
(dp2091
S'how'
p2092
g0
(g1
g2
Ntp2093
Rp2094
(dp2095
g6
Nsg8
S'NUMBER'
p2096
sg10
Nsg24
NsbsS'what'
p2097
g0
(g1
g2
Ntp2098
Rp2099
(dp2100
g6
Nsg8
S'LOCATION'
p2101
sg10
Nsg24
NsbsS'who'
p2102
g0
(g1
g2
Ntp2103
Rp2104
(dp2105
g6
Nsg8
S'PERSON'
p2106
sg10
Nsg24
Nsbssg24
NsbsS'hocks'
p2107
g0
(g1
g2
Ntp2108
Rp2109
(dp2110
g6
Nsg8
S'OTHER'
p2111
sg10
Nsg24
NsbsS'facility'
p2112
g0
(g1
g2
Ntp2113
Rp2114
(dp2115
g6
Nsg8
S'OTHER'
p2116
sg10
Nsg24
NsbsS'civil'
p2117
g0
(g1
g2
Ntp2118
Rp2119
(dp2120
g6
g16
sg8
S'LOCATION'
p2121
sg10
(dp2122
S'what'
p2123
g0
(g1
g2
Ntp2124
Rp2125
(dp2126
g6
Nsg8
S'OTHER'
p2127
sg10
Nsg24
NsbsS'name'
p2128
g0
(g1
g2
Ntp2129
Rp2130
(dp2131
g6
Nsg8
g2121
sg10
Nsg24
Nsbssg24
NsbsS'profession'
p2132
g0
(g1
g2
Ntp2133
Rp2134
(dp2135
g6
Nsg8
S'PERSON'
p2136
sg10
Nsg24
NsbsS'obscene'
p2137
g0
(g1
g2
Ntp2138
Rp2139
(dp2140
g6
Nsg8
S'PERSON'
p2141
sg10
Nsg24
NsbsS'son'
p2142
g0
(g1
g2
Ntp2143
Rp2144
(dp2145
g6
Nsg8
S'PERSON'
p2146
sg10
Nsg24
NsbsS'coastal'
p2147
g0
(g1
g2
Ntp2148
Rp2149
(dp2150
g6
Nsg8
S'LOCATION'
p2151
sg10
Nsg24
NsbsS'sculptress'
p2152
g0
(g1
g2
Ntp2153
Rp2154
(dp2155
g6
Nsg8
S'PERSON'
p2156
sg10
Nsg24
NsbsS'flying'
p2157
g0
(g1
g2
Ntp2158
Rp2159
(dp2160
g6
g16
sg8
S'OTHER'
p2161
sg10
(dp2162
S'what'
p2163
g0
(g1
g2
Ntp2164
Rp2165
(dp2166
g6
Nsg8
S'LOCATION'
p2167
sg10
Nsg24
NsbsS'name'
p2168
g0
(g1
g2
Ntp2169
Rp2170
(dp2171
g6
Nsg8
g2161
sg10
Nsg24
Nsbssg24
NsbsS'approximate'
p2172
g0
(g1
g2
Ntp2173
Rp2174
(dp2175
g6
Nsg8
S'NUMBER'
p2176
sg10
Nsg24
NsbsS'sunlight'
p2177
g0
(g1
g2
Ntp2178
Rp2179
(dp2180
g6
Nsg8
S'TIME'
p2181
sg10
Nsg24
NsbsS'fought'
p2182
g0
(g1
g2
Ntp2183
Rp2184
(dp2185
g6
Nsg8
S'PERSON'
p2186
sg10
Nsg24
NsbsS'way'
p2187
g0
(g1
g2
Ntp2188
Rp2189
(dp2190
g6
g16
sg8
S'OTHER'
p2191
sg10
(dp2192
S'what'
p2193
g0
(g1
g2
Ntp2194
Rp2195
(dp2196
g6
Nsg8
S'OTHER'
p2197
sg10
Nsg24
NsbsS'which'
p2198
g0
(g1
g2
Ntp2199
Rp2200
(dp2201
g6
Nsg8
S'LOCATION'
p2202
sg10
Nsg24
Nsbssg24
NsbsS'call'
p2203
g0
(g1
g2
Ntp2204
Rp2205
(dp2206
g6
g16
sg8
S'OTHER'
p2207
sg10
(dp2208
S'what'
p2209
g0
(g1
g2
Ntp2210
Rp2211
(dp2212
g6
Nsg8
S'OTHER'
p2213
sg10
Nsg24
NsbsS'when'
p2214
g0
(g1
g2
Ntp2215
Rp2216
(dp2217
g6
Nsg8
S'PERSON'
p2218
sg10
Nsg24
Nsbssg24
NsbsS'war'
p2219
g0
(g1
g2
Ntp2220
Rp2221
(dp2222
g6
g16
sg8
S'OTHER'
p2223
sg10
(dp2224
S'what'
p2225
g0
(g1
g2
Ntp2226
Rp2227
(dp2228
g6
Nsg8
S'OTHER'
p2229
sg10
Nsg24
NsbsS'about'
p2230
g0
(g1
g2
Ntp2231
Rp2232
(dp2233
g6
Nsg8
S'NUMBER'
p2234
sg10
Nsg24
NsbsS'in'
p2235
g0
(g1
g2
Ntp2236
Rp2237
(dp2238
g6
Nsg8
S'OTHER'
p2239
sg10
Nsg24
Nsbssg24
NsbsS'head'
p2240
g0
(g1
g2
Ntp2241
Rp2242
(dp2243
g6
g16
sg8
S'PERSON'
p2244
sg10
(dp2245
S'how'
p2246
g0
(g1
g2
Ntp2247
Rp2248
(dp2249
g6
Nsg8
S'NUMBER'
p2250
sg10
Nsg24
NsbsS'who'
p2251
g0
(g1
g2
Ntp2252
Rp2253
(dp2254
g6
Nsg8
S'PERSON'
p2255
sg10
Nsg24
Nsbssg24
NsbsS'medium'
p2256
g0
(g1
g2
Ntp2257
Rp2258
(dp2259
g6
Nsg8
S'OTHER'
p2260
sg10
Nsg24
NsbsS'amateur'
p2261
g0
(g1
g2
Ntp2262
Rp2263
(dp2264
g6
Nsg8
S'OTHER'
p2265
sg10
Nsg24
NsbsS'form'
p2266
g0
(g1
g2
Ntp2267
Rp2268
(dp2269
g6
Nsg8
S'OTHER'
p2270
sg10
Nsg24
NsbsS'manufacturers'
p2271
g0
(g1
g2
Ntp2272
Rp2273
(dp2274
g6
Nsg8
S'ORGANIZATION'
p2275
sg10
Nsg24
NsbsS'needles'
p2276
g0
(g1
g2
Ntp2277
Rp2278
(dp2279
g6
Nsg8
S'OTHER'
p2280
sg10
Nsg24
NsbsS'surrender'
p2281
g0
(g1
g2
Ntp2282
Rp2283
(dp2284
g6
g16
sg8
S'LOCATION'
p2285
sg10
(dp2286
S'when'
p2287
g0
(g1
g2
Ntp2288
Rp2289
(dp2290
g6
Nsg8
S'PERSON'
p2291
sg10
Nsg24
NsbsS'where'
p2292
g0
(g1
g2
Ntp2293
Rp2294
(dp2295
g6
Nsg8
g2285
sg10
Nsg24
Nsbssg24
NsbsS'manatees'
p2296
g0
(g1
g2
Ntp2297
Rp2298
(dp2299
g6
Nsg8
S'OTHER'
p2300
sg10
Nsg24
NsbsS'duel'
p2301
g0
(g1
g2
Ntp2302
Rp2303
(dp2304
g6
Nsg8
S'PERSON'
p2305
sg10
Nsg24
NsbsS'inside'
p2306
g0
(g1
g2
Ntp2307
Rp2308
(dp2309
g6
Nsg8
S'NUMBER'
p2310
sg10
Nsg24
NsbsS'milligrams'
p2311
g0
(g1
g2
Ntp2312
Rp2313
(dp2314
g6
Nsg8
S'NUMBER'
p2315
sg10
Nsg24
NsbsS'maximum'
p2316
g0
(g1
g2
Ntp2317
Rp2318
(dp2319
g6
Nsg8
S'NUMBER'
p2320
sg10
Nsg24
NsbsS'devices'
p2321
g0
(g1
g2
Ntp2322
Rp2323
(dp2324
g6
g16
sg8
S'LOCATION'
p2325
sg10
(dp2326
S'what'
p2327
g0
(g1
g2
Ntp2328
Rp2329
(dp2330
g6
Nsg8
S'OTHER'
p2331
sg10
Nsg24
NsbsS'where'
p2332
g0
(g1
g2
Ntp2333
Rp2334
(dp2335
g6
Nsg8
g2325
sg10
Nsg24
Nsbssg24
NsbsS'sides'
p2336
g0
(g1
g2
Ntp2337
Rp2338
(dp2339
g6
Nsg8
S'NUMBER'
p2340
sg10
Nsg24
NsbsS'zodiac'
p2341
g0
(g1
g2
Ntp2342
Rp2343
(dp2344
g6
Nsg8
S'OTHER'
p2345
sg10
Nsg24
NsbsS'stages'
p2346
g0
(g1
g2
Ntp2347
Rp2348
(dp2349
g6
Nsg8
S'OTHER'
p2350
sg10
Nsg24
NsbsS'promises'
p2351
g0
(g1
g2
Ntp2352
Rp2353
(dp2354
g6
Nsg8
S'PERSON'
p2355
sg10
Nsg24
NsbsS'abstract'
p2356
g0
(g1
g2
Ntp2357
Rp2358
(dp2359
g6
Nsg8
S'PERSON'
p2360
sg10
Nsg24
NsbsS'evidence'
p2361
g0
(g1
g2
Ntp2362
Rp2363
(dp2364
g6
Nsg8
S'LOCATION'
p2365
sg10
Nsg24
NsbsS'gland'
p2366
g0
(g1
g2
Ntp2367
Rp2368
(dp2369
g6
Nsg8
S'OTHER'
p2370
sg10
Nsg24
NsbsS'prayer'
p2371
g0
(g1
g2
Ntp2372
Rp2373
(dp2374
g6
Nsg8
S'OTHER'
p2375
sg10
Nsg24
NsbsS'ship'
p2376
g0
(g1
g2
Ntp2377
Rp2378
(dp2379
g6
Nsg8
S'OTHER'
p2380
sg10
Nsg24
NsbsS'garment'
p2381
g0
(g1
g2
Ntp2382
Rp2383
(dp2384
g6
Nsg8
S'OTHER'
p2385
sg10
Nsg24
NsbsS'actor'
p2386
g0
(g1
g2
Ntp2387
Rp2388
(dp2389
g6
Nsg8
S'PERSON'
p2390
sg10
Nsg24
NsbsS'reality'
p2391
g0
(g1
g2
Ntp2392
Rp2393
(dp2394
g6
Nsg8
S'PERSON'
p2395
sg10
Nsg24
NsbsS'snakes'
p2396
g0
(g1
g2
Ntp2397
Rp2398
(dp2399
g6
Nsg8
S'OTHER'
p2400
sg10
Nsg24
NsbsS'flood'
p2401
g0
(g1
g2
Ntp2402
Rp2403
(dp2404
g6
Nsg8
S'DATE'
p2405
sg10
Nsg24
NsbsS'setting'
p2406
g0
(g1
g2
Ntp2407
Rp2408
(dp2409
g6
Nsg8
S'LOCATION'
p2410
sg10
Nsg24
NsbsS'role'
p2411
g0
(g1
g2
Ntp2412
Rp2413
(dp2414
g6
Nsg8
S'PERSON'
p2415
sg10
Nsg24
NsbsS'test'
p2416
g0
(g1
g2
Ntp2417
Rp2418
(dp2419
g6
g16
sg8
S'LOCATION'
p2420
sg10
(dp2421
S'when'
p2422
g0
(g1
g2
Ntp2423
Rp2424
(dp2425
g6
Nsg8
S'DATE'
p2426
sg10
Nsg24
NsbsS'where'
p2427
g0
(g1
g2
Ntp2428
Rp2429
(dp2430
g6
Nsg8
g2420
sg10
Nsg24
Nsbssg24
NsbsS'company'
p2431
g0
(g1
g2
Ntp2432
Rp2433
(dp2434
g6
g16
sg8
S'ORGANIZATION'
p2435
sg10
(dp2436
S'what'
p2437
g0
(g1
g2
Ntp2438
Rp2439
(dp2440
g6
Nsg8
S'ORGANIZATION'
p2441
sg10
Nsg24
NsbsS'when'
p2442
g0
(g1
g2
Ntp2443
Rp2444
(dp2445
g6
Nsg8
S'DATE'
p2446
sg10
Nsg24
NsbsS'name'
p2447
g0
(g1
g2
Ntp2448
Rp2449
(dp2450
g6
Nsg8
S'ORGANIZATION'
p2451
sg10
Nsg24
NsbsS'which'
p2452
g0
(g1
g2
Ntp2453
Rp2454
(dp2455
g6
Nsg8
S'ORGANIZATION'
p2456
sg10
Nsg24
Nsbssg24
NsbsS'pseudonym'
p2457
g0
(g1
g2
Ntp2458
Rp2459
(dp2460
g6
Nsg8
S'PERSON'
p2461
sg10
Nsg24
NsbsS'picture'
p2462
g0
(g1
g2
Ntp2463
Rp2464
(dp2465
g6
Nsg8
S'LOCATION'
p2466
sg10
Nsg24
NsbsS'brothers'
p2467
g0
(g1
g2
Ntp2468
Rp2469
(dp2470
g6
g16
sg8
S'LOCATION'
p2471
sg10
(dp2472
S'who'
p2473
g0
(g1
g2
Ntp2474
Rp2475
(dp2476
g6
Nsg8
S'PERSON'
p2477
sg10
Nsg24
NsbsS'where'
p2478
g0
(g1
g2
Ntp2479
Rp2480
(dp2481
g6
Nsg8
S'LOCATION'
p2482
sg10
Nsg24
NsbsS'name'
p2483
g0
(g1
g2
Ntp2484
Rp2485
(dp2486
g6
Nsg8
S'PERSON'
p2487
sg10
Nsg24
Nsbssg24
NsbsS'teats'
p2488
g0
(g1
g2
Ntp2489
Rp2490
(dp2491
g6
Nsg8
S'NUMBER'
p2492
sg10
Nsg24
NsbsS'football'
p2493
g0
(g1
g2
Ntp2494
Rp2495
(dp2496
g6
Nsg8
S'PERSON'
p2497
sg10
Nsg24
NsbsS'utilities'
p2498
g0
(g1
g2
Ntp2499
Rp2500
(dp2501
g6
Nsg8
S'MONEY'
p2502
sg10
Nsg24
NsbsS'glass'
p2503
g0
(g1
g2
Ntp2504
Rp2505
(dp2506
g6
g16
sg8
S'DATE'
p2507
sg10
(dp2508
S'what'
p2509
g0
(g1
g2
Ntp2510
Rp2511
(dp2512
g6
Nsg8
S'OTHER'
p2513
sg10
Nsg24
NsbsS'when'
p2514
g0
(g1
g2
Ntp2515
Rp2516
(dp2517
g6
Nsg8
g2507
sg10
Nsg24
Nsbssg24
NsbsS'fastener'
p2518
g0
(g1
g2
Ntp2519
Rp2520
(dp2521
g6
Nsg8
S'OTHER'
p2522
sg10
Nsg24
NsbsS'time'
p2523
g0
(g1
g2
Ntp2524
Rp2525
(dp2526
g6
g16
sg8
S'NUMBER'
p2527
sg10
(dp2528
S'on'
p2529
g0
(g1
g2
Ntp2530
Rp2531
(dp2532
g6
Nsg8
S'TIME'
p2533
sg10
Nsg24
NsbsS'what'
p2534
g0
(g1
g2
Ntp2535
Rp2536
(dp2537
g6
Nsg8
S'DATE'
p2538
sg10
Nsg24
NsbsS'when'
p2539
g0
(g1
g2
Ntp2540
Rp2541
(dp2542
g6
Nsg8
S'OTHER'
p2543
sg10
Nsg24
NsbsS'at'
p2544
g0
(g1
g2
Ntp2545
Rp2546
(dp2547
g6
Nsg8
S'OTHER'
p2548
sg10
Nsg24
NsbsS'how'
p2549
g0
(g1
g2
Ntp2550
Rp2551
(dp2552
g6
Nsg8
g2527
sg10
Nsg24
Nsbssg24
NsbsS'songs'
p2553
g0
(g1
g2
Ntp2554
Rp2555
(dp2556
g6
Nsg8
S'OTHER'
p2557
sg10
Nsg24
NsbsS'coach'
p2558
g0
(g1
g2
Ntp2559
Rp2560
(dp2561
g6
Nsg8
S'PERSON'
p2562
sg10
Nsg24
NsbsS'chain'
p2563
g0
(g1
g2
Ntp2564
Rp2565
(dp2566
g6
Nsg8
S'PERSON'
p2567
sg10
Nsg24
NsbsS'invent'
p2568
g0
(g1
g2
Ntp2569
Rp2570
(dp2571
g6
Nsg8
S'OTHER'
p2572
sg10
Nsg24
NsbsS'leads'
p2573
g0
(g1
g2
Ntp2574
Rp2575
(dp2576
g6
Nsg8
S'PERSON'
p2577
sg10
Nsg24
NsbsS'crocodile'
p2578
g0
(g1
g2
Ntp2579
Rp2580
(dp2581
g6
Nsg8
S'OTHER'
p2582
sg10
Nsg24
NsbsS'skin'
p2583
g0
(g1
g2
Ntp2584
Rp2585
(dp2586
g6
Nsg8
S'OTHER'
p2587
sg10
Nsg24
NsbsS'battle'
p2588
g0
(g1
g2
Ntp2589
Rp2590
(dp2591
g6
g16
sg8
S'OTHER'
p2592
sg10
(dp2593
S'what'
p2594
g0
(g1
g2
Ntp2595
Rp2596
(dp2597
g6
Nsg8
S'OTHER'
p2598
sg10
Nsg24
NsbsS'when'
p2599
g0
(g1
g2
Ntp2600
Rp2601
(dp2602
g6
Nsg8
S'DATE'
p2603
sg10
Nsg24
Nsbssg24
NsbsS'chair'
p2604
g0
(g1
g2
Ntp2605
Rp2606
(dp2607
g6
Nsg8
S'PERSON'
p2608
sg10
Nsg24
NsbsS'milk'
p2609
g0
(g1
g2
Ntp2610
Rp2611
(dp2612
g6
Nsg8
S'PERSON'
p2613
sg10
Nsg24
NsbsS'layers'
p2614
g0
(g1
g2
Ntp2615
Rp2616
(dp2617
g6
Nsg8
S'NUMBER'
p2618
sg10
Nsg24
NsbsS'ballet'
p2619
g0
(g1
g2
Ntp2620
Rp2621
(dp2622
g6
Nsg8
S'ORGANIZATION'
p2623
sg10
Nsg24
NsbsS'hump'
p2624
g0
(g1
g2
Ntp2625
Rp2626
(dp2627
g6
Nsg8
S'OTHER'
p2628
sg10
Nsg24
NsbsS'technique'
p2629
g0
(g1
g2
Ntp2630
Rp2631
(dp2632
g6
Nsg8
S'OTHER'
p2633
sg10
Nsg24
NsbsS'father'
p2634
g0
(g1
g2
Ntp2635
Rp2636
(dp2637
g6
Nsg8
S'PERSON'
p2638
sg10
Nsg24
NsbsS'terror'
p2639
g0
(g1
g2
Ntp2640
Rp2641
(dp2642
g6
Nsg8
S'OTHER'
p2643
sg10
Nsg24
NsbsS'gestation'
p2644
g0
(g1
g2
Ntp2645
Rp2646
(dp2647
g6
Nsg8
S'TIME'
p2648
sg10
Nsg24
NsbsS'entries'
p2649
g0
(g1
g2
Ntp2650
Rp2651
(dp2652
g6
Nsg8
S'PERSON'
p2653
sg10
Nsg24
NsbsS'level'
p2654
g0
(g1
g2
Ntp2655
Rp2656
(dp2657
g6
Nsg8
S'OTHER'
p2658
sg10
Nsg24
NsbsS'did'
p2659
g0
(g1
g2
Ntp2660
Rp2661
(dp2662
g6
g16
sg8
S'MONEY'
p2663
sg10
(dp2664
S'how'
p2665
g0
(g1
g2
Ntp2666
Rp2667
(dp2668
g6
Nsg8
S'MONEY'
p2669
sg10
Nsg24
NsbsS'in'
p2670
g0
(g1
g2
Ntp2671
Rp2672
(dp2673
g6
Nsg8
S'OTHER'
p2674
sg10
Nsg24
Nsbssg24
NsbsS'die'
p2675
g0
(g1
g2
Ntp2676
Rp2677
(dp2678
g6
Nsg8
S'DATE'
p2679
sg10
Nsg24
NsbsS'brother'
p2680
g0
(g1
g2
Ntp2681
Rp2682
(dp2683
g6
Nsg8
S'PERSON'
p2684
sg10
Nsg24
NsbsS'subway'
p2685
g0
(g1
g2
Ntp2686
Rp2687
(dp2688
g6
Nsg8
S'LOCATION'
p2689
sg10
Nsg24
NsbsS'team'
p2690
g0
(g1
g2
Ntp2691
Rp2692
(dp2693
g6
Nsg8
S'ORGANIZATION'
p2694
sg10
Nsg24
NsbsS'guy'
p2695
g0
(g1
g2
Ntp2696
Rp2697
(dp2698
g6
Nsg8
S'PERSON'
p2699
sg10
Nsg24
NsbsS'round'
p2700
g0
(g1
g2
Ntp2701
Rp2702
(dp2703
g6
Nsg8
S'PERSON'
p2704
sg10
Nsg24
NsbsS'tenths'
p2705
g0
(g1
g2
Ntp2706
Rp2707
(dp2708
g6
Nsg8
S'NUMBER'
p2709
sg10
Nsg24
NsbsS'revolution'
p2710
g0
(g1
g2
Ntp2711
Rp2712
(dp2713
g6
Nsg8
S'TIME'
p2714
sg10
Nsg24
NsbsS'villi'
p2715
g0
(g1
g2
Ntp2716
Rp2717
(dp2718
g6
Nsg8
S'NUMBER'
p2719
sg10
Nsg24
NsbsS'sign'
p2720
g0
(g1
g2
Ntp2721
Rp2722
(dp2723
g6
Nsg8
S'OTHER'
p2724
sg10
Nsg24
NsbsS'cost'
p2725
g0
(g1
g2
Ntp2726
Rp2727
(dp2728
g6
Nsg8
S'MONEY'
p2729
sg10
Nsg24
NsbsS'fear'
p2730
g0
(g1
g2
Ntp2731
Rp2732
(dp2733
g6
Nsg8
S'OTHER'
p2734
sg10
Nsg24
NsbsS'hymn'
p2735
g0
(g1
g2
Ntp2736
Rp2737
(dp2738
g6
Nsg8
S'OTHER'
p2739
sg10
Nsg24
NsbsS'constitution'
p2740
g0
(g1
g2
Ntp2741
Rp2742
(dp2743
g6
Nsg8
S'OTHER'
p2744
sg10
Nsg24
NsbsS'havoc'
p2745
g0
(g1
g2
Ntp2746
Rp2747
(dp2748
g6
Nsg8
S'PERSON'
p2749
sg10
Nsg24
NsbsS'uniform'
p2750
g0
(g1
g2
Ntp2751
Rp2752
(dp2753
g6
Nsg8
S'PERSON'
p2754
sg10
Nsg24
NsbsS'suspect'
p2755
g0
(g1
g2
Ntp2756
Rp2757
(dp2758
g6
Nsg8
S'PERSON'
p2759
sg10
Nsg24
NsbsS'tarantula'
p2760
g0
(g1
g2
Ntp2761
Rp2762
(dp2763
g6
Nsg8
S'OTHER'
p2764
sg10
Nsg24
NsbsS'hairy'
p2765
g0
(g1
g2
Ntp2766
Rp2767
(dp2768
g6
Nsg8
S'OTHER'
p2769
sg10
Nsg24
NsbsS'dubliners'
p2770
g0
(g1
g2
Ntp2771
Rp2772
(dp2773
g6
Nsg8
S'PERSON'
p2774
sg10
Nsg24
NsbsS'witch'
p2775
g0
(g1
g2
Ntp2776
Rp2777
(dp2778
g6
Nsg8
S'OTHER'
p2779
sg10
Nsg24
NsbsS'groups'
p2780
g0
(g1
g2
Ntp2781
Rp2782
(dp2783
g6
g16
sg8
S'ORGANIZATION'
p2784
sg10
(dp2785
S'what'
p2786
g0
(g1
g2
Ntp2787
Rp2788
(dp2789
g6
Nsg8
g2784
sg10
Nsg24
NsbsS'where'
p2790
g0
(g1
g2
Ntp2791
Rp2792
(dp2793
g6
Nsg8
S'LOCATION'
p2794
sg10
Nsg24
Nsbssg24
NsbsS'address'
p2795
g0
(g1
g2
Ntp2796
Rp2797
(dp2798
g6
Nsg8
S'LOCATION'
p2799
sg10
Nsg24
NsbsS'box'
p2800
g0
(g1
g2
Ntp2801
Rp2802
(dp2803
g6
Nsg8
S'OTHER'
p2804
sg10
Nsg24
NsbsS'boy'
p2805
g0
(g1
g2
Ntp2806
Rp2807
(dp2808
g6
Nsg8
S'PERSON'
p2809
sg10
Nsg24
NsbsS'trial'
p2810
g0
(g1
g2
Ntp2811
Rp2812
(dp2813
g6
Nsg8
S'TIME'
p2814
sg10
Nsg24
NsbsS'birthstone'
p2815
g0
(g1
g2
Ntp2816
Rp2817
(dp2818
g6
Nsg8
S'OTHER'
p2819
sg10
Nsg24
NsbsS'weird'
p2820
g0
(g1
g2
Ntp2821
Rp2822
(dp2823
g6
Nsg8
S'LOCATION'
p2824
sg10
Nsg24
NsbsS'snowboard'
p2825
g0
(g1
g2
Ntp2826
Rp2827
(dp2828
g6
Nsg8
S'LOCATION'
p2829
sg10
Nsg24
NsbsS'flavors'
p2830
g0
(g1
g2
Ntp2831
Rp2832
(dp2833
g6
Nsg8
S'NUMBER'
p2834
sg10
Nsg24
NsbsS'troops'
p2835
g0
(g1
g2
Ntp2836
Rp2837
(dp2838
g6
Nsg8
S'DATE'
p2839
sg10
Nsg24
NsbsS'visit'
p2840
g0
(g1
g2
Ntp2841
Rp2842
(dp2843
g6
Nsg8
S'DATE'
p2844
sg10
Nsg24
NsbsS'sports'
p2845
g0
(g1
g2
Ntp2846
Rp2847
(dp2848
g6
Nsg8
S'OTHER'
p2849
sg10
Nsg24
NsbsS'vineyard'
p2850
g0
(g1
g2
Ntp2851
Rp2852
(dp2853
g6
Nsg8
S'NUMBER'
p2854
sg10
Nsg24
NsbsS'live'
p2855
g0
(g1
g2
Ntp2856
Rp2857
(dp2858
g6
Nsg8
S'DATE'
p2859
sg10
Nsg24
NsbsS'films'
p2860
g0
(g1
g2
Ntp2861
Rp2862
(dp2863
g6
g16
sg8
S'PERSON'
p2864
sg10
(dp2865
S'how'
p2866
g0
(g1
g2
Ntp2867
Rp2868
(dp2869
g6
Nsg8
S'NUMBER'
p2870
sg10
Nsg24
NsbsS'what'
p2871
g0
(g1
g2
Ntp2872
Rp2873
(dp2874
g6
Nsg8
S'OTHER'
p2875
sg10
Nsg24
NsbsS'who'
p2876
g0
(g1
g2
Ntp2877
Rp2878
(dp2879
g6
Nsg8
S'PERSON'
p2880
sg10
Nsg24
Nsbssg24
NsbsS'sonnets'
p2881
g0
(g1
g2
Ntp2882
Rp2883
(dp2884
g6
Nsg8
S'NUMBER'
p2885
sg10
Nsg24
NsbsS'chapter'
p2886
g0
(g1
g2
Ntp2887
Rp2888
(dp2889
g6
Nsg8
S'NUMBER'
p2890
sg10
Nsg24
NsbsS'conductor'
p2891
g0
(g1
g2
Ntp2892
Rp2893
(dp2894
g6
Nsg8
S'PERSON'
p2895
sg10
Nsg24
NsbsS'club'
p2896
g0
(g1
g2
Ntp2897
Rp2898
(dp2899
g6
Nsg8
S'OTHER'
p2900
sg10
Nsg24
NsbsS'refrain'
p2901
g0
(g1
g2
Ntp2902
Rp2903
(dp2904
g6
Nsg8
S'OTHER'
p2905
sg10
Nsg24
NsbsS'polyorchid'
p2906
g0
(g1
g2
Ntp2907
Rp2908
(dp2909
g6
Nsg8
S'OTHER'
p2910
sg10
Nsg24
NsbsS'mascot'
p2911
g0
(g1
g2
Ntp2912
Rp2913
(dp2914
g6
Nsg8
S'OTHER'
p2915
sg10
Nsg24
NsbsS'car'
p2916
g0
(g1
g2
Ntp2917
Rp2918
(dp2919
g6
g16
sg8
S'OTHER'
p2920
sg10
(dp2921
S'how'
p2922
g0
(g1
g2
Ntp2923
Rp2924
(dp2925
g6
Nsg8
S'NUMBER'
p2926
sg10
Nsg24
NsbsS'what'
p2927
g0
(g1
g2
Ntp2928
Rp2929
(dp2930
g6
Nsg8
S'OTHER'
p2931
sg10
Nsg24
NsbsS'who'
p2932
g0
(g1
g2
Ntp2933
Rp2934
(dp2935
g6
Nsg8
S'PERSON'
p2936
sg10
Nsg24
NsbsS'which'
p2937
g0
(g1
g2
Ntp2938
Rp2939
(dp2940
g6
Nsg8
S'ORGANIZATION'
p2941
sg10
Nsg24
Nsbssg24
NsbsS'hardest'
p2942
g0
(g1
g2
Ntp2943
Rp2944
(dp2945
g6
Nsg8
S'OTHER'
p2946
sg10
Nsg24
NsbsS'dollars'
p2947
g0
(g1
g2
Ntp2948
Rp2949
(dp2950
g6
Nsg8
S'NUMBER'
p2951
sg10
Nsg24
NsbsS'spy'
p2952
g0
(g1
g2
Ntp2953
Rp2954
(dp2955
g6
Nsg8
S'PERSON'
p2956
sg10
Nsg24
NsbsS'figure'
p2957
g0
(g1
g2
Ntp2958
Rp2959
(dp2960
g6
Nsg8
S'PERSON'
p2961
sg10
Nsg24
NsbsS'permutations'
p2962
g0
(g1
g2
Ntp2963
Rp2964
(dp2965
g6
Nsg8
S'NUMBER'
p2966
sg10
Nsg24
NsbsS'teaspoons'
p2967
g0
(g1
g2
Ntp2968
Rp2969
(dp2970
g6
Nsg8
S'NUMBER'
p2971
sg10
Nsg24
NsbsS'winter'
p2972
g0
(g1
g2
Ntp2973
Rp2974
(dp2975
g6
Nsg8
S'DATE'
p2976
sg10
Nsg24
NsbsS'write'
p2977
g0
(g1
g2
Ntp2978
Rp2979
(dp2980
g6
g16
sg8
S'OTHER'
p2981
sg10
(dp2982
S'what'
p2983
g0
(g1
g2
Ntp2984
Rp2985
(dp2986
g6
Nsg8
S'OTHER'
p2987
sg10
Nsg24
NsbsS'when'
p2988
g0
(g1
g2
Ntp2989
Rp2990
(dp2991
g6
Nsg8
S'DATE'
p2992
sg10
Nsg24
Nsbssg24
NsbsS'sword'
p2993
g0
(g1
g2
Ntp2994
Rp2995
(dp2996
g6
Nsg8
S'OTHER'
p2997
sg10
Nsg24
NsbsS'pins'
p2998
g0
(g1
g2
Ntp2999
Rp3000
(dp3001
g6
Nsg8
S'NUMBER'
p3002
sg10
Nsg24
NsbsS'map'
p3003
g0
(g1
g2
Ntp3004
Rp3005
(dp3006
g6
Nsg8
S'LOCATION'
p3007
sg10
Nsg24
NsbsS'product'
p3008
g0
(g1
g2
Ntp3009
Rp3010
(dp3011
g6
Nsg8
S'OTHER'
p3012
sg10
Nsg24
NsbsS'designer'
p3013
g0
(g1
g2
Ntp3014
Rp3015
(dp3016
g6
Nsg8
S'PERSON'
p3017
sg10
Nsg24
NsbsS'explorer'
p3018
g0
(g1
g2
Ntp3019
Rp3020
(dp3021
g6
Nsg8
S'PERSON'
p3022
sg10
Nsg24
NsbsS'cocktail'
p3023
g0
(g1
g2
Ntp3024
Rp3025
(dp3026
g6
Nsg8
S'OTHER'
p3027
sg10
Nsg24
NsbsS'fascist'
p3028
g0
(g1
g2
Ntp3029
Rp3030
(dp3031
g6
Nsg8
S'ORGANIZATION'
p3032
sg10
Nsg24
NsbsS'clone'
p3033
g0
(g1
g2
Ntp3034
Rp3035
(dp3036
g6
Nsg8
S'OTHER'
p3037
sg10
Nsg24
NsbsS'rites'
p3038
g0
(g1
g2
Ntp3039
Rp3040
(dp3041
g6
Nsg8
S'OTHER'
p3042
sg10
Nsg24
NsbsS'accessory'
p3043
g0
(g1
g2
Ntp3044
Rp3045
(dp3046
g6
Nsg8
S'OTHER'
p3047
sg10
Nsg24
NsbsS'conjugations'
p3048
g0
(g1
g2
Ntp3049
Rp3050
(dp3051
g6
Nsg8
S'OTHER'
p3052
sg10
Nsg24
NsbsS'birthday'
p3053
g0
(g1
g2
Ntp3054
Rp3055
(dp3056
g6
Nsg8
S'DATE'
p3057
sg10
Nsg24
NsbsS'date'
p3058
g0
(g1
g2
Ntp3059
Rp3060
(dp3061
g6
Nsg8
S'DATE'
p3062
sg10
Nsg24
NsbsS'end'
p3063
g0
(g1
g2
Ntp3064
Rp3065
(dp3066
g6
Nsg8
S'DATE'
p3067
sg10
Nsg24
NsbsS'data'
p3068
g0
(g1
g2
Ntp3069
Rp3070
(dp3071
g6
g16
sg8
S'LOCATION'
p3072
sg10
(dp3073
S'who'
p3074
g0
(g1
g2
Ntp3075
Rp3076
(dp3077
g6
Nsg8
S'PERSON'
p3078
sg10
Nsg24
NsbsS'where'
p3079
g0
(g1
g2
Ntp3080
Rp3081
(dp3082
g6
Nsg8
g3072
sg10
Nsg24
Nsbssg24
NsbsS'eighth'
p3083
g0
(g1
g2
Ntp3084
Rp3085
(dp3086
g6
Nsg8
S'OTHER'
p3087
sg10
Nsg24
NsbsS'man'
p3088
g0
(g1
g2
Ntp3089
Rp3090
(dp3091
g6
g16
sg8
S'OTHER'
p3092
sg10
(dp3093
S'how'
p3094
g0
(g1
g2
Ntp3095
Rp3096
(dp3097
g6
Nsg8
S'NUMBER'
p3098
sg10
Nsg24
NsbsS'what'
p3099
g0
(g1
g2
Ntp3100
Rp3101
(dp3102
g6
Nsg8
S'OTHER'
p3103
sg10
Nsg24
NsbsS'who'
p3104
g0
(g1
g2
Ntp3105
Rp3106
(dp3107
g6
Nsg8
S'PERSON'
p3108
sg10
Nsg24
Nsbssg24
NsbsS'noun'
p3109
g0
(g1
g2
Ntp3110
Rp3111
(dp3112
g6
Nsg8
S'OTHER'
p3113
sg10
Nsg24
NsbsS'varieties'
p3114
g0
(g1
g2
Ntp3115
Rp3116
(dp3117
g6
Nsg8
S'NUMBER'
p3118
sg10
Nsg24
NsbsS'commodity'
p3119
g0
(g1
g2
Ntp3120
Rp3121
(dp3122
g6
Nsg8
S'OTHER'
p3123
sg10
Nsg24
NsbsS'tale'
p3124
g0
(g1
g2
Ntp3125
Rp3126
(dp3127
g6
Nsg8
S'OTHER'
p3128
sg10
Nsg24
NsbsS'no.'
p3129
g0
(g1
g2
Ntp3130
Rp3131
(dp3132
g6
Nsg8
S'OTHER'
p3133
sg10
Nsg24
NsbsS'joins'
p3134
g0
(g1
g2
Ntp3135
Rp3136
(dp3137
g6
Nsg8
S'OTHER'
p3138
sg10
Nsg24
NsbsS'freckles'
p3139
g0
(g1
g2
Ntp3140
Rp3141
(dp3142
g6
Nsg8
S'NUMBER'
p3143
sg10
Nsg24
NsbsS'years'
p3144
g0
(g1
g2
Ntp3145
Rp3146
(dp3147
g6
g16
sg8
S'PERSON'
p3148
sg10
(dp3149
S'how'
p3150
g0
(g1
g2
Ntp3151
Rp3152
(dp3153
g6
Nsg8
S'NUMBER'
p3154
sg10
Nsg24
NsbsS'what'
p3155
g0
(g1
g2
Ntp3156
Rp3157
(dp3158
g6
Nsg8
S'PERSON'
p3159
sg10
Nsg24
NsbsS'in'
p3160
g0
(g1
g2
Ntp3161
Rp3162
(dp3163
g6
Nsg8
S'PERSON'
p3164
sg10
Nsg24
Nsbssg24
NsbsS'birds'
p3165
g0
(g1
g2
Ntp3166
Rp3167
(dp3168
g6
Nsg8
S'OTHER'
p3169
sg10
Nsg24
NsbsS'self-portrait'
p3170
g0
(g1
g2
Ntp3171
Rp3172
(dp3173
g6
Nsg8
S'PERSON'
p3174
sg10
Nsg24
NsbsS'police'
p3175
g0
(g1
g2
Ntp3176
Rp3177
(dp3178
g6
Nsg8
S'ORGANIZATION'
p3179
sg10
Nsg24
NsbsS'forms'
p3180
g0
(g1
g2
Ntp3181
Rp3182
(dp3183
g6
Nsg8
S'OTHER'
p3184
sg10
Nsg24
NsbsS'constitutes'
p3185
g0
(g1
g2
Ntp3186
Rp3187
(dp3188
g6
Nsg8
S'OTHER'
p3189
sg10
Nsg24
NsbsS'listing'
p3190
g0
(g1
g2
Ntp3191
Rp3192
(dp3193
g6
Nsg8
S'LOCATION'
p3194
sg10
Nsg24
NsbsS'killer'
p3195
g0
(g1
g2
Ntp3196
Rp3197
(dp3198
g6
Nsg8
S'OTHER'
p3199
sg10
Nsg24
NsbsS'nation'
p3200
g0
(g1
g2
Ntp3201
Rp3202
(dp3203
g6
g16
sg8
S'LOCATION'
p3204
sg10
(dp3205
S'how'
p3206
g0
(g1
g2
Ntp3207
Rp3208
(dp3209
g6
Nsg8
S'NUMBER'
p3210
sg10
Nsg24
NsbsS'what'
p3211
g0
(g1
g2
Ntp3212
Rp3213
(dp3214
g6
Nsg8
S'LOCATION'
p3215
sg10
Nsg24
NsbsS'in'
p3216
g0
(g1
g2
Ntp3217
Rp3218
(dp3219
g6
Nsg8
S'LOCATION'
p3220
sg10
Nsg24
Nsbssg24
NsbsS'records'
p3221
g0
(g1
g2
Ntp3222
Rp3223
(dp3224
g6
Nsg8
S'NUMBER'
p3225
sg10
Nsg24
NsbsS'litmus'
p3226
g0
(g1
g2
Ntp3227
Rp3228
(dp3229
g6
Nsg8
S'OTHER'
p3230
sg10
Nsg24
NsbsS'term'
p3231
g0
(g1
g2
Ntp3232
Rp3233
(dp3234
g6
g16
sg8
S'OTHER'
p3235
sg10
(dp3236
S'what'
p3237
g0
(g1
g2
Ntp3238
Rp3239
(dp3240
g6
Nsg8
S'OTHER'
p3241
sg10
Nsg24
NsbsS'who'
p3242
g0
(g1
g2
Ntp3243
Rp3244
(dp3245
g6
Nsg8
S'PERSON'
p3246
sg10
Nsg24
Nsbssg24
NsbsS'attorneys'
p3247
g0
(g1
g2
Ntp3248
Rp3249
(dp3250
g6
Nsg8
S'PERSON'
p3251
sg10
Nsg24
NsbsS'name'
p3252
g0
(g1
g2
Ntp3253
Rp3254
(dp3255
g6
g16
sg8
S'PERSON'
p3256
sg10
(dp3257
S'mississippi'
p3258
g0
(g1
g2
Ntp3259
Rp3260
(dp3261
g6
Nsg8
S'LOCATION'
p3262
sg10
Nsg24
NsbsS'who'
p3263
g0
(g1
g2
Ntp3264
Rp3265
(dp3266
g6
Nsg8
S'PERSON'
p3267
sg10
Nsg24
NsbsS'when'
p3268
g0
(g1
g2
Ntp3269
Rp3270
(dp3271
g6
Nsg8
S'PERSON'
p3272
sg10
Nsg24
NsbsS'what'
p3273
g0
(g1
g2
Ntp3274
Rp3275
(dp3276
g6
Nsg8
S'OTHER'
p3277
sg10
Nsg24
NsbsS'in'
p3278
g0
(g1
g2
Ntp3279
Rp3280
(dp3281
g6
Nsg8
S'LOCATION'
p3282
sg10
Nsg24
NsbsS'the'
p3283
g0
(g1
g2
Ntp3284
Rp3285
(dp3286
g6
Nsg8
S'PERSON'
p3287
sg10
Nsg24
NsbsS'where'
p3288
g0
(g1
g2
Ntp3289
Rp3290
(dp3291
g6
Nsg8
S'LOCATION'
p3292
sg10
Nsg24
NsbsS'aspartame'
p3293
g0
(g1
g2
Ntp3294
Rp3295
(dp3296
g6
Nsg8
S'OTHER'
p3297
sg10
Nsg24
Nsbssg24
NsbsS'opera'
p3298
g0
(g1
g2
Ntp3299
Rp3300
(dp3301
g6
g16
sg8
S'OTHER'
p3302
sg10
(dp3303
S'what'
p3304
g0
(g1
g2
Ntp3305
Rp3306
(dp3307
g6
Nsg8
S'OTHER'
p3308
sg10
Nsg24
NsbsS'where'
p3309
g0
(g1
g2
Ntp3310
Rp3311
(dp3312
g6
Nsg8
S'LOCATION'
p3313
sg10
Nsg24
Nsbssg24
NsbsS'corners'
p3314
g0
(g1
g2
Ntp3315
Rp3316
(dp3317
g6
Nsg8
S'NUMBER'
p3318
sg10
Nsg24
NsbsS'rock'
p3319
g0
(g1
g2
Ntp3320
Rp3321
(dp3322
g6
g16
sg8
S'LOCATION'
p3323
sg10
(dp3324
S'what'
p3325
g0
(g1
g2
Ntp3326
Rp3327
(dp3328
g6
Nsg8
S'ORGANIZATION'
p3329
sg10
Nsg24
NsbsS'where'
p3330
g0
(g1
g2
Ntp3331
Rp3332
(dp3333
g6
Nsg8
g3323
sg10
Nsg24
NsbsS'which'
p3334
g0
(g1
g2
Ntp3335
Rp3336
(dp3337
g6
Nsg8
S'PERSON'
p3338
sg10
Nsg24
Nsbssg24
NsbsS'concerts'
p3339
g0
(g1
g2
Ntp3340
Rp3341
(dp3342
g6
Nsg8
S'OTHER'
p3343
sg10
Nsg24
NsbsS'ailment'
p3344
g0
(g1
g2
Ntp3345
Rp3346
(dp3347
g6
Nsg8
S'OTHER'
p3348
sg10
Nsg24
NsbsS'elephants'
p3349
g0
(g1
g2
Ntp3350
Rp3351
(dp3352
g6
Nsg8
S'NUMBER'
p3353
sg10
Nsg24
NsbsS'fires'
p3354
g0
(g1
g2
Ntp3355
Rp3356
(dp3357
g6
Nsg8
S'OTHER'
p3358
sg10
Nsg24
NsbsS'year'
p3359
g0
(g1
g2
Ntp3360
Rp3361
(dp3362
g6
g16
sg8
S'DATE'
p3363
sg10
(dp3364
S'cnn'
p3365
g0
(g1
g2
Ntp3366
Rp3367
(dp3368
g6
Nsg8
S'DATE'
p3369
sg10
Nsg24
NsbsS'how'
p3370
g0
(g1
g2
Ntp3371
Rp3372
(dp3373
g6
Nsg8
S'NUMBER'
p3374
sg10
Nsg24
NsbsS'what'
p3375
g0
(g1
g2
Ntp3376
Rp3377
(dp3378
g6
Nsg8
S'DATE'
p3379
sg10
Nsg24
NsbsS'the'
p3380
g0
(g1
g2
Ntp3381
Rp3382
(dp3383
g6
Nsg8
S'DATE'
p3384
sg10
Nsg24
NsbsS'in'
p3385
g0
(g1
g2
Ntp3386
Rp3387
(dp3388
g6
Nsg8
S'DATE'
p3389
sg10
Nsg24
Nsbssg24
NsbsS'girl'
p3390
g0
(g1
g2
Ntp3391
Rp3392
(dp3393
g6
Nsg8
S'PERSON'
p3394
sg10
Nsg24
NsbsS'album'
p3395
g0
(g1
g2
Ntp3396
Rp3397
(dp3398
g6
Nsg8
S'OTHER'
p3399
sg10
Nsg24
NsbsS'living'
p3400
g0
(g1
g2
Ntp3401
Rp3402
(dp3403
g6
Nsg8
S'PERSON'
p3404
sg10
Nsg24
NsbsS'intercourse'
p3405
g0
(g1
g2
Ntp3406
Rp3407
(dp3408
g6
Nsg8
S'TIME'
p3409
sg10
Nsg24
NsbsS'space'
p3410
g0
(g1
g2
Ntp3411
Rp3412
(dp3413
g6
Nsg8
S'PERSON'
p3414
sg10
Nsg24
NsbsS'looking'
p3415
g0
(g1
g2
Ntp3416
Rp3417
(dp3418
g6
Nsg8
S'OTHER'
p3419
sg10
Nsg24
NsbsS'opener'
p3420
g0
(g1
g2
Ntp3421
Rp3422
(dp3423
g6
Nsg8
S'PERSON'
p3424
sg10
Nsg24
NsbsS'formula'
p3425
g0
(g1
g2
Ntp3426
Rp3427
(dp3428
g6
Nsg8
S'OTHER'
p3429
sg10
Nsg24
NsbsS'squares'
p3430
g0
(g1
g2
Ntp3431
Rp3432
(dp3433
g6
Nsg8
S'NUMBER'
p3434
sg10
Nsg24
NsbsS'correct'
p3435
g0
(g1
g2
Ntp3436
Rp3437
(dp3438
g6
Nsg8
S'OTHER'
p3439
sg10
Nsg24
NsbsS'maneuver'
p3440
g0
(g1
g2
Ntp3441
Rp3442
(dp3443
g6
g16
sg8
S'OTHER'
p3444
sg10
(dp3445
S'what'
p3446
g0
(g1
g2
Ntp3447
Rp3448
(dp3449
g6
Nsg8
g3444
sg10
Nsg24
NsbsS'who'
p3450
g0
(g1
g2
Ntp3451
Rp3452
(dp3453
g6
Nsg8
S'PERSON'
p3454
sg10
Nsg24
Nsbssg24
NsbsS'theory'
p3455
g0
(g1
g2
Ntp3456
Rp3457
(dp3458
g6
Nsg8
S'PERSON'
p3459
sg10
Nsg24
NsbsS'cars'
p3460
g0
(g1
g2
Ntp3461
Rp3462
(dp3463
g6
g16
sg8
S'ORGANIZATION'
p3464
sg10
(dp3465
S'who'
p3466
g0
(g1
g2
Ntp3467
Rp3468
(dp3469
g6
Nsg8
g3464
sg10
Nsg24
NsbsS'where'
p3470
g0
(g1
g2
Ntp3471
Rp3472
(dp3473
g6
Nsg8
S'LOCATION'
p3474
sg10
Nsg24
Nsbssg24
NsbsS'seventh'
p3475
g0
(g1
g2
Ntp3476
Rp3477
(dp3478
g6
Nsg8
S'OTHER'
p3479
sg10
Nsg24
NsbsS'quart'
p3480
g0
(g1
g2
Ntp3481
Rp3482
(dp3483
g6
Nsg8
S'NUMBER'
p3484
sg10
Nsg24
NsbsS'rows'
p3485
g0
(g1
g2
Ntp3486
Rp3487
(dp3488
g6
Nsg8
S'NUMBER'
p3489
sg10
Nsg24
NsbsS'plea'
p3490
g0
(g1
g2
Ntp3491
Rp3492
(dp3493
g6
Nsg8
S'PERSON'
p3494
sg10
Nsg24
NsbsS'poems'
p3495
g0
(g1
g2
Ntp3496
Rp3497
(dp3498
g6
Nsg8
S'PERSON'
p3499
sg10
Nsg24
NsbsS'explorers'
p3500
g0
(g1
g2
Ntp3501
Rp3502
(dp3503
g6
Nsg8
S'PERSON'
p3504
sg10
Nsg24
NsbsS'card'
p3505
g0
(g1
g2
Ntp3506
Rp3507
(dp3508
g6
Nsg8
S'OTHER'
p3509
sg10
Nsg24
NsbsS'care'
p3510
g0
(g1
g2
Ntp3511
Rp3512
(dp3513
g6
Nsg8
S'OTHER'
p3514
sg10
Nsg24
NsbsS'watts'
p3515
g0
(g1
g2
Ntp3516
Rp3517
(dp3518
g6
Nsg8
S'NUMBER'
p3519
sg10
Nsg24
NsbsS'language'
p3520
g0
(g1
g2
Ntp3521
Rp3522
(dp3523
g6
Nsg8
S'OTHER'
p3524
sg10
Nsg24
NsbsS'calories'
p3525
g0
(g1
g2
Ntp3526
Rp3527
(dp3528
g6
Nsg8
S'NUMBER'
p3529
sg10
Nsg24
NsbsS'thing'
p3530
g0
(g1
g2
Ntp3531
Rp3532
(dp3533
g6
g16
sg8
S'LOCATION'
p3534
sg10
(dp3535
S'what'
p3536
g0
(g1
g2
Ntp3537
Rp3538
(dp3539
g6
Nsg8
S'OTHER'
p3540
sg10
Nsg24
NsbsS'who'
p3541
g0
(g1
g2
Ntp3542
Rp3543
(dp3544
g6
Nsg8
S'PERSON'
p3545
sg10
Nsg24
NsbsS'where'
p3546
g0
(g1
g2
Ntp3547
Rp3548
(dp3549
g6
Nsg8
g3534
sg10
Nsg24
Nsbssg24
NsbsS'place'
p3550
g0
(g1
g2
Ntp3551
Rp3552
(dp3553
g6
Nsg8
S'LOCATION'
p3554
sg10
Nsg24
NsbsS'frequent'
p3555
g0
(g1
g2
Ntp3556
Rp3557
(dp3558
g6
Nsg8
S'ORGANIZATION'
p3559
sg10
Nsg24
NsbsS'tennis'
p3560
g0
(g1
g2
Ntp3561
Rp3562
(dp3563
g6
g16
sg8
S'PERSON'
p3564
sg10
(dp3565
S'what'
p3566
g0
(g1
g2
Ntp3567
Rp3568
(dp3569
g6
Nsg8
S'OTHER'
p3570
sg10
Nsg24
NsbsS'where'
p3571
g0
(g1
g2
Ntp3572
Rp3573
(dp3574
g6
Nsg8
S'LOCATION'
p3575
sg10
Nsg24
Nsbssg24
NsbsS'message'
p3576
g0
(g1
g2
Ntp3577
Rp3578
(dp3579
g6
Nsg8
S'PERSON'
p3580
sg10
Nsg24
NsbsS'engineer'
p3581
g0
(g1
g2
Ntp3582
Rp3583
(dp3584
g6
Nsg8
S'PERSON'
p3585
sg10
Nsg24
NsbsS'city'
p3586
g0
(g1
g2
Ntp3587
Rp3588
(dp3589
g6
g16
sg8
S'LOCATION'
p3590
sg10
(dp3591
S'what'
p3592
g0
(g1
g2
Ntp3593
Rp3594
(dp3595
g6
Nsg8
S'LOCATION'
p3596
sg10
Nsg24
NsbsS'how'
p3597
g0
(g1
g2
Ntp3598
Rp3599
(dp3600
g6
Nsg8
S'NUMBER'
p3601
sg10
Nsg24
NsbsS'which'
p3602
g0
(g1
g2
Ntp3603
Rp3604
(dp3605
g6
Nsg8
S'LOCATION'
p3606
sg10
Nsg24
NsbsS'in'
p3607
g0
(g1
g2
Ntp3608
Rp3609
(dp3610
g6
Nsg8
S'LOCATION'
p3611
sg10
Nsg24
NsbsS'mccarren'
p3612
g0
(g1
g2
Ntp3613
Rp3614
(dp3615
g6
Nsg8
S'LOCATION'
p3616
sg10
Nsg24
NsbsS'the'
p3617
g0
(g1
g2
Ntp3618
Rp3619
(dp3620
g6
Nsg8
S'LOCATION'
p3621
sg10
Nsg24
NsbsS'tell'
p3622
g0
(g1
g2
Ntp3623
Rp3624
(dp3625
g6
Nsg8
S'LOCATION'
p3626
sg10
Nsg24
Nsbssg24
NsbsS'silent'
p3627
g0
(g1
g2
Ntp3628
Rp3629
(dp3630
g6
Nsg8
S'OTHER'
p3631
sg10
Nsg24
NsbsS'draft'
p3632
g0
(g1
g2
Ntp3633
Rp3634
(dp3635
g6
Nsg8
S'LOCATION'
p3636
sg10
Nsg24
NsbsS'bounty'
p3637
g0
(g1
g2
Ntp3638
Rp3639
(dp3640
g6
Nsg8
S'PERSON'
p3641
sg10
Nsg24
NsbsS'friend'
p3642
g0
(g1
g2
Ntp3643
Rp3644
(dp3645
g6
Nsg8
S'PERSON'
p3646
sg10
Nsg24
NsbsS'eyes'
p3647
g0
(g1
g2
Ntp3648
Rp3649
(dp3650
g6
g16
sg8
S'NUMBER'
p3651
sg10
(dp3652
S'how'
p3653
g0
(g1
g2
Ntp3654
Rp3655
(dp3656
g6
Nsg8
S'NUMBER'
p3657
sg10
Nsg24
NsbsS'what'
p3658
g0
(g1
g2
Ntp3659
Rp3660
(dp3661
g6
Nsg8
S'OTHER'
p3662
sg10
Nsg24
Nsbssg24
NsbsS'fraction'
p3663
g0
(g1
g2
Ntp3664
Rp3665
(dp3666
g6
Nsg8
S'PERCENT'
p3667
sg10
Nsg24
NsbsS'season'
p3668
g0
(g1
g2
Ntp3669
Rp3670
(dp3671
g6
Nsg8
S'DATE'
p3672
sg10
Nsg24
NsbsS'broadcast'
p3673
g0
(g1
g2
Ntp3674
Rp3675
(dp3676
g6
Nsg8
S'DATE'
p3677
sg10
Nsg24
NsbsS'flowers'
p3678
g0
(g1
g2
Ntp3679
Rp3680
(dp3681
g6
Nsg8
S'OTHER'
p3682
sg10
Nsg24
NsbsS'inventor'
p3683
g0
(g1
g2
Ntp3684
Rp3685
(dp3686
g6
Nsg8
S'PERSON'
p3687
sg10
Nsg24
NsbsS'wide'
p3688
g0
(g1
g2
Ntp3689
Rp3690
(dp3691
g6
Nsg8
S'LOCATION'
p3692
sg10
Nsg24
NsbsS'television'
p3693
g0
(g1
g2
Ntp3694
Rp3695
(dp3696
g6
g16
sg8
S'PERSON'
p3697
sg10
(dp3698
S'what'
p3699
g0
(g1
g2
Ntp3700
Rp3701
(dp3702
g6
Nsg8
S'OTHER'
p3703
sg10
Nsg24
NsbsS'who'
p3704
g0
(g1
g2
Ntp3705
Rp3706
(dp3707
g6
Nsg8
S'PERSON'
p3708
sg10
Nsg24
Nsbssg24
NsbsS'cards'
p3709
g0
(g1
g2
Ntp3710
Rp3711
(dp3712
g6
g16
sg8
S'NUMBER'
p3713
sg10
(dp3714
S'how'
p3715
g0
(g1
g2
Ntp3716
Rp3717
(dp3718
g6
Nsg8
S'NUMBER'
p3719
sg10
Nsg24
NsbsS'what'
p3720
g0
(g1
g2
Ntp3721
Rp3722
(dp3723
g6
Nsg8
S'OTHER'
p3724
sg10
Nsg24
Nsbssg24
NsbsS'surname'
p3725
g0
(g1
g2
Ntp3726
Rp3727
(dp3728
g6
Nsg8
S'PERSON'
p3729
sg10
Nsg24
NsbsS'pro'
p3730
g0
(g1
g2
Ntp3731
Rp3732
(dp3733
g6
Nsg8
S'PERSON'
p3734
sg10
Nsg24
NsbsS'premier'
p3735
g0
(g1
g2
Ntp3736
Rp3737
(dp3738
g6
Nsg8
S'PERSON'
p3739
sg10
Nsg24
NsbsS'marijuana'
p3740
g0
(g1
g2
Ntp3741
Rp3742
(dp3743
g6
Nsg8
S'LOCATION'
p3744
sg10
Nsg24
NsbsS'voices'
p3745
g0
(g1
g2
Ntp3746
Rp3747
(dp3748
g6
Nsg8
S'PERSON'
p3749
sg10
Nsg24
NsbsS'tastes'
p3750
g0
(g1
g2
Ntp3751
Rp3752
(dp3753
g6
Nsg8
S'OTHER'
p3754
sg10
Nsg24
NsbsS'rent'
p3755
g0
(g1
g2
Ntp3756
Rp3757
(dp3758
g6
Nsg8
S'PERSON'
p3759
sg10
Nsg24
NsbsS'horsepower'
p3760
g0
(g1
g2
Ntp3761
Rp3762
(dp3763
g6
Nsg8
S'NUMBER'
p3764
sg10
Nsg24
NsbsS'breakfast'
p3765
g0
(g1
g2
Ntp3766
Rp3767
(dp3768
g6
Nsg8
S'OTHER'
p3769
sg10
Nsg24
NsbsS'zoo'
p3770
g0
(g1
g2
Ntp3771
Rp3772
(dp3773
g6
Nsg8
S'LOCATION'
p3774
sg10
Nsg24
NsbsS'take'
p3775
g0
(g1
g2
Ntp3776
Rp3777
(dp3778
g6
Nsg8
S'LOCATION'
p3779
sg10
Nsg24
NsbsS'online'
p3780
g0
(g1
g2
Ntp3781
Rp3782
(dp3783
g6
Nsg8
S'LOCATION'
p3784
sg10
Nsg24
NsbsS'grammys'
p3785
g0
(g1
g2
Ntp3786
Rp3787
(dp3788
g6
Nsg8
S'NUMBER'
p3789
sg10
Nsg24
NsbsS'begin'
p3790
g0
(g1
g2
Ntp3791
Rp3792
(dp3793
g6
g16
sg8
S'OTHER'
p3794
sg10
(dp3795
S'when'
p3796
g0
(g1
g2
Ntp3797
Rp3798
(dp3799
g6
Nsg8
S'DATE'
p3800
sg10
Nsg24
NsbsS'what'
p3801
g0
(g1
g2
Ntp3802
Rp3803
(dp3804
g6
Nsg8
g3794
sg10
Nsg24
NsbsS'where'
p3805
g0
(g1
g2
Ntp3806
Rp3807
(dp3808
g6
Nsg8
S'LOCATION'
p3809
sg10
Nsg24
Nsbssg24
NsbsS'price'
p3810
g0
(g1
g2
Ntp3811
Rp3812
(dp3813
g6
Nsg8
S'MONEY'
p3814
sg10
Nsg24
NsbsS'visitors'
p3815
g0
(g1
g2
Ntp3816
Rp3817
(dp3818
g6
Nsg8
S'NUMBER'
p3819
sg10
Nsg24
NsbsS'synonym'
p3820
g0
(g1
g2
Ntp3821
Rp3822
(dp3823
g6
Nsg8
S'OTHER'
p3824
sg10
Nsg24
NsbsS'salt'
p3825
g0
(g1
g2
Ntp3826
Rp3827
(dp3828
g6
Nsg8
S'NUMBER'
p3829
sg10
Nsg24
NsbsS'quantity'
p3830
g0
(g1
g2
Ntp3831
Rp3832
(dp3833
g6
Nsg8
S'NUMBER'
p3834
sg10
Nsg24
NsbsS'show'
p3835
g0
(g1
g2
Ntp3836
Rp3837
(dp3838
g6
g16
sg8
S'DATE'
p3839
sg10
(dp3840
S'how'
p3841
g0
(g1
g2
Ntp3842
Rp3843
(dp3844
g6
Nsg8
S'TIME'
p3845
sg10
Nsg24
NsbsS'what'
p3846
g0
(g1
g2
Ntp3847
Rp3848
(dp3849
g6
Nsg8
S'PERSON'
p3850
sg10
Nsg24
NsbsS'who'
p3851
g0
(g1
g2
Ntp3852
Rp3853
(dp3854
g6
Nsg8
S'PERSON'
p3855
sg10
Nsg24
NsbsS'when'
p3856
g0
(g1
g2
Ntp3857
Rp3858
(dp3859
g6
Nsg8
g3839
sg10
Nsg24
Nsbssg24
NsbsS'recipe'
p3860
g0
(g1
g2
Ntp3861
Rp3862
(dp3863
g6
Nsg8
S'OTHER'
p3864
sg10
Nsg24
NsbsS'spaces'
p3865
g0
(g1
g2
Ntp3866
Rp3867
(dp3868
g6
Nsg8
S'NUMBER'
p3869
sg10
Nsg24
NsbsS'shoe'
p3870
g0
(g1
g2
Ntp3871
Rp3872
(dp3873
g6
Nsg8
S'NUMBER'
p3874
sg10
Nsg24
NsbsS'snack'
p3875
g0
(g1
g2
Ntp3876
Rp3877
(dp3878
g6
Nsg8
S'OTHER'
p3879
sg10
Nsg24
NsbsS'dice'
p3880
g0
(g1
g2
Ntp3881
Rp3882
(dp3883
g6
Nsg8
S'OTHER'
p3884
sg10
Nsg24
NsbsS'gulf'
p3885
g0
(g1
g2
Ntp3886
Rp3887
(dp3888
g6
Nsg8
S'OTHER'
p3889
sg10
Nsg24
NsbsS'title'
p3890
g0
(g1
g2
Ntp3891
Rp3892
(dp3893
g6
g16
sg8
S'PERSON'
p3894
sg10
(dp3895
S'what'
p3896
g0
(g1
g2
Ntp3897
Rp3898
(dp3899
g6
Nsg8
S'PERSON'
p3900
sg10
Nsg24
NsbsS'who'
p3901
g0
(g1
g2
Ntp3902
Rp3903
(dp3904
g6
Nsg8
S'PERSON'
p3905
sg10
Nsg24
NsbsS'where'
p3906
g0
(g1
g2
Ntp3907
Rp3908
(dp3909
g6
Nsg8
S'LOCATION'
p3910
sg10
Nsg24
Nsbssg24
NsbsS'wood'
p3911
g0
(g1
g2
Ntp3912
Rp3913
(dp3914
g6
Nsg8
S'PERSON'
p3915
sg10
Nsg24
NsbsS'black'
p3916
g0
(g1
g2
Ntp3917
Rp3918
(dp3919
g6
Nsg8
S'PERSON'
p3920
sg10
Nsg24
NsbsS'inventions'
p3921
g0
(g1
g2
Ntp3922
Rp3923
(dp3924
g6
Nsg8
S'PERSON'
p3925
sg10
Nsg24
NsbsS'get'
p3926
g0
(g1
g2
Ntp3927
Rp3928
(dp3929
g6
g16
sg8
S'OTHER'
p3930
sg10
(dp3931
S'where'
p3932
g0
(g1
g2
Ntp3933
Rp3934
(dp3935
g6
Nsg8
S'LOCATION'
p3936
sg10
Nsg24
NsbsS'what'
p3937
g0
(g1
g2
Ntp3938
Rp3939
(dp3940
g6
Nsg8
g3930
sg10
Nsg24
NsbsS'when'
p3941
g0
(g1
g2
Ntp3942
Rp3943
(dp3944
g6
Nsg8
S'DATE'
p3945
sg10
Nsg24
NsbsS'how'
p3946
g0
(g1
g2
Ntp3947
Rp3948
(dp3949
g6
Nsg8
S'MONEY'
p3950
sg10
Nsg24
Nsbssg24
NsbsS'bocci'
p3951
g0
(g1
g2
Ntp3952
Rp3953
(dp3954
g6
Nsg8
S'LOCATION'
p3955
sg10
Nsg24
NsbsS'prime'
p3956
g0
(g1
g2
Ntp3957
Rp3958
(dp3959
g6
Nsg8
S'PERSON'
p3960
sg10
Nsg24
NsbsS'resource'
p3961
g0
(g1
g2
Ntp3962
Rp3963
(dp3964
g6
Nsg8
S'OTHER'
p3965
sg10
Nsg24
NsbsS'bestselling'
p3966
g0
(g1
g2
Ntp3967
Rp3968
(dp3969
g6
Nsg8
S'PERSON'
p3970
sg10
Nsg24
NsbsS'artist'
p3971
g0
(g1
g2
Ntp3972
Rp3973
(dp3974
g6
g16
sg8
S'TIME'
p3975
sg10
(dp3976
S'how'
p3977
g0
(g1
g2
Ntp3978
Rp3979
(dp3980
g6
Nsg8
g3975
sg10
Nsg24
NsbsS'the'
p3981
g0
(g1
g2
Ntp3982
Rp3983
(dp3984
g6
Nsg8
S'TIME'
p3985
sg10
Nsg24
NsbsS'what'
p3986
g0
(g1
g2
Ntp3987
Rp3988
(dp3989
g6
Nsg8
S'PERSON'
p3990
sg10
Nsg24
Nsbssg24
NsbsS'saliva'
p3991
g0
(g1
g2
Ntp3992
Rp3993
(dp3994
g6
Nsg8
S'OTHER'
p3995
sg10
Nsg24
NsbsS'borrow'
p3996
g0
(g1
g2
Ntp3997
Rp3998
(dp3999
g6
Nsg8
S'PERSON'
p4000
sg10
Nsg24
NsbsS'miles'
p4001
g0
(g1
g2
Ntp4002
Rp4003
(dp4004
g6
g16
sg8
S'NUMBER'
p4005
sg10
(dp4006
S'how'
p4007
g0
(g1
g2
Ntp4008
Rp4009
(dp4010
g6
Nsg8
S'NUMBER'
p4011
sg10
Nsg24
NsbsS'where'
p4012
g0
(g1
g2
Ntp4013
Rp4014
(dp4015
g6
Nsg8
S'LOCATION'
p4016
sg10
Nsg24
NsbsS'on'
p4017
g0
(g1
g2
Ntp4018
Rp4019
(dp4020
g6
Nsg8
S'NUMBER'
p4021
sg10
Nsg24
Nsbssg24
NsbsS'husband'
p4022
g0
(g1
g2
Ntp4023
Rp4024
(dp4025
g6
Nsg8
S'PERSON'
p4026
sg10
Nsg24
NsbsS'temperance'
p4027
g0
(g1
g2
Ntp4028
Rp4029
(dp4030
g6
Nsg8
S'PERSON'
p4031
sg10
Nsg24
NsbsS'concert'
p4032
g0
(g1
g2
Ntp4033
Rp4034
(dp4035
g6
Nsg8
S'DATE'
p4036
sg10
Nsg24
NsbsS'seas'
p4037
g0
(g1
g2
Ntp4038
Rp4039
(dp4040
g6
Nsg8
S'LOCATION'
p4041
sg10
Nsg24
NsbsS'replies'
p4042
g0
(g1
g2
Ntp4043
Rp4044
(dp4045
g6
Nsg8
S'PERSON'
p4046
sg10
Nsg24
NsbsS'seat'
p4047
g0
(g1
g2
Ntp4048
Rp4049
(dp4050
g6
Nsg8
S'PERSON'
p4051
sg10
Nsg24
NsbsS'college'
p4052
g0
(g1
g2
Ntp4053
Rp4054
(dp4055
g6
g16
sg8
S'NUMBER'
p4056
sg10
(dp4057
S'how'
p4058
g0
(g1
g2
Ntp4059
Rp4060
(dp4061
g6
Nsg8
g4056
sg10
Nsg24
NsbsS'what'
p4062
g0
(g1
g2
Ntp4063
Rp4064
(dp4065
g6
Nsg8
S'ORGANIZATION'
p4066
sg10
Nsg24
NsbsS'which'
p4067
g0
(g1
g2
Ntp4068
Rp4069
(dp4070
g6
Nsg8
S'ORGANIZATION'
p4071
sg10
Nsg24
Nsbssg24
NsbsS'seal'
p4072
g0
(g1
g2
Ntp4073
Rp4074
(dp4075
g6
Nsg8
S'OTHER'
p4076
sg10
Nsg24
NsbsS'calendar'
p4077
g0
(g1
g2
Ntp4078
Rp4079
(dp4080
g6
Nsg8
S'LOCATION'
p4081
sg10
Nsg24
NsbsS'sport'
p4082
g0
(g1
g2
Ntp4083
Rp4084
(dp4085
g6
g16
sg8
S'OTHER'
p4086
sg10
(dp4087
S'what'
p4088
g0
(g1
g2
Ntp4089
Rp4090
(dp4091
g6
Nsg8
S'OTHER'
p4092
sg10
Nsg24
NsbsS'where'
p4093
g0
(g1
g2
Ntp4094
Rp4095
(dp4096
g6
Nsg8
S'LOCATION'
p4097
sg10
Nsg24
NsbsS'the'
p4098
g0
(g1
g2
Ntp4099
Rp4100
(dp4101
g6
Nsg8
S'OTHER'
p4102
sg10
Nsg24
NsbsS'in'
p4103
g0
(g1
g2
Ntp4104
Rp4105
(dp4106
g6
Nsg8
S'OTHER'
p4107
sg10
Nsg24
Nsbssg24
NsbsS'ways'
p4108
g0
(g1
g2
Ntp4109
Rp4110
(dp4111
g6
Nsg8
S'OTHER'
p4112
sg10
Nsg24
NsbsS'review'
p4113
g0
(g1
g2
Ntp4114
Rp4115
(dp4116
g6
Nsg8
S'LOCATION'
p4117
sg10
Nsg24
NsbsS'sites'
p4118
g0
(g1
g2
Ntp4119
Rp4120
(dp4121
g6
Nsg8
S'LOCATION'
p4122
sg10
Nsg24
NsbsS'diamonds'
p4123
g0
(g1
g2
Ntp4124
Rp4125
(dp4126
g6
Nsg8
S'LOCATION'
p4127
sg10
Nsg24
NsbsS'advertizing'
p4128
g0
(g1
g2
Ntp4129
Rp4130
(dp4131
g6
Nsg8
S'PERSON'
p4132
sg10
Nsg24
NsbsS'guitar'
p4133
g0
(g1
g2
Ntp4134
Rp4135
(dp4136
g6
Nsg8
S'PERSON'
p4137
sg10
Nsg24
NsbsS'nationality'
p4138
g0
(g1
g2
Ntp4139
Rp4140
(dp4141
g6
Nsg8
S'LOCATION'
p4142
sg10
Nsg24
NsbsS'cities'
p4143
g0
(g1
g2
Ntp4144
Rp4145
(dp4146
g6
g16
sg8
S'LOCATION'
p4147
sg10
(dp4148
S'how'
p4149
g0
(g1
g2
Ntp4150
Rp4151
(dp4152
g6
Nsg8
S'NUMBER'
p4153
sg10
Nsg24
NsbsS'what'
p4154
g0
(g1
g2
Ntp4155
Rp4156
(dp4157
g6
Nsg8
S'LOCATION'
p4158
sg10
Nsg24
Nsbssg24
NsbsS'come'
p4159
g0
(g1
g2
Ntp4160
Rp4161
(dp4162
g6
g16
sg8
S'LOCATION'
p4163
sg10
(dp4164
S'where'
p4165
g0
(g1
g2
Ntp4166
Rp4167
(dp4168
g6
Nsg8
S'LOCATION'
p4169
sg10
Nsg24
NsbsS'what'
p4170
g0
(g1
g2
Ntp4171
Rp4172
(dp4173
g6
Nsg8
S'OTHER'
p4174
sg10
Nsg24
NsbsS'when'
p4175
g0
(g1
g2
Ntp4176
Rp4177
(dp4178
g6
Nsg8
S'DATE'
p4179
sg10
Nsg24
Nsbssg24
NsbsS'dates'
p4180
g0
(g1
g2
Ntp4181
Rp4182
(dp4183
g6
Nsg8
S'DATE'
p4184
sg10
Nsg24
NsbsS'penguins'
p4185
g0
(g1
g2
Ntp4186
Rp4187
(dp4188
g6
Nsg8
S'OTHER'
p4189
sg10
Nsg24
NsbsS'superstar'
p4190
g0
(g1
g2
Ntp4191
Rp4192
(dp4193
g6
Nsg8
S'PERSON'
p4194
sg10
Nsg24
NsbsS'missions'
p4195
g0
(g1
g2
Ntp4196
Rp4197
(dp4198
g6
Nsg8
S'PERSON'
p4199
sg10
Nsg24
NsbsS'residence'
p4200
g0
(g1
g2
Ntp4201
Rp4202
(dp4203
g6
Nsg8
S'LOCATION'
p4204
sg10
Nsg24
NsbsS'region'
p4205
g0
(g1
g2
Ntp4206
Rp4207
(dp4208
g6
Nsg8
S'LOCATION'
p4209
sg10
Nsg24
NsbsS'millionaire'
p4210
g0
(g1
g2
Ntp4211
Rp4212
(dp4213
g6
Nsg8
S'PERSON'
p4214
sg10
Nsg24
NsbsS'tour'
p4215
g0
(g1
g2
Ntp4216
Rp4217
(dp4218
g6
Nsg8
S'PERSON'
p4219
sg10
Nsg24
NsbsS'berry'
p4220
g0
(g1
g2
Ntp4221
Rp4222
(dp4223
g6
Nsg8
S'OTHER'
p4224
sg10
Nsg24
NsbsS'senator'
p4225
g0
(g1
g2
Ntp4226
Rp4227
(dp4228
g6
Nsg8
S'PERSON'
p4229
sg10
Nsg24
NsbsS'cancer'
p4230
g0
(g1
g2
Ntp4231
Rp4232
(dp4233
g6
Nsg8
S'OTHER'
p4234
sg10
Nsg24
NsbsS'color'
p4235
g0
(g1
g2
Ntp4236
Rp4237
(dp4238
g6
Nsg8
S'OTHER'
p4239
sg10
Nsg24
NsbsS'colony'
p4240
g0
(g1
g2
Ntp4241
Rp4242
(dp4243
g6
Nsg8
S'PERSON'
p4244
sg10
Nsg24
NsbsS'period'
p4245
g0
(g1
g2
Ntp4246
Rp4247
(dp4248
g6
g16
sg8
S'OTHER'
p4249
sg10
(dp4250
S'when'
p4251
g0
(g1
g2
Ntp4252
Rp4253
(dp4254
g6
Nsg8
S'DATE'
p4255
sg10
Nsg24
NsbsS'name'
p4256
g0
(g1
g2
Ntp4257
Rp4258
(dp4259
g6
Nsg8
g4249
sg10
Nsg24
Nsbssg24
NsbsS'pop'
p4260
g0
(g1
g2
Ntp4261
Rp4262
(dp4263
g6
Nsg8
S'PERSON'
p4264
sg10
Nsg24
NsbsS'twin'
p4265
g0
(g1
g2
Ntp4266
Rp4267
(dp4268
g6
Nsg8
S'PERSON'
p4269
sg10
Nsg24
NsbsS'approval'
p4270
g0
(g1
g2
Ntp4271
Rp4272
(dp4273
g6
Nsg8
S'PERCENT'
p4274
sg10
Nsg24
NsbsS'poll'
p4275
g0
(g1
g2
Ntp4276
Rp4277
(dp4278
g6
Nsg8
S'OTHER'
p4279
sg10
Nsg24
NsbsS'west'
p4280
g0
(g1
g2
Ntp4281
Rp4282
(dp4283
g6
Nsg8
S'OTHER'
p4284
sg10
Nsg24
NsbsS'dictator'
p4285
g0
(g1
g2
Ntp4286
Rp4287
(dp4288
g6
Nsg8
S'PERSON'
p4289
sg10
Nsg24
NsbsS'engine'
p4290
g0
(g1
g2
Ntp4291
Rp4292
(dp4293
g6
Nsg8
S'ORGANIZATION'
p4294
sg10
Nsg24
NsbsS'direction'
p4295
g0
(g1
g2
Ntp4296
Rp4297
(dp4298
g6
Nsg8
S'LOCATION'
p4299
sg10
Nsg24
NsbsS'tiger'
p4300
g0
(g1
g2
Ntp4301
Rp4302
(dp4303
g6
Nsg8
S'OTHER'
p4304
sg10
Nsg24
NsbsS'minister'
p4305
g0
(g1
g2
Ntp4306
Rp4307
(dp4308
g6
Nsg8
S'PERSON'
p4309
sg10
Nsg24
NsbsS'rugby'
p4310
g0
(g1
g2
Ntp4311
Rp4312
(dp4313
g6
Nsg8
S'PERSON'
p4314
sg10
Nsg24
NsbsS'extant'
p4315
g0
(g1
g2
Ntp4316
Rp4317
(dp4318
g6
Nsg8
S'OTHER'
p4319
sg10
Nsg24
NsbsS'case'
p4320
g0
(g1
g2
Ntp4321
Rp4322
(dp4323
g6
Nsg8
S'LOCATION'
p4324
sg10
Nsg24
NsbsS'cash'
p4325
g0
(g1
g2
Ntp4326
Rp4327
(dp4328
g6
Nsg8
S'OTHER'
p4329
sg10
Nsg24
NsbsS'newspaper'
p4330
g0
(g1
g2
Ntp4331
Rp4332
(dp4333
g6
Nsg8
S'OTHER'
p4334
sg10
Nsg24
NsbsS'trader'
p4335
g0
(g1
g2
Ntp4336
Rp4337
(dp4338
g6
Nsg8
S'PERSON'
p4339
sg10
Nsg24
NsbsS'strait'
p4340
g0
(g1
g2
Ntp4341
Rp4342
(dp4343
g6
Nsg8
S'LOCATION'
p4344
sg10
Nsg24
NsbsS'telephone'
p4345
g0
(g1
g2
Ntp4346
Rp4347
(dp4348
g6
g16
sg8
S'ORGANIZATION'
p4349
sg10
(dp4350
S'what'
p4351
g0
(g1
g2
Ntp4352
Rp4353
(dp4354
g6
Nsg8
S'NUMBER'
p4355
sg10
Nsg24
NsbsS'who'
p4356
g0
(g1
g2
Ntp4357
Rp4358
(dp4359
g6
Nsg8
g4349
sg10
Nsg24
Nsbssg24
NsbsS'commander'
p4360
g0
(g1
g2
Ntp4361
Rp4362
(dp4363
g6
Nsg8
S'PERSON'
p4364
sg10
Nsg24
NsbsS'middle'
p4365
g0
(g1
g2
Ntp4366
Rp4367
(dp4368
g6
Nsg8
S'PERSON'
p4369
sg10
Nsg24
NsbsS'contract'
p4370
g0
(g1
g2
Ntp4371
Rp4372
(dp4373
g6
Nsg8
S'MONEY'
p4374
sg10
Nsg24
NsbsS'helium'
p4375
g0
(g1
g2
Ntp4376
Rp4377
(dp4378
g6
Nsg8
S'LOCATION'
p4379
sg10
Nsg24
NsbsS'revolutions'
p4380
g0
(g1
g2
Ntp4381
Rp4382
(dp4383
g6
Nsg8
S'NUMBER'
p4384
sg10
Nsg24
NsbsS'doctor'
p4385
g0
(g1
g2
Ntp4386
Rp4387
(dp4388
g6
Nsg8
S'PERSON'
p4389
sg10
Nsg24
NsbsS'alphabet'
p4390
g0
(g1
g2
Ntp4391
Rp4392
(dp4393
g6
Nsg8
S'OTHER'
p4394
sg10
Nsg24
NsbsS'bowl'
p4395
g0
(g1
g2
Ntp4396
Rp4397
(dp4398
g6
Nsg8
S'OTHER'
p4399
sg10
Nsg24
NsbsS'document'
p4400
g0
(g1
g2
Ntp4401
Rp4402
(dp4403
g6
Nsg8
S'OTHER'
p4404
sg10
Nsg24
NsbsS'events'
p4405
g0
(g1
g2
Ntp4406
Rp4407
(dp4408
g6
g16
sg8
S'NUMBER'
p4409
sg10
(dp4410
S'how'
p4411
g0
(g1
g2
Ntp4412
Rp4413
(dp4414
g6
Nsg8
g4409
sg10
Nsg24
NsbsS'what'
p4415
g0
(g1
g2
Ntp4416
Rp4417
(dp4418
g6
Nsg8
S'OTHER'
p4419
sg10
Nsg24
Nsbssg24
NsbsS'hermit'
p4420
g0
(g1
g2
Ntp4421
Rp4422
(dp4423
g6
Nsg8
S'TIME'
p4424
sg10
Nsg24
NsbsS'week'
p4425
g0
(g1
g2
Ntp4426
Rp4427
(dp4428
g6
Nsg8
S'OTHER'
p4429
sg10
Nsg24
NsbsS'oil'
p4430
g0
(g1
g2
Ntp4431
Rp4432
(dp4433
g6
g16
sg8
S'OTHER'
p4434
sg10
(dp4435
S'what'
p4436
g0
(g1
g2
Ntp4437
Rp4438
(dp4439
g6
Nsg8
g4434
sg10
Nsg24
NsbsS'which'
p4440
g0
(g1
g2
Ntp4441
Rp4442
(dp4443
g6
Nsg8
S'ORGANIZATION'
p4444
sg10
Nsg24
Nsbssg24
NsbsS'companion'
p4445
g0
(g1
g2
Ntp4446
Rp4447
(dp4448
g6
Nsg8
S'PERSON'
p4449
sg10
Nsg24
NsbsS'director'
p4450
g0
(g1
g2
Ntp4451
Rp4452
(dp4453
g6
Nsg8
S'PERSON'
p4454
sg10
Nsg24
NsbsS'fowl'
p4455
g0
(g1
g2
Ntp4456
Rp4457
(dp4458
g6
Nsg8
S'OTHER'
p4459
sg10
Nsg24
NsbsS'fruit'
p4460
g0
(g1
g2
Ntp4461
Rp4462
(dp4463
g6
g16
sg8
S'OTHER'
p4464
sg10
(dp4465
S'how'
p4466
g0
(g1
g2
Ntp4467
Rp4468
(dp4469
g6
Nsg8
S'NUMBER'
p4470
sg10
Nsg24
NsbsS'what'
p4471
g0
(g1
g2
Ntp4472
Rp4473
(dp4474
g6
Nsg8
g4464
sg10
Nsg24
Nsbssg24
NsbsS'vowel'
p4475
g0
(g1
g2
Ntp4476
Rp4477
(dp4478
g6
Nsg8
S'OTHER'
p4479
sg10
Nsg24
NsbsS'cartoon'
p4480
g0
(g1
g2
Ntp4481
Rp4482
(dp4483
g6
g16
sg8
S'PERSON'
p4484
sg10
(dp4485
S'whom'
p4486
g0
(g1
g2
Ntp4487
Rp4488
(dp4489
g6
Nsg8
S'PERSON'
p4490
sg10
Nsg24
NsbsS'what'
p4491
g0
(g1
g2
Ntp4492
Rp4493
(dp4494
g6
Nsg8
S'PERSON'
p4495
sg10
Nsg24
NsbsS'who'
p4496
g0
(g1
g2
Ntp4497
Rp4498
(dp4499
g6
Nsg8
S'PERSON'
p4500
sg10
Nsg24
NsbsS'where'
p4501
g0
(g1
g2
Ntp4502
Rp4503
(dp4504
g6
Nsg8
S'LOCATION'
p4505
sg10
Nsg24
NsbsS'name'
p4506
g0
(g1
g2
Ntp4507
Rp4508
(dp4509
g6
Nsg8
g4484
sg10
Nsg24
Nsbssg24
NsbsS'components'
p4510
g0
(g1
g2
Ntp4511
Rp4512
(dp4513
g6
Nsg8
S'OTHER'
p4514
sg10
Nsg24
NsbsS'model'
p4515
g0
(g1
g2
Ntp4516
Rp4517
(dp4518
g6
Nsg8
S'PERSON'
p4519
sg10
Nsg24
NsbsS'bodies'
p4520
g0
(g1
g2
Ntp4521
Rp4522
(dp4523
g6
Nsg8
S'LOCATION'
p4524
sg10
Nsg24
NsbsS'livestock'
p4525
g0
(g1
g2
Ntp4526
Rp4527
(dp4528
g6
Nsg8
S'OTHER'
p4529
sg10
Nsg24
NsbsS'money'
p4530
g0
(g1
g2
Ntp4531
Rp4532
(dp4533
g6
g16
sg8
S'OTHER'
p4534
sg10
(dp4535
S'how'
p4536
g0
(g1
g2
Ntp4537
Rp4538
(dp4539
g6
Nsg8
S'MONEY'
p4540
sg10
Nsg24
NsbsS'what'
p4541
g0
(g1
g2
Ntp4542
Rp4543
(dp4544
g6
Nsg8
S'OTHER'
p4545
sg10
Nsg24
NsbsS'who'
p4546
g0
(g1
g2
Ntp4547
Rp4548
(dp4549
g6
Nsg8
S'PERSON'
p4550
sg10
Nsg24
Nsbssg24
NsbsS'actress'
p4551
g0
(g1
g2
Ntp4552
Rp4553
(dp4554
g6
g16
sg8
S'PERSON'
p4555
sg10
(dp4556
S'what'
p4557
g0
(g1
g2
Ntp4558
Rp4559
(dp4560
g6
Nsg8
S'PERSON'
p4561
sg10
Nsg24
NsbsS'who'
p4562
g0
(g1
g2
Ntp4563
Rp4564
(dp4565
g6
Nsg8
S'PERSON'
p4566
sg10
Nsg24
NsbsS'where'
p4567
g0
(g1
g2
Ntp4568
Rp4569
(dp4570
g6
Nsg8
S'LOCATION'
p4571
sg10
Nsg24
NsbsS'name'
p4572
g0
(g1
g2
Ntp4573
Rp4574
(dp4575
g6
Nsg8
S'PERSON'
p4576
sg10
Nsg24
NsbsS'which'
p4577
g0
(g1
g2
Ntp4578
Rp4579
(dp4580
g6
Nsg8
S'PERSON'
p4581
sg10
Nsg24
Nsbssg24
NsbsS'flavor'
p4582
g0
(g1
g2
Ntp4583
Rp4584
(dp4585
g6
Nsg8
S'OTHER'
p4586
sg10
Nsg24
NsbsS'speed'
p4587
g0
(g1
g2
Ntp4588
Rp4589
(dp4590
g6
Nsg8
S'NUMBER'
p4591
sg10
Nsg24
NsbsS'death'
p4592
g0
(g1
g2
Ntp4593
Rp4594
(dp4595
g6
Nsg8
S'NUMBER'
p4596
sg10
Nsg24
NsbsS'instrument'
p4597
g0
(g1
g2
Ntp4598
Rp4599
(dp4600
g6
Nsg8
S'OTHER'
p4601
sg10
Nsg24
NsbsS'blob'
p4602
g0
(g1
g2
Ntp4603
Rp4604
(dp4605
g6
Nsg8
S'PERSON'
p4606
sg10
Nsg24
NsbsS'penny-farthings'
p4607
g0
(g1
g2
Ntp4608
Rp4609
(dp4610
g6
Nsg8
S'NUMBER'
p4611
sg10
Nsg24
NsbsS'tenses'
p4612
g0
(g1
g2
Ntp4613
Rp4614
(dp4615
g6
Nsg8
S'OTHER'
p4616
sg10
Nsg24
NsbsS'vacuum'
p4617
g0
(g1
g2
Ntp4618
Rp4619
(dp4620
g6
Nsg8
S'PERSON'
p4621
sg10
Nsg24
NsbsS'world'
p4622
g0
(g1
g2
Ntp4623
Rp4624
(dp4625
g6
g16
sg8
S'PERSON'
p4626
sg10
(dp4627
S'how'
p4628
g0
(g1
g2
Ntp4629
Rp4630
(dp4631
g6
Nsg8
S'NUMBER'
p4632
sg10
Nsg24
NsbsS'what'
p4633
g0
(g1
g2
Ntp4634
Rp4635
(dp4636
g6
Nsg8
S'OTHER'
p4637
sg10
Nsg24
NsbsS'who'
p4638
g0
(g1
g2
Ntp4639
Rp4640
(dp4641
g6
Nsg8
S'PERSON'
p4642
sg10
Nsg24
NsbsS'where'
p4643
g0
(g1
g2
Ntp4644
Rp4645
(dp4646
g6
Nsg8
S'LOCATION'
p4647
sg10
Nsg24
Nsbssg24
NsbsS'railroad'
p4648
g0
(g1
g2
Ntp4649
Rp4650
(dp4651
g6
g16
sg8
S'DATE'
p4652
sg10
(dp4653
S'how'
p4654
g0
(g1
g2
Ntp4655
Rp4656
(dp4657
g6
Nsg8
S'MONEY'
p4658
sg10
Nsg24
NsbsS'when'
p4659
g0
(g1
g2
Ntp4660
Rp4661
(dp4662
g6
Nsg8
g4652
sg10
Nsg24
Nsbssg24
NsbsS'lady'
p4663
g0
(g1
g2
Ntp4664
Rp4665
(dp4666
g6
Nsg8
S'PERSON'
p4667
sg10
Nsg24
NsbsS'martyrs'
p4668
g0
(g1
g2
Ntp4669
Rp4670
(dp4671
g6
Nsg8
S'PERSON'
p4672
sg10
Nsg24
NsbsS'pounds'
p4673
g0
(g1
g2
Ntp4674
Rp4675
(dp4676
g6
Nsg8
S'NUMBER'
p4677
sg10
Nsg24
NsbsS'nutrients'
p4678
g0
(g1
g2
Ntp4679
Rp4680
(dp4681
g6
Nsg8
S'OTHER'
p4682
sg10
Nsg24
NsbsS'thighs'
p4683
g0
(g1
g2
Ntp4684
Rp4685
(dp4686
g6
Nsg8
S'OTHER'
p4687
sg10
Nsg24
NsbsS'clay'
p4688
g0
(g1
g2
Ntp4689
Rp4690
(dp4691
g6
Nsg8
S'OTHER'
p4692
sg10
Nsg24
NsbsS'pyramid-builders'
p4693
g0
(g1
g2
Ntp4694
Rp4695
(dp4696
g6
Nsg8
S'OTHER'
p4697
sg10
Nsg24
NsbsS'jews'
p4698
g0
(g1
g2
Ntp4699
Rp4700
(dp4701
g6
Nsg8
S'NUMBER'
p4702
sg10
Nsg24
NsbsS'apartments'
p4703
g0
(g1
g2
Ntp4704
Rp4705
(dp4706
g6
Nsg8
S'LOCATION'
p4707
sg10
Nsg24
NsbsS'shillings'
p4708
g0
(g1
g2
Ntp4709
Rp4710
(dp4711
g6
Nsg8
S'NUMBER'
p4712
sg10
Nsg24
NsbsS'competition'
p4713
g0
(g1
g2
Ntp4714
Rp4715
(dp4716
g6
Nsg8
S'OTHER'
p4717
sg10
Nsg24
NsbsS'brontosauruses'
p4718
g0
(g1
g2
Ntp4719
Rp4720
(dp4721
g6
Nsg8
S'OTHER'
p4722
sg10
Nsg24
NsbsS'dimensions'
p4723
g0
(g1
g2
Ntp4724
Rp4725
(dp4726
g6
Nsg8
S'NUMBER'
p4727
sg10
Nsg24
NsbsS'moon'
p4728
g0
(g1
g2
Ntp4729
Rp4730
(dp4731
g6
Nsg8
S'TIME'
p4732
sg10
Nsg24
NsbsS'refer'
p4733
g0
(g1
g2
Ntp4734
Rp4735
(dp4736
g6
Nsg8
S'OTHER'
p4737
sg10
Nsg24
NsbsS'business'
p4738
g0
(g1
g2
Ntp4739
Rp4740
(dp4741
g6
Nsg8
S'ORGANIZATION'
p4742
sg10
Nsg24
NsbsS'quit'
p4743
g0
(g1
g2
Ntp4744
Rp4745
(dp4746
g6
Nsg8
S'OTHER'
p4747
sg10
Nsg24
NsbsS'chefs'
p4748
g0
(g1
g2
Ntp4749
Rp4750
(dp4751
g6
Nsg8
S'OTHER'
p4752
sg10
Nsg24
NsbsS'trials'
p4753
g0
(g1
g2
Ntp4754
Rp4755
(dp4756
g6
Nsg8
S'OTHER'
p4757
sg10
Nsg24
NsbsS'refers'
p4758
g0
(g1
g2
Ntp4759
Rp4760
(dp4761
g6
Nsg8
S'OTHER'
p4762
sg10
Nsg24
NsbsS'fondness'
p4763
g0
(g1
g2
Ntp4764
Rp4765
(dp4766
g6
Nsg8
S'PERSON'
p4767
sg10
Nsg24
NsbsS'manufacturer'
p4768
g0
(g1
g2
Ntp4769
Rp4770
(dp4771
g6
Nsg8
S'ORGANIZATION'
p4772
sg10
Nsg24
NsbsS'racoon'
p4773
g0
(g1
g2
Ntp4774
Rp4775
(dp4776
g6
Nsg8
S'OTHER'
p4777
sg10
Nsg24
NsbsS'son-in-law'
p4778
g0
(g1
g2
Ntp4779
Rp4780
(dp4781
g6
Nsg8
S'PERSON'
p4782
sg10
Nsg24
NsbsS'stations'
p4783
g0
(g1
g2
Ntp4784
Rp4785
(dp4786
g6
Nsg8
S'NUMBER'
p4787
sg10
Nsg24
NsbsS'jeep'
p4788
g0
(g1
g2
Ntp4789
Rp4790
(dp4791
g6
Nsg8
S'PERSON'
p4792
sg10
Nsg24
NsbsS'island'
p4793
g0
(g1
g2
Ntp4794
Rp4795
(dp4796
g6
Nsg8
S'LOCATION'
p4797
sg10
Nsg24
NsbsS'swimmer'
p4798
g0
(g1
g2
Ntp4799
Rp4800
(dp4801
g6
Nsg8
S'PERSON'
p4802
sg10
Nsg24
NsbsS'airline'
p4803
g0
(g1
g2
Ntp4804
Rp4805
(dp4806
g6
g16
sg8
S'ORGANIZATION'
p4807
sg10
(dp4808
S'how'
p4809
g0
(g1
g2
Ntp4810
Rp4811
(dp4812
g6
Nsg8
S'NUMBER'
p4813
sg10
Nsg24
NsbsS'what'
p4814
g0
(g1
g2
Ntp4815
Rp4816
(dp4817
g6
Nsg8
S'ORGANIZATION'
p4818
sg10
Nsg24
Nsbssg24
NsbsS'ox'
p4819
g0
(g1
g2
Ntp4820
Rp4821
(dp4822
g6
Nsg8
S'OTHER'
p4823
sg10
Nsg24
NsbsS'backup'
p4824
g0
(g1
g2
Ntp4825
Rp4826
(dp4827
g6
Nsg8
S'ORGANIZATION'
p4828
sg10
Nsg24
NsbsS'processor'
p4829
g0
(g1
g2
Ntp4830
Rp4831
(dp4832
g6
Nsg8
S'NUMBER'
p4833
sg10
Nsg24
NsbsS'road'
p4834
g0
(g1
g2
Ntp4835
Rp4836
(dp4837
g6
Nsg8
S'PERSON'
p4838
sg10
Nsg24
NsbsS'tribe'
p4839
g0
(g1
g2
Ntp4840
Rp4841
(dp4842
g6
Nsg8
S'ORGANIZATION'
p4843
sg10
Nsg24
NsbsS'revolutionaries'
p4844
g0
(g1
g2
Ntp4845
Rp4846
(dp4847
g6
Nsg8
S'DATE'
p4848
sg10
Nsg24
NsbsS'strip'
p4849
g0
(g1
g2
Ntp4850
Rp4851
(dp4852
g6
g16
sg8
S'PERSON'
p4853
sg10
(dp4854
S'what'
p4855
g0
(g1
g2
Ntp4856
Rp4857
(dp4858
g6
Nsg8
S'PERSON'
p4859
sg10
Nsg24
NsbsS'who'
p4860
g0
(g1
g2
Ntp4861
Rp4862
(dp4863
g6
Nsg8
S'PERSON'
p4864
sg10
Nsg24
NsbsS'which'
p4865
g0
(g1
g2
Ntp4866
Rp4867
(dp4868
g6
Nsg8
S'OTHER'
p4869
sg10
Nsg24
Nsbssg24
NsbsS'constipation'
p4870
g0
(g1
g2
Ntp4871
Rp4872
(dp4873
g6
Nsg8
S'OTHER'
p4874
sg10
Nsg24
NsbsS'area'
p4875
g0
(g1
g2
Ntp4876
Rp4877
(dp4878
g6
Nsg8
S'LOCATION'
p4879
sg10
Nsg24
NsbsS'heroine'
p4880
g0
(g1
g2
Ntp4881
Rp4882
(dp4883
g6
Nsg8
S'PERSON'
p4884
sg10
Nsg24
NsbsS'start'
p4885
g0
(g1
g2
Ntp4886
Rp4887
(dp4888
g6
Nsg8
S'DATE'
p4889
sg10
Nsg24
NsbsS'cats'
p4890
g0
(g1
g2
Ntp4891
Rp4892
(dp4893
g6
Nsg8
S'OTHER'
p4894
sg10
Nsg24
NsbsS'stars'
p4895
g0
(g1
g2
Ntp4896
Rp4897
(dp4898
g6
g16
sg8
S'OTHER'
p4899
sg10
(dp4900
S'how'
p4901
g0
(g1
g2
Ntp4902
Rp4903
(dp4904
g6
Nsg8
S'NUMBER'
p4905
sg10
Nsg24
NsbsS'what'
p4906
g0
(g1
g2
Ntp4907
Rp4908
(dp4909
g6
Nsg8
g4899
sg10
Nsg24
Nsbssg24
NsbsS'aerodynamics'
p4910
g0
(g1
g2
Ntp4911
Rp4912
(dp4913
g6
Nsg8
S'PERSON'
p4914
sg10
Nsg24
NsbsS'hen'
p4915
g0
(g1
g2
Ntp4916
Rp4917
(dp4918
g6
Nsg8
S'TIME'
p4919
sg10
Nsg24
NsbsS'continents'
p4920
g0
(g1
g2
Ntp4921
Rp4922
(dp4923
g6
Nsg8
S'NUMBER'
p4924
sg10
Nsg24
NsbsS'pitcher'
p4925
g0
(g1
g2
Ntp4926
Rp4927
(dp4928
g6
Nsg8
S'PERSON'
p4929
sg10
Nsg24
NsbsS'spider'
p4930
g0
(g1
g2
Ntp4931
Rp4932
(dp4933
g6
Nsg8
S'OTHER'
p4934
sg10
Nsg24
NsbsS'hiccup'
p4935
g0
(g1
g2
Ntp4936
Rp4937
(dp4938
g6
Nsg8
S'TIME'
p4939
sg10
Nsg24
NsbsS'spice'
p4940
g0
(g1
g2
Ntp4941
Rp4942
(dp4943
g6
Nsg8
S'OTHER'
p4944
sg10
Nsg24
NsbsS'taste'
p4945
g0
(g1
g2
Ntp4946
Rp4947
(dp4948
g6
Nsg8
S'OTHER'
p4949
sg10
Nsg24
NsbsS'deer'
p4950
g0
(g1
g2
Ntp4951
Rp4952
(dp4953
g6
Nsg8
S'PERSON'
p4954
sg10
Nsg24
NsbsS'mormons'
p4955
g0
(g1
g2
Ntp4956
Rp4957
(dp4958
g6
Nsg8
S'DATE'
p4959
sg10
Nsg24
NsbsS'walks'
p4960
g0
(g1
g2
Ntp4961
Rp4962
(dp4963
g6
Nsg8
S'OTHER'
p4964
sg10
Nsg24
NsbsS'girlfriend'
p4965
g0
(g1
g2
Ntp4966
Rp4967
(dp4968
g6
Nsg8
S'PERSON'
p4969
sg10
Nsg24
NsbsS'cables'
p4970
g0
(g1
g2
Ntp4971
Rp4972
(dp4973
g6
Nsg8
S'NUMBER'
p4974
sg10
Nsg24
NsbsS'film'
p4975
g0
(g1
g2
Ntp4976
Rp4977
(dp4978
g6
g16
sg8
S'OTHER'
p4979
sg10
(dp4980
S'what'
p4981
g0
(g1
g2
Ntp4982
Rp4983
(dp4984
g6
Nsg8
S'OTHER'
p4985
sg10
Nsg24
NsbsS'name'
p4986
g0
(g1
g2
Ntp4987
Rp4988
(dp4989
g6
Nsg8
S'OTHER'
p4990
sg10
Nsg24
NsbsS'who'
p4991
g0
(g1
g2
Ntp4992
Rp4993
(dp4994
g6
Nsg8
S'PERSON'
p4995
sg10
Nsg24
NsbsS'jude'
p4996
g0
(g1
g2
Ntp4997
Rp4998
(dp4999
g6
Nsg8
S'OTHER'
p5000
sg10
Nsg24
NsbsS'in'
p5001
g0
(g1
g2
Ntp5002
Rp5003
(dp5004
g6
Nsg8
S'OTHER'
p5005
sg10
Nsg24
NsbsS'the'
p5006
g0
(g1
g2
Ntp5007
Rp5008
(dp5009
g6
Nsg8
S'DATE'
p5010
sg10
Nsg24
Nsbssg24
NsbsS'cream'
p5011
g0
(g1
g2
Ntp5012
Rp5013
(dp5014
g6
Nsg8
S'OTHER'
p5015
sg10
Nsg24
NsbsS'innings'
p5016
g0
(g1
g2
Ntp5017
Rp5018
(dp5019
g6
Nsg8
S'NUMBER'
p5020
sg10
Nsg24
NsbsS'graduate'
p5021
g0
(g1
g2
Ntp5022
Rp5023
(dp5024
g6
Nsg8
S'LOCATION'
p5025
sg10
Nsg24
NsbsS'astronaut'
p5026
g0
(g1
g2
Ntp5027
Rp5028
(dp5029
g6
Nsg8
S'PERSON'
p5030
sg10
Nsg24
NsbsS'puppy'
p5031
g0
(g1
g2
Ntp5032
Rp5033
(dp5034
g6
Nsg8
S'TIME'
p5035
sg10
Nsg24
NsbsS'championship'
p5036
g0
(g1
g2
Ntp5037
Rp5038
(dp5039
g6
Nsg8
S'ORGANIZATION'
p5040
sg10
Nsg24
NsbsS'students'
p5041
g0
(g1
g2
Ntp5042
Rp5043
(dp5044
g6
Nsg8
S'NUMBER'
p5045
sg10
Nsg24
NsbsS'symbol'
p5046
g0
(g1
g2
Ntp5047
Rp5048
(dp5049
g6
Nsg8
S'OTHER'
p5050
sg10
Nsg24
NsbsS'teeth'
p5051
g0
(g1
g2
Ntp5052
Rp5053
(dp5054
g6
Nsg8
S'NUMBER'
p5055
sg10
Nsg24
NsbsS'peak'
p5056
g0
(g1
g2
Ntp5057
Rp5058
(dp5059
g6
Nsg8
S'LOCATION'
p5060
sg10
Nsg24
NsbsS'stocks'
p5061
g0
(g1
g2
Ntp5062
Rp5063
(dp5064
g6
Nsg8
S'LOCATION'
p5065
sg10
Nsg24
NsbsS'building'
p5066
g0
(g1
g2
Ntp5067
Rp5068
(dp5069
g6
Nsg8
S'LOCATION'
p5070
sg10
Nsg24
NsbsS'wife'
p5071
g0
(g1
g2
Ntp5072
Rp5073
(dp5074
g6
g16
sg8
S'PERSON'
p5075
sg10
(dp5076
S'what'
p5077
g0
(g1
g2
Ntp5078
Rp5079
(dp5080
g6
Nsg8
S'ORGANIZATION'
p5081
sg10
Nsg24
NsbsS'who'
p5082
g0
(g1
g2
Ntp5083
Rp5084
(dp5085
g6
Nsg8
S'PERSON'
p5086
sg10
Nsg24
Nsbssg24
NsbsS'buffalo'
p5087
g0
(g1
g2
Ntp5088
Rp5089
(dp5090
g6
Nsg8
S'PERSON'
p5091
sg10
Nsg24
NsbsS'odds'
p5092
g0
(g1
g2
Ntp5093
Rp5094
(dp5095
g6
Nsg8
S'PERCENT'
p5096
sg10
Nsg24
NsbsS'websites'
p5097
g0
(g1
g2
Ntp5098
Rp5099
(dp5100
g6
Nsg8
S'NUMBER'
p5101
sg10
Nsg24
NsbsS'refuge'
p5102
g0
(g1
g2
Ntp5103
Rp5104
(dp5105
g6
Nsg8
S'NUMBER'
p5106
sg10
Nsg24
NsbsS'colleges'
p5107
g0
(g1
g2
Ntp5108
Rp5109
(dp5110
g6
g16
sg8
S'ORGANIZATION'
p5111
sg10
(dp5112
S'how'
p5113
g0
(g1
g2
Ntp5114
Rp5115
(dp5116
g6
Nsg8
S'NUMBER'
p5117
sg10
Nsg24
NsbsS'what'
p5118
g0
(g1
g2
Ntp5119
Rp5120
(dp5121
g6
Nsg8
g5111
sg10
Nsg24
Nsbssg24
NsbsS'founder'
p5122
g0
(g1
g2
Ntp5123
Rp5124
(dp5125
g6
Nsg8
S'PERSON'
p5126
sg10
Nsg24
NsbsS'dollar'
p5127
g0
(g1
g2
Ntp5128
Rp5129
(dp5130
g6
Nsg8
S'NUMBER'
p5131
sg10
Nsg24
NsbsS'month'
p5132
g0
(g1
g2
Ntp5133
Rp5134
(dp5135
g6
Nsg8
S'DATE'
p5136
sg10
Nsg24
NsbsS'spacecraft'
p5137
g0
(g1
g2
Ntp5138
Rp5139
(dp5140
g6
Nsg8
S'NUMBER'
p5141
sg10
Nsg24
NsbsS'disc'
p5142
g0
(g1
g2
Ntp5143
Rp5144
(dp5145
g6
Nsg8
S'OTHER'
p5146
sg10
Nsg24
NsbsS'migrates'
p5147
g0
(g1
g2
Ntp5148
Rp5149
(dp5150
g6
Nsg8
S'OTHER'
p5151
sg10
Nsg24
NsbsS'dish'
p5152
g0
(g1
g2
Ntp5153
Rp5154
(dp5155
g6
Nsg8
S'OTHER'
p5156
sg10
Nsg24
NsbsS'seaport'
p5157
g0
(g1
g2
Ntp5158
Rp5159
(dp5160
g6
Nsg8
S'LOCATION'
p5161
sg10
Nsg24
NsbsS'children'
p5162
g0
(g1
g2
Ntp5163
Rp5164
(dp5165
g6
g16
sg8
S'PERSON'
p5166
sg10
(dp5167
S'how'
p5168
g0
(g1
g2
Ntp5169
Rp5170
(dp5171
g6
Nsg8
S'NUMBER'
p5172
sg10
Nsg24
NsbsS'what'
p5173
g0
(g1
g2
Ntp5174
Rp5175
(dp5176
g6
Nsg8
S'PERCENT'
p5177
sg10
Nsg24
NsbsS'name'
p5178
g0
(g1
g2
Ntp5179
Rp5180
(dp5181
g6
Nsg8
g5166
sg10
Nsg24
NsbsS'of'
p5182
g0
(g1
g2
Ntp5183
Rp5184
(dp5185
g6
Nsg8
S'PERCENT'
p5186
sg10
Nsg24
Nsbssg24
NsbsS'causes'
p5187
g0
(g1
g2
Ntp5188
Rp5189
(dp5190
g6
Nsg8
S'OTHER'
p5191
sg10
Nsg24
NsbsS'apartment'
p5192
g0
(g1
g2
Ntp5193
Rp5194
(dp5195
g6
Nsg8
S'PERSON'
p5196
sg10
Nsg24
NsbsS'referring'
p5197
g0
(g1
g2
Ntp5198
Rp5199
(dp5200
g6
Nsg8
S'OTHER'
p5201
sg10
Nsg24
NsbsS'hunting'
p5202
g0
(g1
g2
Ntp5203
Rp5204
(dp5205
g6
Nsg8
S'ORGANIZATION'
p5206
sg10
Nsg24
NsbsS'tv'
p5207
g0
(g1
g2
Ntp5208
Rp5209
(dp5210
g6
g16
sg8
S'PERSON'
p5211
sg10
(dp5212
S'how'
p5213
g0
(g1
g2
Ntp5214
Rp5215
(dp5216
g6
Nsg8
S'TIME'
p5217
sg10
Nsg24
NsbsS'what'
p5218
g0
(g1
g2
Ntp5219
Rp5220
(dp5221
g6
Nsg8
S'OTHER'
p5222
sg10
Nsg24
NsbsS'which'
p5223
g0
(g1
g2
Ntp5224
Rp5225
(dp5226
g6
Nsg8
S'PERSON'
p5227
sg10
Nsg24
Nsbssg24
NsbsS'tail'
p5228
g0
(g1
g2
Ntp5229
Rp5230
(dp5231
g6
Nsg8
S'OTHER'
p5232
sg10
Nsg24
NsbsS'program'
p5233
g0
(g1
g2
Ntp5234
Rp5235
(dp5236
g6
g16
sg8
S'OTHER'
p5237
sg10
(dp5238
S'what'
p5239
g0
(g1
g2
Ntp5240
Rp5241
(dp5242
g6
Nsg8
S'OTHER'
p5243
sg10
Nsg24
NsbsS'which'
p5244
g0
(g1
g2
Ntp5245
Rp5246
(dp5247
g6
Nsg8
S'PERSON'
p5248
sg10
Nsg24
Nsbssg24
NsbsS'present'
p5249
g0
(g1
g2
Ntp5250
Rp5251
(dp5252
g6
Nsg8
S'PERSON'
p5253
sg10
Nsg24
NsbsS'smile'
p5254
g0
(g1
g2
Ntp5255
Rp5256
(dp5257
g6
Nsg8
S'OTHER'
p5258
sg10
Nsg24
NsbsS'sound'
p5259
g0
(g1
g2
Ntp5260
Rp5261
(dp5262
g6
g16
sg8
S'OTHER'
p5263
sg10
(dp5264
S'what'
p5265
g0
(g1
g2
Ntp5266
Rp5267
(dp5268
g6
Nsg8
g5263
sg10
Nsg24
NsbsS'who'
p5269
g0
(g1
g2
Ntp5270
Rp5271
(dp5272
g6
Nsg8
S'PERSON'
p5273
sg10
Nsg24
Nsbssg24
NsbsS'fax'
p5274
g0
(g1
g2
Ntp5275
Rp5276
(dp5277
g6
Nsg8
S'PERSON'
p5278
sg10
Nsg24
NsbsS'woman'
p5279
g0
(g1
g2
Ntp5280
Rp5281
(dp5282
g6
g16
sg8
S'PERSON'
p5283
sg10
(dp5284
S'what'
p5285
g0
(g1
g2
Ntp5286
Rp5287
(dp5288
g6
Nsg8
S'PERSON'
p5289
sg10
Nsg24
NsbsS'who'
p5290
g0
(g1
g2
Ntp5291
Rp5292
(dp5293
g6
Nsg8
S'PERSON'
p5294
sg10
Nsg24
NsbsS'when'
p5295
g0
(g1
g2
Ntp5296
Rp5297
(dp5298
g6
Nsg8
S'DATE'
p5299
sg10
Nsg24
Nsbssg24
NsbsS'translations'
p5300
g0
(g1
g2
Ntp5301
Rp5302
(dp5303
g6
g16
sg8
S'OTHER'
p5304
sg10
(dp5305
S'what'
p5306
g0
(g1
g2
Ntp5307
Rp5308
(dp5309
g6
Nsg8
g5304
sg10
Nsg24
NsbsS'name'
p5310
g0
(g1
g2
Ntp5311
Rp5312
(dp5313
g6
Nsg8
S'PERSON'
p5314
sg10
Nsg24
Nsbssg24
NsbsS'sons'
p5315
g0
(g1
g2
Ntp5316
Rp5317
(dp5318
g6
g16
sg8
S'OTHER'
p5319
sg10
(dp5320
S'what'
p5321
g0
(g1
g2
Ntp5322
Rp5323
(dp5324
g6
Nsg8
g5319
sg10
Nsg24
NsbsS'who'
p5325
g0
(g1
g2
Ntp5326
Rp5327
(dp5328
g6
Nsg8
S'PERSON'
p5329
sg10
Nsg24
Nsbssg24
NsbsS'diary'
p5330
g0
(g1
g2
Ntp5331
Rp5332
(dp5333
g6
Nsg8
S'PERSON'
p5334
sg10
Nsg24
NsbsS'ticket'
p5335
g0
(g1
g2
Ntp5336
Rp5337
(dp5338
g6
Nsg8
S'MONEY'
p5339
sg10
Nsg24
NsbsS'lawnmower'
p5340
g0
(g1
g2
Ntp5341
Rp5342
(dp5343
g6
Nsg8
S'PERSON'
p5344
sg10
Nsg24
NsbsS'celebrity'
p5345
g0
(g1
g2
Ntp5346
Rp5347
(dp5348
g6
Nsg8
S'PERSON'
p5349
sg10
Nsg24
NsbsS'list'
p5350
g0
(g1
g2
Ntp5351
Rp5352
(dp5353
g6
Nsg8
S'LOCATION'
p5354
sg10
Nsg24
NsbsS'grandfather'
p5355
g0
(g1
g2
Ntp5356
Rp5357
(dp5358
g6
Nsg8
S'PERSON'
p5359
sg10
Nsg24
NsbsS'sang'
p5360
g0
(g1
g2
Ntp5361
Rp5362
(dp5363
g6
Nsg8
S'PERSON'
p5364
sg10
Nsg24
NsbsS'millimeters'
p5365
g0
(g1
g2
Ntp5366
Rp5367
(dp5368
g6
Nsg8
S'NUMBER'
p5369
sg10
Nsg24
NsbsS'ten'
p5370
g0
(g1
g2
Ntp5371
Rp5372
(dp5373
g6
Nsg8
S'PERSON'
p5374
sg10
Nsg24
NsbsS'rate'
p5375
g0
(g1
g2
Ntp5376
Rp5377
(dp5378
g6
Nsg8
S'NUMBER'
p5379
sg10
Nsg24
NsbsS'invention'
p5380
g0
(g1
g2
Ntp5381
Rp5382
(dp5383
g6
Nsg8
S'OTHER'
p5384
sg10
Nsg24
NsbsS'lawyer'
p5385
g0
(g1
g2
Ntp5386
Rp5387
(dp5388
g6
Nsg8
S'PERSON'
p5389
sg10
Nsg24
NsbsS'clock'
p5390
g0
(g1
g2
Ntp5391
Rp5392
(dp5393
g6
Nsg8
S'OTHER'
p5394
sg10
Nsg24
NsbsS'sun'
p5395
g0
(g1
g2
Ntp5396
Rp5397
(dp5398
g6
Nsg8
S'TIME'
p5399
sg10
Nsg24
NsbsS'section'
p5400
g0
(g1
g2
Ntp5401
Rp5402
(dp5403
g6
g16
sg8
S'OTHER'
p5404
sg10
(dp5405
S'what'
p5406
g0
(g1
g2
Ntp5407
Rp5408
(dp5409
g6
Nsg8
g5404
sg10
Nsg24
NsbsS'who'
p5410
g0
(g1
g2
Ntp5411
Rp5412
(dp5413
g6
Nsg8
S'PERSON'
p5414
sg10
Nsg24
Nsbssg24
NsbsS'caffeine'
p5415
g0
(g1
g2
Ntp5416
Rp5417
(dp5418
g6
g16
sg8
S'NUMBER'
p5419
sg10
(dp5420
S'how'
p5421
g0
(g1
g2
Ntp5422
Rp5423
(dp5424
g6
Nsg8
S'NUMBER'
p5425
sg10
Nsg24
NsbsS'to'
p5426
g0
(g1
g2
Ntp5427
Rp5428
(dp5429
g6
Nsg8
S'OTHER'
p5430
sg10
Nsg24
Nsbssg24
NsbsS'method'
p5431
g0
(g1
g2
Ntp5432
Rp5433
(dp5434
g6
Nsg8
S'OTHER'
p5435
sg10
Nsg24
NsbsS'cheetahs'
p5436
g0
(g1
g2
Ntp5437
Rp5438
(dp5439
g6
Nsg8
S'NUMBER'
p5440
sg10
Nsg24
NsbsS'answers'
p5441
g0
(g1
g2
Ntp5442
Rp5443
(dp5444
g6
g16
sg8
S'LOCATION'
p5445
sg10
(dp5446
S'how'
p5447
g0
(g1
g2
Ntp5448
Rp5449
(dp5450
g6
Nsg8
S'NUMBER'
p5451
sg10
Nsg24
NsbsS'where'
p5452
g0
(g1
g2
Ntp5453
Rp5454
(dp5455
g6
Nsg8
g5445
sg10
Nsg24
Nsbssg24
NsbsS'hours'
p5456
g0
(g1
g2
Ntp5457
Rp5458
(dp5459
g6
Nsg8
S'NUMBER'
p5460
sg10
Nsg24
NsbsS'operating'
p5461
g0
(g1
g2
Ntp5462
Rp5463
(dp5464
g6
Nsg8
S'OTHER'
p5465
sg10
Nsg24
NsbsS'furlongs'
p5466
g0
(g1
g2
Ntp5467
Rp5468
(dp5469
g6
Nsg8
S'NUMBER'
p5470
sg10
Nsg24
NsbsS'tragedy'
p5471
g0
(g1
g2
Ntp5472
Rp5473
(dp5474
g6
Nsg8
S'OTHER'
p5475
sg10
Nsg24
NsbsS'publisher'
p5476
g0
(g1
g2
Ntp5477
Rp5478
(dp5479
g6
Nsg8
S'LOCATION'
p5480
sg10
Nsg24
NsbsS'naval'
p5481
g0
(g1
g2
Ntp5482
Rp5483
(dp5484
g6
Nsg8
S'PERSON'
p5485
sg10
Nsg24
NsbsS'soldier'
p5486
g0
(g1
g2
Ntp5487
Rp5488
(dp5489
g6
Nsg8
S'PERSON'
p5490
sg10
Nsg24
NsbsS'airport'
p5491
g0
(g1
g2
Ntp5492
Rp5493
(dp5494
g6
Nsg8
S'NUMBER'
p5495
sg10
Nsg24
NsbsS'advertising'
p5496
g0
(g1
g2
Ntp5497
Rp5498
(dp5499
g6
g16
sg8
S'DATE'
p5500
sg10
(dp5501
S'what'
p5502
g0
(g1
g2
Ntp5503
Rp5504
(dp5505
g6
Nsg8
S'OTHER'
p5506
sg10
Nsg24
NsbsS'when'
p5507
g0
(g1
g2
Ntp5508
Rp5509
(dp5510
g6
Nsg8
g5500
sg10
Nsg24
Nsbssg24
NsbsS'family'
p5511
g0
(g1
g2
Ntp5512
Rp5513
(dp5514
g6
Nsg8
S'OTHER'
p5515
sg10
Nsg24
NsbsS'megawatts'
p5516
g0
(g1
g2
Ntp5517
Rp5518
(dp5519
g6
Nsg8
S'NUMBER'
p5520
sg10
Nsg24
NsbsS'spermologer'
p5521
g0
(g1
g2
Ntp5522
Rp5523
(dp5524
g6
Nsg8
S'OTHER'
p5525
sg10
Nsg24
NsbsS'toys'
p5526
g0
(g1
g2
Ntp5527
Rp5528
(dp5529
g6
Nsg8
S'PERSON'
p5530
sg10
Nsg24
NsbsS'languages'
p5531
g0
(g1
g2
Ntp5532
Rp5533
(dp5534
g6
g16
sg8
S'NUMBER'
p5535
sg10
(dp5536
S'how'
p5537
g0
(g1
g2
Ntp5538
Rp5539
(dp5540
g6
Nsg8
S'NUMBER'
p5541
sg10
Nsg24
NsbsS'what'
p5542
g0
(g1
g2
Ntp5543
Rp5544
(dp5545
g6
Nsg8
S'OTHER'
p5546
sg10
Nsg24
Nsbssg24
NsbsS'attendance'
p5547
g0
(g1
g2
Ntp5548
Rp5549
(dp5550
g6
Nsg8
S'NUMBER'
p5551
sg10
Nsg24
NsbsS'ladybugs'
p5552
g0
(g1
g2
Ntp5553
Rp5554
(dp5555
g6
Nsg8
S'OTHER'
p5556
sg10
Nsg24
NsbsS'contains'
p5557
g0
(g1
g2
Ntp5558
Rp5559
(dp5560
g6
Nsg8
S'OTHER'
p5561
sg10
Nsg24
NsbsS'poodle'
p5562
g0
(g1
g2
Ntp5563
Rp5564
(dp5565
g6
Nsg8
S'NUMBER'
p5566
sg10
Nsg24
NsbsS'markets'
p5567
g0
(g1
g2
Ntp5568
Rp5569
(dp5570
g6
Nsg8
S'PERSON'
p5571
sg10
Nsg24
NsbsS'horses'
p5572
g0
(g1
g2
Ntp5573
Rp5574
(dp5575
g6
Nsg8
S'NUMBER'
p5576
sg10
Nsg24
NsbsS'diamond'
p5577
g0
(g1
g2
Ntp5578
Rp5579
(dp5580
g6
g16
sg8
S'ORGANIZATION'
p5581
sg10
(dp5582
S'how'
p5583
g0
(g1
g2
Ntp5584
Rp5585
(dp5586
g6
Nsg8
S'NUMBER'
p5587
sg10
Nsg24
NsbsS'what'
p5588
g0
(g1
g2
Ntp5589
Rp5590
(dp5591
g6
Nsg8
S'ORGANIZATION'
p5592
sg10
Nsg24
NsbsS'name'
p5593
g0
(g1
g2
Ntp5594
Rp5595
(dp5596
g6
Nsg8
S'ORGANIZATION'
p5597
sg10
Nsg24
NsbsS'which'
p5598
g0
(g1
g2
Ntp5599
Rp5600
(dp5601
g6
Nsg8
g5581
sg10
Nsg24
Nsbssg24
NsbsS'door'
p5602
g0
(g1
g2
Ntp5603
Rp5604
(dp5605
g6
Nsg8
S'PERSON'
p5606
sg10
Nsg24
NsbsS'fast-food'
p5607
g0
(g1
g2
Ntp5608
Rp5609
(dp5610
g6
Nsg8
S'ORGANIZATION'
p5611
sg10
Nsg24
NsbsS'propellers'
p5612
g0
(g1
g2
Ntp5613
Rp5614
(dp5615
g6
Nsg8
S'NUMBER'
p5616
sg10
Nsg24
NsbsS'waterways'
p5617
g0
(g1
g2
Ntp5618
Rp5619
(dp5620
g6
Nsg8
S'LOCATION'
p5621
sg10
Nsg24
NsbsS'flag'
p5622
g0
(g1
g2
Ntp5623
Rp5624
(dp5625
g6
Nsg8
S'OTHER'
p5626
sg10
Nsg24
NsbsS'stethoscope'
p5627
g0
(g1
g2
Ntp5628
Rp5629
(dp5630
g6
Nsg8
S'PERSON'
p5631
sg10
Nsg24
NsbsS'known'
p5632
g0
(g1
g2
Ntp5633
Rp5634
(dp5635
g6
Nsg8
S'OTHER'
p5636
sg10
Nsg24
NsbsS'town'
p5637
g0
(g1
g2
Ntp5638
Rp5639
(dp5640
g6
Nsg8
S'LOCATION'
p5641
sg10
Nsg24
NsbsS'primate'
p5642
g0
(g1
g2
Ntp5643
Rp5644
(dp5645
g6
Nsg8
S'OTHER'
p5646
sg10
Nsg24
NsbsS'science'
p5647
g0
(g1
g2
Ntp5648
Rp5649
(dp5650
g6
g16
sg8
S'OTHER'
p5651
sg10
(dp5652
S'what'
p5653
g0
(g1
g2
Ntp5654
Rp5655
(dp5656
g6
Nsg8
g5651
sg10
Nsg24
NsbsS'where'
p5657
g0
(g1
g2
Ntp5658
Rp5659
(dp5660
g6
Nsg8
S'LOCATION'
p5661
sg10
Nsg24
Nsbssg24
NsbsS'mall'
p5662
g0
(g1
g2
Ntp5663
Rp5664
(dp5665
g6
Nsg8
S'LOCATION'
p5666
sg10
Nsg24
NsbsS'wrestler'
p5667
g0
(g1
g2
Ntp5668
Rp5669
(dp5670
g6
Nsg8
S'LOCATION'
p5671
sg10
Nsg24
NsbsS'male'
p5672
g0
(g1
g2
Ntp5673
Rp5674
(dp5675
g6
Nsg8
S'PERSON'
p5676
sg10
Nsg24
NsbsS'history'
p5677
g0
(g1
g2
Ntp5678
Rp5679
(dp5680
g6
Nsg8
S'LOCATION'
p5681
sg10
Nsg24
NsbsS'stubborn'
p5682
g0
(g1
g2
Ntp5683
Rp5684
(dp5685
g6
Nsg8
S'OTHER'
p5686
sg10
Nsg24
NsbsS'compare'
p5687
g0
(g1
g2
Ntp5688
Rp5689
(dp5690
g6
Nsg8
S'PERSON'
p5691
sg10
Nsg24
NsbsS'pony'
p5692
g0
(g1
g2
Ntp5693
Rp5694
(dp5695
g6
Nsg8
S'LOCATION'
p5696
sg10
Nsg24
NsbsS'states'
p5697
g0
(g1
g2
Ntp5698
Rp5699
(dp5700
g6
g16
sg8
S'LOCATION'
p5701
sg10
(dp5702
S'how'
p5703
g0
(g1
g2
Ntp5704
Rp5705
(dp5706
g6
Nsg8
S'NUMBER'
p5707
sg10
Nsg24
NsbsS'what'
p5708
g0
(g1
g2
Ntp5709
Rp5710
(dp5711
g6
Nsg8
S'LOCATION'
p5712
sg10
Nsg24
NsbsS'which'
p5713
g0
(g1
g2
Ntp5714
Rp5715
(dp5716
g6
Nsg8
S'LOCATION'
p5717
sg10
Nsg24
Nsbssg24
NsbsS'protects'
p5718
g0
(g1
g2
Ntp5719
Rp5720
(dp5721
g6
Nsg8
S'PERSON'
p5722
sg10
Nsg24
NsbsS'numbers'
p5723
g0
(g1
g2
Ntp5724
Rp5725
(dp5726
g6
g16
sg8
S'PERSON'
p5727
sg10
(dp5728
S'what'
p5729
g0
(g1
g2
Ntp5730
Rp5731
(dp5732
g6
Nsg8
S'NUMBER'
p5733
sg10
Nsg24
NsbsS'who'
p5734
g0
(g1
g2
Ntp5735
Rp5736
(dp5737
g6
Nsg8
g5727
sg10
Nsg24
Nsbssg24
NsbsS'airplane'
p5738
g0
(g1
g2
Ntp5739
Rp5740
(dp5741
g6
g16
sg8
S'OTHER'
p5742
sg10
(dp5743
S'who'
p5744
g0
(g1
g2
Ntp5745
Rp5746
(dp5747
g6
Nsg8
S'ORGANIZATION'
p5748
sg10
Nsg24
NsbsS'which'
p5749
g0
(g1
g2
Ntp5750
Rp5751
(dp5752
g6
Nsg8
S'OTHER'
p5753
sg10
Nsg24
Nsbssg24
NsbsS'species'
p5754
g0
(g1
g2
Ntp5755
Rp5756
(dp5757
g6
g16
sg8
S'OTHER'
p5758
sg10
(dp5759
S'how'
p5760
g0
(g1
g2
Ntp5761
Rp5762
(dp5763
g6
Nsg8
S'NUMBER'
p5764
sg10
Nsg24
NsbsS'what'
p5765
g0
(g1
g2
Ntp5766
Rp5767
(dp5768
g6
Nsg8
S'OTHER'
p5769
sg10
Nsg24
Nsbssg24
NsbsS'biography'
p5770
g0
(g1
g2
Ntp5771
Rp5772
(dp5773
g6
Nsg8
S'PERSON'
p5774
sg10
Nsg24
NsbsS'information'
p5775
g0
(g1
g2
Ntp5776
Rp5777
(dp5778
g6
g16
sg8
S'LOCATION'
p5779
sg10
(dp5780
S'what'
p5781
g0
(g1
g2
Ntp5782
Rp5783
(dp5784
g6
Nsg8
S'PERSON'
p5785
sg10
Nsg24
NsbsS'where'
p5786
g0
(g1
g2
Ntp5787
Rp5788
(dp5789
g6
Nsg8
S'LOCATION'
p5790
sg10
Nsg24
Nsbssg24
NsbsS'court'
p5791
g0
(g1
g2
Ntp5792
Rp5793
(dp5794
g6
Nsg8
S'LOCATION'
p5795
sg10
Nsg24
NsbsS'creature'
p5796
g0
(g1
g2
Ntp5797
Rp5798
(dp5799
g6
Nsg8
S'OTHER'
p5800
sg10
Nsg24
NsbsS'plant'
p5801
g0
(g1
g2
Ntp5802
Rp5803
(dp5804
g6
Nsg8
S'OTHER'
p5805
sg10
Nsg24
NsbsS'blood'
p5806
g0
(g1
g2
Ntp5807
Rp5808
(dp5809
g6
g16
sg8
S'OTHER'
p5810
sg10
(dp5811
S'how'
p5812
g0
(g1
g2
Ntp5813
Rp5814
(dp5815
g6
Nsg8
S'TIME'
p5816
sg10
Nsg24
NsbsS'what'
p5817
g0
(g1
g2
Ntp5818
Rp5819
(dp5820
g6
Nsg8
S'OTHER'
p5821
sg10
Nsg24
Nsbssg24
NsbsS'softball'
p5822
g0
(g1
g2
Ntp5823
Rp5824
(dp5825
g6
Nsg8
S'OTHER'
p5826
sg10
Nsg24
NsbsS'author'
p5827
g0
(g1
g2
Ntp5828
Rp5829
(dp5830
g6
Nsg8
S'PERSON'
p5831
sg10
Nsg24
NsbsS'shorn'
p5832
g0
(g1
g2
Ntp5833
Rp5834
(dp5835
g6
Nsg8
S'DATE'
p5836
sg10
Nsg24
NsbsS'playing'
p5837
g0
(g1
g2
Ntp5838
Rp5839
(dp5840
g6
Nsg8
S'OTHER'
p5841
sg10
Nsg24
NsbsS'mission'
p5842
g0
(g1
g2
Ntp5843
Rp5844
(dp5845
g6
Nsg8
S'OTHER'
p5846
sg10
Nsg24
NsbsS'trade'
p5847
g0
(g1
g2
Ntp5848
Rp5849
(dp5850
g6
Nsg8
S'OTHER'
p5851
sg10
Nsg24
NsbsS'paper'
p5852
g0
(g1
g2
Ntp5853
Rp5854
(dp5855
g6
g16
sg8
S'OTHER'
p5856
sg10
(dp5857
S'what'
p5858
g0
(g1
g2
Ntp5859
Rp5860
(dp5861
g6
Nsg8
g5856
sg10
Nsg24
NsbsS'who'
p5862
g0
(g1
g2
Ntp5863
Rp5864
(dp5865
g6
Nsg8
S'PERSON'
p5866
sg10
Nsg24
Nsbssg24
NsbsS'signs'
p5867
g0
(g1
g2
Ntp5868
Rp5869
(dp5870
g6
Nsg8
S'OTHER'
p5871
sg10
Nsg24
NsbsS'avenue'
p5872
g0
(g1
g2
Ntp5873
Rp5874
(dp5875
g6
Nsg8
S'LOCATION'
p5876
sg10
Nsg24
NsbsS'limelight'
p5877
g0
(g1
g2
Ntp5878
Rp5879
(dp5880
g6
Nsg8
S'OTHER'
p5881
sg10
Nsg24
NsbsS'handheld'
p5882
g0
(g1
g2
Ntp5883
Rp5884
(dp5885
g6
Nsg8
S'OTHER'
p5886
sg10
Nsg24
NsbsS'founders'
p5887
g0
(g1
g2
Ntp5888
Rp5889
(dp5890
g6
Nsg8
S'PERSON'
p5891
sg10
Nsg24
NsbsS'travelling'
p5892
g0
(g1
g2
Ntp5893
Rp5894
(dp5895
g6
Nsg8
S'OTHER'
p5896
sg10
Nsg24
NsbsS'soccer'
p5897
g0
(g1
g2
Ntp5898
Rp5899
(dp5900
g6
Nsg8
S'LOCATION'
p5901
sg10
Nsg24
NsbsS'wingspan'
p5902
g0
(g1
g2
Ntp5903
Rp5904
(dp5905
g6
Nsg8
S'NUMBER'
p5906
sg10
Nsg24
NsbsS'fool'
p5907
g0
(g1
g2
Ntp5908
Rp5909
(dp5910
g6
Nsg8
S'PERSON'
p5911
sg10
Nsg24
NsbsS'food'
p5912
g0
(g1
g2
Ntp5913
Rp5914
(dp5915
g6
g16
sg8
S'OTHER'
p5916
sg10
(dp5917
S'what'
p5918
g0
(g1
g2
Ntp5919
Rp5920
(dp5921
g6
Nsg8
S'OTHER'
p5922
sg10
Nsg24
NsbsS'who'
p5923
g0
(g1
g2
Ntp5924
Rp5925
(dp5926
g6
Nsg8
S'PERSON'
p5927
sg10
Nsg24
NsbsS'name'
p5928
g0
(g1
g2
Ntp5929
Rp5930
(dp5931
g6
Nsg8
S'ORGANIZATION'
p5932
sg10
Nsg24
Nsbssg24
NsbsS'policeman'
p5933
g0
(g1
g2
Ntp5934
Rp5935
(dp5936
g6
Nsg8
S'OTHER'
p5937
sg10
Nsg24
NsbsS'predators'
p5938
g0
(g1
g2
Ntp5939
Rp5940
(dp5941
g6
Nsg8
S'OTHER'
p5942
sg10
Nsg24
NsbsS'positions'
p5943
g0
(g1
g2
Ntp5944
Rp5945
(dp5946
g6
Nsg8
S'PERSON'
p5947
sg10
Nsg24
NsbsS'found'
p5948
g0
(g1
g2
Ntp5949
Rp5950
(dp5951
g6
Nsg8
S'LOCATION'
p5952
sg10
Nsg24
NsbsS'ports'
p5953
g0
(g1
g2
Ntp5954
Rp5955
(dp5956
g6
Nsg8
S'LOCATION'
p5957
sg10
Nsg24
NsbsS'status'
p5958
g0
(g1
g2
Ntp5959
Rp5960
(dp5961
g6
Nsg8
S'LOCATION'
p5962
sg10
Nsg24
NsbsS'bends'
p5963
g0
(g1
g2
Ntp5964
Rp5965
(dp5966
g6
Nsg8
S'NUMBER'
p5967
sg10
Nsg24
NsbsS'weight'
p5968
g0
(g1
g2
Ntp5969
Rp5970
(dp5971
g6
Nsg8
S'NUMBER'
p5972
sg10
Nsg24
NsbsS'generation'
p5973
g0
(g1
g2
Ntp5974
Rp5975
(dp5976
g6
Nsg8
S'OTHER'
p5977
sg10
Nsg24
NsbsS'house'
p5978
g0
(g1
g2
Ntp5979
Rp5980
(dp5981
g6
Nsg8
S'DATE'
p5982
sg10
Nsg24
NsbsS'energy'
p5983
g0
(g1
g2
Ntp5984
Rp5985
(dp5986
g6
Nsg8
S'NUMBER'
p5987
sg10
Nsg24
NsbsS'event'
p5988
g0
(g1
g2
Ntp5989
Rp5990
(dp5991
g6
Nsg8
S'OTHER'
p5992
sg10
Nsg24
NsbsS'gangland'
p5993
g0
(g1
g2
Ntp5994
Rp5995
(dp5996
g6
Nsg8
S'OTHER'
p5997
sg10
Nsg24
NsbsS'neanderthal'
p5998
g0
(g1
g2
Ntp5999
Rp6000
(dp6001
g6
Nsg8
S'DATE'
p6002
sg10
Nsg24
NsbsS'blacks'
p6003
g0
(g1
g2
Ntp6004
Rp6005
(dp6006
g6
Nsg8
S'NUMBER'
p6007
sg10
Nsg24
NsbsS'publish'
p6008
g0
(g1
g2
Ntp6009
Rp6010
(dp6011
g6
g16
sg8
S'OTHER'
p6012
sg10
(dp6013
S'what'
p6014
g0
(g1
g2
Ntp6015
Rp6016
(dp6017
g6
Nsg8
g6012
sg10
Nsg24
NsbsS'when'
p6018
g0
(g1
g2
Ntp6019
Rp6020
(dp6021
g6
Nsg8
S'DATE'
p6022
sg10
Nsg24
Nsbssg24
NsbsS'research'
p6023
g0
(g1
g2
Ntp6024
Rp6025
(dp6026
g6
g16
sg8
S'LOCATION'
p6027
sg10
(dp6028
S'what'
p6029
g0
(g1
g2
Ntp6030
Rp6031
(dp6032
g6
Nsg8
S'OTHER'
p6033
sg10
Nsg24
NsbsS'where'
p6034
g0
(g1
g2
Ntp6035
Rp6036
(dp6037
g6
Nsg8
g6027
sg10
Nsg24
Nsbssg24
NsbsS'wolverine'
p6038
g0
(g1
g2
Ntp6039
Rp6040
(dp6041
g6
Nsg8
S'OTHER'
p6042
sg10
Nsg24
NsbsS'fountain'
p6043
g0
(g1
g2
Ntp6044
Rp6045
(dp6046
g6
Nsg8
S'PERSON'
p6047
sg10
Nsg24
NsbsS'occurs'
p6048
g0
(g1
g2
Ntp6049
Rp6050
(dp6051
g6
Nsg8
S'OTHER'
p6052
sg10
Nsg24
NsbsS'highway'
p6053
g0
(g1
g2
Ntp6054
Rp6055
(dp6056
g6
Nsg8
S'NUMBER'
p6057
sg10
Nsg24
NsbsS'horse'
p6058
g0
(g1
g2
Ntp6059
Rp6060
(dp6061
g6
Nsg8
S'OTHER'
p6062
sg10
Nsg24
NsbsS'pub'
p6063
g0
(g1
g2
Ntp6064
Rp6065
(dp6066
g6
Nsg8
S'PERSON'
p6067
sg10
Nsg24
NsbsS'tractors'
p6068
g0
(g1
g2
Ntp6069
Rp6070
(dp6071
g6
Nsg8
S'NUMBER'
p6072
sg10
Nsg24
NsbsS'basketball'
p6073
g0
(g1
g2
Ntp6074
Rp6075
(dp6076
g6
Nsg8
S'LOCATION'
p6077
sg10
Nsg24
NsbsS'members'
p6078
g0
(g1
g2
Ntp6079
Rp6080
(dp6081
g6
Nsg8
S'NUMBER'
p6082
sg10
Nsg24
NsbsS'put'
p6083
g0
(g1
g2
Ntp6084
Rp6085
(dp6086
g6
Nsg8
S'OTHER'
p6087
sg10
Nsg24
NsbsS'ash'
p6088
g0
(g1
g2
Ntp6089
Rp6090
(dp6091
g6
Nsg8
S'LOCATION'
p6092
sg10
Nsg24
NsbsS'pairs'
p6093
g0
(g1
g2
Ntp6094
Rp6095
(dp6096
g6
Nsg8
S'NUMBER'
p6097
sg10
Nsg24
NsbsS'prophet'
p6098
g0
(g1
g2
Ntp6099
Rp6100
(dp6101
g6
Nsg8
S'PERSON'
p6102
sg10
Nsg24
NsbsS'whitetail'
p6103
g0
(g1
g2
Ntp6104
Rp6105
(dp6106
g6
Nsg8
S'NUMBER'
p6107
sg10
Nsg24
NsbsS'twenty'
p6108
g0
(g1
g2
Ntp6109
Rp6110
(dp6111
g6
Nsg8
S'MONEY'
p6112
sg10
Nsg24
NsbsS'probability'
p6113
g0
(g1
g2
Ntp6114
Rp6115
(dp6116
g6
Nsg8
S'PERCENT'
p6117
sg10
Nsg24
NsbsS'number'
p6118
g0
(g1
g2
Ntp6119
Rp6120
(dp6121
g6
Nsg8
S'NUMBER'
p6122
sg10
Nsg24
NsbsS'feet'
p6123
g0
(g1
g2
Ntp6124
Rp6125
(dp6126
g6
g16
sg8
S'NUMBER'
p6127
sg10
(dp6128
S'how'
p6129
g0
(g1
g2
Ntp6130
Rp6131
(dp6132
g6
Nsg8
S'NUMBER'
p6133
sg10
Nsg24
NsbsS'what'
p6134
g0
(g1
g2
Ntp6135
Rp6136
(dp6137
g6
Nsg8
S'OTHER'
p6138
sg10
Nsg24
NsbsS'who'
p6139
g0
(g1
g2
Ntp6140
Rp6141
(dp6142
g6
Nsg8
S'PERSON'
p6143
sg10
Nsg24
Nsbssg24
NsbsS'defects'
p6144
g0
(g1
g2
Ntp6145
Rp6146
(dp6147
g6
Nsg8
S'OTHER'
p6148
sg10
Nsg24
NsbsS'whale'
p6149
g0
(g1
g2
Ntp6150
Rp6151
(dp6152
g6
Nsg8
S'OTHER'
p6153
sg10
Nsg24
NsbsS'earthworms'
p6154
g0
(g1
g2
Ntp6155
Rp6156
(dp6157
g6
Nsg8
S'NUMBER'
p6158
sg10
Nsg24
NsbsS'razor'
p6159
g0
(g1
g2
Ntp6160
Rp6161
(dp6162
g6
Nsg8
S'OTHER'
p6163
sg10
Nsg24
NsbsS'story'
p6164
g0
(g1
g2
Ntp6165
Rp6166
(dp6167
g6
Nsg8
S'OTHER'
p6168
sg10
Nsg24
NsbsS'temperature'
p6169
g0
(g1
g2
Ntp6170
Rp6171
(dp6172
g6
Nsg8
S'NUMBER'
p6173
sg10
Nsg24
NsbsS'automobile'
p6174
g0
(g1
g2
Ntp6175
Rp6176
(dp6177
g6
Nsg8
S'OTHER'
p6178
sg10
Nsg24
NsbsS'paint'
p6179
g0
(g1
g2
Ntp6180
Rp6181
(dp6182
g6
g16
sg8
S'DATE'
p6183
sg10
(dp6184
S'what'
p6185
g0
(g1
g2
Ntp6186
Rp6187
(dp6188
g6
Nsg8
S'OTHER'
p6189
sg10
Nsg24
NsbsS'when'
p6190
g0
(g1
g2
Ntp6191
Rp6192
(dp6193
g6
Nsg8
g6183
sg10
Nsg24
Nsbssg24
NsbsS'seafaring'
p6194
g0
(g1
g2
Ntp6195
Rp6196
(dp6197
g6
Nsg8
S'LOCATION'
p6198
sg10
Nsg24
NsbsS'master'
p6199
g0
(g1
g2
Ntp6200
Rp6201
(dp6202
g6
Nsg8
S'PERSON'
p6203
sg10
Nsg24
NsbsS'syllables'
p6204
g0
(g1
g2
Ntp6205
Rp6206
(dp6207
g6
Nsg8
S'NUMBER'
p6208
sg10
Nsg24
NsbsS'syrup'
p6209
g0
(g1
g2
Ntp6210
Rp6211
(dp6212
g6
Nsg8
S'OTHER'
p6213
sg10
Nsg24
NsbsS'unemployment'
p6214
g0
(g1
g2
Ntp6215
Rp6216
(dp6217
g6
Nsg8
S'NUMBER'
p6218
sg10
Nsg24
NsbsS'muscles'
p6219
g0
(g1
g2
Ntp6220
Rp6221
(dp6222
g6
Nsg8
S'NUMBER'
p6223
sg10
Nsg24
NsbsS'circumnavigator'
p6224
g0
(g1
g2
Ntp6225
Rp6226
(dp6227
g6
Nsg8
S'PERSON'
p6228
sg10
Nsg24
NsbsS'hotel'
p6229
g0
(g1
g2
Ntp6230
Rp6231
(dp6232
g6
Nsg8
S'LOCATION'
p6233
sg10
Nsg24
NsbsS'park'
p6234
g0
(g1
g2
Ntp6235
Rp6236
(dp6237
g6
Nsg8
S'LOCATION'
p6238
sg10
Nsg24
NsbsS'part'
p6239
g0
(g1
g2
Ntp6240
Rp6241
(dp6242
g6
g16
sg8
S'PERSON'
p6243
sg10
(dp6244
S'what'
p6245
g0
(g1
g2
Ntp6246
Rp6247
(dp6248
g6
Nsg8
S'OTHER'
p6249
sg10
Nsg24
NsbsS'who'
p6250
g0
(g1
g2
Ntp6251
Rp6252
(dp6253
g6
Nsg8
S'PERSON'
p6254
sg10
Nsg24
NsbsS'in'
p6255
g0
(g1
g2
Ntp6256
Rp6257
(dp6258
g6
Nsg8
S'LOCATION'
p6259
sg10
Nsg24
Nsbssg24
NsbsS'biochemists'
p6260
g0
(g1
g2
Ntp6261
Rp6262
(dp6263
g6
Nsg8
S'PERSON'
p6264
sg10
Nsg24
NsbsS'authors'
p6265
g0
(g1
g2
Ntp6266
Rp6267
(dp6268
g6
Nsg8
S'PERSON'
p6269
sg10
Nsg24
NsbsS'translation'
p6270
g0
(g1
g2
Ntp6271
Rp6272
(dp6273
g6
Nsg8
S'OTHER'
p6274
sg10
Nsg24
NsbsS'believe'
p6275
g0
(g1
g2
Ntp6276
Rp6277
(dp6278
g6
Nsg8
S'DATE'
p6279
sg10
Nsg24
NsbsS'percentage'
p6280
g0
(g1
g2
Ntp6281
Rp6282
(dp6283
g6
Nsg8
S'PERCENT'
p6284
sg10
Nsg24
NsbsS'surfboard'
p6285
g0
(g1
g2
Ntp6286
Rp6287
(dp6288
g6
Nsg8
S'PERSON'
p6289
sg10
Nsg24
NsbsS'king'
p6290
g0
(g1
g2
Ntp6291
Rp6292
(dp6293
g6
Nsg8
S'PERSON'
p6294
sg10
Nsg24
NsbsS'kind'
p6295
g0
(g1
g2
Ntp6296
Rp6297
(dp6298
g6
Nsg8
S'OTHER'
p6299
sg10
Nsg24
NsbsS'determines'
p6300
g0
(g1
g2
Ntp6301
Rp6302
(dp6303
g6
Nsg8
S'OTHER'
p6304
sg10
Nsg24
NsbsS'architect'
p6305
g0
(g1
g2
Ntp6306
Rp6307
(dp6308
g6
Nsg8
S'PERSON'
p6309
sg10
Nsg24
NsbsS'nominee'
p6310
g0
(g1
g2
Ntp6311
Rp6312
(dp6313
g6
Nsg8
S'PERSON'
p6314
sg10
Nsg24
NsbsS'ages'
p6315
g0
(g1
g2
Ntp6316
Rp6317
(dp6318
g6
Nsg8
S'OTHER'
p6319
sg10
Nsg24
NsbsS'emperors'
p6320
g0
(g1
g2
Ntp6321
Rp6322
(dp6323
g6
Nsg8
S'NUMBER'
p6324
sg10
Nsg24
NsbsS'pedometer'
p6325
g0
(g1
g2
Ntp6326
Rp6327
(dp6328
g6
Nsg8
S'OTHER'
p6329
sg10
Nsg24
NsbsS'concentration'
p6330
g0
(g1
g2
Ntp6331
Rp6332
(dp6333
g6
Nsg8
S'LOCATION'
p6334
sg10
Nsg24
NsbsS'mountain'
p6335
g0
(g1
g2
Ntp6336
Rp6337
(dp6338
g6
g16
sg8
S'LOCATION'
p6339
sg10
(dp6340
S'how'
p6341
g0
(g1
g2
Ntp6342
Rp6343
(dp6344
g6
Nsg8
S'NUMBER'
p6345
sg10
Nsg24
NsbsS'what'
p6346
g0
(g1
g2
Ntp6347
Rp6348
(dp6349
g6
Nsg8
S'LOCATION'
p6350
sg10
Nsg24
NsbsS'name'
p6351
g0
(g1
g2
Ntp6352
Rp6353
(dp6354
g6
Nsg8
S'LOCATION'
p6355
sg10
Nsg24
Nsbssg24
NsbsS'built'
p6356
g0
(g1
g2
Ntp6357
Rp6358
(dp6359
g6
Nsg8
S'DATE'
p6360
sg10
Nsg24
NsbsS'dancing'
p6361
g0
(g1
g2
Ntp6362
Rp6363
(dp6364
g6
Nsg8
S'PERSON'
p6365
sg10
Nsg24
NsbsS'majority'
p6366
g0
(g1
g2
Ntp6367
Rp6368
(dp6369
g6
Nsg8
S'PERSON'
p6370
sg10
Nsg24
NsbsS'chairman'
p6371
g0
(g1
g2
Ntp6372
Rp6373
(dp6374
g6
Nsg8
S'PERSON'
p6375
sg10
Nsg24
NsbsS'province'
p6376
g0
(g1
g2
Ntp6377
Rp6378
(dp6379
g6
Nsg8
S'LOCATION'
p6380
sg10
Nsg24
NsbsS'play'
p6381
g0
(g1
g2
Ntp6382
Rp6383
(dp6384
g6
Nsg8
S'OTHER'
p6385
sg10
Nsg24
NsbsS'singles'
p6386
g0
(g1
g2
Ntp6387
Rp6388
(dp6389
g6
Nsg8
S'LOCATION'
p6390
sg10
Nsg24
NsbsS'eggs'
p6391
g0
(g1
g2
Ntp6392
Rp6393
(dp6394
g6
Nsg8
S'TIME'
p6395
sg10
Nsg24
NsbsS'measures'
p6396
g0
(g1
g2
Ntp6397
Rp6398
(dp6399
g6
Nsg8
S'OTHER'
p6400
sg10
Nsg24
NsbsS'eruption'
p6401
g0
(g1
g2
Ntp6402
Rp6403
(dp6404
g6
Nsg8
S'DATE'
p6405
sg10
Nsg24
NsbsS'cigarette'
p6406
g0
(g1
g2
Ntp6407
Rp6408
(dp6409
g6
Nsg8
S'OTHER'
p6410
sg10
Nsg24
NsbsS'position'
p6411
g0
(g1
g2
Ntp6412
Rp6413
(dp6414
g6
Nsg8
S'PERSON'
p6415
sg10
Nsg24
NsbsS'seasons'
p6416
g0
(g1
g2
Ntp6417
Rp6418
(dp6419
g6
Nsg8
S'DATE'
p6420
sg10
Nsg24
NsbsS'salary'
p6421
g0
(g1
g2
Ntp6422
Rp6423
(dp6424
g6
Nsg8
S'MONEY'
p6425
sg10
Nsg24
NsbsS'cover'
p6426
g0
(g1
g2
Ntp6427
Rp6428
(dp6429
g6
Nsg8
S'PERSON'
p6430
sg10
Nsg24
NsbsS'weigh'
p6431
g0
(g1
g2
Ntp6432
Rp6433
(dp6434
g6
Nsg8
S'NUMBER'
p6435
sg10
Nsg24
NsbsS'husband-and-wife'
p6436
g0
(g1
g2
Ntp6437
Rp6438
(dp6439
g6
Nsg8
S'PERSON'
p6440
sg10
Nsg24
NsbsS'golf'
p6441
g0
(g1
g2
Ntp6442
Rp6443
(dp6444
g6
Nsg8
S'OTHER'
p6445
sg10
Nsg24
NsbsS'phenomenon'
p6446
g0
(g1
g2
Ntp6447
Rp6448
(dp6449
g6
Nsg8
S'OTHER'
p6450
sg10
Nsg24
NsbsS'cruiser'
p6451
g0
(g1
g2
Ntp6452
Rp6453
(dp6454
g6
Nsg8
S'PERSON'
p6455
sg10
Nsg24
NsbsS'celebrities'
p6456
g0
(g1
g2
Ntp6457
Rp6458
(dp6459
g6
Nsg8
S'PERSON'
p6460
sg10
Nsg24
NsbsS'businesses'
p6461
g0
(g1
g2
Ntp6462
Rp6463
(dp6464
g6
g16
sg8
S'NUMBER'
p6465
sg10
(dp6466
S'how'
p6467
g0
(g1
g2
Ntp6468
Rp6469
(dp6470
g6
Nsg8
S'NUMBER'
p6471
sg10
Nsg24
NsbsS'what'
p6472
g0
(g1
g2
Ntp6473
Rp6474
(dp6475
g6
Nsg8
S'ORGANIZATION'
p6476
sg10
Nsg24
Nsbssg24
NsbsS'laments'
p6477
g0
(g1
g2
Ntp6478
Rp6479
(dp6480
g6
Nsg8
S'OTHER'
p6481
sg10
Nsg24
NsbsS'fine'
p6482
g0
(g1
g2
Ntp6483
Rp6484
(dp6485
g6
Nsg8
S'MONEY'
p6486
sg10
Nsg24
NsbsS'find'
p6487
g0
(g1
g2
Ntp6488
Rp6489
(dp6490
g6
Nsg8
S'LOCATION'
p6491
sg10
Nsg24
NsbsS'occupation'
p6492
g0
(g1
g2
Ntp6493
Rp6494
(dp6495
g6
Nsg8
S'PERSON'
p6496
sg10
Nsg24
NsbsS'deserts'
p6497
g0
(g1
g2
Ntp6498
Rp6499
(dp6500
g6
Nsg8
S'LOCATION'
p6501
sg10
Nsg24
NsbsS'ruin'
p6502
g0
(g1
g2
Ntp6503
Rp6504
(dp6505
g6
Nsg8
S'OTHER'
p6506
sg10
Nsg24
NsbsS'writer'
p6507
g0
(g1
g2
Ntp6508
Rp6509
(dp6510
g6
Nsg8
S'PERSON'
p6511
sg10
Nsg24
NsbsS'penalty'
p6512
g0
(g1
g2
Ntp6513
Rp6514
(dp6515
g6
Nsg8
S'OTHER'
p6516
sg10
Nsg24
NsbsS'founding'
p6517
g0
(g1
g2
Ntp6518
Rp6519
(dp6520
g6
Nsg8
S'PERSON'
p6521
sg10
Nsg24
NsbsS'referees'
p6522
g0
(g1
g2
Ntp6523
Rp6524
(dp6525
g6
Nsg8
S'NUMBER'
p6526
sg10
Nsg24
NsbsS'trees'
p6527
g0
(g1
g2
Ntp6528
Rp6529
(dp6530
g6
Nsg8
S'NUMBER'
p6531
sg10
Nsg24
NsbsS'ferret'
p6532
g0
(g1
g2
Ntp6533
Rp6534
(dp6535
g6
Nsg8
S'TIME'
p6536
sg10
Nsg24
NsbsS'longest'
p6537
g0
(g1
g2
Ntp6538
Rp6539
(dp6540
g6
Nsg8
S'OTHER'
p6541
sg10
Nsg24
NsbsS'bytes'
p6542
g0
(g1
g2
Ntp6543
Rp6544
(dp6545
g6
Nsg8
S'NUMBER'
p6546
sg10
Nsg24
NsbsS'perfume'
p6547
g0
(g1
g2
Ntp6548
Rp6549
(dp6550
g6
Nsg8
S'PERSON'
p6551
sg10
Nsg24
NsbsS'shoplifts'
p6552
g0
(g1
g2
Ntp6553
Rp6554
(dp6555
g6
Nsg8
S'PERSON'
p6556
sg10
Nsg24
NsbsS'cartoons'
p6557
g0
(g1
g2
Ntp6558
Rp6559
(dp6560
g6
Nsg8
S'LOCATION'
p6561
sg10
Nsg24
NsbsS'corgi'
p6562
g0
(g1
g2
Ntp6563
Rp6564
(dp6565
g6
Nsg8
S'OTHER'
p6566
sg10
Nsg24
NsbsS'river'
p6567
g0
(g1
g2
Ntp6568
Rp6569
(dp6570
g6
Nsg8
S'LOCATION'
p6571
sg10
Nsg24
NsbsS'orca'
p6572
g0
(g1
g2
Ntp6573
Rp6574
(dp6575
g6
Nsg8
S'OTHER'
p6576
sg10
Nsg24
NsbsS'art'
p6577
g0
(g1
g2
Ntp6578
Rp6579
(dp6580
g6
g16
sg8
S'DATE'
p6581
sg10
(dp6582
S'what'
p6583
g0
(g1
g2
Ntp6584
Rp6585
(dp6586
g6
Nsg8
S'ORGANIZATION'
p6587
sg10
Nsg24
NsbsS'when'
p6588
g0
(g1
g2
Ntp6589
Rp6590
(dp6591
g6
Nsg8
S'DATE'
p6592
sg10
Nsg24
NsbsS'name'
p6593
g0
(g1
g2
Ntp6594
Rp6595
(dp6596
g6
Nsg8
S'LOCATION'
p6597
sg10
Nsg24
Nsbssg24
NsbsS'creator'
p6598
g0
(g1
g2
Ntp6599
Rp6600
(dp6601
g6
Nsg8
S'PERSON'
p6602
sg10
Nsg24
NsbsS'sex'
p6603
g0
(g1
g2
Ntp6604
Rp6605
(dp6606
g6
Nsg8
S'OTHER'
p6607
sg10
Nsg24
NsbsS'culture'
p6608
g0
(g1
g2
Ntp6609
Rp6610
(dp6611
g6
Nsg8
S'ORGANIZATION'
p6612
sg10
Nsg24
NsbsS'individual'
p6613
g0
(g1
g2
Ntp6614
Rp6615
(dp6616
g6
Nsg8
S'LOCATION'
p6617
sg10
Nsg24
NsbsS'sea'
p6618
g0
(g1
g2
Ntp6619
Rp6620
(dp6621
g6
Nsg8
S'LOCATION'
p6622
sg10
Nsg24
NsbsS'tender'
p6623
g0
(g1
g2
Ntp6624
Rp6625
(dp6626
g6
Nsg8
S'PERSON'
p6627
sg10
Nsg24
NsbsS'constellation'
p6628
g0
(g1
g2
Ntp6629
Rp6630
(dp6631
g6
Nsg8
S'LOCATION'
p6632
sg10
Nsg24
NsbsS'movie'
p6633
g0
(g1
g2
Ntp6634
Rp6635
(dp6636
g6
g16
sg8
S'PERSON'
p6637
sg10
(dp6638
S'what'
p6639
g0
(g1
g2
Ntp6640
Rp6641
(dp6642
g6
Nsg8
S'OTHER'
p6643
sg10
Nsg24
NsbsS'name'
p6644
g0
(g1
g2
Ntp6645
Rp6646
(dp6647
g6
Nsg8
S'OTHER'
p6648
sg10
Nsg24
NsbsS'who'
p6649
g0
(g1
g2
Ntp6650
Rp6651
(dp6652
g6
Nsg8
S'PERSON'
p6653
sg10
Nsg24
NsbsS'jude'
p6654
g0
(g1
g2
Ntp6655
Rp6656
(dp6657
g6
Nsg8
S'OTHER'
p6658
sg10
Nsg24
NsbsS'which'
p6659
g0
(g1
g2
Ntp6660
Rp6661
(dp6662
g6
Nsg8
S'OTHER'
p6663
sg10
Nsg24
NsbsS'in'
p6664
g0
(g1
g2
Ntp6665
Rp6666
(dp6667
g6
Nsg8
S'OTHER'
p6668
sg10
Nsg24
Nsbssg24
NsbsS'exchange'
p6669
g0
(g1
g2
Ntp6670
Rp6671
(dp6672
g6
Nsg8
S'MONEY'
p6673
sg10
Nsg24
NsbsS'libraries'
p6674
g0
(g1
g2
Ntp6675
Rp6676
(dp6677
g6
Nsg8
S'LOCATION'
p6678
sg10
Nsg24
NsbsS'fans'
p6679
g0
(g1
g2
Ntp6680
Rp6681
(dp6682
g6
Nsg8
S'PERSON'
p6683
sg10
Nsg24
NsbsS'won'
p6684
g0
(g1
g2
Ntp6685
Rp6686
(dp6687
g6
Nsg8
S'PERSON'
p6688
sg10
Nsg24
NsbsS'marriage'
p6689
g0
(g1
g2
Ntp6690
Rp6691
(dp6692
g6
Nsg8
S'OTHER'
p6693
sg10
Nsg24
NsbsS'monsters'
p6694
g0
(g1
g2
Ntp6695
Rp6696
(dp6697
g6
Nsg8
S'LOCATION'
p6698
sg10
Nsg24
NsbsS'incident'
p6699
g0
(g1
g2
Ntp6700
Rp6701
(dp6702
g6
Nsg8
S'OTHER'
p6703
sg10
Nsg24
NsbsS'opposition'
p6704
g0
(g1
g2
Ntp6705
Rp6706
(dp6707
g6
Nsg8
S'PERSON'
p6708
sg10
Nsg24
NsbsS'league'
p6709
g0
(g1
g2
Ntp6710
Rp6711
(dp6712
g6
Nsg8
S'ORGANIZATION'
p6713
sg10
Nsg24
NsbsS'restaurant'
p6714
g0
(g1
g2
Ntp6715
Rp6716
(dp6717
g6
Nsg8
S'LOCATION'
p6718
sg10
Nsg24
NsbsS'connection'
p6719
g0
(g1
g2
Ntp6720
Rp6721
(dp6722
g6
Nsg8
S'OTHER'
p6723
sg10
Nsg24
NsbsS'canadians'
p6724
g0
(g1
g2
Ntp6725
Rp6726
(dp6727
g6
Nsg8
S'NUMBER'
p6728
sg10
Nsg24
NsbsS'baseball'
p6729
g0
(g1
g2
Ntp6730
Rp6731
(dp6732
g6
g16
sg8
S'ORGANIZATION'
p6733
sg10
(dp6734
S'how'
p6735
g0
(g1
g2
Ntp6736
Rp6737
(dp6738
g6
Nsg8
S'NUMBER'
p6739
sg10
Nsg24
NsbsS'what'
p6740
g0
(g1
g2
Ntp6741
Rp6742
(dp6743
g6
Nsg8
S'PERSON'
p6744
sg10
Nsg24
NsbsS'who'
p6745
g0
(g1
g2
Ntp6746
Rp6747
(dp6748
g6
Nsg8
S'PERSON'
p6749
sg10
Nsg24
NsbsS'name'
p6750
g0
(g1
g2
Ntp6751
Rp6752
(dp6753
g6
Nsg8
S'ORGANIZATION'
p6754
sg10
Nsg24
Nsbssg24
NsbsS'millions'
p6755
g0
(g1
g2
Ntp6756
Rp6757
(dp6758
g6
Nsg8
S'OTHER'
p6759
sg10
Nsg24
NsbsS'flies'
p6760
g0
(g1
g2
Ntp6761
Rp6762
(dp6763
g6
Nsg8
S'TIME'
p6764
sg10
Nsg24
NsbsS'yards'
p6765
g0
(g1
g2
Ntp6766
Rp6767
(dp6768
g6
Nsg8
S'NUMBER'
p6769
sg10
Nsg24
NsbsS'point'
p6770
g0
(g1
g2
Ntp6771
Rp6772
(dp6773
g6
Nsg8
S'LOCATION'
p6774
sg10
Nsg24
NsbsS'community'
p6775
g0
(g1
g2
Ntp6776
Rp6777
(dp6778
g6
Nsg8
S'TIME'
p6779
sg10
Nsg24
NsbsS'church'
p6780
g0
(g1
g2
Ntp6781
Rp6782
(dp6783
g6
Nsg8
S'TIME'
p6784
sg10
Nsg24
NsbsS'vessel'
p6785
g0
(g1
g2
Ntp6786
Rp6787
(dp6788
g6
Nsg8
S'OTHER'
p6789
sg10
Nsg24
NsbsS'belt'
p6790
g0
(g1
g2
Ntp6791
Rp6792
(dp6793
g6
Nsg8
S'OTHER'
p6794
sg10
Nsg24
NsbsS'stamp'
p6795
g0
(g1
g2
Ntp6796
Rp6797
(dp6798
g6
Nsg8
S'MONEY'
p6799
sg10
Nsg24
NsbsS'acceptance'
p6800
g0
(g1
g2
Ntp6801
Rp6802
(dp6803
g6
Nsg8
S'PERSON'
p6804
sg10
Nsg24
NsbsS'secret'
p6805
g0
(g1
g2
Ntp6806
Rp6807
(dp6808
g6
Nsg8
S'PERSON'
p6809
sg10
Nsg24
NsbsS'mutiny'
p6810
g0
(g1
g2
Ntp6811
Rp6812
(dp6813
g6
Nsg8
S'DATE'
p6814
sg10
Nsg24
NsbsS'territory'
p6815
g0
(g1
g2
Ntp6816
Rp6817
(dp6818
g6
Nsg8
S'LOCATION'
p6819
sg10
Nsg24
NsbsS'meeting'
p6820
g0
(g1
g2
Ntp6821
Rp6822
(dp6823
g6
Nsg8
S'LOCATION'
p6824
sg10
Nsg24
NsbsS'empty'
p6825
g0
(g1
g2
Ntp6826
Rp6827
(dp6828
g6
Nsg8
S'PERSON'
p6829
sg10
Nsg24
NsbsS'treatment'
p6830
g0
(g1
g2
Ntp6831
Rp6832
(dp6833
g6
Nsg8
S'OTHER'
p6834
sg10
Nsg24
NsbsS'resting'
p6835
g0
(g1
g2
Ntp6836
Rp6837
(dp6838
g6
Nsg8
S'NUMBER'
p6839
sg10
Nsg24
NsbsS'dialogue'
p6840
g0
(g1
g2
Ntp6841
Rp6842
(dp6843
g6
Nsg8
S'OTHER'
p6844
sg10
Nsg24
NsbsS'flight'
p6845
g0
(g1
g2
Ntp6846
Rp6847
(dp6848
g6
Nsg8
S'OTHER'
p6849
sg10
Nsg24
NsbsS'fire'
p6850
g0
(g1
g2
Ntp6851
Rp6852
(dp6853
g6
Nsg8
S'DATE'
p6854
sg10
Nsg24
NsbsS'honorary'
p6855
g0
(g1
g2
Ntp6856
Rp6857
(dp6858
g6
Nsg8
S'PERSON'
p6859
sg10
Nsg24
NsbsS'crack'
p6860
g0
(g1
g2
Ntp6861
Rp6862
(dp6863
g6
Nsg8
S'OTHER'
p6864
sg10
Nsg24
NsbsS'gas'
p6865
g0
(g1
g2
Ntp6866
Rp6867
(dp6868
g6
g16
sg8
S'MONEY'
p6869
sg10
(dp6870
S'what'
p6871
g0
(g1
g2
Ntp6872
Rp6873
(dp6874
g6
Nsg8
g6869
sg10
Nsg24
NsbsS'who'
p6875
g0
(g1
g2
Ntp6876
Rp6877
(dp6878
g6
Nsg8
S'PERSON'
p6879
sg10
Nsg24
Nsbssg24
NsbsS'races'
p6880
g0
(g1
g2
Ntp6881
Rp6882
(dp6883
g6
g16
sg8
S'ORGANIZATION'
p6884
sg10
(dp6885
S'what'
p6886
g0
(g1
g2
Ntp6887
Rp6888
(dp6889
g6
Nsg8
S'PERSON'
p6890
sg10
Nsg24
NsbsS'name'
p6891
g0
(g1
g2
Ntp6892
Rp6893
(dp6894
g6
Nsg8
g6884
sg10
Nsg24
Nsbssg24
NsbsS'lives'
p6895
g0
(g1
g2
Ntp6896
Rp6897
(dp6898
g6
g16
sg8
S'PERSON'
p6899
sg10
(dp6900
S'what'
p6901
g0
(g1
g2
Ntp6902
Rp6903
(dp6904
g6
Nsg8
g6899
sg10
Nsg24
NsbsS'who'
p6905
g0
(g1
g2
Ntp6906
Rp6907
(dp6908
g6
Nsg8
S'PERSON'
p6909
sg10
Nsg24
NsbsS'which'
p6910
g0
(g1
g2
Ntp6911
Rp6912
(dp6913
g6
Nsg8
S'OTHER'
p6914
sg10
Nsg24
Nsbssg24
NsbsS'folklore'
p6915
g0
(g1
g2
Ntp6916
Rp6917
(dp6918
g6
Nsg8
S'OTHER'
p6919
sg10
Nsg24
NsbsS'instructor'
p6920
g0
(g1
g2
Ntp6921
Rp6922
(dp6923
g6
Nsg8
S'PERSON'
p6924
sg10
Nsg24
NsbsS'dialing'
p6925
g0
(g1
g2
Ntp6926
Rp6927
(dp6928
g6
Nsg8
S'LOCATION'
p6929
sg10
Nsg24
NsbsS'plants'
p6930
g0
(g1
g2
Ntp6931
Rp6932
(dp6933
g6
Nsg8
S'OTHER'
p6934
sg10
Nsg24
NsbsS'look'
p6935
g0
(g1
g2
Ntp6936
Rp6937
(dp6938
g6
Nsg8
S'PERSON'
p6939
sg10
Nsg24
NsbsS'frozen'
p6940
g0
(g1
g2
Ntp6941
Rp6942
(dp6943
g6
Nsg8
S'OTHER'
p6944
sg10
Nsg24
NsbsS'governor'
p6945
g0
(g1
g2
Ntp6946
Rp6947
(dp6948
g6
Nsg8
S'PERSON'
p6949
sg10
Nsg24
NsbsS'pound'
p6950
g0
(g1
g2
Ntp6951
Rp6952
(dp6953
g6
Nsg8
S'NUMBER'
p6954
sg10
Nsg24
NsbsS'century'
p6955
g0
(g1
g2
Ntp6956
Rp6957
(dp6958
g6
g16
sg8
S'PERSON'
p6959
sg10
(dp6960
S'what'
p6961
g0
(g1
g2
Ntp6962
Rp6963
(dp6964
g6
Nsg8
S'DATE'
p6965
sg10
Nsg24
NsbsS'who'
p6966
g0
(g1
g2
Ntp6967
Rp6968
(dp6969
g6
Nsg8
S'PERSON'
p6970
sg10
Nsg24
Nsbssg24
NsbsS'neurons'
p6971
g0
(g1
g2
Ntp6972
Rp6973
(dp6974
g6
Nsg8
S'NUMBER'
p6975
sg10
Nsg24
NsbsS'full-length'
p6976
g0
(g1
g2
Ntp6977
Rp6978
(dp6979
g6
Nsg8
S'OTHER'
p6980
sg10
Nsg24
NsbsS'lengths'
p6981
g0
(g1
g2
Ntp6982
Rp6983
(dp6984
g6
Nsg8
S'NUMBER'
p6985
sg10
Nsg24
NsbsS'maids'
p6986
g0
(g1
g2
Ntp6987
Rp6988
(dp6989
g6
Nsg8
S'NUMBER'
p6990
sg10
Nsg24
NsbsS'spears'
p6991
g0
(g1
g2
Ntp6992
Rp6993
(dp6994
g6
Nsg8
S'NUMBER'
p6995
sg10
Nsg24
NsbsS'composition'
p6996
g0
(g1
g2
Ntp6997
Rp6998
(dp6999
g6
Nsg8
S'OTHER'
p7000
sg10
Nsg24
NsbsS'strips'
p7001
g0
(g1
g2
Ntp7002
Rp7003
(dp7004
g6
g16
sg8
S'OTHER'
p7005
sg10
(dp7006
S'who'
p7007
g0
(g1
g2
Ntp7008
Rp7009
(dp7010
g6
Nsg8
S'PERSON'
p7011
sg10
Nsg24
NsbsS'name'
p7012
g0
(g1
g2
Ntp7013
Rp7014
(dp7015
g6
Nsg8
g7005
sg10
Nsg24
Nsbssg24
NsbsS'lawyers'
p7016
g0
(g1
g2
Ntp7017
Rp7018
(dp7019
g6
Nsg8
S'NUMBER'
p7020
sg10
Nsg24
NsbsS'youngsters'
p7021
g0
(g1
g2
Ntp7022
Rp7023
(dp7024
g6
Nsg8
S'PERSON'
p7025
sg10
Nsg24
NsbsS'holidays'
p7026
g0
(g1
g2
Ntp7027
Rp7028
(dp7029
g6
Nsg8
S'OTHER'
p7030
sg10
Nsg24
NsbsS'husbands'
p7031
g0
(g1
g2
Ntp7032
Rp7033
(dp7034
g6
Nsg8
S'PERSON'
p7035
sg10
Nsg24
NsbsS'nickname'
p7036
g0
(g1
g2
Ntp7037
Rp7038
(dp7039
g6
Nsg8
S'PERSON'
p7040
sg10
Nsg24
NsbsS'task'
p7041
g0
(g1
g2
Ntp7042
Rp7043
(dp7044
g6
Nsg8
S'PERSON'
p7045
sg10
Nsg24
NsbsS'whores'
p7046
g0
(g1
g2
Ntp7047
Rp7048
(dp7049
g6
Nsg8
S'PERSON'
p7050
sg10
Nsg24
NsbsS'person'
p7051
g0
(g1
g2
Ntp7052
Rp7053
(dp7054
g6
g16
sg8
S'PERSON'
p7055
sg10
(dp7056
S'how'
p7057
g0
(g1
g2
Ntp7058
Rp7059
(dp7060
g6
Nsg8
S'TIME'
p7061
sg10
Nsg24
NsbsS'what'
p7062
g0
(g1
g2
Ntp7063
Rp7064
(dp7065
g6
Nsg8
S'PERSON'
p7066
sg10
Nsg24
NsbsS'who'
p7067
g0
(g1
g2
Ntp7068
Rp7069
(dp7070
g6
Nsg8
S'PERSON'
p7071
sg10
Nsg24
NsbsS'where'
p7072
g0
(g1
g2
Ntp7073
Rp7074
(dp7075
g6
Nsg8
S'LOCATION'
p7076
sg10
Nsg24
NsbsS'name'
p7077
g0
(g1
g2
Ntp7078
Rp7079
(dp7080
g6
Nsg8
S'PERSON'
p7081
sg10
Nsg24
Nsbssg24
NsbsS'chronicles'
p7082
g0
(g1
g2
Ntp7083
Rp7084
(dp7085
g6
Nsg8
S'OTHER'
p7086
sg10
Nsg24
NsbsS'landmark'
p7087
g0
(g1
g2
Ntp7088
Rp7089
(dp7090
g6
Nsg8
S'LOCATION'
p7091
sg10
Nsg24
NsbsS'organization'
p7092
g0
(g1
g2
Ntp7093
Rp7094
(dp7095
g6
Nsg8
S'ORGANIZATION'
p7096
sg10
Nsg24
NsbsS'spend'
p7097
g0
(g1
g2
Ntp7098
Rp7099
(dp7100
g6
Nsg8
S'LOCATION'
p7101
sg10
Nsg24
NsbsS'ambassador'
p7102
g0
(g1
g2
Ntp7103
Rp7104
(dp7105
g6
g16
sg8
S'DATE'
p7106
sg10
(dp7107
S'who'
p7108
g0
(g1
g2
Ntp7109
Rp7110
(dp7111
g6
Nsg8
S'PERSON'
p7112
sg10
Nsg24
NsbsS'when'
p7113
g0
(g1
g2
Ntp7114
Rp7115
(dp7116
g6
Nsg8
g7106
sg10
Nsg24
Nsbssg24
NsbsS'lobsters'
p7117
g0
(g1
g2
Ntp7118
Rp7119
(dp7120
g6
Nsg8
S'LOCATION'
p7121
sg10
Nsg24
NsbsS'abilities'
p7122
g0
(g1
g2
Ntp7123
Rp7124
(dp7125
g6
Nsg8
S'PERSON'
p7126
sg10
Nsg24
NsbsS'quarters'
p7127
g0
(g1
g2
Ntp7128
Rp7129
(dp7130
g6
Nsg8
S'NUMBER'
p7131
sg10
Nsg24
NsbsS'shape'
p7132
g0
(g1
g2
Ntp7133
Rp7134
(dp7135
g6
Nsg8
S'OTHER'
p7136
sg10
Nsg24
NsbsS'questions'
p7137
g0
(g1
g2
Ntp7138
Rp7139
(dp7140
g6
Nsg8
S'NUMBER'
p7141
sg10
Nsg24
NsbsS'continent'
p7142
g0
(g1
g2
Ntp7143
Rp7144
(dp7145
g6
Nsg8
S'LOCATION'
p7146
sg10
Nsg24
NsbsS'superbowls'
p7147
g0
(g1
g2
Ntp7148
Rp7149
(dp7150
g6
Nsg8
S'NUMBER'
p7151
sg10
Nsg24
NsbsS'wage'
p7152
g0
(g1
g2
Ntp7153
Rp7154
(dp7155
g6
Nsg8
S'MONEY'
p7156
sg10
Nsg24
NsbsS'alternate'
p7157
g0
(g1
g2
Ntp7158
Rp7159
(dp7160
g6
Nsg8
S'OTHER'
p7161
sg10
Nsg24
NsbsS'source'
p7162
g0
(g1
g2
Ntp7163
Rp7164
(dp7165
g6
Nsg8
S'OTHER'
p7166
sg10
Nsg24
NsbsS'location'
p7167
g0
(g1
g2
Ntp7168
Rp7169
(dp7170
g6
Nsg8
S'LOCATION'
p7171
sg10
Nsg24
NsbsS'niece'
p7172
g0
(g1
g2
Ntp7173
Rp7174
(dp7175
g6
Nsg8
S'PERSON'
p7176
sg10
Nsg24
NsbsS'bid'
p7177
g0
(g1
g2
Ntp7178
Rp7179
(dp7180
g6
Nsg8
S'OTHER'
p7181
sg10
Nsg24
NsbsS'wives'
p7182
g0
(g1
g2
Ntp7183
Rp7184
(dp7185
g6
g16
sg8
S'PERSON'
p7186
sg10
(dp7187
S'how'
p7188
g0
(g1
g2
Ntp7189
Rp7190
(dp7191
g6
Nsg8
S'NUMBER'
p7192
sg10
Nsg24
NsbsS'name'
p7193
g0
(g1
g2
Ntp7194
Rp7195
(dp7196
g6
Nsg8
g7186
sg10
Nsg24
Nsbssg24
NsbsS'game'
p7197
g0
(g1
g2
Ntp7198
Rp7199
(dp7200
g6
g16
sg8
S'OTHER'
p7201
sg10
(dp7202
S'what'
p7203
g0
(g1
g2
Ntp7204
Rp7205
(dp7206
g6
Nsg8
S'OTHER'
p7207
sg10
Nsg24
NsbsS'who'
p7208
g0
(g1
g2
Ntp7209
Rp7210
(dp7211
g6
Nsg8
S'PERSON'
p7212
sg10
Nsg24
NsbsS'garry'
p7213
g0
(g1
g2
Ntp7214
Rp7215
(dp7216
g6
Nsg8
S'OTHER'
p7217
sg10
Nsg24
Nsbssg24
NsbsS'wings'
p7218
g0
(g1
g2
Ntp7219
Rp7220
(dp7221
g6
g16
sg8
S'OTHER'
p7222
sg10
(dp7223
S'how'
p7224
g0
(g1
g2
Ntp7225
Rp7226
(dp7227
g6
Nsg8
S'NUMBER'
p7228
sg10
Nsg24
NsbsS'what'
p7229
g0
(g1
g2
Ntp7230
Rp7231
(dp7232
g6
Nsg8
g7222
sg10
Nsg24
Nsbssg24
NsbsS'glitters'
p7233
g0
(g1
g2
Ntp7234
Rp7235
(dp7236
g6
Nsg8
S'LOCATION'
p7237
sg10
Nsg24
NsbsS'disks'
p7238
g0
(g1
g2
Ntp7239
Rp7240
(dp7241
g6
Nsg8
S'NUMBER'
p7242
sg10
Nsg24
NsbsS'purveyor'
p7243
g0
(g1
g2
Ntp7244
Rp7245
(dp7246
g6
Nsg8
S'ORGANIZATION'
p7247
sg10
Nsg24
NsbsS'communications'
p7248
g0
(g1
g2
Ntp7249
Rp7250
(dp7251
g6
Nsg8
S'OTHER'
p7252
sg10
Nsg24
NsbsS'eidologist'
p7253
g0
(g1
g2
Ntp7254
Rp7255
(dp7256
g6
Nsg8
S'OTHER'
p7257
sg10
Nsg24
NsbsS'methods'
p7258
g0
(g1
g2
Ntp7259
Rp7260
(dp7261
g6
Nsg8
S'OTHER'
p7262
sg10
Nsg24
NsbsS'back'
p7263
g0
(g1
g2
Ntp7264
Rp7265
(dp7266
g6
g16
sg8
S'LOCATION'
p7267
sg10
(dp7268
S'what'
p7269
g0
(g1
g2
Ntp7270
Rp7271
(dp7272
g6
Nsg8
g7267
sg10
Nsg24
NsbsS'who'
p7273
g0
(g1
g2
Ntp7274
Rp7275
(dp7276
g6
Nsg8
S'PERSON'
p7277
sg10
Nsg24
Nsbssg24
NsbsS'equivalent'
p7278
g0
(g1
g2
Ntp7279
Rp7280
(dp7281
g6
Nsg8
S'OTHER'
p7282
sg10
Nsg24
NsbsS'examples'
p7283
g0
(g1
g2
Ntp7284
Rp7285
(dp7286
g6
Nsg8
S'LOCATION'
p7287
sg10
Nsg24
NsbsS'erupts'
p7288
g0
(g1
g2
Ntp7289
Rp7290
(dp7291
g6
Nsg8
S'LOCATION'
p7292
sg10
Nsg24
NsbsS'scale'
p7293
g0
(g1
g2
Ntp7294
Rp7295
(dp7296
g6
Nsg8
S'OTHER'
p7297
sg10
Nsg24
NsbsS'singing'
p7298
g0
(g1
g2
Ntp7299
Rp7300
(dp7301
g6
g16
sg8
S'OTHER'
p7302
sg10
(dp7303
S'whose'
p7304
g0
(g1
g2
Ntp7305
Rp7306
(dp7307
g6
Nsg8
S'PERSON'
p7308
sg10
Nsg24
NsbsS'what'
p7309
g0
(g1
g2
Ntp7310
Rp7311
(dp7312
g6
Nsg8
S'PERSON'
p7313
sg10
Nsg24
NsbsS'stuart'
p7314
g0
(g1
g2
Ntp7315
Rp7316
(dp7317
g6
Nsg8
S'OTHER'
p7318
sg10
Nsg24
Nsbssg24
NsbsS'decision'
p7319
g0
(g1
g2
Ntp7320
Rp7321
(dp7322
g6
Nsg8
S'TIME'
p7323
sg10
Nsg24
NsbsS'religion'
p7324
g0
(g1
g2
Ntp7325
Rp7326
(dp7327
g6
Nsg8
S'OTHER'
p7328
sg10
Nsg24
NsbsS'civilization'
p7329
g0
(g1
g2
Ntp7330
Rp7331
(dp7332
g6
Nsg8
S'ORGANIZATION'
p7333
sg10
Nsg24
NsbsS'anti-aids'
p7334
g0
(g1
g2
Ntp7335
Rp7336
(dp7337
g6
Nsg8
S'OTHER'
p7338
sg10
Nsg24
NsbsS'rum'
p7339
g0
(g1
g2
Ntp7340
Rp7341
(dp7342
g6
Nsg8
S'OTHER'
p7343
sg10
Nsg24
NsbsS'lakes'
p7344
g0
(g1
g2
Ntp7345
Rp7346
(dp7347
g6
Nsg8
S'NUMBER'
p7348
sg10
Nsg24
NsbsS'hostages'
p7349
g0
(g1
g2
Ntp7350
Rp7351
(dp7352
g6
Nsg8
S'NUMBER'
p7353
sg10
Nsg24
NsbsS'pitchers'
p7354
g0
(g1
g2
Ntp7355
Rp7356
(dp7357
g6
g16
sg8
S'PERSON'
p7358
sg10
(dp7359
S'how'
p7360
g0
(g1
g2
Ntp7361
Rp7362
(dp7363
g6
Nsg8
S'NUMBER'
p7364
sg10
Nsg24
NsbsS'what'
p7365
g0
(g1
g2
Ntp7366
Rp7367
(dp7368
g6
Nsg8
g7358
sg10
Nsg24
Nsbssg24
NsbsS'vaccine'
p7369
g0
(g1
g2
Ntp7370
Rp7371
(dp7372
g6
Nsg8
S'OTHER'
p7373
sg10
Nsg24
NsbsS'faith'
p7374
g0
(g1
g2
Ntp7375
Rp7376
(dp7377
g6
Nsg8
S'PERSON'
p7378
sg10
Nsg24
NsbsS'anything'
p7379
g0
(g1
g2
Ntp7380
Rp7381
(dp7382
g6
Nsg8
S'LOCATION'
p7383
sg10
Nsg24
NsbsS'stricken'
p7384
g0
(g1
g2
Ntp7385
Rp7386
(dp7387
g6
Nsg8
S'DATE'
p7388
sg10
Nsg24
NsbsS'extensions'
p7389
g0
(g1
g2
Ntp7390
Rp7391
(dp7392
g6
Nsg8
S'NUMBER'
p7393
sg10
Nsg24
NsbsS'block'
p7394
g0
(g1
g2
Ntp7395
Rp7396
(dp7397
g6
Nsg8
S'PERSON'
p7398
sg10
Nsg24
NsbsS'seeing'
p7399
g0
(g1
g2
Ntp7400
Rp7401
(dp7402
g6
Nsg8
S'LOCATION'
p7403
sg10
Nsg24
NsbsS'comedienne'
p7404
g0
(g1
g2
Ntp7405
Rp7406
(dp7407
g6
Nsg8
S'PERSON'
p7408
sg10
Nsg24
NsbsS'frames'
p7409
g0
(g1
g2
Ntp7410
Rp7411
(dp7412
g6
Nsg8
S'NUMBER'
p7413
sg10
Nsg24
NsbsS'lesson'
p7414
g0
(g1
g2
Ntp7415
Rp7416
(dp7417
g6
Nsg8
S'LOCATION'
p7418
sg10
Nsg24
NsbsS'jockey'
p7419
g0
(g1
g2
Ntp7420
Rp7421
(dp7422
g6
Nsg8
S'PERSON'
p7423
sg10
Nsg24
NsbsS'span'
p7424
g0
(g1
g2
Ntp7425
Rp7426
(dp7427
g6
Nsg8
S'LOCATION'
p7428
sg10
Nsg24
NsbsS'question'
p7429
g0
(g1
g2
Ntp7430
Rp7431
(dp7432
g6
Nsg8
S'PERSON'
p7433
sg10
Nsg24
NsbsS'fast'
p7434
g0
(g1
g2
Ntp7435
Rp7436
(dp7437
g6
Nsg8
S'ORGANIZATION'
p7438
sg10
Nsg24
NsbsS'suit'
p7439
g0
(g1
g2
Ntp7440
Rp7441
(dp7442
g6
Nsg8
S'OTHER'
p7443
sg10
Nsg24
NsbsS'opens'
p7444
g0
(g1
g2
Ntp7445
Rp7446
(dp7447
g6
Nsg8
S'OTHER'
p7448
sg10
Nsg24
NsbsS'mountains'
p7449
g0
(g1
g2
Ntp7450
Rp7451
(dp7452
g6
g16
sg8
S'NUMBER'
p7453
sg10
(dp7454
S'how'
p7455
g0
(g1
g2
Ntp7456
Rp7457
(dp7458
g6
Nsg8
g7453
sg10
Nsg24
NsbsS'what'
p7459
g0
(g1
g2
Ntp7460
Rp7461
(dp7462
g6
Nsg8
S'LOCATION'
p7463
sg10
Nsg24
NsbsS'where'
p7464
g0
(g1
g2
Ntp7465
Rp7466
(dp7467
g6
Nsg8
S'LOCATION'
p7468
sg10
Nsg24
Nsbssg24
NsbsS'inches'
p7469
g0
(g1
g2
Ntp7470
Rp7471
(dp7472
g6
Nsg8
S'NUMBER'
p7473
sg10
Nsg24
NsbsS'boys'
p7474
g0
(g1
g2
Ntp7475
Rp7476
(dp7477
g6
Nsg8
S'NUMBER'
p7478
sg10
Nsg24
NsbsS'loco-motion'
p7479
g0
(g1
g2
Ntp7480
Rp7481
(dp7482
g6
Nsg8
S'PERSON'
p7483
sg10
Nsg24
NsbsS'line'
p7484
g0
(g1
g2
Ntp7485
Rp7486
(dp7487
g6
Nsg8
S'OTHER'
p7488
sg10
Nsg24
NsbsS'consist'
p7489
g0
(g1
g2
Ntp7490
Rp7491
(dp7492
g6
Nsg8
S'OTHER'
p7493
sg10
Nsg24
NsbsS'planet'
p7494
g0
(g1
g2
Ntp7495
Rp7496
(dp7497
g6
Nsg8
S'LOCATION'
p7498
sg10
Nsg24
NsbsS'bell'
p7499
g0
(g1
g2
Ntp7500
Rp7501
(dp7502
g6
Nsg8
S'LOCATION'
p7503
sg10
Nsg24
NsbsS'sort'
p7504
g0
(g1
g2
Ntp7505
Rp7506
(dp7507
g6
Nsg8
S'OTHER'
p7508
sg10
Nsg24
NsbsS'camcorders'
p7509
g0
(g1
g2
Ntp7510
Rp7511
(dp7512
g6
Nsg8
S'DATE'
p7513
sg10
Nsg24
NsbsS'endurance'
p7514
g0
(g1
g2
Ntp7515
Rp7516
(dp7517
g6
Nsg8
S'PERSON'
p7518
sg10
Nsg24
NsbsS'points'
p7519
g0
(g1
g2
Ntp7520
Rp7521
(dp7522
g6
Nsg8
S'NUMBER'
p7523
sg10
Nsg24
NsbsS'actors'
p7524
g0
(g1
g2
Ntp7525
Rp7526
(dp7527
g6
g16
sg8
S'NUMBER'
p7528
sg10
(dp7529
S'how'
p7530
g0
(g1
g2
Ntp7531
Rp7532
(dp7533
g6
Nsg8
g7528
sg10
Nsg24
NsbsS'which'
p7534
g0
(g1
g2
Ntp7535
Rp7536
(dp7537
g6
Nsg8
S'PERSON'
p7538
sg10
Nsg24
Nsbssg24
NsbsS'income'
p7539
g0
(g1
g2
Ntp7540
Rp7541
(dp7542
g6
Nsg8
S'MONEY'
p7543
sg10
Nsg24
NsbsS'department'
p7544
g0
(g1
g2
Ntp7545
Rp7546
(dp7547
g6
g16
sg8
S'LOCATION'
p7548
sg10
(dp7549
S'what'
p7550
g0
(g1
g2
Ntp7551
Rp7552
(dp7553
g6
Nsg8
S'PERSON'
p7554
sg10
Nsg24
NsbsS'where'
p7555
g0
(g1
g2
Ntp7556
Rp7557
(dp7558
g6
Nsg8
g7548
sg10
Nsg24
Nsbssg24
NsbsS'elements'
p7559
g0
(g1
g2
Ntp7560
Rp7561
(dp7562
g6
g16
sg8
S'OTHER'
p7563
sg10
(dp7564
S'how'
p7565
g0
(g1
g2
Ntp7566
Rp7567
(dp7568
g6
Nsg8
S'NUMBER'
p7569
sg10
Nsg24
NsbsS'what'
p7570
g0
(g1
g2
Ntp7571
Rp7572
(dp7573
g6
Nsg8
S'OTHER'
p7574
sg10
Nsg24
Nsbssg24
NsbsS'lens'
p7575
g0
(g1
g2
Ntp7576
Rp7577
(dp7578
g6
Nsg8
S'OTHER'
p7579
sg10
Nsg24
NsbsS'desert'
p7580
g0
(g1
g2
Ntp7581
Rp7582
(dp7583
g6
Nsg8
S'LOCATION'
p7584
sg10
Nsg24
NsbsS'structure'
p7585
g0
(g1
g2
Ntp7586
Rp7587
(dp7588
g6
Nsg8
S'OTHER'
p7589
sg10
Nsg24
NsbsS'vice'
p7590
g0
(g1
g2
Ntp7591
Rp7592
(dp7593
g6
Nsg8
S'PERSON'
p7594
sg10
Nsg24
NsbsS'age'
p7595
g0
(g1
g2
Ntp7596
Rp7597
(dp7598
g6
Nsg8
S'TIME'
p7599
sg10
Nsg24
NsbsS'vehicles'
p7600
g0
(g1
g2
Ntp7601
Rp7602
(dp7603
g6
Nsg8
S'OTHER'
p7604
sg10
Nsg24
NsbsS'holes'
p7605
g0
(g1
g2
Ntp7606
Rp7607
(dp7608
g6
Nsg8
S'NUMBER'
p7609
sg10
Nsg24
NsbsS'dot'
p7610
g0
(g1
g2
Ntp7611
Rp7612
(dp7613
g6
Nsg8
S'OTHER'
p7614
sg10
Nsg24
NsbsS'menace'
p7615
g0
(g1
g2
Ntp7616
Rp7617
(dp7618
g6
Nsg8
S'OTHER'
p7619
sg10
Nsg24
NsbsS'requires'
p7620
g0
(g1
g2
Ntp7621
Rp7622
(dp7623
g6
Nsg8
S'OTHER'
p7624
sg10
Nsg24
NsbsS'having'
p7625
g0
(g1
g2
Ntp7626
Rp7627
(dp7628
g6
Nsg8
S'MONEY'
p7629
sg10
Nsg24
NsbsS'once'
p7630
g0
(g1
g2
Ntp7631
Rp7632
(dp7633
g6
Nsg8
S'PERSON'
p7634
sg10
Nsg24
NsbsS'code'
p7635
g0
(g1
g2
Ntp7636
Rp7637
(dp7638
g6
Nsg8
S'PERSON'
p7639
sg10
Nsg24
NsbsS'melts'
p7640
g0
(g1
g2
Ntp7641
Rp7642
(dp7643
g6
Nsg8
S'OTHER'
p7644
sg10
Nsg24
NsbsS'resistance'
p7645
g0
(g1
g2
Ntp7646
Rp7647
(dp7648
g6
Nsg8
S'PERSON'
p7649
sg10
Nsg24
NsbsS'astronauts'
p7650
g0
(g1
g2
Ntp7651
Rp7652
(dp7653
g6
Nsg8
S'NUMBER'
p7654
sg10
Nsg24
NsbsS'go'
p7655
g0
(g1
g2
Ntp7656
Rp7657
(dp7658
g6
Nsg8
S'NUMBER'
p7659
sg10
Nsg24
NsbsS'kilamanjaro'
p7660
g0
(g1
g2
Ntp7661
Rp7662
(dp7663
g6
Nsg8
S'NUMBER'
p7664
sg10
Nsg24
NsbsS'super-teams'
p7665
g0
(g1
g2
Ntp7666
Rp7667
(dp7668
g6
Nsg8
S'ORGANIZATION'
p7669
sg10
Nsg24
NsbsS'centers'
p7670
g0
(g1
g2
Ntp7671
Rp7672
(dp7673
g6
Nsg8
S'OTHER'
p7674
sg10
Nsg24
NsbsS'birthplace'
p7675
g0
(g1
g2
Ntp7676
Rp7677
(dp7678
g6
Nsg8
S'LOCATION'
p7679
sg10
Nsg24
NsbsS'vesuvius'
p7680
g0
(g1
g2
Ntp7681
Rp7682
(dp7683
g6
Nsg8
S'DATE'
p7684
sg10
Nsg24
NsbsS'gold'
p7685
g0
(g1
g2
Ntp7686
Rp7687
(dp7688
g6
g16
sg8
S'PERSON'
p7689
sg10
(dp7690
S'what'
p7691
g0
(g1
g2
Ntp7692
Rp7693
(dp7694
g6
Nsg8
S'OTHER'
p7695
sg10
Nsg24
NsbsS'who'
p7696
g0
(g1
g2
Ntp7697
Rp7698
(dp7699
g6
Nsg8
S'PERSON'
p7700
sg10
Nsg24
Nsbssg24
NsbsS'literary'
p7701
g0
(g1
g2
Ntp7702
Rp7703
(dp7704
g6
Nsg8
S'PERSON'
p7705
sg10
Nsg24
NsbsS'fences'
p7706
g0
(g1
g2
Ntp7707
Rp7708
(dp7709
g6
Nsg8
S'PERSON'
p7710
sg10
Nsg24
NsbsS'resources'
p7711
g0
(g1
g2
Ntp7712
Rp7713
(dp7714
g6
Nsg8
S'LOCATION'
p7715
sg10
Nsg24
NsbsS'ingredient'
p7716
g0
(g1
g2
Ntp7717
Rp7718
(dp7719
g6
Nsg8
S'OTHER'
p7720
sg10
Nsg24
NsbsS'droppings'
p7721
g0
(g1
g2
Ntp7722
Rp7723
(dp7724
g6
Nsg8
S'OTHER'
p7725
sg10
Nsg24
NsbsS'ukulele'
p7726
g0
(g1
g2
Ntp7727
Rp7728
(dp7729
g6
Nsg8
S'LOCATION'
p7730
sg10
Nsg24
NsbsS'kennedy-nixon'
p7731
g0
(g1
g2
Ntp7732
Rp7733
(dp7734
g6
Nsg8
S'PERSON'
p7735
sg10
Nsg24
NsbsS'acreage'
p7736
g0
(g1
g2
Ntp7737
Rp7738
(dp7739
g6
Nsg8
S'NUMBER'
p7740
sg10
Nsg24
NsbsS'mixing'
p7741
g0
(g1
g2
Ntp7742
Rp7743
(dp7744
g6
Nsg8
S'OTHER'
p7745
sg10
Nsg24
NsbsS'surgeon'
p7746
g0
(g1
g2
Ntp7747
Rp7748
(dp7749
g6
Nsg8
S'PERSON'
p7750
sg10
Nsg24
NsbsS'gender'
p7751
g0
(g1
g2
Ntp7752
Rp7753
(dp7754
g6
Nsg8
S'OTHER'
p7755
sg10
Nsg24
NsbsS'marry'
p7756
g0
(g1
g2
Ntp7757
Rp7758
(dp7759
g6
Nsg8
S'PERSON'
p7760
sg10
Nsg24
NsbsS'try'
p7761
g0
(g1
g2
Ntp7762
Rp7763
(dp7764
g6
Nsg8
S'PERSON'
p7765
sg10
Nsg24
NsbsS'race'
p7766
g0
(g1
g2
Ntp7767
Rp7768
(dp7769
g6
Nsg8
S'OTHER'
p7770
sg10
Nsg24
NsbsS'ride'
p7771
g0
(g1
g2
Ntp7772
Rp7773
(dp7774
g6
g16
sg8
S'LOCATION'
p7775
sg10
(dp7776
S'what'
p7777
g0
(g1
g2
Ntp7778
Rp7779
(dp7780
g6
Nsg8
S'OTHER'
p7781
sg10
Nsg24
NsbsS'where'
p7782
g0
(g1
g2
Ntp7783
Rp7784
(dp7785
g6
Nsg8
g7775
sg10
Nsg24
Nsbssg24
NsbsS'non-fiction'
p7786
g0
(g1
g2
Ntp7787
Rp7788
(dp7789
g6
Nsg8
S'OTHER'
p7790
sg10
Nsg24
NsbsS'cds'
p7791
g0
(g1
g2
Ntp7792
Rp7793
(dp7794
g6
Nsg8
S'NUMBER'
p7795
sg10
Nsg24
NsbsS'crop'
p7796
g0
(g1
g2
Ntp7797
Rp7798
(dp7799
g6
Nsg8
S'OTHER'
p7800
sg10
Nsg24
NsbsS'rivers'
p7801
g0
(g1
g2
Ntp7802
Rp7803
(dp7804
g6
Nsg8
S'LOCATION'
p7805
sg10
Nsg24
NsbsS'video'
p7806
g0
(g1
g2
Ntp7807
Rp7808
(dp7809
g6
Nsg8
S'OTHER'
p7810
sg10
Nsg24
NsbsS'grooves'
p7811
g0
(g1
g2
Ntp7812
Rp7813
(dp7814
g6
Nsg8
S'NUMBER'
p7815
sg10
Nsg24
NsbsS'acid'
p7816
g0
(g1
g2
Ntp7817
Rp7818
(dp7819
g6
Nsg8
S'NUMBER'
p7820
sg10
Nsg24
NsbsS'folk'
p7821
g0
(g1
g2
Ntp7822
Rp7823
(dp7824
g6
Nsg8
S'PERSON'
p7825
sg10
Nsg24
NsbsS'victor'
p7826
g0
(g1
g2
Ntp7827
Rp7828
(dp7829
g6
Nsg8
S'PERSON'
p7830
sg10
Nsg24
NsbsS'power'
p7831
g0
(g1
g2
Ntp7832
Rp7833
(dp7834
g6
g16
sg8
S'PERSON'
p7835
sg10
(dp7836
S'who'
p7837
g0
(g1
g2
Ntp7838
Rp7839
(dp7840
g6
Nsg8
S'PERSON'
p7841
sg10
Nsg24
NsbsS'hitler'
p7842
g0
(g1
g2
Ntp7843
Rp7844
(dp7845
g6
Nsg8
S'DATE'
p7846
sg10
Nsg24
Nsbssg24
NsbsS'capital'
p7847
g0
(g1
g2
Ntp7848
Rp7849
(dp7850
g6
Nsg8
S'LOCATION'
p7851
sg10
Nsg24
NsbsS'tournaments'
p7852
g0
(g1
g2
Ntp7853
Rp7854
(dp7855
g6
Nsg8
S'OTHER'
p7856
sg10
Nsg24
NsbsS'bird'
p7857
g0
(g1
g2
Ntp7858
Rp7859
(dp7860
g6
Nsg8
S'OTHER'
p7861
sg10
Nsg24
NsbsS'body'
p7862
g0
(g1
g2
Ntp7863
Rp7864
(dp7865
g6
g16
sg8
S'LOCATION'
p7866
sg10
(dp7867
S'how'
p7868
g0
(g1
g2
Ntp7869
Rp7870
(dp7871
g6
Nsg8
S'TIME'
p7872
sg10
Nsg24
NsbsS'what'
p7873
g0
(g1
g2
Ntp7874
Rp7875
(dp7876
g6
Nsg8
S'LOCATION'
p7877
sg10
Nsg24
Nsbssg24
NsbsS'degree'
p7878
g0
(g1
g2
Ntp7879
Rp7880
(dp7881
g6
Nsg8
S'PERSON'
p7882
sg10
Nsg24
NsbsS'leg'
p7883
g0
(g1
g2
Ntp7884
Rp7885
(dp7886
g6
Nsg8
S'OTHER'
p7887
sg10
Nsg24
NsbsS'commercial'
p7888
g0
(g1
g2
Ntp7889
Rp7890
(dp7891
g6
g16
sg8
S'DATE'
p7892
sg10
(dp7893
S'when'
p7894
g0
(g1
g2
Ntp7895
Rp7896
(dp7897
g6
Nsg8
g7892
sg10
Nsg24
NsbsS'in'
p7898
g0
(g1
g2
Ntp7899
Rp7900
(dp7901
g6
Nsg8
S'OTHER'
p7902
sg10
Nsg24
Nsbssg24
NsbsS'objects'
p7903
g0
(g1
g2
Ntp7904
Rp7905
(dp7906
g6
Nsg8
S'NUMBER'
p7907
sg10
Nsg24
NsbsS'sink'
p7908
g0
(g1
g2
Ntp7909
Rp7910
(dp7911
g6
Nsg8
S'LOCATION'
p7912
sg10
Nsg24
NsbsS'canals'
p7913
g0
(g1
g2
Ntp7914
Rp7915
(dp7916
g6
Nsg8
S'LOCATION'
p7917
sg10
Nsg24
NsbsS'cyclist'
p7918
g0
(g1
g2
Ntp7919
Rp7920
(dp7921
g6
Nsg8
S'OTHER'
p7922
sg10
Nsg24
NsbsS'survivor'
p7923
g0
(g1
g2
Ntp7924
Rp7925
(dp7926
g6
Nsg8
S'PERSON'
p7927
sg10
Nsg24
NsbsS'products'
p7928
g0
(g1
g2
Ntp7929
Rp7930
(dp7931
g6
Nsg8
S'OTHER'
p7932
sg10
Nsg24
NsbsS'defeat'
p7933
g0
(g1
g2
Ntp7934
Rp7935
(dp7936
g6
Nsg8
S'PERSON'
p7937
sg10
Nsg24
NsbsS'residents'
p7938
g0
(g1
g2
Ntp7939
Rp7940
(dp7941
g6
Nsg8
S'ORGANIZATION'
p7942
sg10
Nsg24
NsbsS'makes'
p7943
g0
(g1
g2
Ntp7944
Rp7945
(dp7946
g6
Nsg8
S'PERSON'
p7947
sg10
Nsg24
NsbsS'maker'
p7948
g0
(g1
g2
Ntp7949
Rp7950
(dp7951
g6
Nsg8
S'PERSON'
p7952
sg10
Nsg24
NsbsS'patents'
p7953
g0
(g1
g2
Ntp7954
Rp7955
(dp7956
g6
Nsg8
S'PERSON'
p7957
sg10
Nsg24
NsbsS'heart'
p7958
g0
(g1
g2
Ntp7959
Rp7960
(dp7961
g6
Nsg8
S'DATE'
p7962
sg10
Nsg24
NsbsS'presidents'
p7963
g0
(g1
g2
Ntp7964
Rp7965
(dp7966
g6
g16
sg8
S'PERSON'
p7967
sg10
(dp7968
S'how'
p7969
g0
(g1
g2
Ntp7970
Rp7971
(dp7972
g6
Nsg8
S'NUMBER'
p7973
sg10
Nsg24
NsbsS'what'
p7974
g0
(g1
g2
Ntp7975
Rp7976
(dp7977
g6
Nsg8
S'PERSON'
p7978
sg10
Nsg24
NsbsS'who'
p7979
g0
(g1
g2
Ntp7980
Rp7981
(dp7982
g6
Nsg8
S'PERSON'
p7983
sg10
Nsg24
NsbsS'which'
p7984
g0
(g1
g2
Ntp7985
Rp7986
(dp7987
g6
Nsg8
g7967
sg10
Nsg24
Nsbssg24
NsbsS'respirator'
p7988
g0
(g1
g2
Ntp7989
Rp7990
(dp7991
g6
Nsg8
S'OTHER'
p7992
sg10
Nsg24
NsbsS'names'
p7993
g0
(g1
g2
Ntp7994
Rp7995
(dp7996
g6
g16
sg8
S'PERSON'
p7997
sg10
(dp7998
S'how'
p7999
g0
(g1
g2
Ntp8000
Rp8001
(dp8002
g6
Nsg8
S'NUMBER'
p8003
sg10
Nsg24
NsbsS'what'
p8004
g0
(g1
g2
Ntp8005
Rp8006
(dp8007
g6
Nsg8
S'PERSON'
p8008
sg10
Nsg24
NsbsS'where'
p8009
g0
(g1
g2
Ntp8010
Rp8011
(dp8012
g6
Nsg8
S'LOCATION'
p8013
sg10
Nsg24
Nsbssg24
NsbsS'composer'
p8014
g0
(g1
g2
Ntp8015
Rp8016
(dp8017
g6
Nsg8
S'PERSON'
p8018
sg10
Nsg24
NsbsS'tools'
p8019
g0
(g1
g2
Ntp8020
Rp8021
(dp8022
g6
Nsg8
S'OTHER'
p8023
sg10
Nsg24
NsbsS'use'
p8024
g0
(g1
g2
Ntp8025
Rp8026
(dp8027
g6
Nsg8
S'DATE'
p8028
sg10
Nsg24
NsbsS'zip'
p8029
g0
(g1
g2
Ntp8030
Rp8031
(dp8032
g6
Nsg8
S'NUMBER'
p8033
sg10
Nsg24
NsbsS'remains'
p8034
g0
(g1
g2
Ntp8035
Rp8036
(dp8037
g6
Nsg8
S'LOCATION'
p8038
sg10
Nsg24
NsbsS'camera'
p8039
g0
(g1
g2
Ntp8040
Rp8041
(dp8042
g6
Nsg8
S'ORGANIZATION'
p8043
sg10
Nsg24
NsbsS'manufactures'
p8044
g0
(g1
g2
Ntp8045
Rp8046
(dp8047
g6
Nsg8
S'ORGANIZATION'
p8048
sg10
Nsg24
NsbsS'milliseconds'
p8049
g0
(g1
g2
Ntp8050
Rp8051
(dp8052
g6
Nsg8
S'NUMBER'
p8053
sg10
Nsg24
NsbsS'possession'
p8054
g0
(g1
g2
Ntp8055
Rp8056
(dp8057
g6
Nsg8
S'LOCATION'
p8058
sg10
Nsg24
NsbsS'missile'
p8059
g0
(g1
g2
Ntp8060
Rp8061
(dp8062
g6
Nsg8
S'OTHER'
p8063
sg10
Nsg24
NsbsS'pugilist'
p8064
g0
(g1
g2
Ntp8065
Rp8066
(dp8067
g6
Nsg8
S'PERSON'
p8068
sg10
Nsg24
NsbsS'train'
p8069
g0
(g1
g2
Ntp8070
Rp8071
(dp8072
g6
Nsg8
S'PERSON'
p8073
sg10
Nsg24
NsbsS'rabbit'
p8074
g0
(g1
g2
Ntp8075
Rp8076
(dp8077
g6
Nsg8
S'OTHER'
p8078
sg10
Nsg24
NsbsS'baby'
p8079
g0
(g1
g2
Ntp8080
Rp8081
(dp8082
g6
Nsg8
S'NUMBER'
p8083
sg10
Nsg24
NsbsS'women'
p8084
g0
(g1
g2
Ntp8085
Rp8086
(dp8087
g6
g16
sg8
S'PERSON'
p8088
sg10
(dp8089
S'who'
p8090
g0
(g1
g2
Ntp8091
Rp8092
(dp8093
g6
Nsg8
g8088
sg10
Nsg24
NsbsS'when'
p8094
g0
(g1
g2
Ntp8095
Rp8096
(dp8097
g6
Nsg8
S'DATE'
p8098
sg10
Nsg24
Nsbssg24
NsbsS'account'
p8099
g0
(g1
g2
Ntp8100
Rp8101
(dp8102
g6
Nsg8
S'PERCENT'
p8103
sg10
Nsg24
NsbsS'balls'
p8104
g0
(g1
g2
Ntp8105
Rp8106
(dp8107
g6
Nsg8
S'OTHER'
p8108
sg10
Nsg24
NsbsS'animals'
p8109
g0
(g1
g2
Ntp8110
Rp8111
(dp8112
g6
Nsg8
S'OTHER'
p8113
sg10
Nsg24
NsbsS'athlete'
p8114
g0
(g1
g2
Ntp8115
Rp8116
(dp8117
g6
Nsg8
S'OTHER'
p8118
sg10
Nsg24
NsbsS'resurrectionist'
p8119
g0
(g1
g2
Ntp8120
Rp8121
(dp8122
g6
Nsg8
S'OTHER'
p8123
sg10
Nsg24
NsbsS'control'
p8124
g0
(g1
g2
Ntp8125
Rp8126
(dp8127
g6
Nsg8
S'DATE'
p8128
sg10
Nsg24
NsbsS'process'
p8129
g0
(g1
g2
Ntp8130
Rp8131
(dp8132
g6
Nsg8
S'PERSON'
p8133
sg10
Nsg24
NsbsS'villain'
p8134
g0
(g1
g2
Ntp8135
Rp8136
(dp8137
g6
Nsg8
S'PERSON'
p8138
sg10
Nsg24
NsbsS'bones'
p8139
g0
(g1
g2
Ntp8140
Rp8141
(dp8142
g6
Nsg8
S'NUMBER'
p8143
sg10
Nsg24
NsbsS'hit'
p8144
g0
(g1
g2
Ntp8145
Rp8146
(dp8147
g6
Nsg8
S'PERSON'
p8148
sg10
Nsg24
NsbsS'autobiography'
p8149
g0
(g1
g2
Ntp8150
Rp8151
(dp8152
g6
Nsg8
S'PERSON'
p8153
sg10
Nsg24
NsbsS'holds'
p8154
g0
(g1
g2
Ntp8155
Rp8156
(dp8157
g6
Nsg8
S'PERSON'
p8158
sg10
Nsg24
NsbsS'winners'
p8159
g0
(g1
g2
Ntp8160
Rp8161
(dp8162
g6
Nsg8
S'PERSON'
p8163
sg10
Nsg24
NsbsS'stock'
p8164
g0
(g1
g2
Ntp8165
Rp8166
(dp8167
g6
g16
sg8
S'PERSON'
p8168
sg10
(dp8169
S'what'
p8170
g0
(g1
g2
Ntp8171
Rp8172
(dp8173
g6
Nsg8
S'NUMBER'
p8174
sg10
Nsg24
NsbsS'who'
p8175
g0
(g1
g2
Ntp8176
Rp8177
(dp8178
g6
Nsg8
g8168
sg10
Nsg24
Nsbssg24
NsbsS'fare'
p8179
g0
(g1
g2
Ntp8180
Rp8181
(dp8182
g6
Nsg8
S'OTHER'
p8183
sg10
Nsg24
NsbsS'aborigines'
p8184
g0
(g1
g2
Ntp8185
Rp8186
(dp8187
g6
Nsg8
S'LOCATION'
p8188
sg10
Nsg24
NsbsS'daycare'
p8189
g0
(g1
g2
Ntp8190
Rp8191
(dp8192
g6
Nsg8
S'MONEY'
p8193
sg10
Nsg24
NsbsS'liner'
p8194
g0
(g1
g2
Ntp8195
Rp8196
(dp8197
g6
Nsg8
S'OTHER'
p8198
sg10
Nsg24
NsbsS'element'
p8199
g0
(g1
g2
Ntp8200
Rp8201
(dp8202
g6
Nsg8
S'OTHER'
p8203
sg10
Nsg24
NsbsS'encyclopedia'
p8204
g0
(g1
g2
Ntp8205
Rp8206
(dp8207
g6
Nsg8
S'DATE'
p8208
sg10
Nsg24
NsbsS'alloy'
p8209
g0
(g1
g2
Ntp8210
Rp8211
(dp8212
g6
Nsg8
S'OTHER'
p8213
sg10
Nsg24
NsbsS'software'
p8214
g0
(g1
g2
Ntp8215
Rp8216
(dp8217
g6
Nsg8
S'OTHER'
p8218
sg10
Nsg24
NsbsS'tuberculosis'
p8219
g0
(g1
g2
Ntp8220
Rp8221
(dp8222
g6
g16
sg8
S'MONEY'
p8223
sg10
(dp8224
S'how'
p8225
g0
(g1
g2
Ntp8226
Rp8227
(dp8228
g6
Nsg8
g8223
sg10
Nsg24
NsbsS'where'
p8229
g0
(g1
g2
Ntp8230
Rp8231
(dp8232
g6
Nsg8
S'LOCATION'
p8233
sg10
Nsg24
Nsbssg24
NsbsS'producer'
p8234
g0
(g1
g2
Ntp8235
Rp8236
(dp8237
g6
g16
sg8
S'ORGANIZATION'
p8238
sg10
(dp8239
S'what'
p8240
g0
(g1
g2
Ntp8241
Rp8242
(dp8243
g6
Nsg8
g8238
sg10
Nsg24
NsbsS'italy'
p8244
g0
(g1
g2
Ntp8245
Rp8246
(dp8247
g6
Nsg8
S'OTHER'
p8248
sg10
Nsg24
Nsbssg24
NsbsS'produces'
p8249
g0
(g1
g2
Ntp8250
Rp8251
(dp8252
g6
g16
sg8
S'OTHER'
p8253
sg10
(dp8254
S'who'
p8255
g0
(g1
g2
Ntp8256
Rp8257
(dp8258
g6
Nsg8
S'ORGANIZATION'
p8259
sg10
Nsg24
NsbsS'which'
p8260
g0
(g1
g2
Ntp8261
Rp8262
(dp8263
g6
Nsg8
g8253
sg10
Nsg24
Nsbssg24
NsbsS'move'
p8264
g0
(g1
g2
Ntp8265
Rp8266
(dp8267
g6
Nsg8
S'OTHER'
p8268
sg10
Nsg24
NsbsS'meter'
p8269
g0
(g1
g2
Ntp8270
Rp8271
(dp8272
g6
Nsg8
S'OTHER'
p8273
sg10
Nsg24
NsbsS'sperm'
p8274
g0
(g1
g2
Ntp8275
Rp8276
(dp8277
g6
Nsg8
S'NUMBER'
p8278
sg10
Nsg24
NsbsS'costume'
p8279
g0
(g1
g2
Ntp8280
Rp8281
(dp8282
g6
Nsg8
S'PERSON'
p8283
sg10
Nsg24
NsbsS'galaxy'
p8284
g0
(g1
g2
Ntp8285
Rp8286
(dp8287
g6
Nsg8
S'NUMBER'
p8288
sg10
Nsg24
NsbsS'underwater'
p8289
g0
(g1
g2
Ntp8290
Rp8291
(dp8292
g6
Nsg8
S'PERSON'
p8293
sg10
Nsg24
NsbsS'housewife'
p8294
g0
(g1
g2
Ntp8295
Rp8296
(dp8297
g6
Nsg8
S'PERSON'
p8298
sg10
Nsg24
NsbsS'labor'
p8299
g0
(g1
g2
Ntp8300
Rp8301
(dp8302
g6
g16
sg8
S'DATE'
p8303
sg10
(dp8304
S'what'
p8305
g0
(g1
g2
Ntp8306
Rp8307
(dp8308
g6
Nsg8
S'PERSON'
p8309
sg10
Nsg24
NsbsS'when'
p8310
g0
(g1
g2
Ntp8311
Rp8312
(dp8313
g6
Nsg8
g8303
sg10
Nsg24
Nsbssg24
NsbsS'degrees'
p8314
g0
(g1
g2
Ntp8315
Rp8316
(dp8317
g6
Nsg8
S'NUMBER'
p8318
sg10
Nsg24
NsbsS'latitude'
p8319
g0
(g1
g2
Ntp8320
Rp8321
(dp8322
g6
Nsg8
S'NUMBER'
p8323
sg10
Nsg24
NsbsS'holiday'
p8324
g0
(g1
g2
Ntp8325
Rp8326
(dp8327
g6
Nsg8
S'OTHER'
p8328
sg10
Nsg24
NsbsS'image'
p8329
g0
(g1
g2
Ntp8330
Rp8331
(dp8332
g6
Nsg8
S'PERSON'
p8333
sg10
Nsg24
NsbsS'surrounds'
p8334
g0
(g1
g2
Ntp8335
Rp8336
(dp8337
g6
Nsg8
S'LOCATION'
p8338
sg10
Nsg24
NsbsS'auto'
p8339
g0
(g1
g2
Ntp8340
Rp8341
(dp8342
g6
Nsg8
S'OTHER'
p8343
sg10
Nsg24
NsbsS'snake'
p8344
g0
(g1
g2
Ntp8345
Rp8346
(dp8347
g6
Nsg8
S'OTHER'
p8348
sg10
Nsg24
NsbsS'hands'
p8349
g0
(g1
g2
Ntp8350
Rp8351
(dp8352
g6
g16
sg8
S'PERSON'
p8353
sg10
(dp8354
S'how'
p8355
g0
(g1
g2
Ntp8356
Rp8357
(dp8358
g6
Nsg8
S'NUMBER'
p8359
sg10
Nsg24
NsbsS'what'
p8360
g0
(g1
g2
Ntp8361
Rp8362
(dp8363
g6
Nsg8
g8353
sg10
Nsg24
Nsbssg24
NsbsS'day'
p8364
g0
(g1
g2
Ntp8365
Rp8366
(dp8367
g6
Nsg8
S'DATE'
p8368
sg10
Nsg24
NsbsS'articles'
p8369
g0
(g1
g2
Ntp8370
Rp8371
(dp8372
g6
Nsg8
S'OTHER'
p8373
sg10
Nsg24
NsbsS'airports'
p8374
g0
(g1
g2
Ntp8375
Rp8376
(dp8377
g6
Nsg8
S'LOCATION'
p8378
sg10
Nsg24
NsbsS'university'
p8379
g0
(g1
g2
Ntp8380
Rp8381
(dp8382
g6
Nsg8
S'ORGANIZATION'
p8383
sg10
Nsg24
NsbsS'society'
p8384
g0
(g1
g2
Ntp8385
Rp8386
(dp8387
g6
Nsg8
S'ORGANIZATION'
p8388
sg10
Nsg24
NsbsS'frequency'
p8389
g0
(g1
g2
Ntp8390
Rp8391
(dp8392
g6
Nsg8
S'NUMBER'
p8393
sg10
Nsg24
NsbsS'wander'
p8394
g0
(g1
g2
Ntp8395
Rp8396
(dp8397
g6
Nsg8
S'LOCATION'
p8398
sg10
Nsg24
NsbsS'fathom'
p8399
g0
(g1
g2
Ntp8400
Rp8401
(dp8402
g6
Nsg8
S'NUMBER'
p8403
sg10
Nsg24
NsbsS'www.questions.com'
p8404
g0
(g1
g2
Ntp8405
Rp8406
(dp8407
g6
Nsg8
S'DATE'
p8408
sg10
Nsg24
NsbsS'electronics'
p8409
g0
(g1
g2
Ntp8410
Rp8411
(dp8412
g6
Nsg8
S'ORGANIZATION'
p8413
sg10
Nsg24
NsbsS'abolitionists'
p8414
g0
(g1
g2
Ntp8415
Rp8416
(dp8417
g6
Nsg8
S'OTHER'
p8418
sg10
Nsg24
NsbsS'achievements'
p8419
g0
(g1
g2
Ntp8420
Rp8421
(dp8422
g6
Nsg8
S'OTHER'
p8423
sg10
Nsg24
NsbsS'cricketer'
p8424
g0
(g1
g2
Ntp8425
Rp8426
(dp8427
g6
Nsg8
S'PERSON'
p8428
sg10
Nsg24
NsbsS'southern'
p8429
g0
(g1
g2
Ntp8430
Rp8431
(dp8432
g6
Nsg8
S'LOCATION'
p8433
sg10
Nsg24
NsbsS'approaches'
p8434
g0
(g1
g2
Ntp8435
Rp8436
(dp8437
g6
Nsg8
S'OTHER'
p8438
sg10
Nsg24
NsbsS'midi'
p8439
g0
(g1
g2
Ntp8440
Rp8441
(dp8442
g6
Nsg8
S'LOCATION'
p8443
sg10
Nsg24
NsbsS'gallons'
p8444
g0
(g1
g2
Ntp8445
Rp8446
(dp8447
g6
Nsg8
S'NUMBER'
p8448
sg10
Nsg24
NsbsS'times'
p8449
g0
(g1
g2
Ntp8450
Rp8451
(dp8452
g6
g16
sg8
S'NUMBER'
p8453
sg10
(dp8454
S'how'
p8455
g0
(g1
g2
Ntp8456
Rp8457
(dp8458
g6
Nsg8
S'NUMBER'
p8459
sg10
Nsg24
NsbsS'what'
p8460
g0
(g1
g2
Ntp8461
Rp8462
(dp8463
g6
Nsg8
S'PERSON'
p8464
sg10
Nsg24
Nsbssg24
NsbsS'counterpart'
p8465
g0
(g1
g2
Ntp8466
Rp8467
(dp8468
g6
Nsg8
S'OTHER'
p8469
sg10
Nsg24
NsbsS'length'
p8470
g0
(g1
g2
Ntp8471
Rp8472
(dp8473
g6
Nsg8
S'NUMBER'
p8474
sg10
Nsg24
NsbsS'vegetables'
p8475
g0
(g1
g2
Ntp8476
Rp8477
(dp8478
g6
Nsg8
S'OTHER'
p8479
sg10
Nsg24
NsbsS'cross-your-heart'
p8480
g0
(g1
g2
Ntp8481
Rp8482
(dp8483
g6
Nsg8
S'PERSON'
p8484
sg10
Nsg24
NsbsS'owner'
p8485
g0
(g1
g2
Ntp8486
Rp8487
(dp8488
g6
Nsg8
S'PERSON'
p8489
sg10
Nsg24
NsbsS'quality'
p8490
g0
(g1
g2
Ntp8491
Rp8492
(dp8493
g6
Nsg8
S'LOCATION'
p8494
sg10
Nsg24
NsbsS'system'
p8495
g0
(g1
g2
Ntp8496
Rp8497
(dp8498
g6
Nsg8
S'OTHER'
p8499
sg10
Nsg24
NsbsS'grow'
p8500
g0
(g1
g2
Ntp8501
Rp8502
(dp8503
g6
g16
sg8
S'LOCATION'
p8504
sg10
(dp8505
S'what'
p8506
g0
(g1
g2
Ntp8507
Rp8508
(dp8509
g6
Nsg8
S'OTHER'
p8510
sg10
Nsg24
NsbsS'where'
p8511
g0
(g1
g2
Ntp8512
Rp8513
(dp8514
g6
Nsg8
g8504
sg10
Nsg24
Nsbssg24
NsbsS'attack'
p8515
g0
(g1
g2
Ntp8516
Rp8517
(dp8518
g6
g16
sg8
S'TIME'
p8519
sg10
(dp8520
S'how'
p8521
g0
(g1
g2
Ntp8522
Rp8523
(dp8524
g6
Nsg8
g8519
sg10
Nsg24
NsbsS'the'
p8525
g0
(g1
g2
Ntp8526
Rp8527
(dp8528
g6
Nsg8
S'DATE'
p8529
sg10
Nsg24
Nsbssg24
NsbsS'ton'
p8530
g0
(g1
g2
Ntp8531
Rp8532
(dp8533
g6
Nsg8
S'MONEY'
p8534
sg10
Nsg24
NsbsS'tourists'
p8535
g0
(g1
g2
Ntp8536
Rp8537
(dp8538
g6
Nsg8
S'LOCATION'
p8539
sg10
Nsg24
NsbsS'stomach'
p8540
g0
(g1
g2
Ntp8541
Rp8542
(dp8543
g6
Nsg8
S'OTHER'
p8544
sg10
Nsg24
NsbsS'lists'
p8545
g0
(g1
g2
Ntp8546
Rp8547
(dp8548
g6
Nsg8
S'LOCATION'
p8549
sg10
Nsg24
NsbsS'chemicals'
p8550
g0
(g1
g2
Ntp8551
Rp8552
(dp8553
g6
g16
sg8
S'LOCATION'
p8554
sg10
(dp8555
S'what'
p8556
g0
(g1
g2
Ntp8557
Rp8558
(dp8559
g6
Nsg8
S'OTHER'
p8560
sg10
Nsg24
NsbsS'where'
p8561
g0
(g1
g2
Ntp8562
Rp8563
(dp8564
g6
Nsg8
g8554
sg10
Nsg24
Nsbssg24
NsbsS'regards'
p8565
g0
(g1
g2
Ntp8566
Rp8567
(dp8568
g6
Nsg8
S'PERSON'
p8569
sg10
Nsg24
NsbsS'mules'
p8570
g0
(g1
g2
Ntp8571
Rp8572
(dp8573
g6
Nsg8
S'PERSON'
p8574
sg10
Nsg24
NsbsS'steel'
p8575
g0
(g1
g2
Ntp8576
Rp8577
(dp8578
g6
g16
sg8
S'OTHER'
p8579
sg10
(dp8580
S'what'
p8581
g0
(g1
g2
Ntp8582
Rp8583
(dp8584
g6
Nsg8
g8579
sg10
Nsg24
NsbsS'when'
p8585
g0
(g1
g2
Ntp8586
Rp8587
(dp8588
g6
Nsg8
S'DATE'
p8589
sg10
Nsg24
Nsbssg24
NsbsS'photograph'
p8590
g0
(g1
g2
Ntp8591
Rp8592
(dp8593
g6
Nsg8
S'LOCATION'
p8594
sg10
Nsg24
NsbsS'listeners'
p8595
g0
(g1
g2
Ntp8596
Rp8597
(dp8598
g6
Nsg8
S'PERSON'
p8599
sg10
Nsg24
NsbsS'quadruplets'
p8600
g0
(g1
g2
Ntp8601
Rp8602
(dp8603
g6
Nsg8
S'NUMBER'
p8604
sg10
Nsg24
NsbsS'sculpture'
p8605
g0
(g1
g2
Ntp8606
Rp8607
(dp8608
g6
Nsg8
S'OTHER'
p8609
sg10
Nsg24
NsbsS'exhibit'
p8610
g0
(g1
g2
Ntp8611
Rp8612
(dp8613
g6
Nsg8
S'ORGANIZATION'
p8614
sg10
Nsg24
NsbsS'tabs'
p8615
g0
(g1
g2
Ntp8616
Rp8617
(dp8618
g6
Nsg8
S'LOCATION'
p8619
sg10
Nsg24
NsbsS'border'
p8620
g0
(g1
g2
Ntp8621
Rp8622
(dp8623
g6
g16
sg8
S'NUMBER'
p8624
sg10
(dp8625
S'how'
p8626
g0
(g1
g2
Ntp8627
Rp8628
(dp8629
g6
Nsg8
g8624
sg10
Nsg24
NsbsS'what'
p8630
g0
(g1
g2
Ntp8631
Rp8632
(dp8633
g6
Nsg8
S'LOCATION'
p8634
sg10
Nsg24
Nsbssg24
NsbsS'sings'
p8635
g0
(g1
g2
Ntp8636
Rp8637
(dp8638
g6
Nsg8
S'PERSON'
p8639
sg10
Nsg24
NsbsS'russians'
p8640
g0
(g1
g2
Ntp8641
Rp8642
(dp8643
g6
Nsg8
S'NUMBER'
p8644
sg10
Nsg24
NsbsS'come-on'
p8645
g0
(g1
g2
Ntp8646
Rp8647
(dp8648
g6
Nsg8
S'PERSON'
p8649
sg10
Nsg24
NsbsS'agency'
p8650
g0
(g1
g2
Ntp8651
Rp8652
(dp8653
g6
Nsg8
S'ORGANIZATION'
p8654
sg10
Nsg24
NsbsS'writ'
p8655
g0
(g1
g2
Ntp8656
Rp8657
(dp8658
g6
Nsg8
S'OTHER'
p8659
sg10
Nsg24
NsbsS'divers'
p8660
g0
(g1
g2
Ntp8661
Rp8662
(dp8663
g6
Nsg8
S'OTHER'
p8664
sg10
Nsg24
NsbsS'vegetation'
p8665
g0
(g1
g2
Ntp8666
Rp8667
(dp8668
g6
Nsg8
S'NUMBER'
p8669
sg10
Nsg24
NsbsS'device'
p8670
g0
(g1
g2
Ntp8671
Rp8672
(dp8673
g6
Nsg8
S'OTHER'
p8674
sg10
Nsg24
NsbsS'cabinet'
p8675
g0
(g1
g2
Ntp8676
Rp8677
(dp8678
g6
Nsg8
S'PERSON'
p8679
sg10
Nsg24
NsbsS'class'
p8680
g0
(g1
g2
Ntp8681
Rp8682
(dp8683
g6
Nsg8
S'OTHER'
p8684
sg10
Nsg24
NsbsS'stronger'
p8685
g0
(g1
g2
Ntp8686
Rp8687
(dp8688
g6
Nsg8
S'NUMBER'
p8689
sg10
Nsg24
NsbsS'disease'
p8690
g0
(g1
g2
Ntp8691
Rp8692
(dp8693
g6
Nsg8
S'OTHER'
p8694
sg10
Nsg24
NsbsS'guinea'
p8695
g0
(g1
g2
Ntp8696
Rp8697
(dp8698
g6
Nsg8
S'LOCATION'
p8699
sg10
Nsg24
NsbsS'painting'
p8700
g0
(g1
g2
Ntp8701
Rp8702
(dp8703
g6
Nsg8
S'DATE'
p8704
sg10
Nsg24
NsbsS'chances'
p8705
g0
(g1
g2
Ntp8706
Rp8707
(dp8708
g6
Nsg8
S'PERCENT'
p8709
sg10
Nsg24
NsbsS'indoor'
p8710
g0
(g1
g2
Ntp8711
Rp8712
(dp8713
g6
Nsg8
S'OTHER'
p8714
sg10
Nsg24
NsbsS'hamlet'
p8715
g0
(g1
g2
Ntp8716
Rp8717
(dp8718
g6
Nsg8
S'LOCATION'
p8719
sg10
Nsg24
NsbsS'soldiers'
p8720
g0
(g1
g2
Ntp8721
Rp8722
(dp8723
g6
g16
sg8
S'NUMBER'
p8724
sg10
(dp8725
S'how'
p8726
g0
(g1
g2
Ntp8727
Rp8728
(dp8729
g6
Nsg8
S'NUMBER'
p8730
sg10
Nsg24
NsbsS'about'
p8731
g0
(g1
g2
Ntp8732
Rp8733
(dp8734
g6
Nsg8
S'NUMBER'
p8735
sg10
Nsg24
NsbsS'who'
p8736
g0
(g1
g2
Ntp8737
Rp8738
(dp8739
g6
Nsg8
S'PERSON'
p8740
sg10
Nsg24
NsbsS'in'
p8741
g0
(g1
g2
Ntp8742
Rp8743
(dp8744
g6
Nsg8
S'NUMBER'
p8745
sg10
Nsg24
Nsbssg24
NsbsS'chicken'
p8746
g0
(g1
g2
Ntp8747
Rp8748
(dp8749
g6
Nsg8
S'OTHER'
p8750
sg10
Nsg24
NsbsS'staff'
p8751
g0
(g1
g2
Ntp8752
Rp8753
(dp8754
g6
Nsg8
S'PERSON'
p8755
sg10
Nsg24
NsbsS'winner'
p8756
g0
(g1
g2
Ntp8757
Rp8758
(dp8759
g6
Nsg8
S'OTHER'
p8760
sg10
Nsg24
NsbsS'eat'
p8761
g0
(g1
g2
Ntp8762
Rp8763
(dp8764
g6
Nsg8
S'OTHER'
p8765
sg10
Nsg24
NsbsS'tape'
p8766
g0
(g1
g2
Ntp8767
Rp8768
(dp8769
g6
Nsg8
S'LOCATION'
p8770
sg10
Nsg24
NsbsS'molecules'
p8771
g0
(g1
g2
Ntp8772
Rp8773
(dp8774
g6
Nsg8
S'OTHER'
p8775
sg10
Nsg24
NsbsS'fuel'
p8776
g0
(g1
g2
Ntp8777
Rp8778
(dp8779
g6
Nsg8
S'OTHER'
p8780
sg10
Nsg24
NsbsS'piano'
p8781
g0
(g1
g2
Ntp8782
Rp8783
(dp8784
g6
Nsg8
S'LOCATION'
p8785
sg10
Nsg24
NsbsS'thousands'
p8786
g0
(g1
g2
Ntp8787
Rp8788
(dp8789
g6
Nsg8
S'NUMBER'
p8790
sg10
Nsg24
NsbsS'bear'
p8791
g0
(g1
g2
Ntp8792
Rp8793
(dp8794
g6
g16
sg8
S'PERSON'
p8795
sg10
(dp8796
S'whose'
p8797
g0
(g1
g2
Ntp8798
Rp8799
(dp8800
g6
Nsg8
g8795
sg10
Nsg24
NsbsS'what'
p8801
g0
(g1
g2
Ntp8802
Rp8803
(dp8804
g6
Nsg8
S'OTHER'
p8805
sg10
Nsg24
Nsbssg24
NsbsS'words'
p8806
g0
(g1
g2
Ntp8807
Rp8808
(dp8809
g6
g16
sg8
S'OTHER'
p8810
sg10
(dp8811
S'how'
p8812
g0
(g1
g2
Ntp8813
Rp8814
(dp8815
g6
Nsg8
S'NUMBER'
p8816
sg10
Nsg24
NsbsS'what'
p8817
g0
(g1
g2
Ntp8818
Rp8819
(dp8820
g6
Nsg8
S'OTHER'
p8821
sg10
Nsg24
NsbsS'name'
p8822
g0
(g1
g2
Ntp8823
Rp8824
(dp8825
g6
Nsg8
S'OTHER'
p8826
sg10
Nsg24
Nsbssg24
NsbsS'suey'
p8827
g0
(g1
g2
Ntp8828
Rp8829
(dp8830
g6
Nsg8
S'LOCATION'
p8831
sg10
Nsg24
NsbsS'motorcycle'
p8832
g0
(g1
g2
Ntp8833
Rp8834
(dp8835
g6
Nsg8
S'OTHER'
p8836
sg10
Nsg24
NsbsS'official'
p8837
g0
(g1
g2
Ntp8838
Rp8839
(dp8840
g6
g16
sg8
S'LOCATION'
p8841
sg10
(dp8842
S'who'
p8843
g0
(g1
g2
Ntp8844
Rp8845
(dp8846
g6
Nsg8
S'PERSON'
p8847
sg10
Nsg24
NsbsS'where'
p8848
g0
(g1
g2
Ntp8849
Rp8850
(dp8851
g6
Nsg8
g8841
sg10
Nsg24
Nsbssg24
NsbsS'humans'
p8852
g0
(g1
g2
Ntp8853
Rp8854
(dp8855
g6
g16
sg8
S'OTHER'
p8856
sg10
(dp8857
S'what'
p8858
g0
(g1
g2
Ntp8859
Rp8860
(dp8861
g6
Nsg8
g8856
sg10
Nsg24
NsbsS'when'
p8862
g0
(g1
g2
Ntp8863
Rp8864
(dp8865
g6
Nsg8
S'DATE'
p8866
sg10
Nsg24
Nsbssg24
NsbsS'canine'
p8867
g0
(g1
g2
Ntp8868
Rp8869
(dp8870
g6
Nsg8
S'PERSON'
p8871
sg10
Nsg24
NsbsS'computer'
p8872
g0
(g1
g2
Ntp8873
Rp8874
(dp8875
g6
Nsg8
S'OTHER'
p8876
sg10
Nsg24
NsbsS'textiles'
p8877
g0
(g1
g2
Ntp8878
Rp8879
(dp8880
g6
Nsg8
S'LOCATION'
p8881
sg10
Nsg24
NsbsS'nuclear'
p8882
g0
(g1
g2
Ntp8883
Rp8884
(dp8885
g6
Nsg8
S'LOCATION'
p8886
sg10
Nsg24
NsbsS'genius'
p8887
g0
(g1
g2
Ntp8888
Rp8889
(dp8890
g6
Nsg8
S'PERSON'
p8891
sg10
Nsg24
NsbsS'state'
p8892
g0
(g1
g2
Ntp8893
Rp8894
(dp8895
g6
g16
sg8
S'LOCATION'
p8896
sg10
(dp8897
S'what'
p8898
g0
(g1
g2
Ntp8899
Rp8900
(dp8901
g6
Nsg8
S'LOCATION'
p8902
sg10
Nsg24
NsbsS'by'
p8903
g0
(g1
g2
Ntp8904
Rp8905
(dp8906
g6
Nsg8
S'MONEY'
p8907
sg10
Nsg24
NsbsS'in'
p8908
g0
(g1
g2
Ntp8909
Rp8910
(dp8911
g6
Nsg8
S'LOCATION'
p8912
sg10
Nsg24
Nsbssg24
NsbsS'gemstone'
p8913
g0
(g1
g2
Ntp8914
Rp8915
(dp8916
g6
Nsg8
S'OTHER'
p8917
sg10
Nsg24
NsbsS'email'
p8918
g0
(g1
g2
Ntp8919
Rp8920
(dp8921
g6
Nsg8
S'LOCATION'
p8922
sg10
Nsg24
NsbsS'monarchs'
p8923
g0
(g1
g2
Ntp8924
Rp8925
(dp8926
g6
Nsg8
S'LOCATION'
p8927
sg10
Nsg24
NsbsS'ends'
p8928
g0
(g1
g2
Ntp8929
Rp8930
(dp8931
g6
Nsg8
S'OTHER'
p8932
sg10
Nsg24
NsbsS'ability'
p8933
g0
(g1
g2
Ntp8934
Rp8935
(dp8936
g6
Nsg8
S'OTHER'
p8937
sg10
Nsg24
NsbsS'job'
p8938
g0
(g1
g2
Ntp8939
Rp8940
(dp8941
g6
Nsg8
S'PERSON'
p8942
sg10
Nsg24
NsbsS'group'
p8943
g0
(g1
g2
Ntp8944
Rp8945
(dp8946
g6
g16
sg8
S'LOCATION'
p8947
sg10
(dp8948
S'when'
p8949
g0
(g1
g2
Ntp8950
Rp8951
(dp8952
g6
Nsg8
S'DATE'
p8953
sg10
Nsg24
NsbsS'what'
p8954
g0
(g1
g2
Ntp8955
Rp8956
(dp8957
g6
Nsg8
S'ORGANIZATION'
p8958
sg10
Nsg24
NsbsS'where'
p8959
g0
(g1
g2
Ntp8960
Rp8961
(dp8962
g6
Nsg8
g8947
sg10
Nsg24
Nsbssg24
NsbsS'barroom'
p8963
g0
(g1
g2
Ntp8964
Rp8965
(dp8966
g6
Nsg8
S'PERSON'
p8967
sg10
Nsg24
NsbsS'joke'
p8968
g0
(g1
g2
Ntp8969
Rp8970
(dp8971
g6
Nsg8
S'PERSON'
p8972
sg10
Nsg24
NsbsS'drug'
p8973
g0
(g1
g2
Ntp8974
Rp8975
(dp8976
g6
Nsg8
S'OTHER'
p8977
sg10
Nsg24
NsbsS'figures'
p8978
g0
(g1
g2
Ntp8979
Rp8980
(dp8981
g6
Nsg8
S'PERSON'
p8982
sg10
Nsg24
NsbsS'kinds'
p8983
g0
(g1
g2
Ntp8984
Rp8985
(dp8986
g6
g16
sg8
S'NUMBER'
p8987
sg10
(dp8988
S'how'
p8989
g0
(g1
g2
Ntp8990
Rp8991
(dp8992
g6
Nsg8
g8987
sg10
Nsg24
NsbsS'what'
p8993
g0
(g1
g2
Ntp8994
Rp8995
(dp8996
g6
Nsg8
S'OTHER'
p8997
sg10
Nsg24
Nsbssg24
NsbsS'heliologist'
p8998
g0
(g1
g2
Ntp8999
Rp9000
(dp9001
g6
Nsg8
S'OTHER'
p9002
sg10
Nsg24
NsbsS'statistics'
p9003
g0
(g1
g2
Ntp9004
Rp9005
(dp9006
g6
g16
sg8
S'NUMBER'
p9007
sg10
(dp9008
S'what'
p9009
g0
(g1
g2
Ntp9010
Rp9011
(dp9012
g6
Nsg8
g9007
sg10
Nsg24
NsbsS'where'
p9013
g0
(g1
g2
Ntp9014
Rp9015
(dp9016
g6
Nsg8
S'LOCATION'
p9017
sg10
Nsg24
Nsbssg24
NsbsS'statues'
p9018
g0
(g1
g2
Ntp9019
Rp9020
(dp9021
g6
Nsg8
S'OTHER'
p9022
sg10
Nsg24
NsbsS'conservationist'
p9023
g0
(g1
g2
Ntp9024
Rp9025
(dp9026
g6
Nsg8
S'PERSON'
p9027
sg10
Nsg24
NsbsS'wall'
p9028
g0
(g1
g2
Ntp9029
Rp9030
(dp9031
g6
Nsg8
S'LOCATION'
p9032
sg10
Nsg24
NsbsS'lyricist'
p9033
g0
(g1
g2
Ntp9034
Rp9035
(dp9036
g6
Nsg8
S'PERSON'
p9037
sg10
Nsg24
NsbsS'acres'
p9038
g0
(g1
g2
Ntp9039
Rp9040
(dp9041
g6
Nsg8
S'NUMBER'
p9042
sg10
Nsg24
NsbsS'poem'
p9043
g0
(g1
g2
Ntp9044
Rp9045
(dp9046
g6
Nsg8
S'PERSON'
p9047
sg10
Nsg24
NsbsS'door-to-door'
p9048
g0
(g1
g2
Ntp9049
Rp9050
(dp9051
g6
Nsg8
S'PERSON'
p9052
sg10
Nsg24
NsbsS'trademark'
p9053
g0
(g1
g2
Ntp9054
Rp9055
(dp9056
g6
Nsg8
S'OTHER'
p9057
sg10
Nsg24
NsbsS'copies'
p9058
g0
(g1
g2
Ntp9059
Rp9060
(dp9061
g6
Nsg8
S'NUMBER'
p9062
sg10
Nsg24
NsbsS'newscast'
p9063
g0
(g1
g2
Ntp9064
Rp9065
(dp9066
g6
Nsg8
S'PERSON'
p9067
sg10
Nsg24
NsbsS'treat'
p9068
g0
(g1
g2
Ntp9069
Rp9070
(dp9071
g6
Nsg8
S'OTHER'
p9072
sg10
Nsg24
NsbsS'poet'
p9073
g0
(g1
g2
Ntp9074
Rp9075
(dp9076
g6
Nsg8
S'PERSON'
p9077
sg10
Nsg24
NsbsS'waste'
p9078
g0
(g1
g2
Ntp9079
Rp9080
(dp9081
g6
Nsg8
S'NUMBER'
p9082
sg10
Nsg24
NsbsS'senses'
p9083
g0
(g1
g2
Ntp9084
Rp9085
(dp9086
g6
Nsg8
S'OTHER'
p9087
sg10
Nsg24
NsbsS'angles'
p9088
g0
(g1
g2
Ntp9089
Rp9090
(dp9091
g6
Nsg8
S'NUMBER'
p9092
sg10
Nsg24
NsbsS'bull'
p9093
g0
(g1
g2
Ntp9094
Rp9095
(dp9096
g6
Nsg8
S'PERSON'
p9097
sg10
Nsg24
NsbsS'ravens'
p9098
g0
(g1
g2
Ntp9099
Rp9100
(dp9101
g6
Nsg8
S'OTHER'
p9102
sg10
Nsg24
NsbsS'painter'
p9103
g0
(g1
g2
Ntp9104
Rp9105
(dp9106
g6
Nsg8
S'PERSON'
p9107
sg10
Nsg24
NsbsS'quotation'
p9108
g0
(g1
g2
Ntp9109
Rp9110
(dp9111
g6
Nsg8
S'PERSON'
p9112
sg10
Nsg24
NsbsS'novel'
p9113
g0
(g1
g2
Ntp9114
Rp9115
(dp9116
g6
g16
sg8
S'OTHER'
p9117
sg10
(dp9118
S'what'
p9119
g0
(g1
g2
Ntp9120
Rp9121
(dp9122
g6
Nsg8
S'OTHER'
p9123
sg10
Nsg24
NsbsS'who'
p9124
g0
(g1
g2
Ntp9125
Rp9126
(dp9127
g6
Nsg8
S'PERSON'
p9128
sg10
Nsg24
NsbsS'name'
p9129
g0
(g1
g2
Ntp9130
Rp9131
(dp9132
g6
Nsg8
S'OTHER'
p9133
sg10
Nsg24
Nsbssg24
NsbsS'irate'
p9134
g0
(g1
g2
Ntp9135
Rp9136
(dp9137
g6
Nsg8
S'OTHER'
p9138
sg10
Nsg24
NsbsS'wild'
p9139
g0
(g1
g2
Ntp9140
Rp9141
(dp9142
g6
Nsg8
S'PERSON'
p9143
sg10
Nsg24
NsbsS'mythology'
p9144
g0
(g1
g2
Ntp9145
Rp9146
(dp9147
g6
Nsg8
S'LOCATION'
p9148
sg10
Nsg24
NsbsS'layer'
p9149
g0
(g1
g2
Ntp9150
Rp9151
(dp9152
g6
Nsg8
S'OTHER'
p9153
sg10
Nsg24
NsbsS'resident'
p9154
g0
(g1
g2
Ntp9155
Rp9156
(dp9157
g6
Nsg8
S'PERSON'
p9158
sg10
Nsg24
NsbsS'site'
p9159
g0
(g1
g2
Ntp9160
Rp9161
(dp9162
g6
Nsg8
S'LOCATION'
p9163
sg10
Nsg24
NsbsS'surface'
p9164
g0
(g1
g2
Ntp9165
Rp9166
(dp9167
g6
Nsg8
S'NUMBER'
p9168
sg10
Nsg24
NsbsS'partner'
p9169
g0
(g1
g2
Ntp9170
Rp9171
(dp9172
g6
Nsg8
S'PERSON'
p9173
sg10
Nsg24
NsbsS'administration'
p9174
g0
(g1
g2
Ntp9175
Rp9176
(dp9177
g6
g16
sg8
S'ORGANIZATION'
p9178
sg10
(dp9179
S'what'
p9180
g0
(g1
g2
Ntp9181
Rp9182
(dp9183
g6
Nsg8
g9178
sg10
Nsg24
NsbsS'who'
p9184
g0
(g1
g2
Ntp9185
Rp9186
(dp9187
g6
Nsg8
S'PERSON'
p9188
sg10
Nsg24
Nsbssg24
NsbsS'member'
p9189
g0
(g1
g2
Ntp9190
Rp9191
(dp9192
g6
g16
sg8
S'PERSON'
p9193
sg10
(dp9194
S'how'
p9195
g0
(g1
g2
Ntp9196
Rp9197
(dp9198
g6
Nsg8
S'NUMBER'
p9199
sg10
Nsg24
NsbsS'what'
p9200
g0
(g1
g2
Ntp9201
Rp9202
(dp9203
g6
Nsg8
S'PERSON'
p9204
sg10
Nsg24
NsbsS'which'
p9205
g0
(g1
g2
Ntp9206
Rp9207
(dp9208
g6
Nsg8
S'PERSON'
p9209
sg10
Nsg24
Nsbssg24
NsbsS'dam'
p9210
g0
(g1
g2
Ntp9211
Rp9212
(dp9213
g6
Nsg8
S'LOCATION'
p9214
sg10
Nsg24
NsbsS'party'
p9215
g0
(g1
g2
Ntp9216
Rp9217
(dp9218
g6
g16
sg8
S'ORGANIZATION'
p9219
sg10
(dp9220
S'how'
p9221
g0
(g1
g2
Ntp9222
Rp9223
(dp9224
g6
Nsg8
S'MONEY'
p9225
sg10
Nsg24
NsbsS'what'
p9226
g0
(g1
g2
Ntp9227
Rp9228
(dp9229
g6
Nsg8
S'ORGANIZATION'
p9230
sg10
Nsg24
Nsbssg24
NsbsS'ball'
p9231
g0
(g1
g2
Ntp9232
Rp9233
(dp9234
g6
Nsg8
S'OTHER'
p9235
sg10
Nsg24
NsbsS'appearances'
p9236
g0
(g1
g2
Ntp9237
Rp9238
(dp9239
g6
Nsg8
S'PERSON'
p9240
sg10
Nsg24
NsbsS'drink'
p9241
g0
(g1
g2
Ntp9242
Rp9243
(dp9244
g6
Nsg8
S'OTHER'
p9245
sg10
Nsg24
NsbsS'kidnaping'
p9246
g0
(g1
g2
Ntp9247
Rp9248
(dp9249
g6
Nsg8
S'PERSON'
p9250
sg10
Nsg24
NsbsS'student'
p9251
g0
(g1
g2
Ntp9252
Rp9253
(dp9254
g6
Nsg8
S'NUMBER'
p9255
sg10
Nsg24
NsbsS'overalls'
p9256
g0
(g1
g2
Ntp9257
Rp9258
(dp9259
g6
Nsg8
S'OTHER'
p9260
sg10
Nsg24
NsbsS'identity'
p9261
g0
(g1
g2
Ntp9262
Rp9263
(dp9264
g6
Nsg8
S'PERSON'
p9265
sg10
Nsg24
NsbsS'center'
p9266
g0
(g1
g2
Ntp9267
Rp9268
(dp9269
g6
Nsg8
S'LOCATION'
p9270
sg10
Nsg24
NsbsS'variety'
p9271
g0
(g1
g2
Ntp9272
Rp9273
(dp9274
g6
Nsg8
S'OTHER'
p9275
sg10
Nsg24
NsbsS'twirl'
p9276
g0
(g1
g2
Ntp9277
Rp9278
(dp9279
g6
Nsg8
S'OTHER'
p9280
sg10
Nsg24
NsbsS'comparisons'
p9281
g0
(g1
g2
Ntp9282
Rp9283
(dp9284
g6
Nsg8
S'LOCATION'
p9285
sg10
Nsg24
NsbsS'deltiologist'
p9286
g0
(g1
g2
Ntp9287
Rp9288
(dp9289
g6
Nsg8
S'OTHER'
p9290
sg10
Nsg24
NsbsS'advertises'
p9291
g0
(g1
g2
Ntp9292
Rp9293
(dp9294
g6
Nsg8
S'OTHER'
p9295
sg10
Nsg24
NsbsS'camel'
p9296
g0
(g1
g2
Ntp9297
Rp9298
(dp9299
g6
Nsg8
S'OTHER'
p9300
sg10
Nsg24
NsbsS'dose'
p9301
g0
(g1
g2
Ntp9302
Rp9303
(dp9304
g6
Nsg8
S'PERSON'
p9305
sg10
Nsg24
NsbsS'batteries'
p9306
g0
(g1
g2
Ntp9307
Rp9308
(dp9309
g6
Nsg8
S'PERSON'
p9310
sg10
Nsg24
NsbsS'fishing'
p9311
g0
(g1
g2
Ntp9312
Rp9313
(dp9314
g6
Nsg8
S'OTHER'
p9315
sg10
Nsg24
NsbsS'seats'
p9316
g0
(g1
g2
Ntp9317
Rp9318
(dp9319
g6
Nsg8
S'NUMBER'
p9320
sg10
Nsg24
NsbsS'web'
p9321
g0
(g1
g2
Ntp9322
Rp9323
(dp9324
g6
g16
sg8
S'LOCATION'
p9325
sg10
(dp9326
S'how'
p9327
g0
(g1
g2
Ntp9328
Rp9329
(dp9330
g6
Nsg8
S'TIME'
p9331
sg10
Nsg24
NsbsS'what'
p9332
g0
(g1
g2
Ntp9333
Rp9334
(dp9335
g6
Nsg8
S'LOCATION'
p9336
sg10
Nsg24
Nsbssg24
NsbsS'drunk'
p9337
g0
(g1
g2
Ntp9338
Rp9339
(dp9340
g6
Nsg8
S'NUMBER'
p9341
sg10
Nsg24
NsbsS'lake'
p9342
g0
(g1
g2
Ntp9343
Rp9344
(dp9345
g6
Nsg8
S'LOCATION'
p9346
sg10
Nsg24
NsbsS'slits'
p9347
g0
(g1
g2
Ntp9348
Rp9349
(dp9350
g6
Nsg8
S'OTHER'
p9351
sg10
Nsg24
NsbsS'citizen'
p9352
g0
(g1
g2
Ntp9353
Rp9354
(dp9355
g6
Nsg8
S'PERSON'
p9356
sg10
Nsg24
NsbsS'scoundrel'
p9357
g0
(g1
g2
Ntp9358
Rp9359
(dp9360
g6
Nsg8
S'PERSON'
p9361
sg10
Nsg24
NsbsS'myth'
p9362
g0
(g1
g2
Ntp9363
Rp9364
(dp9365
g6
Nsg8
S'LOCATION'
p9366
sg10
Nsg24
NsbsS'government'
p9367
g0
(g1
g2
Ntp9368
Rp9369
(dp9370
g6
Nsg8
S'ORGANIZATION'
p9371
sg10
Nsg24
NsbsS'chancellor'
p9372
g0
(g1
g2
Ntp9373
Rp9374
(dp9375
g6
Nsg8
S'PERSON'
p9376
sg10
Nsg24
NsbsS'press'
p9377
g0
(g1
g2
Ntp9378
Rp9379
(dp9380
g6
Nsg8
S'PERSON'
p9381
sg10
Nsg24
NsbsS'insert'
p9382
g0
(g1
g2
Ntp9383
Rp9384
(dp9385
g6
Nsg8
S'OTHER'
p9386
sg10
Nsg24
NsbsS'success'
p9387
g0
(g1
g2
Ntp9388
Rp9389
(dp9390
g6
Nsg8
S'PERSON'
p9391
sg10
Nsg24
NsbsS'chairs'
p9392
g0
(g1
g2
Ntp9393
Rp9394
(dp9395
g6
Nsg8
S'NUMBER'
p9396
sg10
Nsg24
NsbsS'clown'
p9397
g0
(g1
g2
Ntp9398
Rp9399
(dp9400
g6
Nsg8
S'PERSON'
p9401
sg10
Nsg24
NsbsS'lose'
p9402
g0
(g1
g2
Ntp9403
Rp9404
(dp9405
g6
Nsg8
S'OTHER'
p9406
sg10
Nsg24
NsbsS'become'
p9407
g0
(g1
g2
Ntp9408
Rp9409
(dp9410
g6
g16
sg8
S'DATE'
p9411
sg10
(dp9412
S'when'
p9413
g0
(g1
g2
Ntp9414
Rp9415
(dp9416
g6
Nsg8
S'DATE'
p9417
sg10
Nsg24
NsbsS'in'
p9418
g0
(g1
g2
Ntp9419
Rp9420
(dp9421
g6
Nsg8
S'OTHER'
p9422
sg10
Nsg24
Nsbssg24
NsbsS'x-man'
p9423
g0
(g1
g2
Ntp9424
Rp9425
(dp9426
g6
Nsg8
S'PERSON'
p9427
sg10
Nsg24
NsbsS'wonders'
p9428
g0
(g1
g2
Ntp9429
Rp9430
(dp9431
g6
Nsg8
S'OTHER'
p9432
sg10
Nsg24
NsbsS'habitat'
p9433
g0
(g1
g2
Ntp9434
Rp9435
(dp9436
g6
Nsg8
S'LOCATION'
p9437
sg10
Nsg24
NsbsS'elevators'
p9438
g0
(g1
g2
Ntp9439
Rp9440
(dp9441
g6
Nsg8
S'NUMBER'
p9442
sg10
Nsg24
NsbsS'hair'
p9443
g0
(g1
g2
Ntp9444
Rp9445
(dp9446
g6
Nsg8
S'OTHER'
p9447
sg10
Nsg24
NsbsS'archenemy'
p9448
g0
(g1
g2
Ntp9449
Rp9450
(dp9451
g6
Nsg8
S'PERSON'
p9452
sg10
Nsg24
NsbsS'flush'
p9453
g0
(g1
g2
Ntp9454
Rp9455
(dp9456
g6
Nsg8
S'DATE'
p9457
sg10
Nsg24
NsbsS'home'
p9458
g0
(g1
g2
Ntp9459
Rp9460
(dp9461
g6
g16
sg8
S'NUMBER'
p9462
sg10
(dp9463
S'how'
p9464
g0
(g1
g2
Ntp9465
Rp9466
(dp9467
g6
Nsg8
S'NUMBER'
p9468
sg10
Nsg24
NsbsS'what'
p9469
g0
(g1
g2
Ntp9470
Rp9471
(dp9472
g6
Nsg8
S'LOCATION'
p9473
sg10
Nsg24
NsbsS'who'
p9474
g0
(g1
g2
Ntp9475
Rp9476
(dp9477
g6
Nsg8
S'PERSON'
p9478
sg10
Nsg24
Nsbssg24
NsbsS'novelist'
p9479
g0
(g1
g2
Ntp9480
Rp9481
(dp9482
g6
Nsg8
S'PERSON'
p9483
sg10
Nsg24
NsbsS'scales'
p9484
g0
(g1
g2
Ntp9485
Rp9486
(dp9487
g6
Nsg8
S'NUMBER'
p9488
sg10
Nsg24
NsbsS'competitor'
p9489
g0
(g1
g2
Ntp9490
Rp9491
(dp9492
g6
Nsg8
S'ORGANIZATION'
p9493
sg10
Nsg24
NsbsS'lead'
p9494
g0
(g1
g2
Ntp9495
Rp9496
(dp9497
g6
g16
sg8
S'PERSON'
p9498
sg10
(dp9499
S'what'
p9500
g0
(g1
g2
Ntp9501
Rp9502
(dp9503
g6
Nsg8
S'OTHER'
p9504
sg10
Nsg24
NsbsS'who'
p9505
g0
(g1
g2
Ntp9506
Rp9507
(dp9508
g6
Nsg8
S'PERSON'
p9509
sg10
Nsg24
Nsbssg24
NsbsS'hurricane'
p9510
g0
(g1
g2
Ntp9511
Rp9512
(dp9513
g6
Nsg8
S'OTHER'
p9514
sg10
Nsg24
NsbsS'mines'
p9515
g0
(g1
g2
Ntp9516
Rp9517
(dp9518
g6
Nsg8
S'NUMBER'
p9519
sg10
Nsg24
NsbsS'leader'
p9520
g0
(g1
g2
Ntp9521
Rp9522
(dp9523
g6
g16
sg8
S'PERSON'
p9524
sg10
(dp9525
S'what'
p9526
g0
(g1
g2
Ntp9527
Rp9528
(dp9529
g6
Nsg8
S'PERSON'
p9530
sg10
Nsg24
NsbsS'who'
p9531
g0
(g1
g2
Ntp9532
Rp9533
(dp9534
g6
Nsg8
S'PERSON'
p9535
sg10
Nsg24
NsbsS'when'
p9536
g0
(g1
g2
Ntp9537
Rp9538
(dp9539
g6
Nsg8
S'DATE'
p9540
sg10
Nsg24
Nsbssg24
NsbsS'host'
p9541
g0
(g1
g2
Ntp9542
Rp9543
(dp9544
g6
Nsg8
S'PERSON'
p9545
sg10
Nsg24
NsbsS'counties'
p9546
g0
(g1
g2
Ntp9547
Rp9548
(dp9549
g6
Nsg8
S'NUMBER'
p9550
sg10
Nsg24
NsbsS'sister'
p9551
g0
(g1
g2
Ntp9552
Rp9553
(dp9554
g6
g16
sg8
S'PERSON'
p9555
sg10
(dp9556
S'what'
p9557
g0
(g1
g2
Ntp9558
Rp9559
(dp9560
g6
Nsg8
S'OTHER'
p9561
sg10
Nsg24
NsbsS'who'
p9562
g0
(g1
g2
Ntp9563
Rp9564
(dp9565
g6
Nsg8
S'PERSON'
p9566
sg10
Nsg24
Nsbssg24
NsbsS'beef'
p9567
g0
(g1
g2
Ntp9568
Rp9569
(dp9570
g6
Nsg8
S'MONEY'
p9571
sg10
Nsg24
NsbsS'universe'
p9572
g0
(g1
g2
Ntp9573
Rp9574
(dp9575
g6
Nsg8
S'NUMBER'
p9576
sg10
Nsg24
NsbsS'carries'
p9577
g0
(g1
g2
Ntp9578
Rp9579
(dp9580
g6
Nsg8
S'OTHER'
p9581
sg10
Nsg24
NsbsS'camels'
p9582
g0
(g1
g2
Ntp9583
Rp9584
(dp9585
g6
Nsg8
S'OTHER'
p9586
sg10
Nsg24
NsbsS'emperor'
p9587
g0
(g1
g2
Ntp9588
Rp9589
(dp9590
g6
Nsg8
S'OTHER'
p9591
sg10
Nsg24
NsbsS'swimming'
p9592
g0
(g1
g2
Ntp9593
Rp9594
(dp9595
g6
Nsg8
S'OTHER'
p9596
sg10
Nsg24
NsbsS'trilogy'
p9597
g0
(g1
g2
Ntp9598
Rp9599
(dp9600
g6
Nsg8
S'PERSON'
p9601
sg10
Nsg24
NsbsS'letters'
p9602
g0
(g1
g2
Ntp9603
Rp9604
(dp9605
g6
g16
sg8
S'OTHER'
p9606
sg10
(dp9607
S'how'
p9608
g0
(g1
g2
Ntp9609
Rp9610
(dp9611
g6
Nsg8
S'NUMBER'
p9612
sg10
Nsg24
NsbsS'what'
p9613
g0
(g1
g2
Ntp9614
Rp9615
(dp9616
g6
Nsg8
g9606
sg10
Nsg24
Nsbssg24
NsbsS'owe'
p9617
g0
(g1
g2
Ntp9618
Rp9619
(dp9620
g6
Nsg8
S'OTHER'
p9621
sg10
Nsg24
NsbsS'female'
p9622
g0
(g1
g2
Ntp9623
Rp9624
(dp9625
g6
Nsg8
S'PERSON'
p9626
sg10
Nsg24
NsbsS'chairbound'
p9627
g0
(g1
g2
Ntp9628
Rp9629
(dp9630
g6
Nsg8
S'OTHER'
p9631
sg10
Nsg24
NsbsS'ridge'
p9632
g0
(g1
g2
Ntp9633
Rp9634
(dp9635
g6
Nsg8
S'LOCATION'
p9636
sg10
Nsg24
NsbsS'commission'
p9637
g0
(g1
g2
Ntp9638
Rp9639
(dp9640
g6
Nsg8
S'PERSON'
p9641
sg10
Nsg24
NsbsS'museum'
p9642
g0
(g1
g2
Ntp9643
Rp9644
(dp9645
g6
Nsg8
S'LOCATION'
p9646
sg10
Nsg24
NsbsS'breeding'
p9647
g0
(g1
g2
Ntp9648
Rp9649
(dp9650
g6
Nsg8
S'OTHER'
p9651
sg10
Nsg24
NsbsS'brand'
p9652
g0
(g1
g2
Ntp9653
Rp9654
(dp9655
g6
Nsg8
S'OTHER'
p9656
sg10
Nsg24
NsbsS'sequel'
p9657
g0
(g1
g2
Ntp9658
Rp9659
(dp9660
g6
Nsg8
S'OTHER'
p9661
sg10
Nsg24
NsbsS'vichyssoise'
p9662
g0
(g1
g2
Ntp9663
Rp9664
(dp9665
g6
Nsg8
S'OTHER'
p9666
sg10
Nsg24
NsbsS'bug'
p9667
g0
(g1
g2
Ntp9668
Rp9669
(dp9670
g6
Nsg8
S'MONEY'
p9671
sg10
Nsg24
NsbsS'count'
p9672
g0
(g1
g2
Ntp9673
Rp9674
(dp9675
g6
Nsg8
S'PERSON'
p9676
sg10
Nsg24
NsbsS'made'
p9677
g0
(g1
g2
Ntp9678
Rp9679
(dp9680
g6
Nsg8
S'PERSON'
p9681
sg10
Nsg24
NsbsS'glory'
p9682
g0
(g1
g2
Ntp9683
Rp9684
(dp9685
g6
Nsg8
S'PERSON'
p9686
sg10
Nsg24
NsbsS'cells'
p9687
g0
(g1
g2
Ntp9688
Rp9689
(dp9690
g6
Nsg8
S'NUMBER'
p9691
sg10
Nsg24
NsbsS'breweries'
p9692
g0
(g1
g2
Ntp9693
Rp9694
(dp9695
g6
Nsg8
S'LOCATION'
p9696
sg10
Nsg24
NsbsS'books'
p9697
g0
(g1
g2
Ntp9698
Rp9699
(dp9700
g6
g16
sg8
S'OTHER'
p9701
sg10
(dp9702
S'who'
p9703
g0
(g1
g2
Ntp9704
Rp9705
(dp9706
g6
Nsg8
S'PERSON'
p9707
sg10
Nsg24
NsbsS'names'
p9708
g0
(g1
g2
Ntp9709
Rp9710
(dp9711
g6
Nsg8
g9701
sg10
Nsg24
Nsbssg24
NsbsS'stories'
p9712
g0
(g1
g2
Ntp9713
Rp9714
(dp9715
g6
Nsg8
S'OTHER'
p9716
sg10
Nsg24
NsbsS'piece'
p9717
g0
(g1
g2
Ntp9718
Rp9719
(dp9720
g6
Nsg8
S'OTHER'
p9721
sg10
Nsg24
NsbsS'minutes'
p9722
g0
(g1
g2
Ntp9723
Rp9724
(dp9725
g6
Nsg8
S'NUMBER'
p9726
sg10
Nsg24
NsbsS'display'
p9727
g0
(g1
g2
Ntp9728
Rp9729
(dp9730
g6
Nsg8
S'LOCATION'
p9731
sg10
Nsg24
NsbsS'menstruation'
p9732
g0
(g1
g2
Ntp9733
Rp9734
(dp9735
g6
Nsg8
S'DATE'
p9736
sg10
Nsg24
NsbsS'supreme'
p9737
g0
(g1
g2
Ntp9738
Rp9739
(dp9740
g6
g16
sg8
S'ORGANIZATION'
p9741
sg10
(dp9742
S'what'
p9743
g0
(g1
g2
Ntp9744
Rp9745
(dp9746
g6
Nsg8
g9741
sg10
Nsg24
NsbsS'who'
p9747
g0
(g1
g2
Ntp9748
Rp9749
(dp9750
g6
Nsg8
S'PERSON'
p9751
sg10
Nsg24
Nsbssg24
NsbsS'condiment'
p9752
g0
(g1
g2
Ntp9753
Rp9754
(dp9755
g6
Nsg8
S'OTHER'
p9756
sg10
Nsg24
NsbsS'pig'
p9757
g0
(g1
g2
Ntp9758
Rp9759
(dp9760
g6
g16
sg8
S'TIME'
p9761
sg10
(dp9762
S'how'
p9763
g0
(g1
g2
Ntp9764
Rp9765
(dp9766
g6
Nsg8
g9761
sg10
Nsg24
NsbsS'what'
p9767
g0
(g1
g2
Ntp9768
Rp9769
(dp9770
g6
Nsg8
S'NUMBER'
p9771
sg10
Nsg24
Nsbssg24
NsbsS'utensils'
p9772
g0
(g1
g2
Ntp9773
Rp9774
(dp9775
g6
Nsg8
S'OTHER'
p9776
sg10
Nsg24
NsbsS'boardwalk'
p9777
g0
(g1
g2
Ntp9778
Rp9779
(dp9780
g6
Nsg8
S'NUMBER'
p9781
sg10
Nsg24
NsbsS'replica'
p9782
g0
(g1
g2
Ntp9783
Rp9784
(dp9785
g6
Nsg8
S'NUMBER'
p9786
sg10
Nsg24
NsbsS'fiddlers'
p9787
g0
(g1
g2
Ntp9788
Rp9789
(dp9790
g6
Nsg8
S'NUMBER'
p9791
sg10
Nsg24
NsbsS'education'
p9792
g0
(g1
g2
Ntp9793
Rp9794
(dp9795
g6
Nsg8
S'OTHER'
p9796
sg10
Nsg24
NsbsS'chromosome'
p9797
g0
(g1
g2
Ntp9798
Rp9799
(dp9800
g6
Nsg8
S'NUMBER'
p9801
sg10
Nsg24
NsbsS'ingredients'
p9802
g0
(g1
g2
Ntp9803
Rp9804
(dp9805
g6
Nsg8
S'OTHER'
p9806
sg10
Nsg24
NsbsS'corporation'
p9807
g0
(g1
g2
Ntp9808
Rp9809
(dp9810
g6
Nsg8
S'ORGANIZATION'
p9811
sg10
Nsg24
NsbsS'guitarist'
p9812
g0
(g1
g2
Ntp9813
Rp9814
(dp9815
g6
Nsg8
S'PERSON'
p9816
sg10
Nsg24
NsbsS'percent'
p9817
g0
(g1
g2
Ntp9818
Rp9819
(dp9820
g6
Nsg8
S'PERCENT'
p9821
sg10
Nsg24
NsbsS'book'
p9822
g0
(g1
g2
Ntp9823
Rp9824
(dp9825
g6
g16
sg8
S'PERSON'
p9826
sg10
(dp9827
S'what'
p9828
g0
(g1
g2
Ntp9829
Rp9830
(dp9831
g6
Nsg8
S'OTHER'
p9832
sg10
Nsg24
NsbsS'who'
p9833
g0
(g1
g2
Ntp9834
Rp9835
(dp9836
g6
Nsg8
S'PERSON'
p9837
sg10
Nsg24
NsbsS'where'
p9838
g0
(g1
g2
Ntp9839
Rp9840
(dp9841
g6
Nsg8
S'LOCATION'
p9842
sg10
Nsg24
NsbsS'which'
p9843
g0
(g1
g2
Ntp9844
Rp9845
(dp9846
g6
Nsg8
S'OTHER'
p9847
sg10
Nsg24
NsbsS'in'
p9848
g0
(g1
g2
Ntp9849
Rp9850
(dp9851
g6
Nsg8
S'OTHER'
p9852
sg10
Nsg24
Nsbssg24
NsbsS'boom'
p9853
g0
(g1
g2
Ntp9854
Rp9855
(dp9856
g6
Nsg8
S'OTHER'
p9857
sg10
Nsg24
NsbsS'boob'
p9858
g0
(g1
g2
Ntp9859
Rp9860
(dp9861
g6
Nsg8
S'OTHER'
p9862
sg10
Nsg24
NsbsS'junk'
p9863
g0
(g1
g2
Ntp9864
Rp9865
(dp9866
g6
Nsg8
S'MONEY'
p9867
sg10
Nsg24
NsbsS'star'
p9868
g0
(g1
g2
Ntp9869
Rp9870
(dp9871
g6
g16
sg8
S'PERSON'
p9872
sg10
(dp9873
S'how'
p9874
g0
(g1
g2
Ntp9875
Rp9876
(dp9877
g6
Nsg8
S'NUMBER'
p9878
sg10
Nsg24
NsbsS'what'
p9879
g0
(g1
g2
Ntp9880
Rp9881
(dp9882
g6
Nsg8
S'PERSON'
p9883
sg10
Nsg24
NsbsS'who'
p9884
g0
(g1
g2
Ntp9885
Rp9886
(dp9887
g6
Nsg8
S'PERSON'
p9888
sg10
Nsg24
Nsbssg24
NsbsS'quarts'
p9889
g0
(g1
g2
Ntp9890
Rp9891
(dp9892
g6
Nsg8
S'TIME'
p9893
sg10
Nsg24
NsbsS'chance'
p9894
g0
(g1
g2
Ntp9895
Rp9896
(dp9897
g6
Nsg8
S'PERCENT'
p9898
sg10
Nsg24
NsbsS'inspiration'
p9899
g0
(g1
g2
Ntp9900
Rp9901
(dp9902
g6
Nsg8
S'PERSON'
p9903
sg10
Nsg24
NsbsS'rule'
p9904
g0
(g1
g2
Ntp9905
Rp9906
(dp9907
g6
Nsg8
S'LOCATION'
p9908
sg10
Nsg24
Nsbssg24
Nsb.