ccopy_reg
_reconstructor
p0
(cnltk.classify.decisiontree
DecisionTreeClassifier
p1
c__builtin__
object
p2
Ntp3
Rp4
(dp5
S'_fname'
p6
S'noun'
p7
sS'_label'
p8
S'OTHER'
p9
sS'_decisions'
p10
(dp11
S''
p12
g0
(g1
g2
Ntp13
Rp14
(dp15
g6
S'first'
p16
sg8
S'PERSON'
p17
sg10
(dp18
S'what'
p19
g0
(g1
g2
Ntp20
Rp21
(dp22
g6
Nsg8
S'OTHER'
p23
sg10
NsS'_default'
p24
NsbsS'where'
p25
g0
(g1
g2
Ntp26
Rp27
(dp28
g6
Nsg8
S'LOCATION'
p29
sg10
Nsg24
NsbsS'who'
p30
g0
(g1
g2
Ntp31
Rp32
(dp33
g6
Nsg8
S'PERSON'
p34
sg10
Nsg24
NsbsS'when'
p35
g0
(g1
g2
Ntp36
Rp37
(dp38
g6
Nsg8
S'DATE'
p39
sg10
Nsg24
NsbsS'rotary'
p40
g0
(g1
g2
Ntp41
Rp42
(dp43
g6
Nsg8
S'PERSON'
p44
sg10
Nsg24
NsbsS'how'
p45
g0
(g1
g2
Ntp46
Rp47
(dp48
g6
Nsg8
S'NUMBER'
p49
sg10
Nsg24
NsbsS'silly'
p50
g0
(g1
g2
Ntp51
Rp52
(dp53
g6
Nsg8
S'PERSON'
p54
sg10
Nsg24
NsbsS'which'
p55
g0
(g1
g2
Ntp56
Rp57
(dp58
g6
Nsg8
S'PERSON'
p59
sg10
Nsg24
NsbsS'in what'
p60
g0
(g1
g2
Ntp61
Rp62
(dp63
g6
Nsg8
S'OTHER'
p64
sg10
Nsg24
NsbsS'on what'
p65
g0
(g1
g2
Ntp66
Rp67
(dp68
g6
Nsg8
S'OTHER'
p69
sg10
Nsg24
Nsbssg24
NsbsS'dynasty'
p70
g0
(g1
g2
Ntp71
Rp72
(dp73
g6
Nsg8
S'PERSON'
p74
sg10
Nsg24
NsbsS'woody'
p75
g0
(g1
g2
Ntp76
Rp77
(dp78
g6
g16
sg8
S'OTHER'
p79
sg10
(dp80
S'what'
p81
g0
(g1
g2
Ntp82
Rp83
(dp84
g6
Nsg8
g79
sg10
Nsg24
NsbsS'who'
p85
g0
(g1
g2
Ntp86
Rp87
(dp88
g6
Nsg8
S'PERSON'
p89
sg10
Nsg24
Nsbssg24
NsbsS'captain'
p90
g0
(g1
g2
Ntp91
Rp92
(dp93
g6
Nsg8
S'PERSON'
p94
sg10
Nsg24
NsbsS'whose'
p95
g0
(g1
g2
Ntp96
Rp97
(dp98
g6
Nsg8
S'PERSON'
p99
sg10
Nsg24
NsbsS'founder'
p100
g0
(g1
g2
Ntp101
Rp102
(dp103
g6
Nsg8
S'PERSON'
p104
sg10
Nsg24
NsbsS'electricity'
p105
g0
(g1
g2
Ntp106
Rp107
(dp108
g6
g16
sg8
S'NUMBER'
p109
sg10
(dp110
S'how'
p111
g0
(g1
g2
Ntp112
Rp113
(dp114
g6
Nsg8
g109
sg10
Nsg24
NsbsS'who'
p115
g0
(g1
g2
Ntp116
Rp117
(dp118
g6
Nsg8
S'PERSON'
p119
sg10
Nsg24
Nsbssg24
NsbsS'dialing'
p120
g0
(g1
g2
Ntp121
Rp122
(dp123
g6
Nsg8
S'LOCATION'
p124
sg10
Nsg24
NsbsS'teaspoon'
p125
g0
(g1
g2
Ntp126
Rp127
(dp128
g6
Nsg8
S'NUMBER'
p129
sg10
Nsg24
NsbsS'crooner'
p130
g0
(g1
g2
Ntp131
Rp132
(dp133
g6
Nsg8
S'PERSON'
p134
sg10
Nsg24
NsbsS'pride'
p135
g0
(g1
g2
Ntp136
Rp137
(dp138
g6
Nsg8
S'PERSON'
p139
sg10
Nsg24
NsbsS'merchant'
p140
g0
(g1
g2
Ntp141
Rp142
(dp143
g6
Nsg8
S'LOCATION'
p144
sg10
Nsg24
NsbsS'jack'
p145
g0
(g1
g2
Ntp146
Rp147
(dp148
g6
Nsg8
S'PERSON'
p149
sg10
Nsg24
NsbsS'confederate'
p150
g0
(g1
g2
Ntp151
Rp152
(dp153
g6
Nsg8
S'OTHER'
p154
sg10
Nsg24
NsbsS'fractal'
p155
g0
(g1
g2
Ntp156
Rp157
(dp158
g6
Nsg8
S'LOCATION'
p159
sg10
Nsg24
NsbsS'school'
p160
g0
(g1
g2
Ntp161
Rp162
(dp163
g6
g16
sg8
S'PERSON'
p164
sg10
(dp165
S'how'
p166
g0
(g1
g2
Ntp167
Rp168
(dp169
g6
Nsg8
S'NUMBER'
p170
sg10
Nsg24
NsbsS'what'
p171
g0
(g1
g2
Ntp172
Rp173
(dp174
g6
Nsg8
S'PERSON'
p175
sg10
Nsg24
Nsbssg24
NsbsS'prize'
p176
g0
(g1
g2
Ntp177
Rp178
(dp179
g6
Nsg8
S'OTHER'
p180
sg10
Nsg24
NsbsS'mackinaw'
p181
g0
(g1
g2
Ntp182
Rp183
(dp184
g6
Nsg8
S'NUMBER'
p185
sg10
Nsg24
NsbsS'venus'
p186
g0
(g1
g2
Ntp187
Rp188
(dp189
g6
g16
sg8
S'LOCATION'
p190
sg10
(dp191
S'how'
p192
g0
(g1
g2
Ntp193
Rp194
(dp195
g6
Nsg8
S'NUMBER'
p196
sg10
Nsg24
NsbsS'where'
p197
g0
(g1
g2
Ntp198
Rp199
(dp200
g6
Nsg8
g190
sg10
Nsg24
Nsbssg24
NsbsS'hesse'
p201
g0
(g1
g2
Ntp202
Rp203
(dp204
g6
Nsg8
S'OTHER'
p205
sg10
Nsg24
NsbsS'corvette'
p206
g0
(g1
g2
Ntp207
Rp208
(dp209
g6
Nsg8
S'NUMBER'
p210
sg10
Nsg24
NsbsS'miller'
p211
g0
(g1
g2
Ntp212
Rp213
(dp214
g6
Nsg8
S'OTHER'
p215
sg10
Nsg24
NsbsS'japanese'
p216
g0
(g1
g2
Ntp217
Rp218
(dp219
g6
Nsg8
S'LOCATION'
p220
sg10
Nsg24
NsbsS'chef'
p221
g0
(g1
g2
Ntp222
Rp223
(dp224
g6
Nsg8
S'OTHER'
p225
sg10
Nsg24
NsbsS'street'
p226
g0
(g1
g2
Ntp227
Rp228
(dp229
g6
Nsg8
S'LOCATION'
p230
sg10
Nsg24
NsbsS'monster'
p231
g0
(g1
g2
Ntp232
Rp233
(dp234
g6
g16
sg8
S'PERSON'
p235
sg10
(dp236
S'what'
p237
g0
(g1
g2
Ntp238
Rp239
(dp240
g6
Nsg8
S'OTHER'
p241
sg10
Nsg24
NsbsS'who'
p242
g0
(g1
g2
Ntp243
Rp244
(dp245
g6
Nsg8
g235
sg10
Nsg24
Nsbssg24
NsbsS'stardom'
p246
g0
(g1
g2
Ntp247
Rp248
(dp249
g6
Nsg8
S'PERSON'
p250
sg10
Nsg24
NsbsS'christ'
p251
g0
(g1
g2
Ntp252
Rp253
(dp254
g6
Nsg8
S'DATE'
p255
sg10
Nsg24
NsbsS'thunder'
p256
g0
(g1
g2
Ntp257
Rp258
(dp259
g6
Nsg8
S'NUMBER'
p260
sg10
Nsg24
NsbsS'panama'
p261
g0
(g1
g2
Ntp262
Rp263
(dp264
g6
Nsg8
S'NUMBER'
p265
sg10
Nsg24
NsbsS'liberty'
p266
g0
(g1
g2
Ntp267
Rp268
(dp269
g6
g16
sg8
S'PERSON'
p270
sg10
(dp271
S'how'
p272
g0
(g1
g2
Ntp273
Rp274
(dp275
g6
Nsg8
S'NUMBER'
p276
sg10
Nsg24
NsbsS'who'
p277
g0
(g1
g2
Ntp278
Rp279
(dp280
g6
Nsg8
g270
sg10
Nsg24
Nsbssg24
NsbsS'usenet'
p281
g0
(g1
g2
Ntp282
Rp283
(dp284
g6
Nsg8
S'PERSON'
p285
sg10
Nsg24
NsbsS'hero'
p286
g0
(g1
g2
Ntp287
Rp288
(dp289
g6
Nsg8
S'PERSON'
p290
sg10
Nsg24
NsbsS'dipsomaniac'
p291
g0
(g1
g2
Ntp292
Rp293
(dp294
g6
Nsg8
S'OTHER'
p295
sg10
Nsg24
NsbsS'studio'
p296
g0
(g1
g2
Ntp297
Rp298
(dp299
g6
Nsg8
S'PERSON'
p300
sg10
Nsg24
NsbsS'pursuit'
p301
g0
(g1
g2
Ntp302
Rp303
(dp304
g6
Nsg8
S'NUMBER'
p305
sg10
Nsg24
NsbsS'cult'
p306
g0
(g1
g2
Ntp307
Rp308
(dp309
g6
Nsg8
S'OTHER'
p310
sg10
Nsg24
NsbsS'luther'
p311
g0
(g1
g2
Ntp312
Rp313
(dp314
g6
g16
sg8
S'PERSON'
p315
sg10
(dp316
S'what'
p317
g0
(g1
g2
Ntp318
Rp319
(dp320
g6
Nsg8
S'OTHER'
p321
sg10
Nsg24
NsbsS'who'
p322
g0
(g1
g2
Ntp323
Rp324
(dp325
g6
Nsg8
g315
sg10
Nsg24
Nsbssg24
NsbsS'substance'
p326
g0
(g1
g2
Ntp327
Rp328
(dp329
g6
Nsg8
S'OTHER'
p330
sg10
Nsg24
NsbsS'daughter'
p331
g0
(g1
g2
Ntp332
Rp333
(dp334
g6
Nsg8
S'PERSON'
p335
sg10
Nsg24
NsbsS'stevie'
p336
g0
(g1
g2
Ntp337
Rp338
(dp339
g6
Nsg8
S'TIME'
p340
sg10
Nsg24
NsbsS'credit'
p341
g0
(g1
g2
Ntp342
Rp343
(dp344
g6
g16
sg8
S'PERSON'
p345
sg10
(dp346
S'what'
p347
g0
(g1
g2
Ntp348
Rp349
(dp350
g6
Nsg8
S'OTHER'
p351
sg10
Nsg24
NsbsS'who'
p352
g0
(g1
g2
Ntp353
Rp354
(dp355
g6
Nsg8
S'PERSON'
p356
sg10
Nsg24
Nsbssg24
NsbsS'bunker'
p357
g0
(g1
g2
Ntp358
Rp359
(dp360
g6
Nsg8
S'PERSON'
p361
sg10
Nsg24
NsbsS'carl'
p362
g0
(g1
g2
Ntp363
Rp364
(dp365
g6
Nsg8
S'PERSON'
p366
sg10
Nsg24
NsbsS'classification'
p367
g0
(g1
g2
Ntp368
Rp369
(dp370
g6
Nsg8
S'OTHER'
p371
sg10
Nsg24
NsbsS'julie'
p372
g0
(g1
g2
Ntp373
Rp374
(dp375
g6
Nsg8
S'PERSON'
p376
sg10
Nsg24
NsbsS'reagan'
p377
g0
(g1
g2
Ntp378
Rp379
(dp380
g6
Nsg8
S'PERSON'
p381
sg10
Nsg24
NsbsS'county'
p382
g0
(g1
g2
Ntp383
Rp384
(dp385
g6
Nsg8
S'LOCATION'
p386
sg10
Nsg24
NsbsS'pyramid'
p387
g0
(g1
g2
Ntp388
Rp389
(dp390
g6
Nsg8
S'PERSON'
p391
sg10
Nsg24
NsbsS'stern'
p392
g0
(g1
g2
Ntp393
Rp394
(dp395
g6
Nsg8
S'PERSON'
p396
sg10
Nsg24
NsbsS'cocaine'
p397
g0
(g1
g2
Ntp398
Rp399
(dp400
g6
g16
sg8
S'PERSON'
p401
sg10
(dp402
S'how'
p403
g0
(g1
g2
Ntp404
Rp405
(dp406
g6
Nsg8
S'TIME'
p407
sg10
Nsg24
NsbsS'who'
p408
g0
(g1
g2
Ntp409
Rp410
(dp411
g6
Nsg8
g401
sg10
Nsg24
Nsbssg24
NsbsS'spoke'
p412
g0
(g1
g2
Ntp413
Rp414
(dp415
g6
Nsg8
S'PERSON'
p416
sg10
Nsg24
NsbsS'army'
p417
g0
(g1
g2
Ntp418
Rp419
(dp420
g6
Nsg8
S'PERSON'
p421
sg10
Nsg24
NsbsS'hospital'
p422
g0
(g1
g2
Ntp423
Rp424
(dp425
g6
Nsg8
S'LOCATION'
p426
sg10
Nsg24
NsbsS'aaron'
p427
g0
(g1
g2
Ntp428
Rp429
(dp430
g6
Nsg8
S'OTHER'
p431
sg10
Nsg24
NsbsS'symphony'
p432
g0
(g1
g2
Ntp433
Rp434
(dp435
g6
Nsg8
S'OTHER'
p436
sg10
Nsg24
NsbsS'call'
p437
g0
(g1
g2
Ntp438
Rp439
(dp440
g6
g16
sg8
S'OTHER'
p441
sg10
(dp442
S'what'
p443
g0
(g1
g2
Ntp444
Rp445
(dp446
g6
Nsg8
S'OTHER'
p447
sg10
Nsg24
NsbsS'who'
p448
g0
(g1
g2
Ntp449
Rp450
(dp451
g6
Nsg8
S'PERSON'
p452
sg10
Nsg24
Nsbssg24
NsbsS'type'
p453
g0
(g1
g2
Ntp454
Rp455
(dp456
g6
Nsg8
S'OTHER'
p457
sg10
Nsg24
NsbsS'tell'
p458
g0
(g1
g2
Ntp459
Rp460
(dp461
g6
Nsg8
S'LOCATION'
p462
sg10
Nsg24
NsbsS'phobophobe'
p463
g0
(g1
g2
Ntp464
Rp465
(dp466
g6
Nsg8
S'OTHER'
p467
sg10
Nsg24
NsbsS'oscar'
p468
g0
(g1
g2
Ntp469
Rp470
(dp471
g6
g16
sg8
S'PERSON'
p472
sg10
(dp473
S'what'
p474
g0
(g1
g2
Ntp475
Rp476
(dp477
g6
Nsg8
S'OTHER'
p478
sg10
Nsg24
NsbsS'who'
p479
g0
(g1
g2
Ntp480
Rp481
(dp482
g6
Nsg8
g472
sg10
Nsg24
Nsbssg24
NsbsS'warp'
p483
g0
(g1
g2
Ntp484
Rp485
(dp486
g6
Nsg8
S'OTHER'
p487
sg10
Nsg24
NsbsS'glass'
p488
g0
(g1
g2
Ntp489
Rp490
(dp491
g6
g16
sg8
S'DATE'
p492
sg10
(dp493
S'how'
p494
g0
(g1
g2
Ntp495
Rp496
(dp497
g6
Nsg8
S'NUMBER'
p498
sg10
Nsg24
NsbsS'what'
p499
g0
(g1
g2
Ntp500
Rp501
(dp502
g6
Nsg8
S'OTHER'
p503
sg10
Nsg24
NsbsS'when'
p504
g0
(g1
g2
Ntp505
Rp506
(dp507
g6
Nsg8
g492
sg10
Nsg24
Nsbssg24
NsbsS'berlin'
p508
g0
(g1
g2
Ntp509
Rp510
(dp511
g6
g16
sg8
S'DATE'
p512
sg10
(dp513
S'what'
p514
g0
(g1
g2
Ntp515
Rp516
(dp517
g6
Nsg8
S'LOCATION'
p518
sg10
Nsg24
NsbsS'when'
p519
g0
(g1
g2
Ntp520
Rp521
(dp522
g6
Nsg8
S'DATE'
p523
sg10
Nsg24
Nsbssg24
NsbsS'pecan'
p524
g0
(g1
g2
Ntp525
Rp526
(dp527
g6
Nsg8
S'LOCATION'
p528
sg10
Nsg24
NsbsS'adult'
p529
g0
(g1
g2
Ntp530
Rp531
(dp532
g6
g16
sg8
S'NUMBER'
p533
sg10
(dp534
S'how'
p535
g0
(g1
g2
Ntp536
Rp537
(dp538
g6
Nsg8
g533
sg10
Nsg24
NsbsS'what'
p539
g0
(g1
g2
Ntp540
Rp541
(dp542
g6
Nsg8
S'OTHER'
p543
sg10
Nsg24
Nsbssg24
NsbsS'hole'
p544
g0
(g1
g2
Ntp545
Rp546
(dp547
g6
g16
sg8
S'NUMBER'
p548
sg10
(dp549
S'how'
p550
g0
(g1
g2
Ntp551
Rp552
(dp553
g6
Nsg8
g548
sg10
Nsg24
NsbsS'where'
p554
g0
(g1
g2
Ntp555
Rp556
(dp557
g6
Nsg8
S'LOCATION'
p558
sg10
Nsg24
Nsbssg24
NsbsS'pulitzer'
p559
g0
(g1
g2
Ntp560
Rp561
(dp562
g6
Nsg8
S'PERSON'
p563
sg10
Nsg24
NsbsS'me'
p564
g0
(g1
g2
Ntp565
Rp566
(dp567
g6
Nsg8
S'PERSON'
p568
sg10
Nsg24
NsbsS'word'
p569
g0
(g1
g2
Ntp570
Rp571
(dp572
g6
g16
sg8
S'NUMBER'
p573
sg10
(dp574
S'how'
p575
g0
(g1
g2
Ntp576
Rp577
(dp578
g6
Nsg8
g573
sg10
Nsg24
NsbsS'what'
p579
g0
(g1
g2
Ntp580
Rp581
(dp582
g6
Nsg8
S'OTHER'
p583
sg10
Nsg24
Nsbssg24
NsbsS'room'
p584
g0
(g1
g2
Ntp585
Rp586
(dp587
g6
Nsg8
S'LOCATION'
p588
sg10
Nsg24
NsbsS'work'
p589
g0
(g1
g2
Ntp590
Rp591
(dp592
g6
g16
sg8
S'NUMBER'
p593
sg10
(dp594
S'how'
p595
g0
(g1
g2
Ntp596
Rp597
(dp598
g6
Nsg8
g593
sg10
Nsg24
NsbsS'what'
p599
g0
(g1
g2
Ntp600
Rp601
(dp602
g6
Nsg8
S'OTHER'
p603
sg10
Nsg24
Nsbssg24
NsbsS'henry'
p604
g0
(g1
g2
Ntp605
Rp606
(dp607
g6
Nsg8
S'LOCATION'
p608
sg10
Nsg24
NsbsS'criticizing'
p609
g0
(g1
g2
Ntp610
Rp611
(dp612
g6
Nsg8
S'PERSON'
p613
sg10
Nsg24
NsbsS'grenada'
p614
g0
(g1
g2
Ntp615
Rp616
(dp617
g6
Nsg8
S'OTHER'
p618
sg10
Nsg24
NsbsS'example'
p619
g0
(g1
g2
Ntp620
Rp621
(dp622
g6
Nsg8
S'PERSON'
p623
sg10
Nsg24
NsbsS'bandleader'
p624
g0
(g1
g2
Ntp625
Rp626
(dp627
g6
Nsg8
S'PERSON'
p628
sg10
Nsg24
NsbsS'frickett'
p629
g0
(g1
g2
Ntp630
Rp631
(dp632
g6
Nsg8
S'PERSON'
p633
sg10
Nsg24
NsbsS'currency'
p634
g0
(g1
g2
Ntp635
Rp636
(dp637
g6
Nsg8
g9
sg10
Nsg24
NsbsS'ceremony'
p638
g0
(g1
g2
Ntp639
Rp640
(dp641
g6
Nsg8
S'OTHER'
p642
sg10
Nsg24
NsbsS'end'
p643
g0
(g1
g2
Ntp644
Rp645
(dp646
g6
Nsg8
S'OTHER'
p647
sg10
Nsg24
NsbsS'damage'
p648
g0
(g1
g2
Ntp649
Rp650
(dp651
g6
Nsg8
S'OTHER'
p652
sg10
Nsg24
NsbsS'amazing'
p653
g0
(g1
g2
Ntp654
Rp655
(dp656
g6
Nsg8
S'OTHER'
p657
sg10
Nsg24
NsbsS'communist'
p658
g0
(g1
g2
Ntp659
Rp660
(dp661
g6
Nsg8
S'PERSON'
p662
sg10
Nsg24
NsbsS'dannon'
p663
g0
(g1
g2
Ntp664
Rp665
(dp666
g6
Nsg8
S'PERSON'
p667
sg10
Nsg24
NsbsS'piven'
p668
g0
(g1
g2
Ntp669
Rp670
(dp671
g6
Nsg8
S'TIME'
p672
sg10
Nsg24
NsbsS'pizza'
p673
g0
(g1
g2
Ntp674
Rp675
(dp676
g6
g16
sg8
S'OTHER'
p677
sg10
(dp678
S'how'
p679
g0
(g1
g2
Ntp680
Rp681
(dp682
g6
Nsg8
S'NUMBER'
p683
sg10
Nsg24
NsbsS'what'
p684
g0
(g1
g2
Ntp685
Rp686
(dp687
g6
Nsg8
g677
sg10
Nsg24
Nsbssg24
NsbsS'poker'
p688
g0
(g1
g2
Ntp689
Rp690
(dp691
g6
Nsg8
S'OTHER'
p692
sg10
Nsg24
NsbsS'kilowatt'
p693
g0
(g1
g2
Ntp694
Rp695
(dp696
g6
Nsg8
S'NUMBER'
p697
sg10
Nsg24
NsbsS'beauty'
p698
g0
(g1
g2
Ntp699
Rp700
(dp701
g6
Nsg8
S'NUMBER'
p702
sg10
Nsg24
NsbsS'horoscope'
p703
g0
(g1
g2
Ntp704
Rp705
(dp706
g6
Nsg8
S'PERSON'
p707
sg10
Nsg24
NsbsS'delicacy'
p708
g0
(g1
g2
Ntp709
Rp710
(dp711
g6
Nsg8
S'OTHER'
p712
sg10
Nsg24
NsbsS'despondent'
p713
g0
(g1
g2
Ntp714
Rp715
(dp716
g6
Nsg8
S'PERSON'
p717
sg10
Nsg24
NsbsS'philatelist'
p718
g0
(g1
g2
Ntp719
Rp720
(dp721
g6
Nsg8
S'OTHER'
p722
sg10
Nsg24
NsbsS'president'
p723
g0
(g1
g2
Ntp724
Rp725
(dp726
g6
g16
sg8
S'DATE'
p727
sg10
(dp728
S'what'
p729
g0
(g1
g2
Ntp730
Rp731
(dp732
g6
Nsg8
S'PERSON'
p733
sg10
Nsg24
NsbsS'who'
p734
g0
(g1
g2
Ntp735
Rp736
(dp737
g6
Nsg8
S'PERSON'
p738
sg10
Nsg24
NsbsS'when'
p739
g0
(g1
g2
Ntp740
Rp741
(dp742
g6
Nsg8
S'DATE'
p743
sg10
Nsg24
NsbsS'how'
p744
g0
(g1
g2
Ntp745
Rp746
(dp747
g6
Nsg8
S'MONEY'
p748
sg10
Nsg24
NsbsS'which'
p749
g0
(g1
g2
Ntp750
Rp751
(dp752
g6
Nsg8
S'PERSON'
p753
sg10
Nsg24
NsbsS'president'
p754
g0
(g1
g2
Ntp755
Rp756
(dp757
g6
Nsg8
S'PERSON'
p758
sg10
Nsg24
Nsbssg24
NsbsS'arch'
p759
g0
(g1
g2
Ntp760
Rp761
(dp762
g6
Nsg8
S'LOCATION'
p763
sg10
Nsg24
NsbsS'sioux'
p764
g0
(g1
g2
Ntp765
Rp766
(dp767
g6
Nsg8
S'OTHER'
p768
sg10
Nsg24
NsbsS'headquarters'
p769
g0
(g1
g2
Ntp770
Rp771
(dp772
g6
Nsg8
S'LOCATION'
p773
sg10
Nsg24
NsbsS'tulip'
p774
g0
(g1
g2
Ntp775
Rp776
(dp777
g6
Nsg8
S'DATE'
p778
sg10
Nsg24
NsbsS'order'
p779
g0
(g1
g2
Ntp780
Rp781
(dp782
g6
g16
sg8
S'OTHER'
p783
sg10
(dp784
S'how'
p785
g0
(g1
g2
Ntp786
Rp787
(dp788
g6
Nsg8
S'NUMBER'
p789
sg10
Nsg24
NsbsS'in order'
p790
g0
(g1
g2
Ntp791
Rp792
(dp793
g6
Nsg8
g783
sg10
Nsg24
Nsbssg24
NsbsS'wind'
p794
g0
(g1
g2
Ntp795
Rp796
(dp797
g6
Nsg8
S'OTHER'
p798
sg10
Nsg24
NsbsS'wine'
p799
g0
(g1
g2
Ntp800
Rp801
(dp802
g6
g16
sg8
S'NUMBER'
p803
sg10
(dp804
S'how'
p805
g0
(g1
g2
Ntp806
Rp807
(dp808
g6
Nsg8
g803
sg10
Nsg24
NsbsS'what'
p809
g0
(g1
g2
Ntp810
Rp811
(dp812
g6
Nsg8
S'OTHER'
p813
sg10
Nsg24
Nsbssg24
NsbsS'office'
p814
g0
(g1
g2
Ntp815
Rp816
(dp817
g6
Nsg8
S'LOCATION'
p818
sg10
Nsg24
NsbsS'deck'
p819
g0
(g1
g2
Ntp820
Rp821
(dp822
g6
Nsg8
S'OTHER'
p823
sg10
Nsg24
NsbsS'bella'
p824
g0
(g1
g2
Ntp825
Rp826
(dp827
g6
Nsg8
S'OTHER'
p828
sg10
Nsg24
NsbsS'london'
p829
g0
(g1
g2
Ntp830
Rp831
(dp832
g6
g16
sg8
S'LOCATION'
p833
sg10
(dp834
S'how'
p835
g0
(g1
g2
Ntp836
Rp837
(dp838
g6
Nsg8
S'NUMBER'
p839
sg10
Nsg24
NsbsS'what'
p840
g0
(g1
g2
Ntp841
Rp842
(dp843
g6
Nsg8
S'LOCATION'
p844
sg10
Nsg24
Nsbssg24
NsbsS'oven'
p845
g0
(g1
g2
Ntp846
Rp847
(dp848
g6
g16
sg8
S'NUMBER'
p849
sg10
(dp850
S'how'
p851
g0
(g1
g2
Ntp852
Rp853
(dp854
g6
Nsg8
S'NUMBER'
p855
sg10
Nsg24
NsbsS'what'
p856
g0
(g1
g2
Ntp857
Rp858
(dp859
g6
Nsg8
S'OTHER'
p860
sg10
Nsg24
Nsbssg24
NsbsS'windshield'
p861
g0
(g1
g2
Ntp862
Rp863
(dp864
g6
Nsg8
S'LOCATION'
p865
sg10
Nsg24
NsbsS'mayor'
p866
g0
(g1
g2
Ntp867
Rp868
(dp869
g6
Nsg8
S'PERSON'
p870
sg10
Nsg24
NsbsS'fit'
p871
g0
(g1
g2
Ntp872
Rp873
(dp874
g6
Nsg8
S'NUMBER'
p875
sg10
Nsg24
NsbsS'howdy'
p876
g0
(g1
g2
Ntp877
Rp878
(dp879
g6
g16
sg8
S'DATE'
p880
sg10
(dp881
S'what'
p882
g0
(g1
g2
Ntp883
Rp884
(dp885
g6
Nsg8
S'PERSON'
p886
sg10
Nsg24
NsbsS'when'
p887
g0
(g1
g2
Ntp888
Rp889
(dp890
g6
Nsg8
g880
sg10
Nsg24
Nsbssg24
NsbsS'better'
p891
g0
(g1
g2
Ntp892
Rp893
(dp894
g6
Nsg8
S'OTHER'
p895
sg10
Nsg24
NsbsS'distinguishing'
p896
g0
(g1
g2
Ntp897
Rp898
(dp899
g6
Nsg8
S'OTHER'
p900
sg10
Nsg24
NsbsS'yaroslavl'
p901
g0
(g1
g2
Ntp902
Rp903
(dp904
g6
Nsg8
S'NUMBER'
p905
sg10
Nsg24
NsbsS'tourist'
p906
g0
(g1
g2
Ntp907
Rp908
(dp909
g6
Nsg8
S'LOCATION'
p910
sg10
Nsg24
NsbsS'carolingian'
p911
g0
(g1
g2
Ntp912
Rp913
(dp914
g6
Nsg8
S'DATE'
p915
sg10
Nsg24
NsbsS'band'
p916
g0
(g1
g2
Ntp917
Rp918
(dp919
g6
Nsg8
S'PERSON'
p920
sg10
Nsg24
NsbsS'giraffe'
p921
g0
(g1
g2
Ntp922
Rp923
(dp924
g6
Nsg8
S'NUMBER'
p925
sg10
Nsg24
NsbsS'therapy'
p926
g0
(g1
g2
Ntp927
Rp928
(dp929
g6
Nsg8
S'OTHER'
p930
sg10
Nsg24
NsbsS'tourism'
p931
g0
(g1
g2
Ntp932
Rp933
(dp934
g6
Nsg8
S'LOCATION'
p935
sg10
Nsg24
NsbsS'silver'
p936
g0
(g1
g2
Ntp937
Rp938
(dp939
g6
Nsg8
S'NUMBER'
p940
sg10
Nsg24
NsbsS'bread'
p941
g0
(g1
g2
Ntp942
Rp943
(dp944
g6
Nsg8
S'OTHER'
p945
sg10
Nsg24
NsbsS'meat'
p946
g0
(g1
g2
Ntp947
Rp948
(dp949
g6
Nsg8
S'PERSON'
p950
sg10
Nsg24
NsbsS'victory'
p951
g0
(g1
g2
Ntp952
Rp953
(dp954
g6
Nsg8
S'PERSON'
p955
sg10
Nsg24
NsbsS'side'
p956
g0
(g1
g2
Ntp957
Rp958
(dp959
g6
Nsg8
S'OTHER'
p960
sg10
Nsg24
NsbsS'bone'
p961
g0
(g1
g2
Ntp962
Rp963
(dp964
g6
Nsg8
S'OTHER'
p965
sg10
Nsg24
NsbsS'luck'
p966
g0
(g1
g2
Ntp967
Rp968
(dp969
g6
Nsg8
S'NUMBER'
p970
sg10
Nsg24
NsbsS'wheel'
p971
g0
(g1
g2
Ntp972
Rp973
(dp974
g6
Nsg8
S'OTHER'
p975
sg10
Nsg24
NsbsS'constipation'
p976
g0
(g1
g2
Ntp977
Rp978
(dp979
g6
Nsg8
S'OTHER'
p980
sg10
Nsg24
NsbsS'statue'
p981
g0
(g1
g2
Ntp982
Rp983
(dp984
g6
Nsg8
S'OTHER'
p985
sg10
Nsg24
NsbsS'garment'
p986
g0
(g1
g2
Ntp987
Rp988
(dp989
g6
Nsg8
S'OTHER'
p990
sg10
Nsg24
NsbsS'spider'
p991
g0
(g1
g2
Ntp992
Rp993
(dp994
g6
Nsg8
S'OTHER'
p995
sg10
Nsg24
NsbsS'owner'
p996
g0
(g1
g2
Ntp997
Rp998
(dp999
g6
Nsg8
S'PERSON'
p1000
sg10
Nsg24
NsbsS'navy'
p1001
g0
(g1
g2
Ntp1002
Rp1003
(dp1004
g6
Nsg8
S'OTHER'
p1005
sg10
Nsg24
NsbsS'laboratory'
p1006
g0
(g1
g2
Ntp1007
Rp1008
(dp1009
g6
Nsg8
S'PERSON'
p1010
sg10
Nsg24
NsbsS'collector'
p1011
g0
(g1
g2
Ntp1012
Rp1013
(dp1014
g6
Nsg8
S'PERSON'
p1015
sg10
Nsg24
NsbsS'backgammon'
p1016
g0
(g1
g2
Ntp1017
Rp1018
(dp1019
g6
Nsg8
S'NUMBER'
p1020
sg10
Nsg24
NsbsS'network'
p1021
g0
(g1
g2
Ntp1022
Rp1023
(dp1024
g6
g16
sg8
S'NUMBER'
p1025
sg10
(dp1026
S'how'
p1027
g0
(g1
g2
Ntp1028
Rp1029
(dp1030
g6
Nsg8
g1025
sg10
Nsg24
NsbsS'what'
p1031
g0
(g1
g2
Ntp1032
Rp1033
(dp1034
g6
Nsg8
S'PERSON'
p1035
sg10
Nsg24
Nsbssg24
NsbsS'videotape'
p1036
g0
(g1
g2
Ntp1037
Rp1038
(dp1039
g6
Nsg8
S'LOCATION'
p1040
sg10
Nsg24
NsbsS'god'
p1041
g0
(g1
g2
Ntp1042
Rp1043
(dp1044
g6
Nsg8
S'OTHER'
p1045
sg10
Nsg24
NsbsS'mayan'
p1046
g0
(g1
g2
Ntp1047
Rp1048
(dp1049
g6
Nsg8
S'LOCATION'
p1050
sg10
Nsg24
NsbsS'four-player'
p1051
g0
(g1
g2
Ntp1052
Rp1053
(dp1054
g6
Nsg8
S'OTHER'
p1055
sg10
Nsg24
NsbsS'millennium'
p1056
g0
(g1
g2
Ntp1057
Rp1058
(dp1059
g6
Nsg8
S'DATE'
p1060
sg10
Nsg24
NsbsS'medicine'
p1061
g0
(g1
g2
Ntp1062
Rp1063
(dp1064
g6
Nsg8
S'OTHER'
p1065
sg10
Nsg24
NsbsS'size'
p1066
g0
(g1
g2
Ntp1067
Rp1068
(dp1069
g6
Nsg8
S'NUMBER'
p1070
sg10
Nsg24
NsbsS'mvp'
p1071
g0
(g1
g2
Ntp1072
Rp1073
(dp1074
g6
Nsg8
S'PERSON'
p1075
sg10
Nsg24
NsbsS'kai-shek'
p1076
g0
(g1
g2
Ntp1077
Rp1078
(dp1079
g6
Nsg8
S'LOCATION'
p1080
sg10
Nsg24
NsbsS'playwright'
p1081
g0
(g1
g2
Ntp1082
Rp1083
(dp1084
g6
Nsg8
S'PERSON'
p1085
sg10
Nsg24
NsbsS'rann'
p1086
g0
(g1
g2
Ntp1087
Rp1088
(dp1089
g6
Nsg8
S'PERSON'
p1090
sg10
Nsg24
NsbsS'rank'
p1091
g0
(g1
g2
Ntp1092
Rp1093
(dp1094
g6
Nsg8
S'NUMBER'
p1095
sg10
Nsg24
NsbsS'hearing'
p1096
g0
(g1
g2
Ntp1097
Rp1098
(dp1099
g6
Nsg8
S'OTHER'
p1100
sg10
Nsg24
NsbsS'ingmar'
p1101
g0
(g1
g2
Ntp1102
Rp1103
(dp1104
g6
Nsg8
S'NUMBER'
p1105
sg10
Nsg24
NsbsS'mercury'
p1106
g0
(g1
g2
Ntp1107
Rp1108
(dp1109
g6
Nsg8
S'PERSON'
p1110
sg10
Nsg24
NsbsS'toy'
p1111
g0
(g1
g2
Ntp1112
Rp1113
(dp1114
g6
Nsg8
S'PERSON'
p1115
sg10
Nsg24
NsbsS'fiction'
p1116
g0
(g1
g2
Ntp1117
Rp1118
(dp1119
g6
Nsg8
S'OTHER'
p1120
sg10
Nsg24
NsbsS'garry'
p1121
g0
(g1
g2
Ntp1122
Rp1123
(dp1124
g6
Nsg8
S'OTHER'
p1125
sg10
Nsg24
NsbsS'tom'
p1126
g0
(g1
g2
Ntp1127
Rp1128
(dp1129
g6
g16
sg8
S'NUMBER'
p1130
sg10
(dp1131
S'how'
p1132
g0
(g1
g2
Ntp1133
Rp1134
(dp1135
g6
Nsg8
g1130
sg10
Nsg24
NsbsS'what'
p1136
g0
(g1
g2
Ntp1137
Rp1138
(dp1139
g6
Nsg8
S'OTHER'
p1140
sg10
Nsg24
Nsbssg24
NsbsS'corpus'
p1141
g0
(g1
g2
Ntp1142
Rp1143
(dp1144
g6
g16
sg8
S'LOCATION'
p1145
sg10
(dp1146
S'the'
p1147
g0
(g1
g2
Ntp1148
Rp1149
(dp1150
g6
Nsg8
S'OTHER'
p1151
sg10
Nsg24
NsbsS'where'
p1152
g0
(g1
g2
Ntp1153
Rp1154
(dp1155
g6
Nsg8
S'LOCATION'
p1156
sg10
Nsg24
Nsbssg24
NsbsS'john'
p1157
g0
(g1
g2
Ntp1158
Rp1159
(dp1160
g6
g16
sg8
S'NUMBER'
p1161
sg10
(dp1162
S'how'
p1163
g0
(g1
g2
Ntp1164
Rp1165
(dp1166
g6
Nsg8
g1161
sg10
Nsg24
NsbsS'what'
p1167
g0
(g1
g2
Ntp1168
Rp1169
(dp1170
g6
Nsg8
S'OTHER'
p1171
sg10
Nsg24
Nsbssg24
NsbsS'genesis'
p1172
g0
(g1
g2
Ntp1173
Rp1174
(dp1175
g6
Nsg8
S'OTHER'
p1176
sg10
Nsg24
NsbsS'murder'
p1177
g0
(g1
g2
Ntp1178
Rp1179
(dp1180
g6
Nsg8
S'OTHER'
p1181
sg10
Nsg24
NsbsS'cereal'
p1182
g0
(g1
g2
Ntp1183
Rp1184
(dp1185
g6
Nsg8
S'OTHER'
p1186
sg10
Nsg24
NsbsS'distance'
p1187
g0
(g1
g2
Ntp1188
Rp1189
(dp1190
g6
Nsg8
S'PERSON'
p1191
sg10
Nsg24
NsbsS'target'
p1192
g0
(g1
g2
Ntp1193
Rp1194
(dp1195
g6
Nsg8
S'PERCENT'
p1196
sg10
Nsg24
NsbsS'pamplona'
p1197
g0
(g1
g2
Ntp1198
Rp1199
(dp1200
g6
Nsg8
S'DATE'
p1201
sg10
Nsg24
NsbsS'tree'
p1202
g0
(g1
g2
Ntp1203
Rp1204
(dp1205
g6
g16
sg8
S'LOCATION'
p1206
sg10
(dp1207
S'how'
p1208
g0
(g1
g2
Ntp1209
Rp1210
(dp1211
g6
Nsg8
S'MONEY'
p1212
sg10
Nsg24
NsbsS'who'
p1213
g0
(g1
g2
Ntp1214
Rp1215
(dp1216
g6
Nsg8
S'PERSON'
p1217
sg10
Nsg24
NsbsS'where'
p1218
g0
(g1
g2
Ntp1219
Rp1220
(dp1221
g6
Nsg8
g1206
sg10
Nsg24
NsbsS'dialing'
p1222
g0
(g1
g2
Ntp1223
Rp1224
(dp1225
g6
Nsg8
S'MONEY'
p1226
sg10
Nsg24
Nsbssg24
NsbsS'aztec'
p1227
g0
(g1
g2
Ntp1228
Rp1229
(dp1230
g6
Nsg8
S'OTHER'
p1231
sg10
Nsg24
NsbsS'project'
p1232
g0
(g1
g2
Ntp1233
Rp1234
(dp1235
g6
Nsg8
S'NUMBER'
p1236
sg10
Nsg24
NsbsS'speaking'
p1237
g0
(g1
g2
Ntp1238
Rp1239
(dp1240
g6
Nsg8
S'PERSON'
p1241
sg10
Nsg24
NsbsS'iron'
p1242
g0
(g1
g2
Ntp1243
Rp1244
(dp1245
g6
Nsg8
S'NUMBER'
p1246
sg10
Nsg24
NsbsS'feeling'
p1247
g0
(g1
g2
Ntp1248
Rp1249
(dp1250
g6
Nsg8
S'OTHER'
p1251
sg10
Nsg24
NsbsS'supercontinent'
p1252
g0
(g1
g2
Ntp1253
Rp1254
(dp1255
g6
Nsg8
S'DATE'
p1256
sg10
Nsg24
NsbsS'namath'
p1257
g0
(g1
g2
Ntp1258
Rp1259
(dp1260
g6
Nsg8
S'MONEY'
p1261
sg10
Nsg24
NsbsS'bridge'
p1262
g0
(g1
g2
Ntp1263
Rp1264
(dp1265
g6
g16
sg8
S'PERSON'
p1266
sg10
(dp1267
S'what'
p1268
g0
(g1
g2
Ntp1269
Rp1270
(dp1271
g6
Nsg8
S'OTHER'
p1272
sg10
Nsg24
NsbsS'who'
p1273
g0
(g1
g2
Ntp1274
Rp1275
(dp1276
g6
Nsg8
g1266
sg10
Nsg24
NsbsS'where'
p1277
g0
(g1
g2
Ntp1278
Rp1279
(dp1280
g6
Nsg8
S'LOCATION'
p1281
sg10
Nsg24
Nsbssg24
NsbsS'astaire'
p1282
g0
(g1
g2
Ntp1283
Rp1284
(dp1285
g6
Nsg8
S'PERSON'
p1286
sg10
Nsg24
NsbsS'modern'
p1287
g0
(g1
g2
Ntp1288
Rp1289
(dp1290
g6
Nsg8
S'OTHER'
p1291
sg10
Nsg24
NsbsS'spectrum'
p1292
g0
(g1
g2
Ntp1293
Rp1294
(dp1295
g6
g16
sg8
S'NUMBER'
p1296
sg10
(dp1297
S'how'
p1298
g0
(g1
g2
Ntp1299
Rp1300
(dp1301
g6
Nsg8
g1296
sg10
Nsg24
NsbsS'what'
p1302
g0
(g1
g2
Ntp1303
Rp1304
(dp1305
g6
Nsg8
S'LOCATION'
p1306
sg10
Nsg24
Nsbssg24
NsbsS'talking'
p1307
g0
(g1
g2
Ntp1308
Rp1309
(dp1310
g6
Nsg8
S'PERSON'
p1311
sg10
Nsg24
NsbsS'ray'
p1312
g0
(g1
g2
Ntp1313
Rp1314
(dp1315
g6
g16
sg8
S'OTHER'
p1316
sg10
(dp1317
S'how'
p1318
g0
(g1
g2
Ntp1319
Rp1320
(dp1321
g6
Nsg8
S'NUMBER'
p1322
sg10
Nsg24
NsbsS'musician'
p1323
g0
(g1
g2
Ntp1324
Rp1325
(dp1326
g6
Nsg8
S'OTHER'
p1327
sg10
Nsg24
Nsbsg1312
g0
(g1
g2
Ntp1328
Rp1329
(dp1330
g6
Nsg8
S'OTHER'
p1331
sg10
Nsg24
Nsbssg24
NsbsS'realm'
p1332
g0
(g1
g2
Ntp1333
Rp1334
(dp1335
g6
Nsg8
S'PERSON'
p1336
sg10
Nsg24
NsbsS'bourbon'
p1337
g0
(g1
g2
Ntp1338
Rp1339
(dp1340
g6
Nsg8
S'PERSON'
p1341
sg10
Nsg24
NsbsS'snow'
p1342
g0
(g1
g2
Ntp1343
Rp1344
(dp1345
g6
Nsg8
S'NUMBER'
p1346
sg10
Nsg24
NsbsS'reactivity'
p1347
g0
(g1
g2
Ntp1348
Rp1349
(dp1350
g6
Nsg8
S'NUMBER'
p1351
sg10
Nsg24
NsbsS'rome'
p1352
g0
(g1
g2
Ntp1353
Rp1354
(dp1355
g6
Nsg8
S'PERSON'
p1356
sg10
Nsg24
NsbsS'chess'
p1357
g0
(g1
g2
Ntp1358
Rp1359
(dp1360
g6
Nsg8
S'OTHER'
p1361
sg10
Nsg24
NsbsS'chiropodist'
p1362
g0
(g1
g2
Ntp1363
Rp1364
(dp1365
g6
Nsg8
S'OTHER'
p1366
sg10
Nsg24
NsbsS'rider'
p1367
g0
(g1
g2
Ntp1368
Rp1369
(dp1370
g6
Nsg8
S'LOCATION'
p1371
sg10
Nsg24
NsbsS'object'
p1372
g0
(g1
g2
Ntp1373
Rp1374
(dp1375
g6
Nsg8
S'OTHER'
p1376
sg10
Nsg24
NsbsS'phonograph'
p1377
g0
(g1
g2
Ntp1378
Rp1379
(dp1380
g6
Nsg8
S'PERSON'
p1381
sg10
Nsg24
NsbsS'victoria'
p1382
g0
(g1
g2
Ntp1383
Rp1384
(dp1385
g6
g16
sg8
S'OTHER'
p1386
sg10
(dp1387
S'what'
p1388
g0
(g1
g2
Ntp1389
Rp1390
(dp1391
g6
Nsg8
S'PERSON'
p1392
sg10
Nsg24
NsbsS'when'
p1393
g0
(g1
g2
Ntp1394
Rp1395
(dp1396
g6
Nsg8
S'DATE'
p1397
sg10
Nsg24
Nsbssg24
NsbsS'mouth'
p1398
g0
(g1
g2
Ntp1399
Rp1400
(dp1401
g6
Nsg8
S'OTHER'
p1402
sg10
Nsg24
NsbsS'letter'
p1403
g0
(g1
g2
Ntp1404
Rp1405
(dp1406
g6
Nsg8
S'OTHER'
p1407
sg10
Nsg24
NsbsS'coin'
p1408
g0
(g1
g2
Ntp1409
Rp1410
(dp1411
g6
Nsg8
S'OTHER'
p1412
sg10
Nsg24
NsbsS'singer'
p1413
g0
(g1
g2
Ntp1414
Rp1415
(dp1416
g6
Nsg8
S'PERSON'
p1417
sg10
Nsg24
NsbsS'don'
p1418
g0
(g1
g2
Ntp1419
Rp1420
(dp1421
g6
Nsg8
S'OTHER'
p1422
sg10
Nsg24
NsbsS'camp'
p1423
g0
(g1
g2
Ntp1424
Rp1425
(dp1426
g6
Nsg8
S'PERSON'
p1427
sg10
Nsg24
NsbsS'dog'
p1428
g0
(g1
g2
Ntp1429
Rp1430
(dp1431
g6
g16
sg8
S'PERSON'
p1432
sg10
(dp1433
S'how'
p1434
g0
(g1
g2
Ntp1435
Rp1436
(dp1437
g6
Nsg8
S'TIME'
p1438
sg10
Nsg24
NsbsS'what'
p1439
g0
(g1
g2
Ntp1440
Rp1441
(dp1442
g6
Nsg8
S'OTHER'
p1443
sg10
Nsg24
Nsbssg24
NsbsS'freeway'
p1444
g0
(g1
g2
Ntp1445
Rp1446
(dp1447
g6
Nsg8
S'LOCATION'
p1448
sg10
Nsg24
NsbsS'reputation'
p1449
g0
(g1
g2
Ntp1450
Rp1451
(dp1452
g6
Nsg8
S'PERSON'
p1453
sg10
Nsg24
NsbsS'scotch'
p1454
g0
(g1
g2
Ntp1455
Rp1456
(dp1457
g6
Nsg8
S'OTHER'
p1458
sg10
Nsg24
NsbsS'dow'
p1459
g0
(g1
g2
Ntp1460
Rp1461
(dp1462
g6
Nsg8
S'DATE'
p1463
sg10
Nsg24
NsbsS'dot'
p1464
g0
(g1
g2
Ntp1465
Rp1466
(dp1467
g6
Nsg8
S'OTHER'
p1468
sg10
Nsg24
NsbsS'marvel'
p1469
g0
(g1
g2
Ntp1470
Rp1471
(dp1472
g6
g16
sg8
S'LOCATION'
p1473
sg10
(dp1474
S'what'
p1475
g0
(g1
g2
Ntp1476
Rp1477
(dp1478
g6
Nsg8
g1473
sg10
Nsg24
NsbsS'who'
p1479
g0
(g1
g2
Ntp1480
Rp1481
(dp1482
g6
Nsg8
S'PERSON'
p1483
sg10
Nsg24
Nsbssg24
NsbsS'incorporate'
p1484
g0
(g1
g2
Ntp1485
Rp1486
(dp1487
g6
Nsg8
S'LOCATION'
p1488
sg10
Nsg24
NsbsS'bomb'
p1489
g0
(g1
g2
Ntp1490
Rp1491
(dp1492
g6
Nsg8
S'OTHER'
p1493
sg10
Nsg24
NsbsS'pope'
p1494
g0
(g1
g2
Ntp1495
Rp1496
(dp1497
g6
g16
sg8
S'PERSON'
p1498
sg10
(dp1499
S'how'
p1500
g0
(g1
g2
Ntp1501
Rp1502
(dp1503
g6
Nsg8
S'NUMBER'
p1504
sg10
Nsg24
NsbsS'what'
p1505
g0
(g1
g2
Ntp1506
Rp1507
(dp1508
g6
Nsg8
S'PERSON'
p1509
sg10
Nsg24
NsbsS'who'
p1510
g0
(g1
g2
Ntp1511
Rp1512
(dp1513
g6
Nsg8
S'PERSON'
p1514
sg10
Nsg24
Nsbssg24
NsbsS'sprocket'
p1515
g0
(g1
g2
Ntp1516
Rp1517
(dp1518
g6
Nsg8
S'NUMBER'
p1519
sg10
Nsg24
NsbsS'tequila'
p1520
g0
(g1
g2
Ntp1521
Rp1522
(dp1523
g6
Nsg8
S'OTHER'
p1524
sg10
Nsg24
NsbsS'queen'
p1525
g0
(g1
g2
Ntp1526
Rp1527
(dp1528
g6
Nsg8
S'PERSON'
p1529
sg10
Nsg24
NsbsS'dicken'
p1530
g0
(g1
g2
Ntp1531
Rp1532
(dp1533
g6
Nsg8
S'LOCATION'
p1534
sg10
Nsg24
NsbsS'madeira'
p1535
g0
(g1
g2
Ntp1536
Rp1537
(dp1538
g6
Nsg8
S'LOCATION'
p1539
sg10
Nsg24
NsbsS'earth'
p1540
g0
(g1
g2
Ntp1541
Rp1542
(dp1543
g6
g16
sg8
S'TIME'
p1544
sg10
(dp1545
S'how'
p1546
g0
(g1
g2
Ntp1547
Rp1548
(dp1549
g6
Nsg8
g1544
sg10
Nsg24
NsbsS'what'
p1550
g0
(g1
g2
Ntp1551
Rp1552
(dp1553
g6
Nsg8
S'OTHER'
p1554
sg10
Nsg24
Nsbssg24
NsbsS'nevada'
p1555
g0
(g1
g2
Ntp1556
Rp1557
(dp1558
g6
Nsg8
S'LOCATION'
p1559
sg10
Nsg24
NsbsS'brenner'
p1560
g0
(g1
g2
Ntp1561
Rp1562
(dp1563
g6
Nsg8
S'LOCATION'
p1564
sg10
Nsg24
NsbsS'buxom'
p1565
g0
(g1
g2
Ntp1566
Rp1567
(dp1568
g6
Nsg8
S'PERSON'
p1569
sg10
Nsg24
NsbsS'rico'
p1570
g0
(g1
g2
Ntp1571
Rp1572
(dp1573
g6
Nsg8
S'NUMBER'
p1574
sg10
Nsg24
NsbsS'theme'
p1575
g0
(g1
g2
Ntp1576
Rp1577
(dp1578
g6
Nsg8
S'PERSON'
p1579
sg10
Nsg24
NsbsS'show-biz'
p1580
g0
(g1
g2
Ntp1581
Rp1582
(dp1583
g6
Nsg8
S'PERSON'
p1584
sg10
Nsg24
NsbsS'de'
p1585
g0
(g1
g2
Ntp1586
Rp1587
(dp1588
g6
Nsg8
S'DATE'
p1589
sg10
Nsg24
NsbsS'stop'
p1590
g0
(g1
g2
Ntp1591
Rp1592
(dp1593
g6
Nsg8
S'PERSON'
p1594
sg10
Nsg24
NsbsS'hussain'
p1595
g0
(g1
g2
Ntp1596
Rp1597
(dp1598
g6
Nsg8
S'PERSON'
p1599
sg10
Nsg24
NsbsS'da'
p1600
g0
(g1
g2
Ntp1601
Rp1602
(dp1603
g6
Nsg8
S'OTHER'
p1604
sg10
Nsg24
NsbsS'borrower'
p1605
g0
(g1
g2
Ntp1606
Rp1607
(dp1608
g6
Nsg8
S'PERSON'
p1609
sg10
Nsg24
NsbsS'bunyan'
p1610
g0
(g1
g2
Ntp1611
Rp1612
(dp1613
g6
Nsg8
S'OTHER'
p1614
sg10
Nsg24
NsbsS'dt'
p1615
g0
(g1
g2
Ntp1616
Rp1617
(dp1618
g6
Nsg8
S'PERSON'
p1619
sg10
Nsg24
NsbsS'bat'
p1620
g0
(g1
g2
Ntp1621
Rp1622
(dp1623
g6
Nsg8
S'NUMBER'
p1624
sg10
Nsg24
NsbsS'bar'
p1625
g0
(g1
g2
Ntp1626
Rp1627
(dp1628
g6
Nsg8
S'OTHER'
p1629
sg10
Nsg24
NsbsS'chesapeake'
p1630
g0
(g1
g2
Ntp1631
Rp1632
(dp1633
g6
Nsg8
S'LOCATION'
p1634
sg10
Nsg24
NsbsS'suffrage'
p1635
g0
(g1
g2
Ntp1636
Rp1637
(dp1638
g6
Nsg8
S'DATE'
p1639
sg10
Nsg24
NsbsS'bay'
p1640
g0
(g1
g2
Ntp1641
Rp1642
(dp1643
g6
Nsg8
S'LOCATION'
p1644
sg10
Nsg24
NsbsS'terabyte'
p1645
g0
(g1
g2
Ntp1646
Rp1647
(dp1648
g6
Nsg8
S'NUMBER'
p1649
sg10
Nsg24
NsbsS'architecture'
p1650
g0
(g1
g2
Ntp1651
Rp1652
(dp1653
g6
Nsg8
S'DATE'
p1654
sg10
Nsg24
NsbsS'disaster'
p1655
g0
(g1
g2
Ntp1656
Rp1657
(dp1658
g6
Nsg8
S'OTHER'
p1659
sg10
Nsg24
NsbsS'hammer'
p1660
g0
(g1
g2
Ntp1661
Rp1662
(dp1663
g6
Nsg8
S'PERSON'
p1664
sg10
Nsg24
NsbsS'capone'
p1665
g0
(g1
g2
Ntp1666
Rp1667
(dp1668
g6
Nsg8
S'PERSON'
p1669
sg10
Nsg24
NsbsS'combustion'
p1670
g0
(g1
g2
Ntp1671
Rp1672
(dp1673
g6
Nsg8
S'DATE'
p1674
sg10
Nsg24
NsbsS'ventura'
p1675
g0
(g1
g2
Ntp1676
Rp1677
(dp1678
g6
Nsg8
S'PERSON'
p1679
sg10
Nsg24
NsbsS'continent'
p1680
g0
(g1
g2
Ntp1681
Rp1682
(dp1683
g6
Nsg8
S'LOCATION'
p1684
sg10
Nsg24
NsbsS'ringo'
p1685
g0
(g1
g2
Ntp1686
Rp1687
(dp1688
g6
Nsg8
S'PERSON'
p1689
sg10
Nsg24
NsbsS'score'
p1690
g0
(g1
g2
Ntp1691
Rp1692
(dp1693
g6
Nsg8
S'NUMBER'
p1694
sg10
Nsg24
NsbsS'finger'
p1695
g0
(g1
g2
Ntp1696
Rp1697
(dp1698
g6
Nsg8
S'PERSON'
p1699
sg10
Nsg24
NsbsS'vitamin'
p1700
g0
(g1
g2
Ntp1701
Rp1702
(dp1703
g6
Nsg8
S'OTHER'
p1704
sg10
Nsg24
NsbsS'toothbrush'
p1705
g0
(g1
g2
Ntp1706
Rp1707
(dp1708
g6
Nsg8
S'PERSON'
p1709
sg10
Nsg24
NsbsS'decathlon'
p1710
g0
(g1
g2
Ntp1711
Rp1712
(dp1713
g6
Nsg8
S'NUMBER'
p1714
sg10
Nsg24
NsbsS'motto'
p1715
g0
(g1
g2
Ntp1716
Rp1717
(dp1718
g6
Nsg8
S'PERSON'
p1719
sg10
Nsg24
NsbsS'debt'
p1720
g0
(g1
g2
Ntp1721
Rp1722
(dp1723
g6
Nsg8
S'TIME'
p1724
sg10
Nsg24
NsbsS'roller'
p1725
g0
(g1
g2
Ntp1726
Rp1727
(dp1728
g6
Nsg8
S'PERSON'
p1729
sg10
Nsg24
NsbsS'cop'
p1730
g0
(g1
g2
Ntp1731
Rp1732
(dp1733
g6
Nsg8
S'PERSON'
p1734
sg10
Nsg24
NsbsS'country'
p1735
g0
(g1
g2
Ntp1736
Rp1737
(dp1738
g6
g16
sg8
S'LOCATION'
p1739
sg10
(dp1740
S'how'
p1741
g0
(g1
g2
Ntp1742
Rp1743
(dp1744
g6
Nsg8
S'NUMBER'
p1745
sg10
Nsg24
NsbsS'what'
p1746
g0
(g1
g2
Ntp1747
Rp1748
(dp1749
g6
Nsg8
S'LOCATION'
p1750
sg10
Nsg24
NsbsS'where'
p1751
g0
(g1
g2
Ntp1752
Rp1753
(dp1754
g6
Nsg8
S'LOCATION'
p1755
sg10
Nsg24
NsbsS'in what'
p1756
g0
(g1
g2
Ntp1757
Rp1758
(dp1759
g6
Nsg8
S'LOCATION'
p1760
sg10
Nsg24
NsbsS'which'
p1761
g0
(g1
g2
Ntp1762
Rp1763
(dp1764
g6
Nsg8
S'LOCATION'
p1765
sg10
Nsg24
Nsbssg24
NsbsS'protection'
p1766
g0
(g1
g2
Ntp1767
Rp1768
(dp1769
g6
Nsg8
S'NUMBER'
p1770
sg10
Nsg24
NsbsS'maclaine'
p1771
g0
(g1
g2
Ntp1772
Rp1773
(dp1774
g6
Nsg8
S'PERSON'
p1775
sg10
Nsg24
NsbsS'sullivan'
p1776
g0
(g1
g2
Ntp1777
Rp1778
(dp1779
g6
Nsg8
S'PERSON'
p1780
sg10
Nsg24
NsbsS'character'
p1781
g0
(g1
g2
Ntp1782
Rp1783
(dp1784
g6
Nsg8
S'PERSON'
p1785
sg10
Nsg24
NsbsS'durante'
p1786
g0
(g1
g2
Ntp1787
Rp1788
(dp1789
g6
Nsg8
S'OTHER'
p1790
sg10
Nsg24
NsbsS'height'
p1791
g0
(g1
g2
Ntp1792
Rp1793
(dp1794
g6
Nsg8
S'NUMBER'
p1795
sg10
Nsg24
NsbsS'hitler'
p1796
g0
(g1
g2
Ntp1797
Rp1798
(dp1799
g6
g16
sg8
S'DATE'
p1800
sg10
(dp1801
S'who'
p1802
g0
(g1
g2
Ntp1803
Rp1804
(dp1805
g6
Nsg8
S'PERSON'
p1806
sg10
Nsg24
NsbsS'hitler'
p1807
g0
(g1
g2
Ntp1808
Rp1809
(dp1810
g6
Nsg8
g1800
sg10
Nsg24
Nsbssg24
NsbsS'union'
p1811
g0
(g1
g2
Ntp1812
Rp1813
(dp1814
g6
g16
sg8
S'PERSON'
p1815
sg10
(dp1816
S'how'
p1817
g0
(g1
g2
Ntp1818
Rp1819
(dp1820
g6
Nsg8
S'NUMBER'
p1821
sg10
Nsg24
NsbsS'what'
p1822
g0
(g1
g2
Ntp1823
Rp1824
(dp1825
g6
Nsg8
g1815
sg10
Nsg24
NsbsS'where'
p1826
g0
(g1
g2
Ntp1827
Rp1828
(dp1829
g6
Nsg8
S'LOCATION'
p1830
sg10
Nsg24
Nsbssg24
NsbsS'submarine'
p1831
g0
(g1
g2
Ntp1832
Rp1833
(dp1834
g6
Nsg8
S'OTHER'
p1835
sg10
Nsg24
NsbsS'beer'
p1836
g0
(g1
g2
Ntp1837
Rp1838
(dp1839
g6
Nsg8
S'OTHER'
p1840
sg10
Nsg24
NsbsS'stadium'
p1841
g0
(g1
g2
Ntp1842
Rp1843
(dp1844
g6
Nsg8
S'LOCATION'
p1845
sg10
Nsg24
NsbsS'tallest'
p1846
g0
(g1
g2
Ntp1847
Rp1848
(dp1849
g6
Nsg8
S'LOCATION'
p1850
sg10
Nsg24
NsbsS'incompetent'
p1851
g0
(g1
g2
Ntp1852
Rp1853
(dp1854
g6
Nsg8
S'OTHER'
p1855
sg10
Nsg24
NsbsS'teenager'
p1856
g0
(g1
g2
Ntp1857
Rp1858
(dp1859
g6
Nsg8
S'DATE'
p1860
sg10
Nsg24
NsbsS'life'
p1861
g0
(g1
g2
Ntp1862
Rp1863
(dp1864
g6
g16
sg8
S'TIME'
p1865
sg10
(dp1866
S'how'
p1867
g0
(g1
g2
Ntp1868
Rp1869
(dp1870
g6
Nsg8
S'NUMBER'
p1871
sg10
Nsg24
NsbsS'what'
p1872
g0
(g1
g2
Ntp1873
Rp1874
(dp1875
g6
Nsg8
S'TIME'
p1876
sg10
Nsg24
Nsbssg24
NsbsS'craft'
p1877
g0
(g1
g2
Ntp1878
Rp1879
(dp1880
g6
g16
sg8
S'NUMBER'
p1881
sg10
(dp1882
S'how'
p1883
g0
(g1
g2
Ntp1884
Rp1885
(dp1886
g6
Nsg8
S'NUMBER'
p1887
sg10
Nsg24
NsbsS'what'
p1888
g0
(g1
g2
Ntp1889
Rp1890
(dp1891
g6
Nsg8
S'OTHER'
p1892
sg10
Nsg24
NsbsS'who'
p1893
g0
(g1
g2
Ntp1894
Rp1895
(dp1896
g6
Nsg8
S'PERSON'
p1897
sg10
Nsg24
Nsbssg24
NsbsS'chile'
p1898
g0
(g1
g2
Ntp1899
Rp1900
(dp1901
g6
Nsg8
S'NUMBER'
p1902
sg10
Nsg24
NsbsS'child'
p1903
g0
(g1
g2
Ntp1904
Rp1905
(dp1906
g6
g16
sg8
S'TIME'
p1907
sg10
(dp1908
S'how'
p1909
g0
(g1
g2
Ntp1910
Rp1911
(dp1912
g6
Nsg8
g1907
sg10
Nsg24
NsbsS'who'
p1913
g0
(g1
g2
Ntp1914
Rp1915
(dp1916
g6
Nsg8
S'PERSON'
p1917
sg10
Nsg24
Nsbssg24
NsbsS'presidency'
p1918
g0
(g1
g2
Ntp1919
Rp1920
(dp1921
g6
Nsg8
S'NUMBER'
p1922
sg10
Nsg24
NsbsS'originate'
p1923
g0
(g1
g2
Ntp1924
Rp1925
(dp1926
g6
Nsg8
S'LOCATION'
p1927
sg10
Nsg24
NsbsS'air'
p1928
g0
(g1
g2
Ntp1929
Rp1930
(dp1931
g6
Nsg8
S'PERSON'
p1932
sg10
Nsg24
NsbsS'employ'
p1933
g0
(g1
g2
Ntp1934
Rp1935
(dp1936
g6
Nsg8
S'OTHER'
p1937
sg10
Nsg24
NsbsS'calcium'
p1938
g0
(g1
g2
Ntp1939
Rp1940
(dp1941
g6
Nsg8
S'NUMBER'
p1942
sg10
Nsg24
NsbsS'voice'
p1943
g0
(g1
g2
Ntp1944
Rp1945
(dp1946
g6
Nsg8
S'PERSON'
p1947
sg10
Nsg24
NsbsS'procedure'
p1948
g0
(g1
g2
Ntp1949
Rp1950
(dp1951
g6
Nsg8
S'OTHER'
p1952
sg10
Nsg24
NsbsS'cane'
p1953
g0
(g1
g2
Ntp1954
Rp1955
(dp1956
g6
Nsg8
S'OTHER'
p1957
sg10
Nsg24
NsbsS'mexico'
p1958
g0
(g1
g2
Ntp1959
Rp1960
(dp1961
g6
Nsg8
S'PERSON'
p1962
sg10
Nsg24
NsbsS'iq'
p1963
g0
(g1
g2
Ntp1964
Rp1965
(dp1966
g6
Nsg8
S'NUMBER'
p1967
sg10
Nsg24
NsbsS'chappellet'
p1968
g0
(g1
g2
Ntp1969
Rp1970
(dp1971
g6
Nsg8
S'NUMBER'
p1972
sg10
Nsg24
NsbsS'iv'
p1973
g0
(g1
g2
Ntp1974
Rp1975
(dp1976
g6
Nsg8
S'OTHER'
p1977
sg10
Nsg24
NsbsS'player'
p1978
g0
(g1
g2
Ntp1979
Rp1980
(dp1981
g6
g16
sg8
S'OTHER'
p1982
sg10
(dp1983
S'how'
p1984
g0
(g1
g2
Ntp1985
Rp1986
(dp1987
g6
Nsg8
S'NUMBER'
p1988
sg10
Nsg24
NsbsS'what'
p1989
g0
(g1
g2
Ntp1990
Rp1991
(dp1992
g6
Nsg8
S'PERSON'
p1993
sg10
Nsg24
Nsbssg24
NsbsS'madonna'
p1994
g0
(g1
g2
Ntp1995
Rp1996
(dp1997
g6
Nsg8
S'OTHER'
p1998
sg10
Nsg24
NsbsS'haboob'
p1999
g0
(g1
g2
Ntp2000
Rp2001
(dp2002
g6
Nsg8
S'OTHER'
p2003
sg10
Nsg24
NsbsS'airport'
p2004
g0
(g1
g2
Ntp2005
Rp2006
(dp2007
g6
Nsg8
S'LOCATION'
p2008
sg10
Nsg24
NsbsS'monarch'
p2009
g0
(g1
g2
Ntp2010
Rp2011
(dp2012
g6
Nsg8
S'PERSON'
p2013
sg10
Nsg24
NsbsS'voyager'
p2014
g0
(g1
g2
Ntp2015
Rp2016
(dp2017
g6
Nsg8
S'PERSON'
p2018
sg10
Nsg24
NsbsS'independent'
p2019
g0
(g1
g2
Ntp2020
Rp2021
(dp2022
g6
Nsg8
S'PERCENT'
p2023
sg10
Nsg24
NsbsS'saddam'
p2024
g0
(g1
g2
Ntp2025
Rp2026
(dp2027
g6
Nsg8
S'PERSON'
p2028
sg10
Nsg24
NsbsS'rain'
p2029
g0
(g1
g2
Ntp2030
Rp2031
(dp2032
g6
Nsg8
S'LOCATION'
p2033
sg10
Nsg24
NsbsS'hand'
p2034
g0
(g1
g2
Ntp2035
Rp2036
(dp2037
g6
g16
sg8
S'NUMBER'
p2038
sg10
(dp2039
S'how'
p2040
g0
(g1
g2
Ntp2041
Rp2042
(dp2043
g6
Nsg8
S'NUMBER'
p2044
sg10
Nsg24
NsbsS'what'
p2045
g0
(g1
g2
Ntp2046
Rp2047
(dp2048
g6
Nsg8
S'OTHER'
p2049
sg10
Nsg24
Nsbssg24
NsbsS'renaissance'
p2050
g0
(g1
g2
Ntp2051
Rp2052
(dp2053
g6
Nsg8
S'PERSON'
p2054
sg10
Nsg24
NsbsS'waterfall'
p2055
g0
(g1
g2
Ntp2056
Rp2057
(dp2058
g6
Nsg8
S'LOCATION'
p2059
sg10
Nsg24
NsbsS'kid'
p2060
g0
(g1
g2
Ntp2061
Rp2062
(dp2063
g6
g16
sg8
S'PERSON'
p2064
sg10
(dp2065
S'what'
p2066
g0
(g1
g2
Ntp2067
Rp2068
(dp2069
g6
Nsg8
S'OTHER'
p2070
sg10
Nsg24
NsbsS'who'
p2071
g0
(g1
g2
Ntp2072
Rp2073
(dp2074
g6
Nsg8
g2064
sg10
Nsg24
Nsbssg24
NsbsS'earhart'
p2075
g0
(g1
g2
Ntp2076
Rp2077
(dp2078
g6
Nsg8
S'LOCATION'
p2079
sg10
Nsg24
NsbsS'charlie'
p2080
g0
(g1
g2
Ntp2081
Rp2082
(dp2083
g6
Nsg8
S'PERSON'
p2084
sg10
Nsg24
NsbsS'ocean'
p2085
g0
(g1
g2
Ntp2086
Rp2087
(dp2088
g6
Nsg8
S'NUMBER'
p2089
sg10
Nsg24
NsbsS'contact'
p2090
g0
(g1
g2
Ntp2091
Rp2092
(dp2093
g6
Nsg8
S'OTHER'
p2094
sg10
Nsg24
NsbsS'mother'
p2095
g0
(g1
g2
Ntp2096
Rp2097
(dp2098
g6
Nsg8
S'PERSON'
p2099
sg10
Nsg24
NsbsS'snowman'
p2100
g0
(g1
g2
Ntp2101
Rp2102
(dp2103
g6
Nsg8
S'LOCATION'
p2104
sg10
Nsg24
NsbsS'unemployment'
p2105
g0
(g1
g2
Ntp2106
Rp2107
(dp2108
g6
Nsg8
S'NUMBER'
p2109
sg10
Nsg24
NsbsS'human'
p2110
g0
(g1
g2
Ntp2111
Rp2112
(dp2113
g6
g16
sg8
S'NUMBER'
p2114
sg10
(dp2115
S'a'
p2116
g0
(g1
g2
Ntp2117
Rp2118
(dp2119
g6
Nsg8
g2114
sg10
Nsg24
NsbsS'how'
p2120
g0
(g1
g2
Ntp2121
Rp2122
(dp2123
g6
Nsg8
S'NUMBER'
p2124
sg10
Nsg24
NsbsS'what'
p2125
g0
(g1
g2
Ntp2126
Rp2127
(dp2128
g6
Nsg8
S'OTHER'
p2129
sg10
Nsg24
Nsbssg24
NsbsS'adding'
p2130
g0
(g1
g2
Ntp2131
Rp2132
(dp2133
g6
Nsg8
S'OTHER'
p2134
sg10
Nsg24
NsbsS'eli'
p2135
g0
(g1
g2
Ntp2136
Rp2137
(dp2138
g6
Nsg8
S'LOCATION'
p2139
sg10
Nsg24
NsbsS'brigham'
p2140
g0
(g1
g2
Ntp2141
Rp2142
(dp2143
g6
Nsg8
S'NUMBER'
p2144
sg10
Nsg24
NsbsS'royal'
p2145
g0
(g1
g2
Ntp2146
Rp2147
(dp2148
g6
g16
sg8
S'LOCATION'
p2149
sg10
(dp2150
S'what'
p2151
g0
(g1
g2
Ntp2152
Rp2153
(dp2154
g6
Nsg8
g2149
sg10
Nsg24
NsbsS'when'
p2155
g0
(g1
g2
Ntp2156
Rp2157
(dp2158
g6
Nsg8
S'DATE'
p2159
sg10
Nsg24
Nsbssg24
NsbsS'woodstock'
p2160
g0
(g1
g2
Ntp2161
Rp2162
(dp2163
g6
Nsg8
S'LOCATION'
p2164
sg10
Nsg24
NsbsS'wright'
p2165
g0
(g1
g2
Ntp2166
Rp2167
(dp2168
g6
Nsg8
S'LOCATION'
p2169
sg10
Nsg24
NsbsS'board'
p2170
g0
(g1
g2
Ntp2171
Rp2172
(dp2173
g6
Nsg8
S'OTHER'
p2174
sg10
Nsg24
NsbsS'prison'
p2175
g0
(g1
g2
Ntp2176
Rp2177
(dp2178
g6
Nsg8
S'LOCATION'
p2179
sg10
Nsg24
NsbsS'east'
p2180
g0
(g1
g2
Ntp2181
Rp2182
(dp2183
g6
Nsg8
S'LOCATION'
p2184
sg10
Nsg24
NsbsS'hat'
p2185
g0
(g1
g2
Ntp2186
Rp2187
(dp2188
g6
Nsg8
S'LOCATION'
p2189
sg10
Nsg24
NsbsS'viking'
p2190
g0
(g1
g2
Ntp2191
Rp2192
(dp2193
g6
Nsg8
S'PERSON'
p2194
sg10
Nsg24
NsbsS'maya'
p2195
g0
(g1
g2
Ntp2196
Rp2197
(dp2198
g6
Nsg8
S'LOCATION'
p2199
sg10
Nsg24
NsbsS'africa'
p2200
g0
(g1
g2
Ntp2201
Rp2202
(dp2203
g6
Nsg8
S'NUMBER'
p2204
sg10
Nsg24
NsbsS'mayo'
p2205
g0
(g1
g2
Ntp2206
Rp2207
(dp2208
g6
Nsg8
S'LOCATION'
p2209
sg10
Nsg24
NsbsS'sussex'
p2210
g0
(g1
g2
Ntp2211
Rp2212
(dp2213
g6
Nsg8
S'PERSON'
p2214
sg10
Nsg24
NsbsS'boxer'
p2215
g0
(g1
g2
Ntp2216
Rp2217
(dp2218
g6
Nsg8
S'PERSON'
p2219
sg10
Nsg24
NsbsS'unification'
p2220
g0
(g1
g2
Ntp2221
Rp2222
(dp2223
g6
Nsg8
S'PERSON'
p2224
sg10
Nsg24
NsbsS'birth'
p2225
g0
(g1
g2
Ntp2226
Rp2227
(dp2228
g6
Nsg8
S'OTHER'
p2229
sg10
Nsg24
NsbsS'alice'
p2230
g0
(g1
g2
Ntp2231
Rp2232
(dp2233
g6
Nsg8
S'PERSON'
p2234
sg10
Nsg24
NsbsS'prologue'
p2235
g0
(g1
g2
Ntp2236
Rp2237
(dp2238
g6
Nsg8
S'OTHER'
p2239
sg10
Nsg24
NsbsS'mcgwire'
p2240
g0
(g1
g2
Ntp2241
Rp2242
(dp2243
g6
Nsg8
S'LOCATION'
p2244
sg10
Nsg24
NsbsS'malaysia'
p2245
g0
(g1
g2
Ntp2246
Rp2247
(dp2248
g6
Nsg8
S'DATE'
p2249
sg10
Nsg24
NsbsS'donald'
p2250
g0
(g1
g2
Ntp2251
Rp2252
(dp2253
g6
Nsg8
S'NUMBER'
p2254
sg10
Nsg24
NsbsS'election'
p2255
g0
(g1
g2
Ntp2256
Rp2257
(dp2258
g6
Nsg8
S'PERSON'
p2259
sg10
Nsg24
NsbsS'ice'
p2260
g0
(g1
g2
Ntp2261
Rp2262
(dp2263
g6
Nsg8
S'NUMBER'
p2264
sg10
Nsg24
NsbsS'cnn'
p2265
g0
(g1
g2
Ntp2266
Rp2267
(dp2268
g6
Nsg8
S'DATE'
p2269
sg10
Nsg24
NsbsS'pregnacy'
p2270
g0
(g1
g2
Ntp2271
Rp2272
(dp2273
g6
Nsg8
S'PERCENT'
p2274
sg10
Nsg24
NsbsS'espionage'
p2275
g0
(g1
g2
Ntp2276
Rp2277
(dp2278
g6
Nsg8
S'OTHER'
p2279
sg10
Nsg24
NsbsS'columbus'
p2280
g0
(g1
g2
Ntp2281
Rp2282
(dp2283
g6
g16
sg8
S'OTHER'
p2284
sg10
(dp2285
S'what'
p2286
g0
(g1
g2
Ntp2287
Rp2288
(dp2289
g6
Nsg8
g2284
sg10
Nsg24
NsbsS'where'
p2290
g0
(g1
g2
Ntp2291
Rp2292
(dp2293
g6
Nsg8
S'LOCATION'
p2294
sg10
Nsg24
Nsbssg24
NsbsS'night'
p2295
g0
(g1
g2
Ntp2296
Rp2297
(dp2298
g6
Nsg8
S'PERSON'
p2299
sg10
Nsg24
NsbsS'protagonist'
p2300
g0
(g1
g2
Ntp2301
Rp2302
(dp2303
g6
Nsg8
S'PERSON'
p2304
sg10
Nsg24
NsbsS'olsen'
p2305
g0
(g1
g2
Ntp2306
Rp2307
(dp2308
g6
Nsg8
S'PERSON'
p2309
sg10
Nsg24
NsbsS'bolt'
p2310
g0
(g1
g2
Ntp2311
Rp2312
(dp2313
g6
Nsg8
S'OTHER'
p2314
sg10
Nsg24
NsbsS'post'
p2315
g0
(g1
g2
Ntp2316
Rp2317
(dp2318
g6
Nsg8
S'LOCATION'
p2319
sg10
Nsg24
NsbsS'super'
p2320
g0
(g1
g2
Ntp2321
Rp2322
(dp2323
g6
Nsg8
S'PERSON'
p2324
sg10
Nsg24
NsbsS'meyer'
p2325
g0
(g1
g2
Ntp2326
Rp2327
(dp2328
g6
Nsg8
S'OTHER'
p2329
sg10
Nsg24
NsbsS'chapter'
p2330
g0
(g1
g2
Ntp2331
Rp2332
(dp2333
g6
Nsg8
S'NUMBER'
p2334
sg10
Nsg24
NsbsS'cowboy'
p2335
g0
(g1
g2
Ntp2336
Rp2337
(dp2338
g6
Nsg8
S'PERSON'
p2339
sg10
Nsg24
NsbsS'magazine'
p2340
g0
(g1
g2
Ntp2341
Rp2342
(dp2343
g6
Nsg8
S'OTHER'
p2344
sg10
Nsg24
NsbsS'albee'
p2345
g0
(g1
g2
Ntp2346
Rp2347
(dp2348
g6
Nsg8
S'OTHER'
p2349
sg10
Nsg24
NsbsS'octopus'
p2350
g0
(g1
g2
Ntp2351
Rp2352
(dp2353
g6
Nsg8
S'NUMBER'
p2354
sg10
Nsg24
NsbsS'nixon'
p2355
g0
(g1
g2
Ntp2356
Rp2357
(dp2358
g6
g16
sg8
S'DATE'
p2359
sg10
(dp2360
S'where'
p2361
g0
(g1
g2
Ntp2362
Rp2363
(dp2364
g6
Nsg8
S'LOCATION'
p2365
sg10
Nsg24
NsbsS'what'
p2366
g0
(g1
g2
Ntp2367
Rp2368
(dp2369
g6
Nsg8
S'PERSON'
p2370
sg10
Nsg24
NsbsS'who'
p2371
g0
(g1
g2
Ntp2372
Rp2373
(dp2374
g6
Nsg8
S'PERSON'
p2375
sg10
Nsg24
NsbsS'when'
p2376
g0
(g1
g2
Ntp2377
Rp2378
(dp2379
g6
Nsg8
S'DATE'
p2380
sg10
Nsg24
Nsbssg24
NsbsS'facility'
p2381
g0
(g1
g2
Ntp2382
Rp2383
(dp2384
g6
Nsg8
S'OTHER'
p2385
sg10
Nsg24
NsbsS'civil'
p2386
g0
(g1
g2
Ntp2387
Rp2388
(dp2389
g6
Nsg8
S'PERSON'
p2390
sg10
Nsg24
NsbsS'profession'
p2391
g0
(g1
g2
Ntp2392
Rp2393
(dp2394
g6
Nsg8
S'PERSON'
p2395
sg10
Nsg24
NsbsS'litmus'
p2396
g0
(g1
g2
Ntp2397
Rp2398
(dp2399
g6
Nsg8
S'OTHER'
p2400
sg10
Nsg24
NsbsS'son'
p2401
g0
(g1
g2
Ntp2402
Rp2403
(dp2404
g6
Nsg8
S'PERSON'
p2405
sg10
Nsg24
NsbsS'ussr'
p2406
g0
(g1
g2
Ntp2407
Rp2408
(dp2409
g6
Nsg8
S'DATE'
p2410
sg10
Nsg24
NsbsS'coastal'
p2411
g0
(g1
g2
Ntp2412
Rp2413
(dp2414
g6
Nsg8
S'LOCATION'
p2415
sg10
Nsg24
NsbsS'soy'
p2416
g0
(g1
g2
Ntp2417
Rp2418
(dp2419
g6
Nsg8
S'NUMBER'
p2420
sg10
Nsg24
NsbsS'amsterdam'
p2421
g0
(g1
g2
Ntp2422
Rp2423
(dp2424
g6
Nsg8
S'LOCATION'
p2425
sg10
Nsg24
NsbsS'support'
p2426
g0
(g1
g2
Ntp2427
Rp2428
(dp2429
g6
Nsg8
S'NUMBER'
p2430
sg10
Nsg24
NsbsS'tennis'
p2431
g0
(g1
g2
Ntp2432
Rp2433
(dp2434
g6
Nsg8
S'LOCATION'
p2435
sg10
Nsg24
NsbsS'approximate'
p2436
g0
(g1
g2
Ntp2437
Rp2438
(dp2439
g6
Nsg8
S'NUMBER'
p2440
sg10
Nsg24
NsbsS'sunlight'
p2441
g0
(g1
g2
Ntp2442
Rp2443
(dp2444
g6
Nsg8
S'TIME'
p2445
sg10
Nsg24
NsbsS'gitchee'
p2446
g0
(g1
g2
Ntp2447
Rp2448
(dp2449
g6
Nsg8
S'PERSON'
p2450
sg10
Nsg24
NsbsS'joseph'
p2451
g0
(g1
g2
Ntp2452
Rp2453
(dp2454
g6
Nsg8
S'OTHER'
p2455
sg10
Nsg24
NsbsS'way'
p2456
g0
(g1
g2
Ntp2457
Rp2458
(dp2459
g6
g16
sg8
S'OTHER'
p2460
sg10
(dp2461
S'how'
p2462
g0
(g1
g2
Ntp2463
Rp2464
(dp2465
g6
Nsg8
S'TIME'
p2466
sg10
Nsg24
NsbsS'what'
p2467
g0
(g1
g2
Ntp2468
Rp2469
(dp2470
g6
Nsg8
S'OTHER'
p2471
sg10
Nsg24
NsbsS'which'
p2472
g0
(g1
g2
Ntp2473
Rp2474
(dp2475
g6
Nsg8
S'LOCATION'
p2476
sg10
Nsg24
Nsbssg24
NsbsS'jane'
p2477
g0
(g1
g2
Ntp2478
Rp2479
(dp2480
g6
Nsg8
S'PERSON'
p2481
sg10
Nsg24
NsbsS'music'
p2482
g0
(g1
g2
Ntp2483
Rp2484
(dp2485
g6
Nsg8
S'PERSON'
p2486
sg10
Nsg24
NsbsS'war'
p2487
g0
(g1
g2
Ntp2488
Rp2489
(dp2490
g6
g16
sg8
S'OTHER'
p2491
sg10
(dp2492
S'how'
p2493
g0
(g1
g2
Ntp2494
Rp2495
(dp2496
g6
Nsg8
S'NUMBER'
p2497
sg10
Nsg24
NsbsS'what'
p2498
g0
(g1
g2
Ntp2499
Rp2500
(dp2501
g6
Nsg8
S'OTHER'
p2502
sg10
Nsg24
NsbsS'who'
p2503
g0
(g1
g2
Ntp2504
Rp2505
(dp2506
g6
Nsg8
S'PERSON'
p2507
sg10
Nsg24
NsbsS'in what'
p2508
g0
(g1
g2
Ntp2509
Rp2510
(dp2511
g6
Nsg8
S'OTHER'
p2512
sg10
Nsg24
Nsbssg24
NsbsS'head'
p2513
g0
(g1
g2
Ntp2514
Rp2515
(dp2516
g6
g16
sg8
S'PERSON'
p2517
sg10
(dp2518
S'how'
p2519
g0
(g1
g2
Ntp2520
Rp2521
(dp2522
g6
Nsg8
S'NUMBER'
p2523
sg10
Nsg24
NsbsS'who'
p2524
g0
(g1
g2
Ntp2525
Rp2526
(dp2527
g6
Nsg8
S'PERSON'
p2528
sg10
Nsg24
Nsbssg24
NsbsS'medium'
p2529
g0
(g1
g2
Ntp2530
Rp2531
(dp2532
g6
Nsg8
S'OTHER'
p2533
sg10
Nsg24
NsbsS'amateur'
p2534
g0
(g1
g2
Ntp2535
Rp2536
(dp2537
g6
Nsg8
S'OTHER'
p2538
sg10
Nsg24
NsbsS'form'
p2539
g0
(g1
g2
Ntp2540
Rp2541
(dp2542
g6
Nsg8
S'OTHER'
p2543
sg10
Nsg24
NsbsS'batman'
p2544
g0
(g1
g2
Ntp2545
Rp2546
(dp2547
g6
Nsg8
S'PERSON'
p2548
sg10
Nsg24
NsbsS'lawn'
p2549
g0
(g1
g2
Ntp2550
Rp2551
(dp2552
g6
Nsg8
S'OTHER'
p2553
sg10
Nsg24
NsbsS'ford'
p2554
g0
(g1
g2
Ntp2555
Rp2556
(dp2557
g6
Nsg8
S'PERSON'
p2558
sg10
Nsg24
NsbsS'uncle'
p2559
g0
(g1
g2
Ntp2560
Rp2561
(dp2562
g6
Nsg8
S'PERSON'
p2563
sg10
Nsg24
NsbsS'surrender'
p2564
g0
(g1
g2
Ntp2565
Rp2566
(dp2567
g6
Nsg8
S'PERSON'
p2568
sg10
Nsg24
NsbsS'fort'
p2569
g0
(g1
g2
Ntp2570
Rp2571
(dp2572
g6
Nsg8
S'OTHER'
p2573
sg10
Nsg24
NsbsS'born'
p2574
g0
(g1
g2
Ntp2575
Rp2576
(dp2577
g6
g16
sg8
S'DATE'
p2578
sg10
(dp2579
S'how'
p2580
g0
(g1
g2
Ntp2581
Rp2582
(dp2583
g6
Nsg8
S'NUMBER'
p2584
sg10
Nsg24
NsbsS'when'
p2585
g0
(g1
g2
Ntp2586
Rp2587
(dp2588
g6
Nsg8
S'DATE'
p2589
sg10
Nsg24
NsbsS'where'
p2590
g0
(g1
g2
Ntp2591
Rp2592
(dp2593
g6
Nsg8
S'LOCATION'
p2594
sg10
Nsg24
Nsbssg24
NsbsS'inside'
p2595
g0
(g1
g2
Ntp2596
Rp2597
(dp2598
g6
Nsg8
S'NUMBER'
p2599
sg10
Nsg24
NsbsS'mtv'
p2600
g0
(g1
g2
Ntp2601
Rp2602
(dp2603
g6
Nsg8
S'NUMBER'
p2604
sg10
Nsg24
NsbsS'maximum'
p2605
g0
(g1
g2
Ntp2606
Rp2607
(dp2608
g6
Nsg8
S'NUMBER'
p2609
sg10
Nsg24
NsbsS'tucson'
p2610
g0
(g1
g2
Ntp2611
Rp2612
(dp2613
g6
Nsg8
S'NUMBER'
p2614
sg10
Nsg24
NsbsS'vatican'
p2615
g0
(g1
g2
Ntp2616
Rp2617
(dp2618
g6
Nsg8
S'NUMBER'
p2619
sg10
Nsg24
NsbsS'zodiac'
p2620
g0
(g1
g2
Ntp2621
Rp2622
(dp2623
g6
Nsg8
S'OTHER'
p2624
sg10
Nsg24
NsbsS'estonia'
p2625
g0
(g1
g2
Ntp2626
Rp2627
(dp2628
g6
Nsg8
S'NUMBER'
p2629
sg10
Nsg24
NsbsS'frederick'
p2630
g0
(g1
g2
Ntp2631
Rp2632
(dp2633
g6
Nsg8
S'OTHER'
p2634
sg10
Nsg24
NsbsS'abstract'
p2635
g0
(g1
g2
Ntp2636
Rp2637
(dp2638
g6
g16
sg8
S'PERSON'
p2639
sg10
(dp2640
S'what'
p2641
g0
(g1
g2
Ntp2642
Rp2643
(dp2644
g6
Nsg8
g2639
sg10
Nsg24
NsbsS'where'
p2645
g0
(g1
g2
Ntp2646
Rp2647
(dp2648
g6
Nsg8
S'LOCATION'
p2649
sg10
Nsg24
Nsbssg24
NsbsS'tournament'
p2650
g0
(g1
g2
Ntp2651
Rp2652
(dp2653
g6
Nsg8
S'OTHER'
p2654
sg10
Nsg24
NsbsS'evidence'
p2655
g0
(g1
g2
Ntp2656
Rp2657
(dp2658
g6
Nsg8
S'LOCATION'
p2659
sg10
Nsg24
NsbsS'gland'
p2660
g0
(g1
g2
Ntp2661
Rp2662
(dp2663
g6
Nsg8
S'OTHER'
p2664
sg10
Nsg24
NsbsS'ship'
p2665
g0
(g1
g2
Ntp2666
Rp2667
(dp2668
g6
g16
sg8
S'OTHER'
p2669
sg10
(dp2670
S'how'
p2671
g0
(g1
g2
Ntp2672
Rp2673
(dp2674
g6
Nsg8
S'NUMBER'
p2675
sg10
Nsg24
NsbsS'what'
p2676
g0
(g1
g2
Ntp2677
Rp2678
(dp2679
g6
Nsg8
g2669
sg10
Nsg24
Nsbssg24
NsbsS'circulatory'
p2680
g0
(g1
g2
Ntp2681
Rp2682
(dp2683
g6
Nsg8
S'NUMBER'
p2684
sg10
Nsg24
NsbsS'floor'
p2685
g0
(g1
g2
Ntp2686
Rp2687
(dp2688
g6
Nsg8
S'NUMBER'
p2689
sg10
Nsg24
NsbsS'actor'
p2690
g0
(g1
g2
Ntp2691
Rp2692
(dp2693
g6
g16
sg8
S'PERSON'
p2694
sg10
(dp2695
S'how'
p2696
g0
(g1
g2
Ntp2697
Rp2698
(dp2699
g6
Nsg8
S'NUMBER'
p2700
sg10
Nsg24
NsbsS'what'
p2701
g0
(g1
g2
Ntp2702
Rp2703
(dp2704
g6
Nsg8
S'PERSON'
p2705
sg10
Nsg24
NsbsS'who'
p2706
g0
(g1
g2
Ntp2707
Rp2708
(dp2709
g6
Nsg8
S'PERSON'
p2710
sg10
Nsg24
Nsbssg24
NsbsS'ny'
p2711
g0
(g1
g2
Ntp2712
Rp2713
(dp2714
g6
Nsg8
S'NUMBER'
p2715
sg10
Nsg24
NsbsS'pickering'
p2716
g0
(g1
g2
Ntp2717
Rp2718
(dp2719
g6
Nsg8
S'PERSON'
p2720
sg10
Nsg24
NsbsS'role'
p2721
g0
(g1
g2
Ntp2722
Rp2723
(dp2724
g6
Nsg8
S'PERSON'
p2725
sg10
Nsg24
NsbsS'test'
p2726
g0
(g1
g2
Ntp2727
Rp2728
(dp2729
g6
g16
sg8
S'LOCATION'
p2730
sg10
(dp2731
S'when'
p2732
g0
(g1
g2
Ntp2733
Rp2734
(dp2735
g6
Nsg8
S'DATE'
p2736
sg10
Nsg24
NsbsS'where'
p2737
g0
(g1
g2
Ntp2738
Rp2739
(dp2740
g6
Nsg8
g2730
sg10
Nsg24
Nsbssg24
NsbsS'company'
p2741
g0
(g1
g2
Ntp2742
Rp2743
(dp2744
g6
Nsg8
S'PERSON'
p2745
sg10
Nsg24
NsbsS'pseudonym'
p2746
g0
(g1
g2
Ntp2747
Rp2748
(dp2749
g6
Nsg8
S'PERSON'
p2750
sg10
Nsg24
NsbsS'eternity'
p2751
g0
(g1
g2
Ntp2752
Rp2753
(dp2754
g6
Nsg8
S'PERSON'
p2755
sg10
Nsg24
NsbsS'picture'
p2756
g0
(g1
g2
Ntp2757
Rp2758
(dp2759
g6
Nsg8
S'LOCATION'
p2760
sg10
Nsg24
NsbsS'garland'
p2761
g0
(g1
g2
Ntp2762
Rp2763
(dp2764
g6
Nsg8
S'DATE'
p2765
sg10
Nsg24
NsbsS'football'
p2766
g0
(g1
g2
Ntp2767
Rp2768
(dp2769
g6
Nsg8
S'PERSON'
p2770
sg10
Nsg24
NsbsS'reign'
p2771
g0
(g1
g2
Ntp2772
Rp2773
(dp2774
g6
Nsg8
S'NUMBER'
p2775
sg10
Nsg24
NsbsS'longer'
p2776
g0
(g1
g2
Ntp2777
Rp2778
(dp2779
g6
Nsg8
S'OTHER'
p2780
sg10
Nsg24
NsbsS'phone'
p2781
g0
(g1
g2
Ntp2782
Rp2783
(dp2784
g6
Nsg8
S'NUMBER'
p2785
sg10
Nsg24
NsbsS'fastener'
p2786
g0
(g1
g2
Ntp2787
Rp2788
(dp2789
g6
Nsg8
S'OTHER'
p2790
sg10
Nsg24
NsbsS'vietnam'
p2791
g0
(g1
g2
Ntp2792
Rp2793
(dp2794
g6
g16
sg8
S'NUMBER'
p2795
sg10
(dp2796
S'how'
p2797
g0
(g1
g2
Ntp2798
Rp2799
(dp2800
g6
Nsg8
S'NUMBER'
p2801
sg10
Nsg24
NsbsS'about'
p2802
g0
(g1
g2
Ntp2803
Rp2804
(dp2805
g6
Nsg8
S'NUMBER'
p2806
sg10
Nsg24
NsbsS'when'
p2807
g0
(g1
g2
Ntp2808
Rp2809
(dp2810
g6
Nsg8
S'DATE'
p2811
sg10
Nsg24
Nsbssg24
NsbsS'time'
p2812
g0
(g1
g2
Ntp2813
Rp2814
(dp2815
g6
g16
sg8
S'PERSON'
p2816
sg10
(dp2817
S'what'
p2818
g0
(g1
g2
Ntp2819
Rp2820
(dp2821
g6
Nsg8
S'DATE'
p2822
sg10
Nsg24
NsbsS'who'
p2823
g0
(g1
g2
Ntp2824
Rp2825
(dp2826
g6
Nsg8
S'PERSON'
p2827
sg10
Nsg24
NsbsS'when'
p2828
g0
(g1
g2
Ntp2829
Rp2830
(dp2831
g6
Nsg8
S'OTHER'
p2832
sg10
Nsg24
NsbsS'how'
p2833
g0
(g1
g2
Ntp2834
Rp2835
(dp2836
g6
Nsg8
S'NUMBER'
p2837
sg10
Nsg24
NsbsS'at'
p2838
g0
(g1
g2
Ntp2839
Rp2840
(dp2841
g6
Nsg8
S'OTHER'
p2842
sg10
Nsg24
NsbsS'on average'
p2843
g0
(g1
g2
Ntp2844
Rp2845
(dp2846
g6
Nsg8
S'TIME'
p2847
sg10
Nsg24
Nsbssg24
NsbsS'anglican'
p2848
g0
(g1
g2
Ntp2849
Rp2850
(dp2851
g6
Nsg8
S'TIME'
p2852
sg10
Nsg24
NsbsS'coach'
p2853
g0
(g1
g2
Ntp2854
Rp2855
(dp2856
g6
Nsg8
S'PERSON'
p2857
sg10
Nsg24
NsbsS'chain'
p2858
g0
(g1
g2
Ntp2859
Rp2860
(dp2861
g6
Nsg8
S'PERSON'
p2862
sg10
Nsg24
NsbsS'jolson'
p2863
g0
(g1
g2
Ntp2864
Rp2865
(dp2866
g6
Nsg8
S'PERSON'
p2867
sg10
Nsg24
NsbsS'roe'
p2868
g0
(g1
g2
Ntp2869
Rp2870
(dp2871
g6
Nsg8
S'TIME'
p2872
sg10
Nsg24
NsbsS'invent'
p2873
g0
(g1
g2
Ntp2874
Rp2875
(dp2876
g6
Nsg8
S'OTHER'
p2877
sg10
Nsg24
NsbsS'crocodile'
p2878
g0
(g1
g2
Ntp2879
Rp2880
(dp2881
g6
Nsg8
S'OTHER'
p2882
sg10
Nsg24
NsbsS'mile'
p2883
g0
(g1
g2
Ntp2884
Rp2885
(dp2886
g6
Nsg8
S'NUMBER'
p2887
sg10
Nsg24
NsbsS'skin'
p2888
g0
(g1
g2
Ntp2889
Rp2890
(dp2891
g6
Nsg8
S'OTHER'
p2892
sg10
Nsg24
NsbsS'battle'
p2893
g0
(g1
g2
Ntp2894
Rp2895
(dp2896
g6
g16
sg8
S'OTHER'
p2897
sg10
(dp2898
S'when'
p2899
g0
(g1
g2
Ntp2900
Rp2901
(dp2902
g6
Nsg8
S'DATE'
p2903
sg10
Nsg24
NsbsS'what'
p2904
g0
(g1
g2
Ntp2905
Rp2906
(dp2907
g6
Nsg8
S'PERSON'
p2908
sg10
Nsg24
NsbsS'who'
p2909
g0
(g1
g2
Ntp2910
Rp2911
(dp2912
g6
Nsg8
S'PERSON'
p2913
sg10
Nsg24
NsbsS'where'
p2914
g0
(g1
g2
Ntp2915
Rp2916
(dp2917
g6
Nsg8
S'LOCATION'
p2918
sg10
Nsg24
Nsbssg24
NsbsS'chair'
p2919
g0
(g1
g2
Ntp2920
Rp2921
(dp2922
g6
Nsg8
S'PERSON'
p2923
sg10
Nsg24
NsbsS'rossner'
p2924
g0
(g1
g2
Ntp2925
Rp2926
(dp2927
g6
Nsg8
S'OTHER'
p2928
sg10
Nsg24
NsbsS'hump'
p2929
g0
(g1
g2
Ntp2930
Rp2931
(dp2932
g6
Nsg8
S'OTHER'
p2933
sg10
Nsg24
NsbsS'technique'
p2934
g0
(g1
g2
Ntp2935
Rp2936
(dp2937
g6
Nsg8
S'OTHER'
p2938
sg10
Nsg24
NsbsS'father'
p2939
g0
(g1
g2
Ntp2940
Rp2941
(dp2942
g6
Nsg8
S'PERSON'
p2943
sg10
Nsg24
NsbsS'iraqi'
p2944
g0
(g1
g2
Ntp2945
Rp2946
(dp2947
g6
Nsg8
S'DATE'
p2948
sg10
Nsg24
NsbsS'terror'
p2949
g0
(g1
g2
Ntp2950
Rp2951
(dp2952
g6
Nsg8
S'OTHER'
p2953
sg10
Nsg24
NsbsS'keck'
p2954
g0
(g1
g2
Ntp2955
Rp2956
(dp2957
g6
Nsg8
S'LOCATION'
p2958
sg10
Nsg24
NsbsS'gestation'
p2959
g0
(g1
g2
Ntp2960
Rp2961
(dp2962
g6
Nsg8
S'TIME'
p2963
sg10
Nsg24
NsbsS'aesop'
p2964
g0
(g1
g2
Ntp2965
Rp2966
(dp2967
g6
Nsg8
S'OTHER'
p2968
sg10
Nsg24
NsbsS'cool'
p2969
g0
(g1
g2
Ntp2970
Rp2971
(dp2972
g6
Nsg8
S'TIME'
p2973
sg10
Nsg24
NsbsS'level'
p2974
g0
(g1
g2
Ntp2975
Rp2976
(dp2977
g6
Nsg8
S'PERSON'
p2978
sg10
Nsg24
NsbsS'did'
p2979
g0
(g1
g2
Ntp2980
Rp2981
(dp2982
g6
g16
sg8
S'MONEY'
p2983
sg10
(dp2984
S'how'
p2985
g0
(g1
g2
Ntp2986
Rp2987
(dp2988
g6
Nsg8
S'MONEY'
p2989
sg10
Nsg24
NsbsS'in what'
p2990
g0
(g1
g2
Ntp2991
Rp2992
(dp2993
g6
Nsg8
S'OTHER'
p2994
sg10
Nsg24
Nsbssg24
NsbsS'die'
p2995
g0
(g1
g2
Ntp2996
Rp2997
(dp2998
g6
g16
sg8
S'DATE'
p2999
sg10
(dp3000
S'what'
p3001
g0
(g1
g2
Ntp3002
Rp3003
(dp3004
g6
Nsg8
S'OTHER'
p3005
sg10
Nsg24
NsbsS'when'
p3006
g0
(g1
g2
Ntp3007
Rp3008
(dp3009
g6
Nsg8
g2999
sg10
Nsg24
Nsbssg24
NsbsS'gum'
p3010
g0
(g1
g2
Ntp3011
Rp3012
(dp3013
g6
Nsg8
S'LOCATION'
p3014
sg10
Nsg24
NsbsS'temple'
p3015
g0
(g1
g2
Ntp3016
Rp3017
(dp3018
g6
g16
sg8
S'LOCATION'
p3019
sg10
(dp3020
S'what'
p3021
g0
(g1
g2
Ntp3022
Rp3023
(dp3024
g6
Nsg8
g3019
sg10
Nsg24
NsbsS'who'
p3025
g0
(g1
g2
Ntp3026
Rp3027
(dp3028
g6
Nsg8
S'PERSON'
p3029
sg10
Nsg24
Nsbssg24
NsbsS'grimace'
p3030
g0
(g1
g2
Ntp3031
Rp3032
(dp3033
g6
Nsg8
S'LOCATION'
p3034
sg10
Nsg24
NsbsS'team'
p3035
g0
(g1
g2
Ntp3036
Rp3037
(dp3038
g6
g16
sg8
S'PERSON'
p3039
sg10
(dp3040
S'what'
p3041
g0
(g1
g2
Ntp3042
Rp3043
(dp3044
g6
Nsg8
S'PERSON'
p3045
sg10
Nsg24
NsbsS'where'
p3046
g0
(g1
g2
Ntp3047
Rp3048
(dp3049
g6
Nsg8
S'LOCATION'
p3050
sg10
Nsg24
NsbsS'which'
p3051
g0
(g1
g2
Ntp3052
Rp3053
(dp3054
g6
Nsg8
S'PERSON'
p3055
sg10
Nsg24
Nsbssg24
NsbsS'guy'
p3056
g0
(g1
g2
Ntp3057
Rp3058
(dp3059
g6
Nsg8
S'PERSON'
p3060
sg10
Nsg24
NsbsS'olympia'
p3061
g0
(g1
g2
Ntp3062
Rp3063
(dp3064
g6
Nsg8
S'LOCATION'
p3065
sg10
Nsg24
NsbsS'revolution'
p3066
g0
(g1
g2
Ntp3067
Rp3068
(dp3069
g6
Nsg8
S'NUMBER'
p3070
sg10
Nsg24
NsbsS'villi'
p3071
g0
(g1
g2
Ntp3072
Rp3073
(dp3074
g6
Nsg8
S'NUMBER'
p3075
sg10
Nsg24
NsbsS'sign'
p3076
g0
(g1
g2
Ntp3077
Rp3078
(dp3079
g6
Nsg8
S'OTHER'
p3080
sg10
Nsg24
NsbsS'cost'
p3081
g0
(g1
g2
Ntp3082
Rp3083
(dp3084
g6
Nsg8
S'MONEY'
p3085
sg10
Nsg24
NsbsS'michener'
p3086
g0
(g1
g2
Ntp3087
Rp3088
(dp3089
g6
Nsg8
S'OTHER'
p3090
sg10
Nsg24
NsbsS'afghanistan'
p3091
g0
(g1
g2
Ntp3092
Rp3093
(dp3094
g6
Nsg8
S'OTHER'
p3095
sg10
Nsg24
NsbsS'constitution'
p3096
g0
(g1
g2
Ntp3097
Rp3098
(dp3099
g6
Nsg8
S'OTHER'
p3100
sg10
Nsg24
NsbsS'barbie'
p3101
g0
(g1
g2
Ntp3102
Rp3103
(dp3104
g6
Nsg8
S'DATE'
p3105
sg10
Nsg24
NsbsS'havoc'
p3106
g0
(g1
g2
Ntp3107
Rp3108
(dp3109
g6
Nsg8
S'PERSON'
p3110
sg10
Nsg24
NsbsS'suspect'
p3111
g0
(g1
g2
Ntp3112
Rp3113
(dp3114
g6
Nsg8
S'PERSON'
p3115
sg10
Nsg24
NsbsS'tarantula'
p3116
g0
(g1
g2
Ntp3117
Rp3118
(dp3119
g6
Nsg8
S'OTHER'
p3120
sg10
Nsg24
NsbsS'badge'
p3121
g0
(g1
g2
Ntp3122
Rp3123
(dp3124
g6
Nsg8
S'PERSON'
p3125
sg10
Nsg24
NsbsS'hairy'
p3126
g0
(g1
g2
Ntp3127
Rp3128
(dp3129
g6
Nsg8
S'OTHER'
p3130
sg10
Nsg24
NsbsS'french'
p3131
g0
(g1
g2
Ntp3132
Rp3133
(dp3134
g6
Nsg8
S'PERSON'
p3135
sg10
Nsg24
NsbsS'water'
p3136
g0
(g1
g2
Ntp3137
Rp3138
(dp3139
g6
g16
sg8
S'NUMBER'
p3140
sg10
(dp3141
S'how'
p3142
g0
(g1
g2
Ntp3143
Rp3144
(dp3145
g6
Nsg8
g3140
sg10
Nsg24
NsbsS'what'
p3146
g0
(g1
g2
Ntp3147
Rp3148
(dp3149
g6
Nsg8
S'OTHER'
p3150
sg10
Nsg24
Nsbssg24
NsbsS'witch'
p3151
g0
(g1
g2
Ntp3152
Rp3153
(dp3154
g6
Nsg8
S'PERSON'
p3155
sg10
Nsg24
NsbsS'address'
p3156
g0
(g1
g2
Ntp3157
Rp3158
(dp3159
g6
Nsg8
S'LOCATION'
p3160
sg10
Nsg24
NsbsS'benson'
p3161
g0
(g1
g2
Ntp3162
Rp3163
(dp3164
g6
Nsg8
S'PERSON'
p3165
sg10
Nsg24
NsbsS'box'
p3166
g0
(g1
g2
Ntp3167
Rp3168
(dp3169
g6
Nsg8
S'OTHER'
p3170
sg10
Nsg24
NsbsS'boy'
p3171
g0
(g1
g2
Ntp3172
Rp3173
(dp3174
g6
Nsg8
S'PERSON'
p3175
sg10
Nsg24
NsbsS'institute'
p3176
g0
(g1
g2
Ntp3177
Rp3178
(dp3179
g6
g16
sg8
S'OTHER'
p3180
sg10
(dp3181
S'what'
p3182
g0
(g1
g2
Ntp3183
Rp3184
(dp3185
g6
Nsg8
g3180
sg10
Nsg24
NsbsS'where'
p3186
g0
(g1
g2
Ntp3187
Rp3188
(dp3189
g6
Nsg8
S'LOCATION'
p3190
sg10
Nsg24
Nsbssg24
NsbsS'bow'
p3191
g0
(g1
g2
Ntp3192
Rp3193
(dp3194
g6
Nsg8
S'NUMBER'
p3195
sg10
Nsg24
NsbsS'trial'
p3196
g0
(g1
g2
Ntp3197
Rp3198
(dp3199
g6
Nsg8
S'PERSON'
p3200
sg10
Nsg24
NsbsS'birthstone'
p3201
g0
(g1
g2
Ntp3202
Rp3203
(dp3204
g6
Nsg8
S'OTHER'
p3205
sg10
Nsg24
NsbsS'weird'
p3206
g0
(g1
g2
Ntp3207
Rp3208
(dp3209
g6
Nsg8
S'LOCATION'
p3210
sg10
Nsg24
NsbsS'spritsail'
p3211
g0
(g1
g2
Ntp3212
Rp3213
(dp3214
g6
Nsg8
S'NUMBER'
p3215
sg10
Nsg24
NsbsS'shark'
p3216
g0
(g1
g2
Ntp3217
Rp3218
(dp3219
g6
Nsg8
S'NUMBER'
p3220
sg10
Nsg24
NsbsS'snowboard'
p3221
g0
(g1
g2
Ntp3222
Rp3223
(dp3224
g6
Nsg8
S'LOCATION'
p3225
sg10
Nsg24
NsbsS'candice'
p3226
g0
(g1
g2
Ntp3227
Rp3228
(dp3229
g6
Nsg8
S'OTHER'
p3230
sg10
Nsg24
NsbsS'russell'
p3231
g0
(g1
g2
Ntp3232
Rp3233
(dp3234
g6
Nsg8
S'PERSON'
p3235
sg10
Nsg24
NsbsS'visit'
p3236
g0
(g1
g2
Ntp3237
Rp3238
(dp3239
g6
g16
sg8
S'NUMBER'
p3240
sg10
(dp3241
S'how'
p3242
g0
(g1
g2
Ntp3243
Rp3244
(dp3245
g6
Nsg8
g3240
sg10
Nsg24
NsbsS'what'
p3246
g0
(g1
g2
Ntp3247
Rp3248
(dp3249
g6
Nsg8
S'LOCATION'
p3250
sg10
Nsg24
Nsbssg24
NsbsS'france'
p3251
g0
(g1
g2
Ntp3252
Rp3253
(dp3254
g6
g16
sg8
S'NUMBER'
p3255
sg10
(dp3256
S'how'
p3257
g0
(g1
g2
Ntp3258
Rp3259
(dp3260
g6
Nsg8
g3255
sg10
Nsg24
NsbsS'what'
p3261
g0
(g1
g2
Ntp3262
Rp3263
(dp3264
g6
Nsg8
S'OTHER'
p3265
sg10
Nsg24
Nsbssg24
NsbsS'wonderbra'
p3266
g0
(g1
g2
Ntp3267
Rp3268
(dp3269
g6
Nsg8
S'PERSON'
p3270
sg10
Nsg24
NsbsS'teeth'
p3271
g0
(g1
g2
Ntp3272
Rp3273
(dp3274
g6
g16
sg8
S'OTHER'
p3275
sg10
(dp3276
S'how'
p3277
g0
(g1
g2
Ntp3278
Rp3279
(dp3280
g6
Nsg8
S'NUMBER'
p3281
sg10
Nsg24
NsbsS'what'
p3282
g0
(g1
g2
Ntp3283
Rp3284
(dp3285
g6
Nsg8
g3275
sg10
Nsg24
Nsbssg24
NsbsS'today'
p3286
g0
(g1
g2
Ntp3287
Rp3288
(dp3289
g6
Nsg8
S'LOCATION'
p3290
sg10
Nsg24
NsbsS'trophy'
p3291
g0
(g1
g2
Ntp3292
Rp3293
(dp3294
g6
Nsg8
S'OTHER'
p3295
sg10
Nsg24
NsbsS'stradivarius'
p3296
g0
(g1
g2
Ntp3297
Rp3298
(dp3299
g6
Nsg8
S'NUMBER'
p3300
sg10
Nsg24
NsbsS'conductor'
p3301
g0
(g1
g2
Ntp3302
Rp3303
(dp3304
g6
Nsg8
S'PERSON'
p3305
sg10
Nsg24
NsbsS'obelisk'
p3306
g0
(g1
g2
Ntp3307
Rp3308
(dp3309
g6
Nsg8
S'NUMBER'
p3310
sg10
Nsg24
NsbsS'assent'
p3311
g0
(g1
g2
Ntp3312
Rp3313
(dp3314
g6
Nsg8
S'OTHER'
p3315
sg10
Nsg24
NsbsS'casey'
p3316
g0
(g1
g2
Ntp3317
Rp3318
(dp3319
g6
g16
sg8
S'PERSON'
p3320
sg10
(dp3321
S'what'
p3322
g0
(g1
g2
Ntp3323
Rp3324
(dp3325
g6
Nsg8
S'OTHER'
p3326
sg10
Nsg24
NsbsS'who'
p3327
g0
(g1
g2
Ntp3328
Rp3329
(dp3330
g6
Nsg8
g3320
sg10
Nsg24
Nsbssg24
NsbsS'thompson'
p3331
g0
(g1
g2
Ntp3332
Rp3333
(dp3334
g6
Nsg8
S'DATE'
p3335
sg10
Nsg24
NsbsS'mayfly'
p3336
g0
(g1
g2
Ntp3337
Rp3338
(dp3339
g6
Nsg8
S'NUMBER'
p3340
sg10
Nsg24
NsbsS'polyorchid'
p3341
g0
(g1
g2
Ntp3342
Rp3343
(dp3344
g6
Nsg8
S'OTHER'
p3345
sg10
Nsg24
NsbsS'mascot'
p3346
g0
(g1
g2
Ntp3347
Rp3348
(dp3349
g6
Nsg8
S'OTHER'
p3350
sg10
Nsg24
NsbsS'tokyo'
p3351
g0
(g1
g2
Ntp3352
Rp3353
(dp3354
g6
Nsg8
S'TIME'
p3355
sg10
Nsg24
NsbsS'car'
p3356
g0
(g1
g2
Ntp3357
Rp3358
(dp3359
g6
g16
sg8
S'OTHER'
p3360
sg10
(dp3361
S'how'
p3362
g0
(g1
g2
Ntp3363
Rp3364
(dp3365
g6
Nsg8
S'NUMBER'
p3366
sg10
Nsg24
NsbsS'what'
p3367
g0
(g1
g2
Ntp3368
Rp3369
(dp3370
g6
Nsg8
S'OTHER'
p3371
sg10
Nsg24
NsbsS'who'
p3372
g0
(g1
g2
Ntp3373
Rp3374
(dp3375
g6
Nsg8
S'PERSON'
p3376
sg10
Nsg24
NsbsS'which'
p3377
g0
(g1
g2
Ntp3378
Rp3379
(dp3380
g6
Nsg8
S'PERSON'
p3381
sg10
Nsg24
Nsbssg24
NsbsS'jude'
p3382
g0
(g1
g2
Ntp3383
Rp3384
(dp3385
g6
Nsg8
S'OTHER'
p3386
sg10
Nsg24
NsbsS'cat'
p3387
g0
(g1
g2
Ntp3388
Rp3389
(dp3390
g6
Nsg8
S'NUMBER'
p3391
sg10
Nsg24
NsbsS'hardest'
p3392
g0
(g1
g2
Ntp3393
Rp3394
(dp3395
g6
Nsg8
S'OTHER'
p3396
sg10
Nsg24
NsbsS'heart'
p3397
g0
(g1
g2
Ntp3398
Rp3399
(dp3400
g6
g16
sg8
S'DATE'
p3401
sg10
(dp3402
S'what'
p3403
g0
(g1
g2
Ntp3404
Rp3405
(dp3406
g6
Nsg8
S'PERSON'
p3407
sg10
Nsg24
NsbsS'when'
p3408
g0
(g1
g2
Ntp3409
Rp3410
(dp3411
g6
Nsg8
g3401
sg10
Nsg24
Nsbssg24
NsbsS'viceroy'
p3412
g0
(g1
g2
Ntp3413
Rp3414
(dp3415
g6
Nsg8
S'PERSON'
p3416
sg10
Nsg24
NsbsS'figure'
p3417
g0
(g1
g2
Ntp3418
Rp3419
(dp3420
g6
Nsg8
S'PERSON'
p3421
sg10
Nsg24
NsbsS'december'
p3422
g0
(g1
g2
Ntp3423
Rp3424
(dp3425
g6
Nsg8
S'PERSON'
p3426
sg10
Nsg24
NsbsS'airplane'
p3427
g0
(g1
g2
Ntp3428
Rp3429
(dp3430
g6
g16
sg8
S'OTHER'
p3431
sg10
(dp3432
S'who'
p3433
g0
(g1
g2
Ntp3434
Rp3435
(dp3436
g6
Nsg8
S'PERSON'
p3437
sg10
Nsg24
NsbsS'which'
p3438
g0
(g1
g2
Ntp3439
Rp3440
(dp3441
g6
Nsg8
S'OTHER'
p3442
sg10
Nsg24
Nsbssg24
NsbsS'nevil'
p3443
g0
(g1
g2
Ntp3444
Rp3445
(dp3446
g6
Nsg8
S'OTHER'
p3447
sg10
Nsg24
NsbsS'winter'
p3448
g0
(g1
g2
Ntp3449
Rp3450
(dp3451
g6
g16
sg8
S'DATE'
p3452
sg10
(dp3453
S'how'
p3454
g0
(g1
g2
Ntp3455
Rp3456
(dp3457
g6
Nsg8
S'NUMBER'
p3458
sg10
Nsg24
NsbsS'what'
p3459
g0
(g1
g2
Ntp3460
Rp3461
(dp3462
g6
Nsg8
S'DATE'
p3463
sg10
Nsg24
NsbsS'when'
p3464
g0
(g1
g2
Ntp3465
Rp3466
(dp3467
g6
Nsg8
g3452
sg10
Nsg24
Nsbssg24
NsbsS'write'
p3468
g0
(g1
g2
Ntp3469
Rp3470
(dp3471
g6
g16
sg8
S'OTHER'
p3472
sg10
(dp3473
S'how'
p3474
g0
(g1
g2
Ntp3475
Rp3476
(dp3477
g6
Nsg8
S'NUMBER'
p3478
sg10
Nsg24
NsbsS'what'
p3479
g0
(g1
g2
Ntp3480
Rp3481
(dp3482
g6
Nsg8
g3472
sg10
Nsg24
Nsbssg24
NsbsS'rubik'
p3483
g0
(g1
g2
Ntp3484
Rp3485
(dp3486
g6
Nsg8
S'NUMBER'
p3487
sg10
Nsg24
NsbsS'map'
p3488
g0
(g1
g2
Ntp3489
Rp3490
(dp3491
g6
Nsg8
S'LOCATION'
p3492
sg10
Nsg24
NsbsS'product'
p3493
g0
(g1
g2
Ntp3494
Rp3495
(dp3496
g6
Nsg8
S'OTHER'
p3497
sg10
Nsg24
NsbsS'explorer'
p3498
g0
(g1
g2
Ntp3499
Rp3500
(dp3501
g6
Nsg8
S'PERSON'
p3502
sg10
Nsg24
NsbsS'cocktail'
p3503
g0
(g1
g2
Ntp3504
Rp3505
(dp3506
g6
Nsg8
S'OTHER'
p3507
sg10
Nsg24
NsbsS'clone'
p3508
g0
(g1
g2
Ntp3509
Rp3510
(dp3511
g6
Nsg8
S'OTHER'
p3512
sg10
Nsg24
NsbsS'southern'
p3513
g0
(g1
g2
Ntp3514
Rp3515
(dp3516
g6
Nsg8
S'LOCATION'
p3517
sg10
Nsg24
NsbsS'accessory'
p3518
g0
(g1
g2
Ntp3519
Rp3520
(dp3521
g6
Nsg8
S'OTHER'
p3522
sg10
Nsg24
NsbsS'mac'
p3523
g0
(g1
g2
Ntp3524
Rp3525
(dp3526
g6
Nsg8
S'NUMBER'
p3527
sg10
Nsg24
NsbsS'congressman'
p3528
g0
(g1
g2
Ntp3529
Rp3530
(dp3531
g6
Nsg8
S'PERSON'
p3532
sg10
Nsg24
NsbsS'date'
p3533
g0
(g1
g2
Ntp3534
Rp3535
(dp3536
g6
Nsg8
S'DATE'
p3537
sg10
Nsg24
NsbsS'polio'
p3538
g0
(g1
g2
Ntp3539
Rp3540
(dp3541
g6
Nsg8
S'PERSON'
p3542
sg10
Nsg24
NsbsS'eighth'
p3543
g0
(g1
g2
Ntp3544
Rp3545
(dp3546
g6
Nsg8
S'OTHER'
p3547
sg10
Nsg24
NsbsS'man'
p3548
g0
(g1
g2
Ntp3549
Rp3550
(dp3551
g6
g16
sg8
S'OTHER'
p3552
sg10
(dp3553
S'how'
p3554
g0
(g1
g2
Ntp3555
Rp3556
(dp3557
g6
Nsg8
S'NUMBER'
p3558
sg10
Nsg24
NsbsS'what'
p3559
g0
(g1
g2
Ntp3560
Rp3561
(dp3562
g6
Nsg8
S'OTHER'
p3563
sg10
Nsg24
NsbsS'who'
p3564
g0
(g1
g2
Ntp3565
Rp3566
(dp3567
g6
Nsg8
S'PERSON'
p3568
sg10
Nsg24
Nsbssg24
NsbsS'noun'
p3569
g0
(g1
g2
Ntp3570
Rp3571
(dp3572
g6
Nsg8
S'OTHER'
p3573
sg10
Nsg24
NsbsS'johnson'
p3574
g0
(g1
g2
Ntp3575
Rp3576
(dp3577
g6
Nsg8
S'OTHER'
p3578
sg10
Nsg24
NsbsS'tale'
p3579
g0
(g1
g2
Ntp3580
Rp3581
(dp3582
g6
Nsg8
S'OTHER'
p3583
sg10
Nsg24
NsbsS'no.'
p3584
g0
(g1
g2
Ntp3585
Rp3586
(dp3587
g6
Nsg8
S'OTHER'
p3588
sg10
Nsg24
NsbsS'colt'
p3589
g0
(g1
g2
Ntp3590
Rp3591
(dp3592
g6
Nsg8
S'OTHER'
p3593
sg10
Nsg24
NsbsS'kafka'
p3594
g0
(g1
g2
Ntp3595
Rp3596
(dp3597
g6
Nsg8
S'OTHER'
p3598
sg10
Nsg24
NsbsS'brain'
p3599
g0
(g1
g2
Ntp3600
Rp3601
(dp3602
g6
Nsg8
S'NUMBER'
p3603
sg10
Nsg24
NsbsS'jimmy'
p3604
g0
(g1
g2
Ntp3605
Rp3606
(dp3607
g6
Nsg8
S'DATE'
p3608
sg10
Nsg24
NsbsS'magoo'
p3609
g0
(g1
g2
Ntp3610
Rp3611
(dp3612
g6
Nsg8
S'OTHER'
p3613
sg10
Nsg24
NsbsS'sistine'
p3614
g0
(g1
g2
Ntp3615
Rp3616
(dp3617
g6
Nsg8
S'PERSON'
p3618
sg10
Nsg24
NsbsS'iditarod'
p3619
g0
(g1
g2
Ntp3620
Rp3621
(dp3622
g6
Nsg8
S'NUMBER'
p3623
sg10
Nsg24
NsbsS'self-portrait'
p3624
g0
(g1
g2
Ntp3625
Rp3626
(dp3627
g6
Nsg8
S'PERSON'
p3628
sg10
Nsg24
NsbsS'group'
p3629
g0
(g1
g2
Ntp3630
Rp3631
(dp3632
g6
g16
sg8
S'LOCATION'
p3633
sg10
(dp3634
S'when'
p3635
g0
(g1
g2
Ntp3636
Rp3637
(dp3638
g6
Nsg8
S'DATE'
p3639
sg10
Nsg24
NsbsS'what'
p3640
g0
(g1
g2
Ntp3641
Rp3642
(dp3643
g6
Nsg8
S'PERSON'
p3644
sg10
Nsg24
NsbsS'where'
p3645
g0
(g1
g2
Ntp3646
Rp3647
(dp3648
g6
Nsg8
g3633
sg10
Nsg24
Nsbssg24
NsbsS'tweety'
p3649
g0
(g1
g2
Ntp3650
Rp3651
(dp3652
g6
Nsg8
S'OTHER'
p3653
sg10
Nsg24
NsbsS'suey'
p3654
g0
(g1
g2
Ntp3655
Rp3656
(dp3657
g6
Nsg8
S'LOCATION'
p3658
sg10
Nsg24
NsbsS'scalene'
p3659
g0
(g1
g2
Ntp3660
Rp3661
(dp3662
g6
Nsg8
S'NUMBER'
p3663
sg10
Nsg24
NsbsS'farmer'
p3664
g0
(g1
g2
Ntp3665
Rp3666
(dp3667
g6
Nsg8
S'PERSON'
p3668
sg10
Nsg24
NsbsS'main'
p3669
g0
(g1
g2
Ntp3670
Rp3671
(dp3672
g6
Nsg8
S'LOCATION'
p3673
sg10
Nsg24
NsbsS'killer'
p3674
g0
(g1
g2
Ntp3675
Rp3676
(dp3677
g6
Nsg8
S'OTHER'
p3678
sg10
Nsg24
NsbsS'nation'
p3679
g0
(g1
g2
Ntp3680
Rp3681
(dp3682
g6
g16
sg8
S'LOCATION'
p3683
sg10
(dp3684
S'how'
p3685
g0
(g1
g2
Ntp3686
Rp3687
(dp3688
g6
Nsg8
S'NUMBER'
p3689
sg10
Nsg24
NsbsS'in what'
p3690
g0
(g1
g2
Ntp3691
Rp3692
(dp3693
g6
Nsg8
S'LOCATION'
p3694
sg10
Nsg24
NsbsS'what'
p3695
g0
(g1
g2
Ntp3696
Rp3697
(dp3698
g6
Nsg8
S'LOCATION'
p3699
sg10
Nsg24
Nsbssg24
NsbsS'term'
p3700
g0
(g1
g2
Ntp3701
Rp3702
(dp3703
g6
g16
sg8
S'OTHER'
p3704
sg10
(dp3705
S'what'
p3706
g0
(g1
g2
Ntp3707
Rp3708
(dp3709
g6
Nsg8
S'OTHER'
p3710
sg10
Nsg24
NsbsS'who'
p3711
g0
(g1
g2
Ntp3712
Rp3713
(dp3714
g6
Nsg8
S'PERSON'
p3715
sg10
Nsg24
Nsbssg24
NsbsS'name'
p3716
g0
(g1
g2
Ntp3717
Rp3718
(dp3719
g6
g16
sg8
S'PERSON'
p3720
sg10
(dp3721
S'what'
p3722
g0
(g1
g2
Ntp3723
Rp3724
(dp3725
g6
Nsg8
S'OTHER'
p3726
sg10
Nsg24
Nsbsg3716
g0
(g1
g2
Ntp3727
Rp3728
(dp3729
g6
Nsg8
S'PERSON'
p3730
sg10
Nsg24
NsbsS'who'
p3731
g0
(g1
g2
Ntp3732
Rp3733
(dp3734
g6
Nsg8
S'PERSON'
p3735
sg10
Nsg24
NsbsS'how'
p3736
g0
(g1
g2
Ntp3737
Rp3738
(dp3739
g6
Nsg8
S'NUMBER'
p3740
sg10
Nsg24
NsbsS'the'
p3741
g0
(g1
g2
Ntp3742
Rp3743
(dp3744
g6
Nsg8
S'PERSON'
p3745
sg10
Nsg24
NsbsS'where'
p3746
g0
(g1
g2
Ntp3747
Rp3748
(dp3749
g6
Nsg8
S'LOCATION'
p3750
sg10
Nsg24
Nsbssg24
NsbsS'opera'
p3751
g0
(g1
g2
Ntp3752
Rp3753
(dp3754
g6
g16
sg8
S'LOCATION'
p3755
sg10
(dp3756
S'what'
p3757
g0
(g1
g2
Ntp3758
Rp3759
(dp3760
g6
Nsg8
S'OTHER'
p3761
sg10
Nsg24
NsbsS'where'
p3762
g0
(g1
g2
Ntp3763
Rp3764
(dp3765
g6
Nsg8
g3755
sg10
Nsg24
Nsbssg24
NsbsS'academy'
p3766
g0
(g1
g2
Ntp3767
Rp3768
(dp3769
g6
Nsg8
S'PERSON'
p3770
sg10
Nsg24
NsbsS'rock'
p3771
g0
(g1
g2
Ntp3772
Rp3773
(dp3774
g6
Nsg8
S'PERSON'
p3775
sg10
Nsg24
NsbsS'el'
p3776
g0
(g1
g2
Ntp3777
Rp3778
(dp3779
g6
Nsg8
S'OTHER'
p3780
sg10
Nsg24
NsbsS'ailment'
p3781
g0
(g1
g2
Ntp3782
Rp3783
(dp3784
g6
Nsg8
S'OTHER'
p3785
sg10
Nsg24
NsbsS'shirtwaist'
p3786
g0
(g1
g2
Ntp3787
Rp3788
(dp3789
g6
Nsg8
S'DATE'
p3790
sg10
Nsg24
NsbsS'kane'
p3791
g0
(g1
g2
Ntp3792
Rp3793
(dp3794
g6
Nsg8
S'PERSON'
p3795
sg10
Nsg24
NsbsS'year'
p3796
g0
(g1
g2
Ntp3797
Rp3798
(dp3799
g6
g16
sg8
S'DATE'
p3800
sg10
(dp3801
S'how'
p3802
g0
(g1
g2
Ntp3803
Rp3804
(dp3805
g6
Nsg8
S'NUMBER'
p3806
sg10
Nsg24
NsbsS'in what'
p3807
g0
(g1
g2
Ntp3808
Rp3809
(dp3810
g6
Nsg8
S'DATE'
p3811
sg10
Nsg24
NsbsS'what'
p3812
g0
(g1
g2
Ntp3813
Rp3814
(dp3815
g6
Nsg8
S'DATE'
p3816
sg10
Nsg24
NsbsS'in which'
p3817
g0
(g1
g2
Ntp3818
Rp3819
(dp3820
g6
Nsg8
S'DATE'
p3821
sg10
Nsg24
NsbsS'the'
p3822
g0
(g1
g2
Ntp3823
Rp3824
(dp3825
g6
Nsg8
S'DATE'
p3826
sg10
Nsg24
Nsbssg24
NsbsS'girl'
p3827
g0
(g1
g2
Ntp3828
Rp3829
(dp3830
g6
Nsg8
S'PERSON'
p3831
sg10
Nsg24
NsbsS'album'
p3832
g0
(g1
g2
Ntp3833
Rp3834
(dp3835
g6
g16
sg8
S'NUMBER'
p3836
sg10
(dp3837
S'how'
p3838
g0
(g1
g2
Ntp3839
Rp3840
(dp3841
g6
Nsg8
g3836
sg10
Nsg24
NsbsS'what'
p3842
g0
(g1
g2
Ntp3843
Rp3844
(dp3845
g6
Nsg8
S'OTHER'
p3846
sg10
Nsg24
Nsbssg24
NsbsS'living'
p3847
g0
(g1
g2
Ntp3848
Rp3849
(dp3850
g6
Nsg8
S'PERSON'
p3851
sg10
Nsg24
NsbsS'jackson'
p3852
g0
(g1
g2
Ntp3853
Rp3854
(dp3855
g6
Nsg8
S'LOCATION'
p3856
sg10
Nsg24
NsbsS'intercourse'
p3857
g0
(g1
g2
Ntp3858
Rp3859
(dp3860
g6
Nsg8
S'TIME'
p3861
sg10
Nsg24
NsbsS'space'
p3862
g0
(g1
g2
Ntp3863
Rp3864
(dp3865
g6
g16
sg8
S'OTHER'
p3866
sg10
(dp3867
S'how'
p3868
g0
(g1
g2
Ntp3869
Rp3870
(dp3871
g6
Nsg8
S'NUMBER'
p3872
sg10
Nsg24
NsbsS'who'
p3873
g0
(g1
g2
Ntp3874
Rp3875
(dp3876
g6
Nsg8
S'PERSON'
p3877
sg10
Nsg24
Nsbssg24
NsbsS'increase'
p3878
g0
(g1
g2
Ntp3879
Rp3880
(dp3881
g6
Nsg8
S'MONEY'
p3882
sg10
Nsg24
NsbsS'doonesbury'
p3883
g0
(g1
g2
Ntp3884
Rp3885
(dp3886
g6
Nsg8
S'PERSON'
p3887
sg10
Nsg24
NsbsS'opener'
p3888
g0
(g1
g2
Ntp3889
Rp3890
(dp3891
g6
Nsg8
S'PERSON'
p3892
sg10
Nsg24
NsbsS'cobb'
p3893
g0
(g1
g2
Ntp3894
Rp3895
(dp3896
g6
Nsg8
S'LOCATION'
p3897
sg10
Nsg24
NsbsS'internet'
p3898
g0
(g1
g2
Ntp3899
Rp3900
(dp3901
g6
g16
sg8
S'LOCATION'
p3902
sg10
(dp3903
S'what'
p3904
g0
(g1
g2
Ntp3905
Rp3906
(dp3907
g6
Nsg8
S'LOCATION'
p3908
sg10
Nsg24
NsbsS'who'
p3909
g0
(g1
g2
Ntp3910
Rp3911
(dp3912
g6
Nsg8
S'PERSON'
p3913
sg10
Nsg24
NsbsS'where'
p3914
g0
(g1
g2
Ntp3915
Rp3916
(dp3917
g6
Nsg8
S'LOCATION'
p3918
sg10
Nsg24
Nsbssg24
NsbsS'formula'
p3919
g0
(g1
g2
Ntp3920
Rp3921
(dp3922
g6
Nsg8
S'OTHER'
p3923
sg10
Nsg24
NsbsS'correct'
p3924
g0
(g1
g2
Ntp3925
Rp3926
(dp3927
g6
Nsg8
S'OTHER'
p3928
sg10
Nsg24
NsbsS'theory'
p3929
g0
(g1
g2
Ntp3930
Rp3931
(dp3932
g6
Nsg8
S'PERSON'
p3933
sg10
Nsg24
NsbsS'hulk'
p3934
g0
(g1
g2
Ntp3935
Rp3936
(dp3937
g6
Nsg8
S'PERSON'
p3938
sg10
Nsg24
NsbsS'quart'
p3939
g0
(g1
g2
Ntp3940
Rp3941
(dp3942
g6
Nsg8
S'NUMBER'
p3943
sg10
Nsg24
NsbsS'california'
p3944
g0
(g1
g2
Ntp3945
Rp3946
(dp3947
g6
g16
sg8
S'LOCATION'
p3948
sg10
(dp3949
S'how'
p3950
g0
(g1
g2
Ntp3951
Rp3952
(dp3953
g6
Nsg8
S'NUMBER'
p3954
sg10
Nsg24
NsbsS'what'
p3955
g0
(g1
g2
Ntp3956
Rp3957
(dp3958
g6
Nsg8
S'LOCATION'
p3959
sg10
Nsg24
NsbsS'who'
p3960
g0
(g1
g2
Ntp3961
Rp3962
(dp3963
g6
Nsg8
S'PERSON'
p3964
sg10
Nsg24
NsbsS'by'
p3965
g0
(g1
g2
Ntp3966
Rp3967
(dp3968
g6
Nsg8
S'MONEY'
p3969
sg10
Nsg24
Nsbssg24
NsbsS'plea'
p3970
g0
(g1
g2
Ntp3971
Rp3972
(dp3973
g6
Nsg8
S'PERSON'
p3974
sg10
Nsg24
NsbsS'grandma'
p3975
g0
(g1
g2
Ntp3976
Rp3977
(dp3978
g6
Nsg8
S'OTHER'
p3979
sg10
Nsg24
NsbsS'card'
p3980
g0
(g1
g2
Ntp3981
Rp3982
(dp3983
g6
Nsg8
S'OTHER'
p3984
sg10
Nsg24
NsbsS'care'
p3985
g0
(g1
g2
Ntp3986
Rp3987
(dp3988
g6
Nsg8
S'OTHER'
p3989
sg10
Nsg24
NsbsS'language'
p3990
g0
(g1
g2
Ntp3991
Rp3992
(dp3993
g6
g16
sg8
S'OTHER'
p3994
sg10
(dp3995
S'how'
p3996
g0
(g1
g2
Ntp3997
Rp3998
(dp3999
g6
Nsg8
S'NUMBER'
p4000
sg10
Nsg24
NsbsS'what'
p4001
g0
(g1
g2
Ntp4002
Rp4003
(dp4004
g6
Nsg8
S'OTHER'
p4005
sg10
Nsg24
NsbsS'which'
p4006
g0
(g1
g2
Ntp4007
Rp4008
(dp4009
g6
Nsg8
S'OTHER'
p4010
sg10
Nsg24
Nsbssg24
NsbsS'ostrich'
p4011
g0
(g1
g2
Ntp4012
Rp4013
(dp4014
g6
Nsg8
S'NUMBER'
p4015
sg10
Nsg24
NsbsS'thing'
p4016
g0
(g1
g2
Ntp4017
Rp4018
(dp4019
g6
g16
sg8
S'LOCATION'
p4020
sg10
(dp4021
S'how'
p4022
g0
(g1
g2
Ntp4023
Rp4024
(dp4025
g6
Nsg8
S'NUMBER'
p4026
sg10
Nsg24
NsbsS'what'
p4027
g0
(g1
g2
Ntp4028
Rp4029
(dp4030
g6
Nsg8
S'OTHER'
p4031
sg10
Nsg24
NsbsS'who'
p4032
g0
(g1
g2
Ntp4033
Rp4034
(dp4035
g6
Nsg8
S'PERSON'
p4036
sg10
Nsg24
NsbsS'where'
p4037
g0
(g1
g2
Ntp4038
Rp4039
(dp4040
g6
Nsg8
g4020
sg10
Nsg24
Nsbssg24
NsbsS'place'
p4041
g0
(g1
g2
Ntp4042
Rp4043
(dp4044
g6
g16
sg8
S'LOCATION'
p4045
sg10
(dp4046
S'what'
p4047
g0
(g1
g2
Ntp4048
Rp4049
(dp4050
g6
Nsg8
S'LOCATION'
p4051
sg10
Nsg24
NsbsS'who'
p4052
g0
(g1
g2
Ntp4053
Rp4054
(dp4055
g6
Nsg8
S'PERSON'
p4056
sg10
Nsg24
Nsbssg24
NsbsS'gordon'
p4057
g0
(g1
g2
Ntp4058
Rp4059
(dp4060
g6
Nsg8
S'PERSON'
p4061
sg10
Nsg24
NsbsS'flying'
p4062
g0
(g1
g2
Ntp4063
Rp4064
(dp4065
g6
Nsg8
S'PERSON'
p4066
sg10
Nsg24
NsbsS'spanish'
p4067
g0
(g1
g2
Ntp4068
Rp4069
(dp4070
g6
Nsg8
S'PERSON'
p4071
sg10
Nsg24
NsbsS'message'
p4072
g0
(g1
g2
Ntp4073
Rp4074
(dp4075
g6
g16
sg8
S'PERSON'
p4076
sg10
(dp4077
S'what'
p4078
g0
(g1
g2
Ntp4079
Rp4080
(dp4081
g6
Nsg8
S'OTHER'
p4082
sg10
Nsg24
NsbsS'who'
p4083
g0
(g1
g2
Ntp4084
Rp4085
(dp4086
g6
Nsg8
g4076
sg10
Nsg24
Nsbssg24
NsbsS'pokemon'
p4087
g0
(g1
g2
Ntp4088
Rp4089
(dp4090
g6
Nsg8
S'LOCATION'
p4091
sg10
Nsg24
NsbsS'george'
p4092
g0
(g1
g2
Ntp4093
Rp4094
(dp4095
g6
Nsg8
S'OTHER'
p4096
sg10
Nsg24
NsbsS'engineer'
p4097
g0
(g1
g2
Ntp4098
Rp4099
(dp4100
g6
Nsg8
S'PERSON'
p4101
sg10
Nsg24
NsbsS'city'
p4102
g0
(g1
g2
Ntp4103
Rp4104
(dp4105
g6
g16
sg8
S'LOCATION'
p4106
sg10
(dp4107
S'mccarren'
p4108
g0
(g1
g2
Ntp4109
Rp4110
(dp4111
g6
Nsg8
S'LOCATION'
p4112
sg10
Nsg24
NsbsS'what'
p4113
g0
(g1
g2
Ntp4114
Rp4115
(dp4116
g6
Nsg8
S'LOCATION'
p4117
sg10
Nsg24
NsbsS'in what'
p4118
g0
(g1
g2
Ntp4119
Rp4120
(dp4121
g6
Nsg8
S'LOCATION'
p4122
sg10
Nsg24
NsbsS'which'
p4123
g0
(g1
g2
Ntp4124
Rp4125
(dp4126
g6
Nsg8
S'LOCATION'
p4127
sg10
Nsg24
NsbsS'how'
p4128
g0
(g1
g2
Ntp4129
Rp4130
(dp4131
g6
Nsg8
S'NUMBER'
p4132
sg10
Nsg24
Nsbssg24
NsbsS'silent'
p4133
g0
(g1
g2
Ntp4134
Rp4135
(dp4136
g6
g16
sg8
S'PERSON'
p4137
sg10
(dp4138
S'what'
p4139
g0
(g1
g2
Ntp4140
Rp4141
(dp4142
g6
Nsg8
S'OTHER'
p4143
sg10
Nsg24
NsbsS'who'
p4144
g0
(g1
g2
Ntp4145
Rp4146
(dp4147
g6
Nsg8
g4137
sg10
Nsg24
Nsbssg24
NsbsS'trillion'
p4148
g0
(g1
g2
Ntp4149
Rp4150
(dp4151
g6
Nsg8
S'NUMBER'
p4152
sg10
Nsg24
NsbsS'carson'
p4153
g0
(g1
g2
Ntp4154
Rp4155
(dp4156
g6
Nsg8
S'PERSON'
p4157
sg10
Nsg24
NsbsS'draft'
p4158
g0
(g1
g2
Ntp4159
Rp4160
(dp4161
g6
Nsg8
S'LOCATION'
p4162
sg10
Nsg24
NsbsS'bounty'
p4163
g0
(g1
g2
Ntp4164
Rp4165
(dp4166
g6
Nsg8
S'DATE'
p4167
sg10
Nsg24
NsbsS'friend'
p4168
g0
(g1
g2
Ntp4169
Rp4170
(dp4171
g6
Nsg8
S'PERSON'
p4172
sg10
Nsg24
NsbsS'labianca'
p4173
g0
(g1
g2
Ntp4174
Rp4175
(dp4176
g6
Nsg8
S'PERSON'
p4177
sg10
Nsg24
NsbsS'fraction'
p4178
g0
(g1
g2
Ntp4179
Rp4180
(dp4181
g6
Nsg8
S'PERCENT'
p4182
sg10
Nsg24
NsbsS'cisalpine'
p4183
g0
(g1
g2
Ntp4184
Rp4185
(dp4186
g6
Nsg8
S'LOCATION'
p4187
sg10
Nsg24
NsbsS'season'
p4188
g0
(g1
g2
Ntp4189
Rp4190
(dp4191
g6
Nsg8
S'DATE'
p4192
sg10
Nsg24
NsbsS'montenegro'
p4193
g0
(g1
g2
Ntp4194
Rp4195
(dp4196
g6
Nsg8
S'LOCATION'
p4197
sg10
Nsg24
NsbsS'steinbeck'
p4198
g0
(g1
g2
Ntp4199
Rp4200
(dp4201
g6
Nsg8
S'OTHER'
p4202
sg10
Nsg24
NsbsS'broadcast'
p4203
g0
(g1
g2
Ntp4204
Rp4205
(dp4206
g6
Nsg8
S'DATE'
p4207
sg10
Nsg24
NsbsS'thai'
p4208
g0
(g1
g2
Ntp4209
Rp4210
(dp4211
g6
Nsg8
S'DATE'
p4212
sg10
Nsg24
NsbsS'population'
p4213
g0
(g1
g2
Ntp4214
Rp4215
(dp4216
g6
Nsg8
S'NUMBER'
p4217
sg10
Nsg24
NsbsS'wide'
p4218
g0
(g1
g2
Ntp4219
Rp4220
(dp4221
g6
Nsg8
S'LOCATION'
p4222
sg10
Nsg24
NsbsS'television'
p4223
g0
(g1
g2
Ntp4224
Rp4225
(dp4226
g6
Nsg8
S'PERSON'
p4227
sg10
Nsg24
NsbsS'seuss'
p4228
g0
(g1
g2
Ntp4229
Rp4230
(dp4231
g6
Nsg8
S'OTHER'
p4232
sg10
Nsg24
NsbsS'victorian'
p4233
g0
(g1
g2
Ntp4234
Rp4235
(dp4236
g6
Nsg8
S'PERSON'
p4237
sg10
Nsg24
NsbsS'r'
p4238
g0
(g1
g2
Ntp4239
Rp4240
(dp4241
g6
Nsg8
S'LOCATION'
p4242
sg10
Nsg24
NsbsS'poisoning'
p4243
g0
(g1
g2
Ntp4244
Rp4245
(dp4246
g6
Nsg8
S'NUMBER'
p4247
sg10
Nsg24
NsbsS'coconut'
p4248
g0
(g1
g2
Ntp4249
Rp4250
(dp4251
g6
Nsg8
S'NUMBER'
p4252
sg10
Nsg24
NsbsS'surname'
p4253
g0
(g1
g2
Ntp4254
Rp4255
(dp4256
g6
Nsg8
S'PERSON'
p4257
sg10
Nsg24
NsbsS'san'
p4258
g0
(g1
g2
Ntp4259
Rp4260
(dp4261
g6
Nsg8
S'DATE'
p4262
sg10
Nsg24
NsbsS'sam'
p4263
g0
(g1
g2
Ntp4264
Rp4265
(dp4266
g6
Nsg8
S'OTHER'
p4267
sg10
Nsg24
NsbsS'pro'
p4268
g0
(g1
g2
Ntp4269
Rp4270
(dp4271
g6
Nsg8
S'LOCATION'
p4272
sg10
Nsg24
NsbsS'premier'
p4273
g0
(g1
g2
Ntp4274
Rp4275
(dp4276
g6
Nsg8
S'PERSON'
p4277
sg10
Nsg24
NsbsS'marijuana'
p4278
g0
(g1
g2
Ntp4279
Rp4280
(dp4281
g6
Nsg8
S'LOCATION'
p4282
sg10
Nsg24
NsbsS'alley'
p4283
g0
(g1
g2
Ntp4284
Rp4285
(dp4286
g6
g16
sg8
S'PERSON'
p4287
sg10
(dp4288
S'who'
p4289
g0
(g1
g2
Ntp4290
Rp4291
(dp4292
g6
Nsg8
g4287
sg10
Nsg24
NsbsS'where'
p4293
g0
(g1
g2
Ntp4294
Rp4295
(dp4296
g6
Nsg8
S'LOCATION'
p4297
sg10
Nsg24
Nsbssg24
NsbsS'say'
p4298
g0
(g1
g2
Ntp4299
Rp4300
(dp4301
g6
Nsg8
S'DATE'
p4302
sg10
Nsg24
NsbsS'slam'
p4303
g0
(g1
g2
Ntp4304
Rp4305
(dp4306
g6
Nsg8
S'OTHER'
p4307
sg10
Nsg24
NsbsS'rent'
p4308
g0
(g1
g2
Ntp4309
Rp4310
(dp4311
g6
Nsg8
S'PERSON'
p4312
sg10
Nsg24
NsbsS'horsepower'
p4313
g0
(g1
g2
Ntp4314
Rp4315
(dp4316
g6
Nsg8
S'NUMBER'
p4317
sg10
Nsg24
NsbsS'breakfast'
p4318
g0
(g1
g2
Ntp4319
Rp4320
(dp4321
g6
Nsg8
S'OTHER'
p4322
sg10
Nsg24
NsbsS'nazi'
p4323
g0
(g1
g2
Ntp4324
Rp4325
(dp4326
g6
g16
sg8
S'NUMBER'
p4327
sg10
(dp4328
S'how'
p4329
g0
(g1
g2
Ntp4330
Rp4331
(dp4332
g6
Nsg8
g4327
sg10
Nsg24
NsbsS'what'
p4333
g0
(g1
g2
Ntp4334
Rp4335
(dp4336
g6
Nsg8
S'PERSON'
p4337
sg10
Nsg24
Nsbssg24
NsbsS'windsor'
p4338
g0
(g1
g2
Ntp4339
Rp4340
(dp4341
g6
Nsg8
S'LOCATION'
p4342
sg10
Nsg24
NsbsS'kevin'
p4343
g0
(g1
g2
Ntp4344
Rp4345
(dp4346
g6
Nsg8
S'OTHER'
p4347
sg10
Nsg24
NsbsS'superman'
p4348
g0
(g1
g2
Ntp4349
Rp4350
(dp4351
g6
Nsg8
S'LOCATION'
p4352
sg10
Nsg24
NsbsS'greek'
p4353
g0
(g1
g2
Ntp4354
Rp4355
(dp4356
g6
g16
sg8
S'OTHER'
p4357
sg10
(dp4358
S'what'
p4359
g0
(g1
g2
Ntp4360
Rp4361
(dp4362
g6
Nsg8
g4357
sg10
Nsg24
NsbsS'who'
p4363
g0
(g1
g2
Ntp4364
Rp4365
(dp4366
g6
Nsg8
S'PERSON'
p4367
sg10
Nsg24
Nsbssg24
NsbsS'malta'
p4368
g0
(g1
g2
Ntp4369
Rp4370
(dp4371
g6
Nsg8
S'OTHER'
p4372
sg10
Nsg24
NsbsS'zoo'
p4373
g0
(g1
g2
Ntp4374
Rp4375
(dp4376
g6
Nsg8
S'LOCATION'
p4377
sg10
Nsg24
NsbsS'online'
p4378
g0
(g1
g2
Ntp4379
Rp4380
(dp4381
g6
Nsg8
S'NUMBER'
p4382
sg10
Nsg24
NsbsS'channel'
p4383
g0
(g1
g2
Ntp4384
Rp4385
(dp4386
g6
Nsg8
S'LOCATION'
p4387
sg10
Nsg24
NsbsS'begin'
p4388
g0
(g1
g2
Ntp4389
Rp4390
(dp4391
g6
Nsg8
S'DATE'
p4392
sg10
Nsg24
NsbsS'hoover'
p4393
g0
(g1
g2
Ntp4394
Rp4395
(dp4396
g6
Nsg8
S'DATE'
p4397
sg10
Nsg24
NsbsS'friz'
p4398
g0
(g1
g2
Ntp4399
Rp4400
(dp4401
g6
Nsg8
S'PERSON'
p4402
sg10
Nsg24
NsbsS'price'
p4403
g0
(g1
g2
Ntp4404
Rp4405
(dp4406
g6
Nsg8
S'MONEY'
p4407
sg10
Nsg24
NsbsS'israeli'
p4408
g0
(g1
g2
Ntp4409
Rp4410
(dp4411
g6
Nsg8
S'NUMBER'
p4412
sg10
Nsg24
NsbsS'woodrow'
p4413
g0
(g1
g2
Ntp4414
Rp4415
(dp4416
g6
Nsg8
S'PERSON'
p4417
sg10
Nsg24
NsbsS'america'
p4418
g0
(g1
g2
Ntp4419
Rp4420
(dp4421
g6
g16
sg8
S'OTHER'
p4422
sg10
(dp4423
S'how'
p4424
g0
(g1
g2
Ntp4425
Rp4426
(dp4427
g6
Nsg8
S'NUMBER'
p4428
sg10
Nsg24
NsbsS'what'
p4429
g0
(g1
g2
Ntp4430
Rp4431
(dp4432
g6
Nsg8
S'OTHER'
p4433
sg10
Nsg24
Nsbssg24
NsbsS'honecker'
p4434
g0
(g1
g2
Ntp4435
Rp4436
(dp4437
g6
Nsg8
S'LOCATION'
p4438
sg10
Nsg24
NsbsS'badu'
p4439
g0
(g1
g2
Ntp4440
Rp4441
(dp4442
g6
Nsg8
S'LOCATION'
p4443
sg10
Nsg24
NsbsS'synonym'
p4444
g0
(g1
g2
Ntp4445
Rp4446
(dp4447
g6
Nsg8
S'OTHER'
p4448
sg10
Nsg24
NsbsS'abraham'
p4449
g0
(g1
g2
Ntp4450
Rp4451
(dp4452
g6
g16
sg8
S'LOCATION'
p4453
sg10
(dp4454
S'how'
p4455
g0
(g1
g2
Ntp4456
Rp4457
(dp4458
g6
Nsg8
S'NUMBER'
p4459
sg10
Nsg24
NsbsS'where'
p4460
g0
(g1
g2
Ntp4461
Rp4462
(dp4463
g6
Nsg8
g4453
sg10
Nsg24
Nsbssg24
NsbsS'salt'
p4464
g0
(g1
g2
Ntp4465
Rp4466
(dp4467
g6
Nsg8
S'NUMBER'
p4468
sg10
Nsg24
NsbsS'quantity'
p4469
g0
(g1
g2
Ntp4470
Rp4471
(dp4472
g6
Nsg8
S'NUMBER'
p4473
sg10
Nsg24
NsbsS'show'
p4474
g0
(g1
g2
Ntp4475
Rp4476
(dp4477
g6
Nsg8
S'PERSON'
p4478
sg10
Nsg24
NsbsS'german'
p4479
g0
(g1
g2
Ntp4480
Rp4481
(dp4482
g6
g16
sg8
S'OTHER'
p4483
sg10
(dp4484
S'what'
p4485
g0
(g1
g2
Ntp4486
Rp4487
(dp4488
g6
Nsg8
g4483
sg10
Nsg24
NsbsS'which'
p4489
g0
(g1
g2
Ntp4490
Rp4491
(dp4492
g6
Nsg8
S'PERSON'
p4493
sg10
Nsg24
Nsbssg24
NsbsS'recipe'
p4494
g0
(g1
g2
Ntp4495
Rp4496
(dp4497
g6
Nsg8
S'OTHER'
p4498
sg10
Nsg24
NsbsS'shoe'
p4499
g0
(g1
g2
Ntp4500
Rp4501
(dp4502
g6
Nsg8
S'NUMBER'
p4503
sg10
Nsg24
NsbsS'injection'
p4504
g0
(g1
g2
Ntp4505
Rp4506
(dp4507
g6
Nsg8
S'OTHER'
p4508
sg10
Nsg24
NsbsS'ground'
p4509
g0
(g1
g2
Ntp4510
Rp4511
(dp4512
g6
Nsg8
S'NUMBER'
p4513
sg10
Nsg24
NsbsS'snack'
p4514
g0
(g1
g2
Ntp4515
Rp4516
(dp4517
g6
Nsg8
S'OTHER'
p4518
sg10
Nsg24
NsbsS'ratio'
p4519
g0
(g1
g2
Ntp4520
Rp4521
(dp4522
g6
Nsg8
S'LOCATION'
p4523
sg10
Nsg24
NsbsS'dice'
p4524
g0
(g1
g2
Ntp4525
Rp4526
(dp4527
g6
Nsg8
S'OTHER'
p4528
sg10
Nsg24
NsbsS'gulf'
p4529
g0
(g1
g2
Ntp4530
Rp4531
(dp4532
g6
Nsg8
S'OTHER'
p4533
sg10
Nsg24
NsbsS'title'
p4534
g0
(g1
g2
Ntp4535
Rp4536
(dp4537
g6
g16
sg8
S'PERSON'
p4538
sg10
(dp4539
S'what'
p4540
g0
(g1
g2
Ntp4541
Rp4542
(dp4543
g6
Nsg8
S'PERSON'
p4544
sg10
Nsg24
NsbsS'who'
p4545
g0
(g1
g2
Ntp4546
Rp4547
(dp4548
g6
Nsg8
S'PERSON'
p4549
sg10
Nsg24
NsbsS'where'
p4550
g0
(g1
g2
Ntp4551
Rp4552
(dp4553
g6
Nsg8
S'LOCATION'
p4554
sg10
Nsg24
Nsbssg24
NsbsS'dick'
p4555
g0
(g1
g2
Ntp4556
Rp4557
(dp4558
g6
Nsg8
S'PERSON'
p4559
sg10
Nsg24
NsbsS'wood'
p4560
g0
(g1
g2
Ntp4561
Rp4562
(dp4563
g6
Nsg8
S'PERSON'
p4564
sg10
Nsg24
NsbsS'black'
p4565
g0
(g1
g2
Ntp4566
Rp4567
(dp4568
g6
Nsg8
S'PERSON'
p4569
sg10
Nsg24
NsbsS'sierra'
p4570
g0
(g1
g2
Ntp4571
Rp4572
(dp4573
g6
Nsg8
S'LOCATION'
p4574
sg10
Nsg24
NsbsS'carolina'
p4575
g0
(g1
g2
Ntp4576
Rp4577
(dp4578
g6
Nsg8
S'NUMBER'
p4579
sg10
Nsg24
NsbsS'get'
p4580
g0
(g1
g2
Ntp4581
Rp4582
(dp4583
g6
Nsg8
S'LOCATION'
p4584
sg10
Nsg24
NsbsS'mormon'
p4585
g0
(g1
g2
Ntp4586
Rp4587
(dp4588
g6
Nsg8
S'PERSON'
p4589
sg10
Nsg24
NsbsS'mission'
p4590
g0
(g1
g2
Ntp4591
Rp4592
(dp4593
g6
Nsg8
S'OTHER'
p4594
sg10
Nsg24
NsbsS'prime'
p4595
g0
(g1
g2
Ntp4596
Rp4597
(dp4598
g6
Nsg8
S'PERSON'
p4599
sg10
Nsg24
NsbsS'resource'
p4600
g0
(g1
g2
Ntp4601
Rp4602
(dp4603
g6
Nsg8
S'OTHER'
p4604
sg10
Nsg24
NsbsS'bestselling'
p4605
g0
(g1
g2
Ntp4606
Rp4607
(dp4608
g6
Nsg8
S'PERSON'
p4609
sg10
Nsg24
NsbsS'artist'
p4610
g0
(g1
g2
Ntp4611
Rp4612
(dp4613
g6
g16
sg8
S'TIME'
p4614
sg10
(dp4615
S'how'
p4616
g0
(g1
g2
Ntp4617
Rp4618
(dp4619
g6
Nsg8
g4614
sg10
Nsg24
NsbsS'what'
p4620
g0
(g1
g2
Ntp4621
Rp4622
(dp4623
g6
Nsg8
S'PERSON'
p4624
sg10
Nsg24
NsbsS'the'
p4625
g0
(g1
g2
Ntp4626
Rp4627
(dp4628
g6
Nsg8
S'TIME'
p4629
sg10
Nsg24
Nsbssg24
NsbsS'saliva'
p4630
g0
(g1
g2
Ntp4631
Rp4632
(dp4633
g6
Nsg8
S'OTHER'
p4634
sg10
Nsg24
NsbsS'cumin'
p4635
g0
(g1
g2
Ntp4636
Rp4637
(dp4638
g6
Nsg8
S'OTHER'
p4639
sg10
Nsg24
NsbsS'husband'
p4640
g0
(g1
g2
Ntp4641
Rp4642
(dp4643
g6
Nsg8
S'PERSON'
p4644
sg10
Nsg24
NsbsS'temperance'
p4645
g0
(g1
g2
Ntp4646
Rp4647
(dp4648
g6
Nsg8
S'PERSON'
p4649
sg10
Nsg24
NsbsS'osbourne'
p4650
g0
(g1
g2
Ntp4651
Rp4652
(dp4653
g6
Nsg8
S'DATE'
p4654
sg10
Nsg24
NsbsS'dungri'
p4655
g0
(g1
g2
Ntp4656
Rp4657
(dp4658
g6
Nsg8
S'OTHER'
p4659
sg10
Nsg24
NsbsS'college'
p4660
g0
(g1
g2
Ntp4661
Rp4662
(dp4663
g6
g16
sg8
S'NUMBER'
p4664
sg10
(dp4665
S'how'
p4666
g0
(g1
g2
Ntp4667
Rp4668
(dp4669
g6
Nsg8
S'NUMBER'
p4670
sg10
Nsg24
NsbsS'what'
p4671
g0
(g1
g2
Ntp4672
Rp4673
(dp4674
g6
Nsg8
S'PERSON'
p4675
sg10
Nsg24
NsbsS'where'
p4676
g0
(g1
g2
Ntp4677
Rp4678
(dp4679
g6
Nsg8
S'LOCATION'
p4680
sg10
Nsg24
NsbsS'which'
p4681
g0
(g1
g2
Ntp4682
Rp4683
(dp4684
g6
Nsg8
S'PERSON'
p4685
sg10
Nsg24
Nsbssg24
NsbsS'seal'
p4686
g0
(g1
g2
Ntp4687
Rp4688
(dp4689
g6
Nsg8
S'OTHER'
p4690
sg10
Nsg24
NsbsS'sport'
p4691
g0
(g1
g2
Ntp4692
Rp4693
(dp4694
g6
g16
sg8
S'OTHER'
p4695
sg10
(dp4696
S'in what'
p4697
g0
(g1
g2
Ntp4698
Rp4699
(dp4700
g6
Nsg8
S'OTHER'
p4701
sg10
Nsg24
NsbsS'the'
p4702
g0
(g1
g2
Ntp4703
Rp4704
(dp4705
g6
Nsg8
S'OTHER'
p4706
sg10
Nsg24
NsbsS'where'
p4707
g0
(g1
g2
Ntp4708
Rp4709
(dp4710
g6
Nsg8
S'LOCATION'
p4711
sg10
Nsg24
NsbsS'what'
p4712
g0
(g1
g2
Ntp4713
Rp4714
(dp4715
g6
Nsg8
S'OTHER'
p4716
sg10
Nsg24
NsbsS'in which'
p4717
g0
(g1
g2
Ntp4718
Rp4719
(dp4720
g6
Nsg8
S'OTHER'
p4721
sg10
Nsg24
Nsbssg24
NsbsS'heptagon'
p4722
g0
(g1
g2
Ntp4723
Rp4724
(dp4725
g6
Nsg8
S'NUMBER'
p4726
sg10
Nsg24
NsbsS'harvey'
p4727
g0
(g1
g2
Ntp4728
Rp4729
(dp4730
g6
Nsg8
S'PERSON'
p4731
sg10
Nsg24
NsbsS'review'
p4732
g0
(g1
g2
Ntp4733
Rp4734
(dp4735
g6
g16
sg8
S'OTHER'
p4736
sg10
(dp4737
S'what'
p4738
g0
(g1
g2
Ntp4739
Rp4740
(dp4741
g6
Nsg8
g4736
sg10
Nsg24
NsbsS'where'
p4742
g0
(g1
g2
Ntp4743
Rp4744
(dp4745
g6
Nsg8
S'LOCATION'
p4746
sg10
Nsg24
Nsbssg24
NsbsS'advertizing'
p4747
g0
(g1
g2
Ntp4748
Rp4749
(dp4750
g6
Nsg8
S'PERSON'
p4751
sg10
Nsg24
NsbsS'guitar'
p4752
g0
(g1
g2
Ntp4753
Rp4754
(dp4755
g6
Nsg8
S'PERSON'
p4756
sg10
Nsg24
NsbsS'magna'
p4757
g0
(g1
g2
Ntp4758
Rp4759
(dp4760
g6
Nsg8
S'PERSON'
p4761
sg10
Nsg24
NsbsS'nationality'
p4762
g0
(g1
g2
Ntp4763
Rp4764
(dp4765
g6
Nsg8
S'LOCATION'
p4766
sg10
Nsg24
NsbsS'come'
p4767
g0
(g1
g2
Ntp4768
Rp4769
(dp4770
g6
g16
sg8
S'LOCATION'
p4771
sg10
(dp4772
S'where'
p4773
g0
(g1
g2
Ntp4774
Rp4775
(dp4776
g6
Nsg8
S'LOCATION'
p4777
sg10
Nsg24
NsbsS'what'
p4778
g0
(g1
g2
Ntp4779
Rp4780
(dp4781
g6
Nsg8
S'OTHER'
p4782
sg10
Nsg24
NsbsS'when'
p4783
g0
(g1
g2
Ntp4784
Rp4785
(dp4786
g6
Nsg8
S'DATE'
p4787
sg10
Nsg24
Nsbssg24
NsbsS'warhol'
p4788
g0
(g1
g2
Ntp4789
Rp4790
(dp4791
g6
Nsg8
S'PERSON'
p4792
sg10
Nsg24
NsbsS'rugby'
p4793
g0
(g1
g2
Ntp4794
Rp4795
(dp4796
g6
Nsg8
S'PERSON'
p4797
sg10
Nsg24
NsbsS'mona'
p4798
g0
(g1
g2
Ntp4799
Rp4800
(dp4801
g6
Nsg8
S'LOCATION'
p4802
sg10
Nsg24
NsbsS'residence'
p4803
g0
(g1
g2
Ntp4804
Rp4805
(dp4806
g6
Nsg8
S'LOCATION'
p4807
sg10
Nsg24
NsbsS'region'
p4808
g0
(g1
g2
Ntp4809
Rp4810
(dp4811
g6
Nsg8
S'OTHER'
p4812
sg10
Nsg24
NsbsS'mont'
p4813
g0
(g1
g2
Ntp4814
Rp4815
(dp4816
g6
Nsg8
S'LOCATION'
p4817
sg10
Nsg24
NsbsS'berry'
p4818
g0
(g1
g2
Ntp4819
Rp4820
(dp4821
g6
Nsg8
S'OTHER'
p4822
sg10
Nsg24
NsbsS'senator'
p4823
g0
(g1
g2
Ntp4824
Rp4825
(dp4826
g6
Nsg8
S'PERSON'
p4827
sg10
Nsg24
NsbsS'railway'
p4828
g0
(g1
g2
Ntp4829
Rp4830
(dp4831
g6
Nsg8
S'DATE'
p4832
sg10
Nsg24
NsbsS'cancer'
p4833
g0
(g1
g2
Ntp4834
Rp4835
(dp4836
g6
Nsg8
S'OTHER'
p4837
sg10
Nsg24
NsbsS'color'
p4838
g0
(g1
g2
Ntp4839
Rp4840
(dp4841
g6
Nsg8
S'OTHER'
p4842
sg10
Nsg24
NsbsS'period'
p4843
g0
(g1
g2
Ntp4844
Rp4845
(dp4846
g6
g16
sg8
S'NUMBER'
p4847
sg10
(dp4848
S'how'
p4849
g0
(g1
g2
Ntp4850
Rp4851
(dp4852
g6
Nsg8
g4847
sg10
Nsg24
NsbsS'when'
p4853
g0
(g1
g2
Ntp4854
Rp4855
(dp4856
g6
Nsg8
S'DATE'
p4857
sg10
Nsg24
Nsbssg24
NsbsS'mccain'
p4858
g0
(g1
g2
Ntp4859
Rp4860
(dp4861
g6
Nsg8
S'PERSON'
p4862
sg10
Nsg24
NsbsS'satisfaction'
p4863
g0
(g1
g2
Ntp4864
Rp4865
(dp4866
g6
Nsg8
S'OTHER'
p4867
sg10
Nsg24
NsbsS'twin'
p4868
g0
(g1
g2
Ntp4869
Rp4870
(dp4871
g6
Nsg8
S'PERSON'
p4872
sg10
Nsg24
NsbsS'approval'
p4873
g0
(g1
g2
Ntp4874
Rp4875
(dp4876
g6
Nsg8
S'PERCENT'
p4877
sg10
Nsg24
NsbsS'polo'
p4878
g0
(g1
g2
Ntp4879
Rp4880
(dp4881
g6
Nsg8
S'NUMBER'
p4882
sg10
Nsg24
NsbsS'barrymore'
p4883
g0
(g1
g2
Ntp4884
Rp4885
(dp4886
g6
g16
sg8
S'NUMBER'
p4887
sg10
(dp4888
S'how'
p4889
g0
(g1
g2
Ntp4890
Rp4891
(dp4892
g6
Nsg8
g4887
sg10
Nsg24
NsbsS'what'
p4893
g0
(g1
g2
Ntp4894
Rp4895
(dp4896
g6
Nsg8
S'PERSON'
p4897
sg10
Nsg24
Nsbssg24
NsbsS'stretch'
p4898
g0
(g1
g2
Ntp4899
Rp4900
(dp4901
g6
Nsg8
S'OTHER'
p4902
sg10
Nsg24
NsbsS'west'
p4903
g0
(g1
g2
Ntp4904
Rp4905
(dp4906
g6
Nsg8
S'OTHER'
p4907
sg10
Nsg24
NsbsS'breath'
p4908
g0
(g1
g2
Ntp4909
Rp4910
(dp4911
g6
Nsg8
S'OTHER'
p4912
sg10
Nsg24
NsbsS'dictator'
p4913
g0
(g1
g2
Ntp4914
Rp4915
(dp4916
g6
Nsg8
S'PERSON'
p4917
sg10
Nsg24
NsbsS'marx'
p4918
g0
(g1
g2
Ntp4919
Rp4920
(dp4921
g6
g16
sg8
S'NUMBER'
p4922
sg10
(dp4923
S'how'
p4924
g0
(g1
g2
Ntp4925
Rp4926
(dp4927
g6
Nsg8
g4922
sg10
Nsg24
NsbsS'what'
p4928
g0
(g1
g2
Ntp4929
Rp4930
(dp4931
g6
Nsg8
S'OTHER'
p4932
sg10
Nsg24
NsbsS'who'
p4933
g0
(g1
g2
Ntp4934
Rp4935
(dp4936
g6
Nsg8
S'PERSON'
p4937
sg10
Nsg24
Nsbssg24
NsbsS'engine'
p4938
g0
(g1
g2
Ntp4939
Rp4940
(dp4941
g6
Nsg8
S'PERSON'
p4942
sg10
Nsg24
NsbsS'direction'
p4943
g0
(g1
g2
Ntp4944
Rp4945
(dp4946
g6
Nsg8
S'LOCATION'
p4947
sg10
Nsg24
NsbsS'cobain'
p4948
g0
(g1
g2
Ntp4949
Rp4950
(dp4951
g6
Nsg8
S'PERSON'
p4952
sg10
Nsg24
NsbsS'tiger'
p4953
g0
(g1
g2
Ntp4954
Rp4955
(dp4956
g6
Nsg8
S'OTHER'
p4957
sg10
Nsg24
NsbsS'wake'
p4958
g0
(g1
g2
Ntp4959
Rp4960
(dp4961
g6
Nsg8
S'OTHER'
p4962
sg10
Nsg24
NsbsS'minister'
p4963
g0
(g1
g2
Ntp4964
Rp4965
(dp4966
g6
g16
sg8
S'PERSON'
p4967
sg10
(dp4968
S'who'
p4969
g0
(g1
g2
Ntp4970
Rp4971
(dp4972
g6
Nsg8
S'PERSON'
p4973
sg10
Nsg24
NsbsS'when'
p4974
g0
(g1
g2
Ntp4975
Rp4976
(dp4977
g6
Nsg8
S'DATE'
p4978
sg10
Nsg24
Nsbssg24
NsbsS'superstar'
p4979
g0
(g1
g2
Ntp4980
Rp4981
(dp4982
g6
Nsg8
S'PERSON'
p4983
sg10
Nsg24
NsbsS'case'
p4984
g0
(g1
g2
Ntp4985
Rp4986
(dp4987
g6
Nsg8
S'LOCATION'
p4988
sg10
Nsg24
NsbsS'mount'
p4989
g0
(g1
g2
Ntp4990
Rp4991
(dp4992
g6
Nsg8
S'DATE'
p4993
sg10
Nsg24
NsbsS'cash'
p4994
g0
(g1
g2
Ntp4995
Rp4996
(dp4997
g6
Nsg8
S'OTHER'
p4998
sg10
Nsg24
NsbsS'coca'
p4999
g0
(g1
g2
Ntp5000
Rp5001
(dp5002
g6
Nsg8
S'NUMBER'
p5003
sg10
Nsg24
NsbsS'newspaper'
p5004
g0
(g1
g2
Ntp5005
Rp5006
(dp5007
g6
Nsg8
S'OTHER'
p5008
sg10
Nsg24
NsbsS'piano'
p5009
g0
(g1
g2
Ntp5010
Rp5011
(dp5012
g6
Nsg8
S'LOCATION'
p5013
sg10
Nsg24
NsbsS'strait'
p5014
g0
(g1
g2
Ntp5015
Rp5016
(dp5017
g6
Nsg8
S'LOCATION'
p5018
sg10
Nsg24
NsbsS'telephone'
p5019
g0
(g1
g2
Ntp5020
Rp5021
(dp5022
g6
g16
sg8
S'NUMBER'
p5023
sg10
(dp5024
S'how'
p5025
g0
(g1
g2
Ntp5026
Rp5027
(dp5028
g6
Nsg8
g5023
sg10
Nsg24
NsbsS'what'
p5029
g0
(g1
g2
Ntp5030
Rp5031
(dp5032
g6
Nsg8
S'NUMBER'
p5033
sg10
Nsg24
NsbsS'who'
p5034
g0
(g1
g2
Ntp5035
Rp5036
(dp5037
g6
Nsg8
S'PERSON'
p5038
sg10
Nsg24
Nsbssg24
NsbsS'commander'
p5039
g0
(g1
g2
Ntp5040
Rp5041
(dp5042
g6
Nsg8
S'PERSON'
p5043
sg10
Nsg24
NsbsS'middle'
p5044
g0
(g1
g2
Ntp5045
Rp5046
(dp5047
g6
Nsg8
S'PERSON'
p5048
sg10
Nsg24
NsbsS'evening'
p5049
g0
(g1
g2
Ntp5050
Rp5051
(dp5052
g6
Nsg8
S'OTHER'
p5053
sg10
Nsg24
NsbsS'goldie'
p5054
g0
(g1
g2
Ntp5055
Rp5056
(dp5057
g6
Nsg8
S'PERSON'
p5058
sg10
Nsg24
NsbsS'kenya'
p5059
g0
(g1
g2
Ntp5060
Rp5061
(dp5062
g6
Nsg8
S'NUMBER'
p5063
sg10
Nsg24
NsbsS'helium'
p5064
g0
(g1
g2
Ntp5065
Rp5066
(dp5067
g6
Nsg8
S'LOCATION'
p5068
sg10
Nsg24
NsbsS'ivy'
p5069
g0
(g1
g2
Ntp5070
Rp5071
(dp5072
g6
Nsg8
S'PERSON'
p5073
sg10
Nsg24
NsbsS'par'
p5074
g0
(g1
g2
Ntp5075
Rp5076
(dp5077
g6
Nsg8
S'NUMBER'
p5078
sg10
Nsg24
NsbsS'doctor'
p5079
g0
(g1
g2
Ntp5080
Rp5081
(dp5082
g6
Nsg8
S'PERSON'
p5083
sg10
Nsg24
NsbsS'alphabet'
p5084
g0
(g1
g2
Ntp5085
Rp5086
(dp5087
g6
Nsg8
S'OTHER'
p5088
sg10
Nsg24
NsbsS'bowl'
p5089
g0
(g1
g2
Ntp5090
Rp5091
(dp5092
g6
Nsg8
S'OTHER'
p5093
sg10
Nsg24
NsbsS'tour'
p5094
g0
(g1
g2
Ntp5095
Rp5096
(dp5097
g6
Nsg8
S'OTHER'
p5098
sg10
Nsg24
NsbsS'five-zone'
p5099
g0
(g1
g2
Ntp5100
Rp5101
(dp5102
g6
Nsg8
S'NUMBER'
p5103
sg10
Nsg24
NsbsS'wilhelm'
p5104
g0
(g1
g2
Ntp5105
Rp5106
(dp5107
g6
Nsg8
S'LOCATION'
p5108
sg10
Nsg24
NsbsS'document'
p5109
g0
(g1
g2
Ntp5110
Rp5111
(dp5112
g6
Nsg8
S'OTHER'
p5113
sg10
Nsg24
NsbsS'isle'
p5114
g0
(g1
g2
Ntp5115
Rp5116
(dp5117
g6
Nsg8
S'LOCATION'
p5118
sg10
Nsg24
NsbsS'hermit'
p5119
g0
(g1
g2
Ntp5120
Rp5121
(dp5122
g6
Nsg8
S'TIME'
p5123
sg10
Nsg24
NsbsS'week'
p5124
g0
(g1
g2
Ntp5125
Rp5126
(dp5127
g6
Nsg8
S'OTHER'
p5128
sg10
Nsg24
NsbsS'oil'
p5129
g0
(g1
g2
Ntp5130
Rp5131
(dp5132
g6
g16
sg8
S'OTHER'
p5133
sg10
(dp5134
S'what'
p5135
g0
(g1
g2
Ntp5136
Rp5137
(dp5138
g6
Nsg8
g5133
sg10
Nsg24
NsbsS'which'
p5139
g0
(g1
g2
Ntp5140
Rp5141
(dp5142
g6
Nsg8
S'PERSON'
p5143
sg10
Nsg24
Nsbssg24
NsbsS'director'
p5144
g0
(g1
g2
Ntp5145
Rp5146
(dp5147
g6
Nsg8
S'PERSON'
p5148
sg10
Nsg24
NsbsS'fruit'
p5149
g0
(g1
g2
Ntp5150
Rp5151
(dp5152
g6
g16
sg8
S'OTHER'
p5153
sg10
(dp5154
S'how'
p5155
g0
(g1
g2
Ntp5156
Rp5157
(dp5158
g6
Nsg8
S'NUMBER'
p5159
sg10
Nsg24
NsbsS'what'
p5160
g0
(g1
g2
Ntp5161
Rp5162
(dp5163
g6
Nsg8
g5153
sg10
Nsg24
Nsbssg24
NsbsS'vowel'
p5164
g0
(g1
g2
Ntp5165
Rp5166
(dp5167
g6
Nsg8
S'OTHER'
p5168
sg10
Nsg24
NsbsS'cartoon'
p5169
g0
(g1
g2
Ntp5170
Rp5171
(dp5172
g6
Nsg8
S'PERSON'
p5173
sg10
Nsg24
NsbsS'pennsylvania'
p5174
g0
(g1
g2
Ntp5175
Rp5176
(dp5177
g6
Nsg8
S'PERCENT'
p5178
sg10
Nsg24
NsbsS'iraqis'
p5179
g0
(g1
g2
Ntp5180
Rp5181
(dp5182
g6
Nsg8
S'DATE'
p5183
sg10
Nsg24
NsbsS'heliologist'
p5184
g0
(g1
g2
Ntp5185
Rp5186
(dp5187
g6
Nsg8
S'OTHER'
p5188
sg10
Nsg24
NsbsS'bottle'
p5189
g0
(g1
g2
Ntp5190
Rp5191
(dp5192
g6
Nsg8
S'NUMBER'
p5193
sg10
Nsg24
NsbsS'model'
p5194
g0
(g1
g2
Ntp5195
Rp5196
(dp5197
g6
Nsg8
S'PERSON'
p5198
sg10
Nsg24
NsbsS'summer'
p5199
g0
(g1
g2
Ntp5200
Rp5201
(dp5202
g6
Nsg8
S'LOCATION'
p5203
sg10
Nsg24
NsbsS'frankie'
p5204
g0
(g1
g2
Ntp5205
Rp5206
(dp5207
g6
Nsg8
S'PERSON'
p5208
sg10
Nsg24
NsbsS'noah'
p5209
g0
(g1
g2
Ntp5210
Rp5211
(dp5212
g6
Nsg8
S'OTHER'
p5213
sg10
Nsg24
NsbsS'money'
p5214
g0
(g1
g2
Ntp5215
Rp5216
(dp5217
g6
g16
sg8
S'OTHER'
p5218
sg10
(dp5219
S'how'
p5220
g0
(g1
g2
Ntp5221
Rp5222
(dp5223
g6
Nsg8
S'MONEY'
p5224
sg10
Nsg24
NsbsS'what'
p5225
g0
(g1
g2
Ntp5226
Rp5227
(dp5228
g6
Nsg8
S'OTHER'
p5229
sg10
Nsg24
NsbsS'who'
p5230
g0
(g1
g2
Ntp5231
Rp5232
(dp5233
g6
Nsg8
S'PERSON'
p5234
sg10
Nsg24
Nsbssg24
NsbsS'actress'
p5235
g0
(g1
g2
Ntp5236
Rp5237
(dp5238
g6
g16
sg8
S'PERSON'
p5239
sg10
(dp5240
S'what'
p5241
g0
(g1
g2
Ntp5242
Rp5243
(dp5244
g6
Nsg8
S'PERSON'
p5245
sg10
Nsg24
NsbsS'who'
p5246
g0
(g1
g2
Ntp5247
Rp5248
(dp5249
g6
Nsg8
S'PERSON'
p5250
sg10
Nsg24
NsbsS'where'
p5251
g0
(g1
g2
Ntp5252
Rp5253
(dp5254
g6
Nsg8
S'LOCATION'
p5255
sg10
Nsg24
NsbsS'which'
p5256
g0
(g1
g2
Ntp5257
Rp5258
(dp5259
g6
Nsg8
S'PERSON'
p5260
sg10
Nsg24
Nsbssg24
NsbsS'harrison'
p5261
g0
(g1
g2
Ntp5262
Rp5263
(dp5264
g6
Nsg8
S'PERSON'
p5265
sg10
Nsg24
NsbsS'speed'
p5266
g0
(g1
g2
Ntp5267
Rp5268
(dp5269
g6
g16
sg8
S'PERSON'
p5270
sg10
(dp5271
S'what'
p5272
g0
(g1
g2
Ntp5273
Rp5274
(dp5275
g6
Nsg8
S'NUMBER'
p5276
sg10
Nsg24
NsbsS'who'
p5277
g0
(g1
g2
Ntp5278
Rp5279
(dp5280
g6
Nsg8
g5270
sg10
Nsg24
Nsbssg24
NsbsS'death'
p5281
g0
(g1
g2
Ntp5282
Rp5283
(dp5284
g6
g16
sg8
S'PERSON'
p5285
sg10
(dp5286
S'what'
p5287
g0
(g1
g2
Ntp5288
Rp5289
(dp5290
g6
Nsg8
S'NUMBER'
p5291
sg10
Nsg24
NsbsS'who'
p5292
g0
(g1
g2
Ntp5293
Rp5294
(dp5295
g6
Nsg8
g5285
sg10
Nsg24
Nsbssg24
NsbsS'tim'
p5296
g0
(g1
g2
Ntp5297
Rp5298
(dp5299
g6
Nsg8
S'PERSON'
p5300
sg10
Nsg24
NsbsS'rose'
p5301
g0
(g1
g2
Ntp5302
Rp5303
(dp5304
g6
Nsg8
S'LOCATION'
p5305
sg10
Nsg24
NsbsS'eisenhower'
p5306
g0
(g1
g2
Ntp5307
Rp5308
(dp5309
g6
Nsg8
S'OTHER'
p5310
sg10
Nsg24
NsbsS'instrument'
p5311
g0
(g1
g2
Ntp5312
Rp5313
(dp5314
g6
Nsg8
S'OTHER'
p5315
sg10
Nsg24
NsbsS'dipper'
p5316
g0
(g1
g2
Ntp5317
Rp5318
(dp5319
g6
Nsg8
S'NUMBER'
p5320
sg10
Nsg24
NsbsS'setting'
p5321
g0
(g1
g2
Ntp5322
Rp5323
(dp5324
g6
Nsg8
S'LOCATION'
p5325
sg10
Nsg24
NsbsS'treatment'
p5326
g0
(g1
g2
Ntp5327
Rp5328
(dp5329
g6
Nsg8
S'OTHER'
p5330
sg10
Nsg24
NsbsS'visine'
p5331
g0
(g1
g2
Ntp5332
Rp5333
(dp5334
g6
Nsg8
S'OTHER'
p5335
sg10
Nsg24
NsbsS'vacuum'
p5336
g0
(g1
g2
Ntp5337
Rp5338
(dp5339
g6
Nsg8
S'PERSON'
p5340
sg10
Nsg24
NsbsS'world'
p5341
g0
(g1
g2
Ntp5342
Rp5343
(dp5344
g6
g16
sg8
S'PERSON'
p5345
sg10
(dp5346
S'what'
p5347
g0
(g1
g2
Ntp5348
Rp5349
(dp5350
g6
Nsg8
S'LOCATION'
p5351
sg10
Nsg24
NsbsS'who'
p5352
g0
(g1
g2
Ntp5353
Rp5354
(dp5355
g6
Nsg8
S'PERSON'
p5356
sg10
Nsg24
NsbsS'when'
p5357
g0
(g1
g2
Ntp5358
Rp5359
(dp5360
g6
Nsg8
S'DATE'
p5361
sg10
Nsg24
NsbsS'about'
p5362
g0
(g1
g2
Ntp5363
Rp5364
(dp5365
g6
Nsg8
S'NUMBER'
p5366
sg10
Nsg24
NsbsS'how'
p5367
g0
(g1
g2
Ntp5368
Rp5369
(dp5370
g6
Nsg8
S'NUMBER'
p5371
sg10
Nsg24
NsbsS'the'
p5372
g0
(g1
g2
Ntp5373
Rp5374
(dp5375
g6
Nsg8
S'OTHER'
p5376
sg10
Nsg24
NsbsS'where'
p5377
g0
(g1
g2
Ntp5378
Rp5379
(dp5380
g6
Nsg8
S'LOCATION'
p5381
sg10
Nsg24
Nsbssg24
NsbsS'railroad'
p5382
g0
(g1
g2
Ntp5383
Rp5384
(dp5385
g6
g16
sg8
S'DATE'
p5386
sg10
(dp5387
S'how'
p5388
g0
(g1
g2
Ntp5389
Rp5390
(dp5391
g6
Nsg8
S'MONEY'
p5392
sg10
Nsg24
NsbsS'when'
p5393
g0
(g1
g2
Ntp5394
Rp5395
(dp5396
g6
Nsg8
g5386
sg10
Nsg24
Nsbssg24
NsbsS'lady'
p5397
g0
(g1
g2
Ntp5398
Rp5399
(dp5400
g6
Nsg8
S'PERSON'
p5401
sg10
Nsg24
NsbsS'macarthur'
p5402
g0
(g1
g2
Ntp5403
Rp5404
(dp5405
g6
Nsg8
S'PERSON'
p5406
sg10
Nsg24
NsbsS'kennedy'
p5407
g0
(g1
g2
Ntp5408
Rp5409
(dp5410
g6
g16
sg8
S'OTHER'
p5411
sg10
(dp5412
S'what'
p5413
g0
(g1
g2
Ntp5414
Rp5415
(dp5416
g6
Nsg8
g5411
sg10
Nsg24
NsbsS'who'
p5417
g0
(g1
g2
Ntp5418
Rp5419
(dp5420
g6
Nsg8
S'PERSON'
p5421
sg10
Nsg24
Nsbssg24
NsbsS't'
p5422
g0
(g1
g2
Ntp5423
Rp5424
(dp5425
g6
Nsg8
S'LOCATION'
p5426
sg10
Nsg24
NsbsS'clay'
p5427
g0
(g1
g2
Ntp5428
Rp5429
(dp5430
g6
g16
sg8
S'OTHER'
p5431
sg10
(dp5432
S'what'
p5433
g0
(g1
g2
Ntp5434
Rp5435
(dp5436
g6
Nsg8
g5431
sg10
Nsg24
NsbsS'where'
p5437
g0
(g1
g2
Ntp5438
Rp5439
(dp5440
g6
Nsg8
S'LOCATION'
p5441
sg10
Nsg24
Nsbssg24
NsbsS'musca'
p5442
g0
(g1
g2
Ntp5443
Rp5444
(dp5445
g6
Nsg8
S'OTHER'
p5446
sg10
Nsg24
NsbsS'competition'
p5447
g0
(g1
g2
Ntp5448
Rp5449
(dp5450
g6
Nsg8
S'OTHER'
p5451
sg10
Nsg24
NsbsS'lobster'
p5452
g0
(g1
g2
Ntp5453
Rp5454
(dp5455
g6
Nsg8
S'NUMBER'
p5456
sg10
Nsg24
NsbsS'pasture'
p5457
g0
(g1
g2
Ntp5458
Rp5459
(dp5460
g6
Nsg8
S'NUMBER'
p5461
sg10
Nsg24
NsbsS'danube'
p5462
g0
(g1
g2
Ntp5463
Rp5464
(dp5465
g6
Nsg8
S'LOCATION'
p5466
sg10
Nsg24
NsbsS'moog'
p5467
g0
(g1
g2
Ntp5468
Rp5469
(dp5470
g6
Nsg8
S'PERSON'
p5471
sg10
Nsg24
NsbsS'moon'
p5472
g0
(g1
g2
Ntp5473
Rp5474
(dp5475
g6
Nsg8
S'NUMBER'
p5476
sg10
Nsg24
NsbsS'refer'
p5477
g0
(g1
g2
Ntp5478
Rp5479
(dp5480
g6
Nsg8
S'OTHER'
p5481
sg10
Nsg24
NsbsS'business'
p5482
g0
(g1
g2
Ntp5483
Rp5484
(dp5485
g6
Nsg8
S'PERSON'
p5486
sg10
Nsg24
NsbsS'equivalent'
p5487
g0
(g1
g2
Ntp5488
Rp5489
(dp5490
g6
Nsg8
S'OTHER'
p5491
sg10
Nsg24
NsbsS'volkswagen'
p5492
g0
(g1
g2
Ntp5493
Rp5494
(dp5495
g6
Nsg8
S'MONEY'
p5496
sg10
Nsg24
NsbsS'freedy'
p5497
g0
(g1
g2
Ntp5498
Rp5499
(dp5500
g6
Nsg8
S'TIME'
p5501
sg10
Nsg24
NsbsS'paganini'
p5502
g0
(g1
g2
Ntp5503
Rp5504
(dp5505
g6
Nsg8
S'PERSON'
p5506
sg10
Nsg24
NsbsS'frenchman'
p5507
g0
(g1
g2
Ntp5508
Rp5509
(dp5510
g6
Nsg8
S'PERSON'
p5511
sg10
Nsg24
NsbsS'manufacturer'
p5512
g0
(g1
g2
Ntp5513
Rp5514
(dp5515
g6
Nsg8
S'PERSON'
p5516
sg10
Nsg24
NsbsS'racoon'
p5517
g0
(g1
g2
Ntp5518
Rp5519
(dp5520
g6
Nsg8
S'OTHER'
p5521
sg10
Nsg24
NsbsS'william'
p5522
g0
(g1
g2
Ntp5523
Rp5524
(dp5525
g6
Nsg8
S'PERSON'
p5526
sg10
Nsg24
NsbsS'stone'
p5527
g0
(g1
g2
Ntp5528
Rp5529
(dp5530
g6
g16
sg8
S'NUMBER'
p5531
sg10
(dp5532
S'how'
p5533
g0
(g1
g2
Ntp5534
Rp5535
(dp5536
g6
Nsg8
g5531
sg10
Nsg24
NsbsS'who'
p5537
g0
(g1
g2
Ntp5538
Rp5539
(dp5540
g6
Nsg8
S'PERSON'
p5541
sg10
Nsg24
Nsbssg24
NsbsS'oj'
p5542
g0
(g1
g2
Ntp5543
Rp5544
(dp5545
g6
Nsg8
S'TIME'
p5546
sg10
Nsg24
NsbsS'oh'
p5547
g0
(g1
g2
Ntp5548
Rp5549
(dp5550
g6
Nsg8
S'PERSON'
p5551
sg10
Nsg24
NsbsS'resurrectionist'
p5552
g0
(g1
g2
Ntp5553
Rp5554
(dp5555
g6
Nsg8
S'OTHER'
p5556
sg10
Nsg24
NsbsS'island'
p5557
g0
(g1
g2
Ntp5558
Rp5559
(dp5560
g6
Nsg8
S'LOCATION'
p5561
sg10
Nsg24
NsbsS'door-to-door'
p5562
g0
(g1
g2
Ntp5563
Rp5564
(dp5565
g6
Nsg8
S'PERSON'
p5566
sg10
Nsg24
NsbsS'fein'
p5567
g0
(g1
g2
Ntp5568
Rp5569
(dp5570
g6
Nsg8
S'LOCATION'
p5571
sg10
Nsg24
NsbsS'airline'
p5572
g0
(g1
g2
Ntp5573
Rp5574
(dp5575
g6
g16
sg8
S'PERSON'
p5576
sg10
(dp5577
S'how'
p5578
g0
(g1
g2
Ntp5579
Rp5580
(dp5581
g6
Nsg8
S'NUMBER'
p5582
sg10
Nsg24
NsbsS'what'
p5583
g0
(g1
g2
Ntp5584
Rp5585
(dp5586
g6
Nsg8
S'PERSON'
p5587
sg10
Nsg24
Nsbssg24
NsbsS'bond'
p5588
g0
(g1
g2
Ntp5589
Rp5590
(dp5591
g6
Nsg8
S'TIME'
p5592
sg10
Nsg24
NsbsS'backup'
p5593
g0
(g1
g2
Ntp5594
Rp5595
(dp5596
g6
Nsg8
S'PERSON'
p5597
sg10
Nsg24
NsbsS'processor'
p5598
g0
(g1
g2
Ntp5599
Rp5600
(dp5601
g6
Nsg8
S'NUMBER'
p5602
sg10
Nsg24
NsbsS'road'
p5603
g0
(g1
g2
Ntp5604
Rp5605
(dp5606
g6
Nsg8
S'PERSON'
p5607
sg10
Nsg24
NsbsS'tribe'
p5608
g0
(g1
g2
Ntp5609
Rp5610
(dp5611
g6
Nsg8
S'PERSON'
p5612
sg10
Nsg24
NsbsS'bullwinkle'
p5613
g0
(g1
g2
Ntp5614
Rp5615
(dp5616
g6
Nsg8
S'PERSON'
p5617
sg10
Nsg24
NsbsS'strip'
p5618
g0
(g1
g2
Ntp5619
Rp5620
(dp5621
g6
g16
sg8
S'PERSON'
p5622
sg10
(dp5623
S'what'
p5624
g0
(g1
g2
Ntp5625
Rp5626
(dp5627
g6
Nsg8
S'PERSON'
p5628
sg10
Nsg24
NsbsS'who'
p5629
g0
(g1
g2
Ntp5630
Rp5631
(dp5632
g6
Nsg8
S'PERSON'
p5633
sg10
Nsg24
NsbsS'which'
p5634
g0
(g1
g2
Ntp5635
Rp5636
(dp5637
g6
Nsg8
S'OTHER'
p5638
sg10
Nsg24
Nsbssg24
NsbsS'fluorine'
p5639
g0
(g1
g2
Ntp5640
Rp5641
(dp5642
g6
Nsg8
S'OTHER'
p5643
sg10
Nsg24
NsbsS'area'
p5644
g0
(g1
g2
Ntp5645
Rp5646
(dp5647
g6
g16
sg8
S'NUMBER'
p5648
sg10
(dp5649
S'what'
p5650
g0
(g1
g2
Ntp5651
Rp5652
(dp5653
g6
Nsg8
S'NUMBER'
p5654
sg10
Nsg24
NsbsS'in what'
p5655
g0
(g1
g2
Ntp5656
Rp5657
(dp5658
g6
Nsg8
S'LOCATION'
p5659
sg10
Nsg24
NsbsS'which'
p5660
g0
(g1
g2
Ntp5661
Rp5662
(dp5663
g6
Nsg8
S'LOCATION'
p5664
sg10
Nsg24
Nsbssg24
NsbsS'philadelphia'
p5665
g0
(g1
g2
Ntp5666
Rp5667
(dp5668
g6
Nsg8
S'PERSON'
p5669
sg10
Nsg24
NsbsS'grange'
p5670
g0
(g1
g2
Ntp5671
Rp5672
(dp5673
g6
Nsg8
S'PERSON'
p5674
sg10
Nsg24
NsbsS'hen'
p5675
g0
(g1
g2
Ntp5676
Rp5677
(dp5678
g6
Nsg8
S'TIME'
p5679
sg10
Nsg24
NsbsS'valley'
p5680
g0
(g1
g2
Ntp5681
Rp5682
(dp5683
g6
Nsg8
S'LOCATION'
p5684
sg10
Nsg24
NsbsS'hiccup'
p5685
g0
(g1
g2
Ntp5686
Rp5687
(dp5688
g6
Nsg8
S'TIME'
p5689
sg10
Nsg24
NsbsS'gore'
p5690
g0
(g1
g2
Ntp5691
Rp5692
(dp5693
g6
Nsg8
S'PERSON'
p5694
sg10
Nsg24
NsbsS'spice'
p5695
g0
(g1
g2
Ntp5696
Rp5697
(dp5698
g6
Nsg8
S'OTHER'
p5699
sg10
Nsg24
NsbsS'waste'
p5700
g0
(g1
g2
Ntp5701
Rp5702
(dp5703
g6
Nsg8
S'NUMBER'
p5704
sg10
Nsg24
NsbsS'circulation'
p5705
g0
(g1
g2
Ntp5706
Rp5707
(dp5708
g6
Nsg8
S'OTHER'
p5709
sg10
Nsg24
NsbsS'manuel'
p5710
g0
(g1
g2
Ntp5711
Rp5712
(dp5713
g6
Nsg8
S'DATE'
p5714
sg10
Nsg24
NsbsS'gone'
p5715
g0
(g1
g2
Ntp5716
Rp5717
(dp5718
g6
Nsg8
S'PERSON'
p5719
sg10
Nsg24
NsbsS'taylor'
p5720
g0
(g1
g2
Ntp5721
Rp5722
(dp5723
g6
Nsg8
S'PERSON'
p5724
sg10
Nsg24
NsbsS'ad'
p5725
g0
(g1
g2
Ntp5726
Rp5727
(dp5728
g6
Nsg8
S'OTHER'
p5729
sg10
Nsg24
NsbsS'taste'
p5730
g0
(g1
g2
Ntp5731
Rp5732
(dp5733
g6
Nsg8
S'OTHER'
p5734
sg10
Nsg24
NsbsS'deer'
p5735
g0
(g1
g2
Ntp5736
Rp5737
(dp5738
g6
Nsg8
S'PERSON'
p5739
sg10
Nsg24
NsbsS'britain'
p5740
g0
(g1
g2
Ntp5741
Rp5742
(dp5743
g6
Nsg8
S'NUMBER'
p5744
sg10
Nsg24
NsbsS'film'
p5745
g0
(g1
g2
Ntp5746
Rp5747
(dp5748
g6
g16
sg8
S'OTHER'
p5749
sg10
(dp5750
S'the'
p5751
g0
(g1
g2
Ntp5752
Rp5753
(dp5754
g6
Nsg8
S'DATE'
p5755
sg10
Nsg24
NsbsS'who'
p5756
g0
(g1
g2
Ntp5757
Rp5758
(dp5759
g6
Nsg8
S'PERSON'
p5760
sg10
Nsg24
NsbsS'in what'
p5761
g0
(g1
g2
Ntp5762
Rp5763
(dp5764
g6
Nsg8
S'OTHER'
p5765
sg10
Nsg24
NsbsS'what'
p5766
g0
(g1
g2
Ntp5767
Rp5768
(dp5769
g6
Nsg8
S'OTHER'
p5770
sg10
Nsg24
Nsbssg24
NsbsS'cream'
p5771
g0
(g1
g2
Ntp5772
Rp5773
(dp5774
g6
Nsg8
S'OTHER'
p5775
sg10
Nsg24
NsbsS'angelica'
p5776
g0
(g1
g2
Ntp5777
Rp5778
(dp5779
g6
Nsg8
S'LOCATION'
p5780
sg10
Nsg24
NsbsS'englishman'
p5781
g0
(g1
g2
Ntp5782
Rp5783
(dp5784
g6
Nsg8
S'OTHER'
p5785
sg10
Nsg24
NsbsS'field'
p5786
g0
(g1
g2
Ntp5787
Rp5788
(dp5789
g6
Nsg8
S'PERSON'
p5790
sg10
Nsg24
NsbsS'astronaut'
p5791
g0
(g1
g2
Ntp5792
Rp5793
(dp5794
g6
Nsg8
S'PERSON'
p5795
sg10
Nsg24
NsbsS'puppy'
p5796
g0
(g1
g2
Ntp5797
Rp5798
(dp5799
g6
Nsg8
S'TIME'
p5800
sg10
Nsg24
NsbsS'congress'
p5801
g0
(g1
g2
Ntp5802
Rp5803
(dp5804
g6
g16
sg8
S'NUMBER'
p5805
sg10
(dp5806
S'how'
p5807
g0
(g1
g2
Ntp5808
Rp5809
(dp5810
g6
Nsg8
g5805
sg10
Nsg24
NsbsS'what'
p5811
g0
(g1
g2
Ntp5812
Rp5813
(dp5814
g6
Nsg8
S'OTHER'
p5815
sg10
Nsg24
NsbsS'when'
p5816
g0
(g1
g2
Ntp5817
Rp5818
(dp5819
g6
Nsg8
S'DATE'
p5820
sg10
Nsg24
Nsbssg24
NsbsS'symbol'
p5821
g0
(g1
g2
Ntp5822
Rp5823
(dp5824
g6
g16
sg8
S'NUMBER'
p5825
sg10
(dp5826
S'how'
p5827
g0
(g1
g2
Ntp5828
Rp5829
(dp5830
g6
Nsg8
S'NUMBER'
p5831
sg10
Nsg24
NsbsS'what'
p5832
g0
(g1
g2
Ntp5833
Rp5834
(dp5835
g6
Nsg8
S'OTHER'
p5836
sg10
Nsg24
Nsbssg24
NsbsS'lustrum'
p5837
g0
(g1
g2
Ntp5838
Rp5839
(dp5840
g6
Nsg8
S'NUMBER'
p5841
sg10
Nsg24
NsbsS'gutenberg'
p5842
g0
(g1
g2
Ntp5843
Rp5844
(dp5845
g6
Nsg8
S'NUMBER'
p5846
sg10
Nsg24
NsbsS'peak'
p5847
g0
(g1
g2
Ntp5848
Rp5849
(dp5850
g6
Nsg8
S'LOCATION'
p5851
sg10
Nsg24
NsbsS'pooh'
p5852
g0
(g1
g2
Ntp5853
Rp5854
(dp5855
g6
Nsg8
S'OTHER'
p5856
sg10
Nsg24
NsbsS'chairbound'
p5857
g0
(g1
g2
Ntp5858
Rp5859
(dp5860
g6
Nsg8
S'OTHER'
p5861
sg10
Nsg24
NsbsS'peugeot'
p5862
g0
(g1
g2
Ntp5863
Rp5864
(dp5865
g6
Nsg8
S'OTHER'
p5866
sg10
Nsg24
NsbsS'building'
p5867
g0
(g1
g2
Ntp5868
Rp5869
(dp5870
g6
Nsg8
S'LOCATION'
p5871
sg10
Nsg24
NsbsS'wife'
p5872
g0
(g1
g2
Ntp5873
Rp5874
(dp5875
g6
Nsg8
S'PERSON'
p5876
sg10
Nsg24
NsbsS'missouri'
p5877
g0
(g1
g2
Ntp5878
Rp5879
(dp5880
g6
g16
sg8
S'NUMBER'
p5881
sg10
(dp5882
S'how'
p5883
g0
(g1
g2
Ntp5884
Rp5885
(dp5886
g6
Nsg8
g5881
sg10
Nsg24
NsbsS'what'
p5887
g0
(g1
g2
Ntp5888
Rp5889
(dp5890
g6
Nsg8
S'LOCATION'
p5891
sg10
Nsg24
Nsbssg24
NsbsS'chinese'
p5892
g0
(g1
g2
Ntp5893
Rp5894
(dp5895
g6
g16
sg8
S'NUMBER'
p5896
sg10
(dp5897
S'how'
p5898
g0
(g1
g2
Ntp5899
Rp5900
(dp5901
g6
Nsg8
g5896
sg10
Nsg24
NsbsS'what'
p5902
g0
(g1
g2
Ntp5903
Rp5904
(dp5905
g6
Nsg8
S'OTHER'
p5906
sg10
Nsg24
Nsbssg24
NsbsS'ali'
p5907
g0
(g1
g2
Ntp5908
Rp5909
(dp5910
g6
Nsg8
S'OTHER'
p5911
sg10
Nsg24
NsbsS'dollar'
p5912
g0
(g1
g2
Ntp5913
Rp5914
(dp5915
g6
Nsg8
S'NUMBER'
p5916
sg10
Nsg24
NsbsS'month'
p5917
g0
(g1
g2
Ntp5918
Rp5919
(dp5920
g6
Nsg8
S'DATE'
p5921
sg10
Nsg24
NsbsS'spacecraft'
p5922
g0
(g1
g2
Ntp5923
Rp5924
(dp5925
g6
g16
sg8
S'LOCATION'
p5926
sg10
(dp5927
S'how'
p5928
g0
(g1
g2
Ntp5929
Rp5930
(dp5931
g6
Nsg8
S'NUMBER'
p5932
sg10
Nsg24
NsbsS'what'
p5933
g0
(g1
g2
Ntp5934
Rp5935
(dp5936
g6
Nsg8
g5926
sg10
Nsg24
Nsbssg24
NsbsS'dish'
p5937
g0
(g1
g2
Ntp5938
Rp5939
(dp5940
g6
Nsg8
S'OTHER'
p5941
sg10
Nsg24
NsbsS'seaport'
p5942
g0
(g1
g2
Ntp5943
Rp5944
(dp5945
g6
Nsg8
S'LOCATION'
p5946
sg10
Nsg24
NsbsS'alcatraz'
p5947
g0
(g1
g2
Ntp5948
Rp5949
(dp5950
g6
Nsg8
S'PERSON'
p5951
sg10
Nsg24
NsbsS'austerlitz'
p5952
g0
(g1
g2
Ntp5953
Rp5954
(dp5955
g6
Nsg8
S'LOCATION'
p5956
sg10
Nsg24
NsbsS'hunting'
p5957
g0
(g1
g2
Ntp5958
Rp5959
(dp5960
g6
Nsg8
S'PERSON'
p5961
sg10
Nsg24
NsbsS'tv'
p5962
g0
(g1
g2
Ntp5963
Rp5964
(dp5965
g6
g16
sg8
S'PERSON'
p5966
sg10
(dp5967
S'how'
p5968
g0
(g1
g2
Ntp5969
Rp5970
(dp5971
g6
Nsg8
S'TIME'
p5972
sg10
Nsg24
NsbsS'what'
p5973
g0
(g1
g2
Ntp5974
Rp5975
(dp5976
g6
Nsg8
S'OTHER'
p5977
sg10
Nsg24
NsbsS'who'
p5978
g0
(g1
g2
Ntp5979
Rp5980
(dp5981
g6
Nsg8
S'PERSON'
p5982
sg10
Nsg24
NsbsS'which'
p5983
g0
(g1
g2
Ntp5984
Rp5985
(dp5986
g6
Nsg8
S'PERSON'
p5987
sg10
Nsg24
Nsbssg24
NsbsS'tail'
p5988
g0
(g1
g2
Ntp5989
Rp5990
(dp5991
g6
Nsg8
S'OTHER'
p5992
sg10
Nsg24
NsbsS'program'
p5993
g0
(g1
g2
Ntp5994
Rp5995
(dp5996
g6
Nsg8
S'OTHER'
p5997
sg10
Nsg24
NsbsS'present'
p5998
g0
(g1
g2
Ntp5999
Rp6000
(dp6001
g6
Nsg8
S'PERSON'
p6002
sg10
Nsg24
NsbsS'smile'
p6003
g0
(g1
g2
Ntp6004
Rp6005
(dp6006
g6
Nsg8
S'OTHER'
p6007
sg10
Nsg24
NsbsS'sound'
p6008
g0
(g1
g2
Ntp6009
Rp6010
(dp6011
g6
g16
sg8
S'OTHER'
p6012
sg10
(dp6013
S'what'
p6014
g0
(g1
g2
Ntp6015
Rp6016
(dp6017
g6
Nsg8
g6012
sg10
Nsg24
NsbsS'who'
p6018
g0
(g1
g2
Ntp6019
Rp6020
(dp6021
g6
Nsg8
S'PERSON'
p6022
sg10
Nsg24
Nsbssg24
NsbsS'fax'
p6023
g0
(g1
g2
Ntp6024
Rp6025
(dp6026
g6
Nsg8
S'PERSON'
p6027
sg10
Nsg24
NsbsS'woman'
p6028
g0
(g1
g2
Ntp6029
Rp6030
(dp6031
g6
g16
sg8
S'PERSON'
p6032
sg10
(dp6033
S'what'
p6034
g0
(g1
g2
Ntp6035
Rp6036
(dp6037
g6
Nsg8
S'PERSON'
p6038
sg10
Nsg24
NsbsS'who'
p6039
g0
(g1
g2
Ntp6040
Rp6041
(dp6042
g6
Nsg8
S'PERSON'
p6043
sg10
Nsg24
NsbsS'when'
p6044
g0
(g1
g2
Ntp6045
Rp6046
(dp6047
g6
Nsg8
S'DATE'
p6048
sg10
Nsg24
Nsbssg24
NsbsS'diary'
p6049
g0
(g1
g2
Ntp6050
Rp6051
(dp6052
g6
Nsg8
S'PERSON'
p6053
sg10
Nsg24
NsbsS'fall'
p6054
g0
(g1
g2
Ntp6055
Rp6056
(dp6057
g6
Nsg8
S'OTHER'
p6058
sg10
Nsg24
NsbsS'frankenstein'
p6059
g0
(g1
g2
Ntp6060
Rp6061
(dp6062
g6
Nsg8
S'NUMBER'
p6063
sg10
Nsg24
NsbsS'sony'
p6064
g0
(g1
g2
Ntp6065
Rp6066
(dp6067
g6
Nsg8
S'OTHER'
p6068
sg10
Nsg24
NsbsS'ticket'
p6069
g0
(g1
g2
Ntp6070
Rp6071
(dp6072
g6
Nsg8
S'MONEY'
p6073
sg10
Nsg24
NsbsS'porgy'
p6074
g0
(g1
g2
Ntp6075
Rp6076
(dp6077
g6
Nsg8
S'PERSON'
p6078
sg10
Nsg24
NsbsS'lawnmower'
p6079
g0
(g1
g2
Ntp6080
Rp6081
(dp6082
g6
Nsg8
S'PERSON'
p6083
sg10
Nsg24
NsbsS'celebrity'
p6084
g0
(g1
g2
Ntp6085
Rp6086
(dp6087
g6
Nsg8
S'PERSON'
p6088
sg10
Nsg24
NsbsS'list'
p6089
g0
(g1
g2
Ntp6090
Rp6091
(dp6092
g6
Nsg8
S'LOCATION'
p6093
sg10
Nsg24
NsbsS'sang'
p6094
g0
(g1
g2
Ntp6095
Rp6096
(dp6097
g6
Nsg8
S'PERSON'
p6098
sg10
Nsg24
NsbsS'becket'
p6099
g0
(g1
g2
Ntp6100
Rp6101
(dp6102
g6
Nsg8
S'LOCATION'
p6103
sg10
Nsg24
NsbsS'louie'
p6104
g0
(g1
g2
Ntp6105
Rp6106
(dp6107
g6
Nsg8
S'NUMBER'
p6108
sg10
Nsg24
NsbsS'kemper'
p6109
g0
(g1
g2
Ntp6110
Rp6111
(dp6112
g6
Nsg8
S'PERSON'
p6113
sg10
Nsg24
NsbsS'tel'
p6114
g0
(g1
g2
Ntp6115
Rp6116
(dp6117
g6
Nsg8
S'NUMBER'
p6118
sg10
Nsg24
NsbsS'ten'
p6119
g0
(g1
g2
Ntp6120
Rp6121
(dp6122
g6
g16
sg8
S'NUMBER'
p6123
sg10
(dp6124
S'how'
p6125
g0
(g1
g2
Ntp6126
Rp6127
(dp6128
g6
Nsg8
g6123
sg10
Nsg24
NsbsS'what'
p6129
g0
(g1
g2
Ntp6130
Rp6131
(dp6132
g6
Nsg8
S'PERSON'
p6133
sg10
Nsg24
NsbsS'who'
p6134
g0
(g1
g2
Ntp6135
Rp6136
(dp6137
g6
Nsg8
S'PERSON'
p6138
sg10
Nsg24
Nsbssg24
NsbsS'tea'
p6139
g0
(g1
g2
Ntp6140
Rp6141
(dp6142
g6
Nsg8
S'OTHER'
p6143
sg10
Nsg24
NsbsS'orinoco'
p6144
g0
(g1
g2
Ntp6145
Rp6146
(dp6147
g6
Nsg8
S'LOCATION'
p6148
sg10
Nsg24
NsbsS'rate'
p6149
g0
(g1
g2
Ntp6150
Rp6151
(dp6152
g6
Nsg8
S'NUMBER'
p6153
sg10
Nsg24
NsbsS'invention'
p6154
g0
(g1
g2
Ntp6155
Rp6156
(dp6157
g6
Nsg8
S'OTHER'
p6158
sg10
Nsg24
NsbsS'value'
p6159
g0
(g1
g2
Ntp6160
Rp6161
(dp6162
g6
Nsg8
S'OTHER'
p6163
sg10
Nsg24
NsbsS'lawyer'
p6164
g0
(g1
g2
Ntp6165
Rp6166
(dp6167
g6
Nsg8
S'PERSON'
p6168
sg10
Nsg24
NsbsS'nba'
p6169
g0
(g1
g2
Ntp6170
Rp6171
(dp6172
g6
Nsg8
S'PERSON'
p6173
sg10
Nsg24
NsbsS'richard'
p6174
g0
(g1
g2
Ntp6175
Rp6176
(dp6177
g6
g16
sg8
S'OTHER'
p6178
sg10
(dp6179
S'how'
p6180
g0
(g1
g2
Ntp6181
Rp6182
(dp6183
g6
Nsg8
S'NUMBER'
p6184
sg10
Nsg24
NsbsS'what'
p6185
g0
(g1
g2
Ntp6186
Rp6187
(dp6188
g6
Nsg8
S'PERSON'
p6189
sg10
Nsg24
Nsbssg24
NsbsS'clock'
p6190
g0
(g1
g2
Ntp6191
Rp6192
(dp6193
g6
Nsg8
S'OTHER'
p6194
sg10
Nsg24
NsbsS'mutombo'
p6195
g0
(g1
g2
Ntp6196
Rp6197
(dp6198
g6
Nsg8
S'LOCATION'
p6199
sg10
Nsg24
NsbsS'sun'
p6200
g0
(g1
g2
Ntp6201
Rp6202
(dp6203
g6
g16
sg8
S'DATE'
p6204
sg10
(dp6205
S'how'
p6206
g0
(g1
g2
Ntp6207
Rp6208
(dp6209
g6
Nsg8
S'TIME'
p6210
sg10
Nsg24
NsbsS'when'
p6211
g0
(g1
g2
Ntp6212
Rp6213
(dp6214
g6
Nsg8
g6204
sg10
Nsg24
Nsbssg24
NsbsS'section'
p6215
g0
(g1
g2
Ntp6216
Rp6217
(dp6218
g6
g16
sg8
S'OTHER'
p6219
sg10
(dp6220
S'what'
p6221
g0
(g1
g2
Ntp6222
Rp6223
(dp6224
g6
Nsg8
g6219
sg10
Nsg24
NsbsS'who'
p6225
g0
(g1
g2
Ntp6226
Rp6227
(dp6228
g6
Nsg8
S'PERSON'
p6229
sg10
Nsg24
Nsbssg24
NsbsS'skywalker'
p6230
g0
(g1
g2
Ntp6231
Rp6232
(dp6233
g6
Nsg8
S'PERSON'
p6234
sg10
Nsg24
NsbsS'caffeine'
p6235
g0
(g1
g2
Ntp6236
Rp6237
(dp6238
g6
g16
sg8
S'NUMBER'
p6239
sg10
(dp6240
S'how'
p6241
g0
(g1
g2
Ntp6242
Rp6243
(dp6244
g6
Nsg8
S'NUMBER'
p6245
sg10
Nsg24
NsbsS'to'
p6246
g0
(g1
g2
Ntp6247
Rp6248
(dp6249
g6
Nsg8
S'OTHER'
p6250
sg10
Nsg24
Nsbssg24
NsbsS'milk'
p6251
g0
(g1
g2
Ntp6252
Rp6253
(dp6254
g6
g16
sg8
S'NUMBER'
p6255
sg10
(dp6256
S'how'
p6257
g0
(g1
g2
Ntp6258
Rp6259
(dp6260
g6
Nsg8
g6255
sg10
Nsg24
NsbsS'who'
p6261
g0
(g1
g2
Ntp6262
Rp6263
(dp6264
g6
Nsg8
S'PERSON'
p6265
sg10
Nsg24
Nsbssg24
NsbsS'importer'
p6266
g0
(g1
g2
Ntp6267
Rp6268
(dp6269
g6
Nsg8
S'LOCATION'
p6270
sg10
Nsg24
NsbsS'leia'
p6271
g0
(g1
g2
Ntp6272
Rp6273
(dp6274
g6
Nsg8
S'PERSON'
p6275
sg10
Nsg24
NsbsS'method'
p6276
g0
(g1
g2
Ntp6277
Rp6278
(dp6279
g6
Nsg8
S'OTHER'
p6280
sg10
Nsg24
NsbsS'theresa'
p6281
g0
(g1
g2
Ntp6282
Rp6283
(dp6284
g6
Nsg8
S'PERSON'
p6285
sg10
Nsg24
NsbsS'operating'
p6286
g0
(g1
g2
Ntp6287
Rp6288
(dp6289
g6
Nsg8
S'OTHER'
p6290
sg10
Nsg24
NsbsS'tragedy'
p6291
g0
(g1
g2
Ntp6292
Rp6293
(dp6294
g6
Nsg8
S'OTHER'
p6295
sg10
Nsg24
NsbsS'search'
p6296
g0
(g1
g2
Ntp6297
Rp6298
(dp6299
g6
Nsg8
S'OTHER'
p6300
sg10
Nsg24
NsbsS'naval'
p6301
g0
(g1
g2
Ntp6302
Rp6303
(dp6304
g6
Nsg8
S'PERSON'
p6305
sg10
Nsg24
NsbsS'soldier'
p6306
g0
(g1
g2
Ntp6307
Rp6308
(dp6309
g6
Nsg8
S'PERSON'
p6310
sg10
Nsg24
NsbsS'amount'
p6311
g0
(g1
g2
Ntp6312
Rp6313
(dp6314
g6
Nsg8
S'MONEY'
p6315
sg10
Nsg24
NsbsS'advertising'
p6316
g0
(g1
g2
Ntp6317
Rp6318
(dp6319
g6
Nsg8
S'DATE'
p6320
sg10
Nsg24
NsbsS'family'
p6321
g0
(g1
g2
Ntp6322
Rp6323
(dp6324
g6
Nsg8
S'NUMBER'
p6325
sg10
Nsg24
NsbsS'spermologer'
p6326
g0
(g1
g2
Ntp6327
Rp6328
(dp6329
g6
Nsg8
S'OTHER'
p6330
sg10
Nsg24
NsbsS'thatcher'
p6331
g0
(g1
g2
Ntp6332
Rp6333
(dp6334
g6
Nsg8
S'LOCATION'
p6335
sg10
Nsg24
NsbsS'ask'
p6336
g0
(g1
g2
Ntp6337
Rp6338
(dp6339
g6
Nsg8
S'LOCATION'
p6340
sg10
Nsg24
NsbsS'fatman'
p6341
g0
(g1
g2
Ntp6342
Rp6343
(dp6344
g6
Nsg8
S'PERSON'
p6345
sg10
Nsg24
NsbsS'florence'
p6346
g0
(g1
g2
Ntp6347
Rp6348
(dp6349
g6
Nsg8
S'OTHER'
p6350
sg10
Nsg24
NsbsS'attendance'
p6351
g0
(g1
g2
Ntp6352
Rp6353
(dp6354
g6
Nsg8
S'NUMBER'
p6355
sg10
Nsg24
NsbsS'eye'
p6356
g0
(g1
g2
Ntp6357
Rp6358
(dp6359
g6
Nsg8
S'LOCATION'
p6360
sg10
Nsg24
NsbsS'five-team'
p6361
g0
(g1
g2
Ntp6362
Rp6363
(dp6364
g6
Nsg8
S'NUMBER'
p6365
sg10
Nsg24
NsbsS'petroleum'
p6366
g0
(g1
g2
Ntp6367
Rp6368
(dp6369
g6
Nsg8
S'OTHER'
p6370
sg10
Nsg24
NsbsS'poodle'
p6371
g0
(g1
g2
Ntp6372
Rp6373
(dp6374
g6
Nsg8
S'NUMBER'
p6375
sg10
Nsg24
NsbsS'pearl'
p6376
g0
(g1
g2
Ntp6377
Rp6378
(dp6379
g6
Nsg8
S'NUMBER'
p6380
sg10
Nsg24
NsbsS'israel'
p6381
g0
(g1
g2
Ntp6382
Rp6383
(dp6384
g6
Nsg8
S'DATE'
p6385
sg10
Nsg24
NsbsS'diamond'
p6386
g0
(g1
g2
Ntp6387
Rp6388
(dp6389
g6
g16
sg8
S'PERSON'
p6390
sg10
(dp6391
S'how'
p6392
g0
(g1
g2
Ntp6393
Rp6394
(dp6395
g6
Nsg8
S'NUMBER'
p6396
sg10
Nsg24
NsbsS'what'
p6397
g0
(g1
g2
Ntp6398
Rp6399
(dp6400
g6
Nsg8
S'PERSON'
p6401
sg10
Nsg24
NsbsS'which'
p6402
g0
(g1
g2
Ntp6403
Rp6404
(dp6405
g6
Nsg8
g6390
sg10
Nsg24
Nsbssg24
NsbsS'fast-food'
p6406
g0
(g1
g2
Ntp6407
Rp6408
(dp6409
g6
Nsg8
S'PERSON'
p6410
sg10
Nsg24
NsbsS'hoffman'
p6411
g0
(g1
g2
Ntp6412
Rp6413
(dp6414
g6
Nsg8
S'PERSON'
p6415
sg10
Nsg24
NsbsS'flag'
p6416
g0
(g1
g2
Ntp6417
Rp6418
(dp6419
g6
Nsg8
S'OTHER'
p6420
sg10
Nsg24
NsbsS'stethoscope'
p6421
g0
(g1
g2
Ntp6422
Rp6423
(dp6424
g6
Nsg8
S'PERSON'
p6425
sg10
Nsg24
NsbsS'coyote'
p6426
g0
(g1
g2
Ntp6427
Rp6428
(dp6429
g6
Nsg8
S'LOCATION'
p6430
sg10
Nsg24
NsbsS'town'
p6431
g0
(g1
g2
Ntp6432
Rp6433
(dp6434
g6
Nsg8
S'LOCATION'
p6435
sg10
Nsg24
NsbsS'hour'
p6436
g0
(g1
g2
Ntp6437
Rp6438
(dp6439
g6
Nsg8
S'LOCATION'
p6440
sg10
Nsg24
NsbsS'primate'
p6441
g0
(g1
g2
Ntp6442
Rp6443
(dp6444
g6
Nsg8
S'OTHER'
p6445
sg10
Nsg24
NsbsS'barroom'
p6446
g0
(g1
g2
Ntp6447
Rp6448
(dp6449
g6
Nsg8
S'PERSON'
p6450
sg10
Nsg24
NsbsS'roosevelt'
p6451
g0
(g1
g2
Ntp6452
Rp6453
(dp6454
g6
g16
sg8
S'OTHER'
p6455
sg10
(dp6456
S'what'
p6457
g0
(g1
g2
Ntp6458
Rp6459
(dp6460
g6
Nsg8
g6455
sg10
Nsg24
NsbsS'when'
p6461
g0
(g1
g2
Ntp6462
Rp6463
(dp6464
g6
Nsg8
S'DATE'
p6465
sg10
Nsg24
Nsbssg24
NsbsS'mall'
p6466
g0
(g1
g2
Ntp6467
Rp6468
(dp6469
g6
Nsg8
S'LOCATION'
p6470
sg10
Nsg24
NsbsS'nebraska'
p6471
g0
(g1
g2
Ntp6472
Rp6473
(dp6474
g6
Nsg8
S'NUMBER'
p6475
sg10
Nsg24
NsbsS'morgan'
p6476
g0
(g1
g2
Ntp6477
Rp6478
(dp6479
g6
Nsg8
S'PERSON'
p6480
sg10
Nsg24
NsbsS'learn'
p6481
g0
(g1
g2
Ntp6482
Rp6483
(dp6484
g6
Nsg8
S'LOCATION'
p6485
sg10
Nsg24
NsbsS'male'
p6486
g0
(g1
g2
Ntp6487
Rp6488
(dp6489
g6
Nsg8
S'PERSON'
p6490
sg10
Nsg24
NsbsS'history'
p6491
g0
(g1
g2
Ntp6492
Rp6493
(dp6494
g6
g16
sg8
S'LOCATION'
p6495
sg10
(dp6496
S'when'
p6497
g0
(g1
g2
Ntp6498
Rp6499
(dp6500
g6
Nsg8
S'DATE'
p6501
sg10
Nsg24
NsbsS'where'
p6502
g0
(g1
g2
Ntp6503
Rp6504
(dp6505
g6
Nsg8
S'LOCATION'
p6506
sg10
Nsg24
Nsbssg24
NsbsS'compare'
p6507
g0
(g1
g2
Ntp6508
Rp6509
(dp6510
g6
Nsg8
S'PERSON'
p6511
sg10
Nsg24
NsbsS'pony'
p6512
g0
(g1
g2
Ntp6513
Rp6514
(dp6515
g6
Nsg8
S'LOCATION'
p6516
sg10
Nsg24
NsbsS'share'
p6517
g0
(g1
g2
Ntp6518
Rp6519
(dp6520
g6
Nsg8
S'LOCATION'
p6521
sg10
Nsg24
NsbsS'abner'
p6522
g0
(g1
g2
Ntp6523
Rp6524
(dp6525
g6
Nsg8
S'PERSON'
p6526
sg10
Nsg24
NsbsS'phrase'
p6527
g0
(g1
g2
Ntp6528
Rp6529
(dp6530
g6
Nsg8
S'OTHER'
p6531
sg10
Nsg24
NsbsS'magenta'
p6532
g0
(g1
g2
Ntp6533
Rp6534
(dp6535
g6
Nsg8
S'OTHER'
p6536
sg10
Nsg24
NsbsS'information'
p6537
g0
(g1
g2
Ntp6538
Rp6539
(dp6540
g6
Nsg8
S'LOCATION'
p6541
sg10
Nsg24
NsbsS'court'
p6542
g0
(g1
g2
Ntp6543
Rp6544
(dp6545
g6
Nsg8
S'LOCATION'
p6546
sg10
Nsg24
NsbsS'hugo'
p6547
g0
(g1
g2
Ntp6548
Rp6549
(dp6550
g6
Nsg8
S'DATE'
p6551
sg10
Nsg24
NsbsS'fame'
p6552
g0
(g1
g2
Ntp6553
Rp6554
(dp6555
g6
Nsg8
S'PERSON'
p6556
sg10
Nsg24
NsbsS'oyl'
p6557
g0
(g1
g2
Ntp6558
Rp6559
(dp6560
g6
Nsg8
S'PERSON'
p6561
sg10
Nsg24
NsbsS'goat'
p6562
g0
(g1
g2
Ntp6563
Rp6564
(dp6565
g6
Nsg8
S'NUMBER'
p6566
sg10
Nsg24
NsbsS'creature'
p6567
g0
(g1
g2
Ntp6568
Rp6569
(dp6570
g6
Nsg8
S'OTHER'
p6571
sg10
Nsg24
NsbsS'plant'
p6572
g0
(g1
g2
Ntp6573
Rp6574
(dp6575
g6
Nsg8
S'OTHER'
p6576
sg10
Nsg24
NsbsS'bacall'
p6577
g0
(g1
g2
Ntp6578
Rp6579
(dp6580
g6
Nsg8
S'PERSON'
p6581
sg10
Nsg24
NsbsS'rosanne'
p6582
g0
(g1
g2
Ntp6583
Rp6584
(dp6585
g6
Nsg8
S'PERSON'
p6586
sg10
Nsg24
NsbsS'blood'
p6587
g0
(g1
g2
Ntp6588
Rp6589
(dp6590
g6
g16
sg8
S'OTHER'
p6591
sg10
(dp6592
S'how'
p6593
g0
(g1
g2
Ntp6594
Rp6595
(dp6596
g6
Nsg8
S'TIME'
p6597
sg10
Nsg24
NsbsS'what'
p6598
g0
(g1
g2
Ntp6599
Rp6600
(dp6601
g6
Nsg8
S'OTHER'
p6602
sg10
Nsg24
NsbsS'which'
p6603
g0
(g1
g2
Ntp6604
Rp6605
(dp6606
g6
Nsg8
S'OTHER'
p6607
sg10
Nsg24
Nsbssg24
NsbsS'softball'
p6608
g0
(g1
g2
Ntp6609
Rp6610
(dp6611
g6
Nsg8
S'OTHER'
p6612
sg10
Nsg24
NsbsS'costner'
p6613
g0
(g1
g2
Ntp6614
Rp6615
(dp6616
g6
Nsg8
S'OTHER'
p6617
sg10
Nsg24
NsbsS'bloom'
p6618
g0
(g1
g2
Ntp6619
Rp6620
(dp6621
g6
Nsg8
S'PERSON'
p6622
sg10
Nsg24
NsbsS'author'
p6623
g0
(g1
g2
Ntp6624
Rp6625
(dp6626
g6
Nsg8
S'PERSON'
p6627
sg10
Nsg24
NsbsS'racetrack'
p6628
g0
(g1
g2
Ntp6629
Rp6630
(dp6631
g6
Nsg8
S'NUMBER'
p6632
sg10
Nsg24
NsbsS'shorn'
p6633
g0
(g1
g2
Ntp6634
Rp6635
(dp6636
g6
Nsg8
S'DATE'
p6637
sg10
Nsg24
NsbsS'stewart'
p6638
g0
(g1
g2
Ntp6639
Rp6640
(dp6641
g6
Nsg8
S'PERSON'
p6642
sg10
Nsg24
NsbsS'casablanca'
p6643
g0
(g1
g2
Ntp6644
Rp6645
(dp6646
g6
Nsg8
S'PERSON'
p6647
sg10
Nsg24
NsbsS'shevardnadze'
p6648
g0
(g1
g2
Ntp6649
Rp6650
(dp6651
g6
Nsg8
S'PERSON'
p6652
sg10
Nsg24
NsbsS'bocci'
p6653
g0
(g1
g2
Ntp6654
Rp6655
(dp6656
g6
Nsg8
S'LOCATION'
p6657
sg10
Nsg24
NsbsS'trade'
p6658
g0
(g1
g2
Ntp6659
Rp6660
(dp6661
g6
Nsg8
S'OTHER'
p6662
sg10
Nsg24
NsbsS'paper'
p6663
g0
(g1
g2
Ntp6664
Rp6665
(dp6666
g6
g16
sg8
S'NUMBER'
p6667
sg10
(dp6668
S'how'
p6669
g0
(g1
g2
Ntp6670
Rp6671
(dp6672
g6
Nsg8
S'NUMBER'
p6673
sg10
Nsg24
NsbsS'what'
p6674
g0
(g1
g2
Ntp6675
Rp6676
(dp6677
g6
Nsg8
S'OTHER'
p6678
sg10
Nsg24
NsbsS'who'
p6679
g0
(g1
g2
Ntp6680
Rp6681
(dp6682
g6
Nsg8
S'PERSON'
p6683
sg10
Nsg24
Nsbssg24
NsbsS'committee'
p6684
g0
(g1
g2
Ntp6685
Rp6686
(dp6687
g6
Nsg8
S'PERSON'
p6688
sg10
Nsg24
NsbsS'schoolhouse'
p6689
g0
(g1
g2
Ntp6690
Rp6691
(dp6692
g6
Nsg8
S'LOCATION'
p6693
sg10
Nsg24
NsbsS'avenue'
p6694
g0
(g1
g2
Ntp6695
Rp6696
(dp6697
g6
Nsg8
S'LOCATION'
p6698
sg10
Nsg24
NsbsS'handheld'
p6699
g0
(g1
g2
Ntp6700
Rp6701
(dp6702
g6
Nsg8
S'OTHER'
p6703
sg10
Nsg24
NsbsS'edmund'
p6704
g0
(g1
g2
Ntp6705
Rp6706
(dp6707
g6
Nsg8
S'TIME'
p6708
sg10
Nsg24
NsbsS'soccer'
p6709
g0
(g1
g2
Ntp6710
Rp6711
(dp6712
g6
g16
sg8
S'NUMBER'
p6713
sg10
(dp6714
S'how'
p6715
g0
(g1
g2
Ntp6716
Rp6717
(dp6718
g6
Nsg8
g6713
sg10
Nsg24
NsbsS'where'
p6719
g0
(g1
g2
Ntp6720
Rp6721
(dp6722
g6
Nsg8
S'LOCATION'
p6723
sg10
Nsg24
Nsbssg24
NsbsS'wingspan'
p6724
g0
(g1
g2
Ntp6725
Rp6726
(dp6727
g6
Nsg8
S'NUMBER'
p6728
sg10
Nsg24
NsbsS'argentine'
p6729
g0
(g1
g2
Ntp6730
Rp6731
(dp6732
g6
Nsg8
S'PERSON'
p6733
sg10
Nsg24
NsbsS'fool'
p6734
g0
(g1
g2
Ntp6735
Rp6736
(dp6737
g6
Nsg8
S'PERSON'
p6738
sg10
Nsg24
NsbsS'someone'
p6739
g0
(g1
g2
Ntp6740
Rp6741
(dp6742
g6
Nsg8
S'OTHER'
p6743
sg10
Nsg24
NsbsS'food'
p6744
g0
(g1
g2
Ntp6745
Rp6746
(dp6747
g6
g16
sg8
S'OTHER'
p6748
sg10
(dp6749
S'what'
p6750
g0
(g1
g2
Ntp6751
Rp6752
(dp6753
g6
Nsg8
S'OTHER'
p6754
sg10
Nsg24
NsbsS'who'
p6755
g0
(g1
g2
Ntp6756
Rp6757
(dp6758
g6
Nsg8
S'PERSON'
p6759
sg10
Nsg24
Nsbssg24
NsbsS'policeman'
p6760
g0
(g1
g2
Ntp6761
Rp6762
(dp6763
g6
Nsg8
S'OTHER'
p6764
sg10
Nsg24
NsbsS'found'
p6765
g0
(g1
g2
Ntp6766
Rp6767
(dp6768
g6
Nsg8
S'LOCATION'
p6769
sg10
Nsg24
NsbsS'status'
p6770
g0
(g1
g2
Ntp6771
Rp6772
(dp6773
g6
Nsg8
S'LOCATION'
p6774
sg10
Nsg24
NsbsS'england'
p6775
g0
(g1
g2
Ntp6776
Rp6777
(dp6778
g6
Nsg8
S'LOCATION'
p6779
sg10
Nsg24
NsbsS'weight'
p6780
g0
(g1
g2
Ntp6781
Rp6782
(dp6783
g6
Nsg8
S'NUMBER'
p6784
sg10
Nsg24
NsbsS'generation'
p6785
g0
(g1
g2
Ntp6786
Rp6787
(dp6788
g6
Nsg8
S'OTHER'
p6789
sg10
Nsg24
NsbsS'house'
p6790
g0
(g1
g2
Ntp6791
Rp6792
(dp6793
g6
g16
sg8
S'NUMBER'
p6794
sg10
(dp6795
S'how'
p6796
g0
(g1
g2
Ntp6797
Rp6798
(dp6799
g6
Nsg8
g6794
sg10
Nsg24
NsbsS'when'
p6800
g0
(g1
g2
Ntp6801
Rp6802
(dp6803
g6
Nsg8
S'DATE'
p6804
sg10
Nsg24
Nsbssg24
NsbsS'energy'
p6805
g0
(g1
g2
Ntp6806
Rp6807
(dp6808
g6
Nsg8
S'NUMBER'
p6809
sg10
Nsg24
NsbsS'event'
p6810
g0
(g1
g2
Ntp6811
Rp6812
(dp6813
g6
Nsg8
S'OTHER'
p6814
sg10
Nsg24
NsbsS'aldrin'
p6815
g0
(g1
g2
Ntp6816
Rp6817
(dp6818
g6
Nsg8
S'LOCATION'
p6819
sg10
Nsg24
NsbsS'gangland'
p6820
g0
(g1
g2
Ntp6821
Rp6822
(dp6823
g6
Nsg8
S'OTHER'
p6824
sg10
Nsg24
NsbsS'neanderthal'
p6825
g0
(g1
g2
Ntp6826
Rp6827
(dp6828
g6
Nsg8
S'DATE'
p6829
sg10
Nsg24
NsbsS'robert'
p6830
g0
(g1
g2
Ntp6831
Rp6832
(dp6833
g6
Nsg8
S'OTHER'
p6834
sg10
Nsg24
NsbsS'publish'
p6835
g0
(g1
g2
Ntp6836
Rp6837
(dp6838
g6
Nsg8
S'DATE'
p6839
sg10
Nsg24
NsbsS'research'
p6840
g0
(g1
g2
Ntp6841
Rp6842
(dp6843
g6
g16
sg8
S'LOCATION'
p6844
sg10
(dp6845
S'what'
p6846
g0
(g1
g2
Ntp6847
Rp6848
(dp6849
g6
Nsg8
S'OTHER'
p6850
sg10
Nsg24
NsbsS'where'
p6851
g0
(g1
g2
Ntp6852
Rp6853
(dp6854
g6
Nsg8
g6844
sg10
Nsg24
Nsbssg24
NsbsS'wolverine'
p6855
g0
(g1
g2
Ntp6856
Rp6857
(dp6858
g6
Nsg8
S'OTHER'
p6859
sg10
Nsg24
NsbsS'fountain'
p6860
g0
(g1
g2
Ntp6861
Rp6862
(dp6863
g6
Nsg8
S'PERSON'
p6864
sg10
Nsg24
NsbsS'highway'
p6865
g0
(g1
g2
Ntp6866
Rp6867
(dp6868
g6
Nsg8
S'NUMBER'
p6869
sg10
Nsg24
NsbsS'lawrence'
p6870
g0
(g1
g2
Ntp6871
Rp6872
(dp6873
g6
Nsg8
S'OTHER'
p6874
sg10
Nsg24
NsbsS'pub'
p6875
g0
(g1
g2
Ntp6876
Rp6877
(dp6878
g6
Nsg8
S'PERSON'
p6879
sg10
Nsg24
NsbsS'basketball'
p6880
g0
(g1
g2
Ntp6881
Rp6882
(dp6883
g6
g16
sg8
S'NUMBER'
p6884
sg10
(dp6885
S'how'
p6886
g0
(g1
g2
Ntp6887
Rp6888
(dp6889
g6
Nsg8
S'NUMBER'
p6890
sg10
Nsg24
NsbsS'what'
p6891
g0
(g1
g2
Ntp6892
Rp6893
(dp6894
g6
Nsg8
S'PERSON'
p6895
sg10
Nsg24
Nsbssg24
NsbsS'put'
p6896
g0
(g1
g2
Ntp6897
Rp6898
(dp6899
g6
Nsg8
S'OTHER'
p6900
sg10
Nsg24
NsbsS'ash'
p6901
g0
(g1
g2
Ntp6902
Rp6903
(dp6904
g6
Nsg8
S'LOCATION'
p6905
sg10
Nsg24
NsbsS'prophet'
p6906
g0
(g1
g2
Ntp6907
Rp6908
(dp6909
g6
Nsg8
S'PERSON'
p6910
sg10
Nsg24
NsbsS'whitetail'
p6911
g0
(g1
g2
Ntp6912
Rp6913
(dp6914
g6
Nsg8
S'NUMBER'
p6915
sg10
Nsg24
NsbsS'american'
p6916
g0
(g1
g2
Ntp6917
Rp6918
(dp6919
g6
g16
sg8
S'LOCATION'
p6920
sg10
(dp6921
S'how'
p6922
g0
(g1
g2
Ntp6923
Rp6924
(dp6925
g6
Nsg8
S'TIME'
p6926
sg10
Nsg24
NsbsS'what'
p6927
g0
(g1
g2
Ntp6928
Rp6929
(dp6930
g6
Nsg8
S'LOCATION'
p6931
sg10
Nsg24
NsbsS'who'
p6932
g0
(g1
g2
Ntp6933
Rp6934
(dp6935
g6
Nsg8
S'PERSON'
p6936
sg10
Nsg24
NsbsS'when'
p6937
g0
(g1
g2
Ntp6938
Rp6939
(dp6940
g6
Nsg8
S'DATE'
p6941
sg10
Nsg24
Nsbssg24
NsbsS'threat'
p6942
g0
(g1
g2
Ntp6943
Rp6944
(dp6945
g6
Nsg8
S'OTHER'
p6946
sg10
Nsg24
NsbsS'twenty'
p6947
g0
(g1
g2
Ntp6948
Rp6949
(dp6950
g6
Nsg8
S'MONEY'
p6951
sg10
Nsg24
NsbsS'castle'
p6952
g0
(g1
g2
Ntp6953
Rp6954
(dp6955
g6
Nsg8
S'LOCATION'
p6956
sg10
Nsg24
NsbsS'superbowl'
p6957
g0
(g1
g2
Ntp6958
Rp6959
(dp6960
g6
Nsg8
S'PERSON'
p6961
sg10
Nsg24
NsbsS'fischer'
p6962
g0
(g1
g2
Ntp6963
Rp6964
(dp6965
g6
Nsg8
S'PERSON'
p6966
sg10
Nsg24
NsbsS'probability'
p6967
g0
(g1
g2
Ntp6968
Rp6969
(dp6970
g6
Nsg8
S'PERCENT'
p6971
sg10
Nsg24
NsbsS'guam'
p6972
g0
(g1
g2
Ntp6973
Rp6974
(dp6975
g6
Nsg8
S'LOCATION'
p6976
sg10
Nsg24
NsbsS'number'
p6977
g0
(g1
g2
Ntp6978
Rp6979
(dp6980
g6
Nsg8
S'NUMBER'
p6981
sg10
Nsg24
NsbsS'paine'
p6982
g0
(g1
g2
Ntp6983
Rp6984
(dp6985
g6
Nsg8
S'OTHER'
p6986
sg10
Nsg24
NsbsS'horse'
p6987
g0
(g1
g2
Ntp6988
Rp6989
(dp6990
g6
g16
sg8
S'LOCATION'
p6991
sg10
(dp6992
S'what'
p6993
g0
(g1
g2
Ntp6994
Rp6995
(dp6996
g6
Nsg8
S'OTHER'
p6997
sg10
Nsg24
NsbsS'where'
p6998
g0
(g1
g2
Ntp6999
Rp7000
(dp7001
g6
Nsg8
S'LOCATION'
p7002
sg10
Nsg24
NsbsS'the'
p7003
g0
(g1
g2
Ntp7004
Rp7005
(dp7006
g6
Nsg8
S'LOCATION'
p7007
sg10
Nsg24
Nsbssg24
NsbsS'temperature'
p7008
g0
(g1
g2
Ntp7009
Rp7010
(dp7011
g6
Nsg8
S'NUMBER'
p7012
sg10
Nsg24
NsbsS'automobile'
p7013
g0
(g1
g2
Ntp7014
Rp7015
(dp7016
g6
Nsg8
S'OTHER'
p7017
sg10
Nsg24
NsbsS'paint'
p7018
g0
(g1
g2
Ntp7019
Rp7020
(dp7021
g6
g16
sg8
S'NUMBER'
p7022
sg10
(dp7023
S'how'
p7024
g0
(g1
g2
Ntp7025
Rp7026
(dp7027
g6
Nsg8
S'NUMBER'
p7028
sg10
Nsg24
NsbsS'when'
p7029
g0
(g1
g2
Ntp7030
Rp7031
(dp7032
g6
Nsg8
S'DATE'
p7033
sg10
Nsg24
Nsbssg24
NsbsS'regulation'
p7034
g0
(g1
g2
Ntp7035
Rp7036
(dp7037
g6
Nsg8
S'NUMBER'
p7038
sg10
Nsg24
NsbsS'seafaring'
p7039
g0
(g1
g2
Ntp7040
Rp7041
(dp7042
g6
Nsg8
S'LOCATION'
p7043
sg10
Nsg24
NsbsS'storm'
p7044
g0
(g1
g2
Ntp7045
Rp7046
(dp7047
g6
Nsg8
S'DATE'
p7048
sg10
Nsg24
NsbsS'master'
p7049
g0
(g1
g2
Ntp7050
Rp7051
(dp7052
g6
Nsg8
S'PERSON'
p7053
sg10
Nsg24
NsbsS'syrup'
p7054
g0
(g1
g2
Ntp7055
Rp7056
(dp7057
g6
Nsg8
S'OTHER'
p7058
sg10
Nsg24
NsbsS'saint'
p7059
g0
(g1
g2
Ntp7060
Rp7061
(dp7062
g6
g16
sg8
S'LOCATION'
p7063
sg10
(dp7064
S'what'
p7065
g0
(g1
g2
Ntp7066
Rp7067
(dp7068
g6
Nsg8
S'OTHER'
p7069
sg10
Nsg24
NsbsS'where'
p7070
g0
(g1
g2
Ntp7071
Rp7072
(dp7073
g6
Nsg8
g7063
sg10
Nsg24
Nsbssg24
NsbsS'hotel'
p7074
g0
(g1
g2
Ntp7075
Rp7076
(dp7077
g6
Nsg8
S'LOCATION'
p7078
sg10
Nsg24
NsbsS'park'
p7079
g0
(g1
g2
Ntp7080
Rp7081
(dp7082
g6
Nsg8
S'LOCATION'
p7083
sg10
Nsg24
NsbsS'part'
p7084
g0
(g1
g2
Ntp7085
Rp7086
(dp7087
g6
g16
sg8
S'PERSON'
p7088
sg10
(dp7089
S'what'
p7090
g0
(g1
g2
Ntp7091
Rp7092
(dp7093
g6
Nsg8
S'OTHER'
p7094
sg10
Nsg24
NsbsS'who'
p7095
g0
(g1
g2
Ntp7096
Rp7097
(dp7098
g6
Nsg8
S'PERSON'
p7099
sg10
Nsg24
NsbsS'in what'
p7100
g0
(g1
g2
Ntp7101
Rp7102
(dp7103
g6
Nsg8
S'LOCATION'
p7104
sg10
Nsg24
Nsbssg24
NsbsS'zeppelin'
p7105
g0
(g1
g2
Ntp7106
Rp7107
(dp7108
g6
Nsg8
S'NUMBER'
p7109
sg10
Nsg24
NsbsS'translation'
p7110
g0
(g1
g2
Ntp7111
Rp7112
(dp7113
g6
Nsg8
S'OTHER'
p7114
sg10
Nsg24
NsbsS'believe'
p7115
g0
(g1
g2
Ntp7116
Rp7117
(dp7118
g6
Nsg8
S'DATE'
p7119
sg10
Nsg24
NsbsS'percentage'
p7120
g0
(g1
g2
Ntp7121
Rp7122
(dp7123
g6
Nsg8
S'PERCENT'
p7124
sg10
Nsg24
NsbsS'surfboard'
p7125
g0
(g1
g2
Ntp7126
Rp7127
(dp7128
g6
Nsg8
S'PERSON'
p7129
sg10
Nsg24
NsbsS'king'
p7130
g0
(g1
g2
Ntp7131
Rp7132
(dp7133
g6
g16
sg8
S'PERSON'
p7134
sg10
(dp7135
S'how'
p7136
g0
(g1
g2
Ntp7137
Rp7138
(dp7139
g6
Nsg8
S'NUMBER'
p7140
sg10
Nsg24
NsbsS'what'
p7141
g0
(g1
g2
Ntp7142
Rp7143
(dp7144
g6
Nsg8
S'PERSON'
p7145
sg10
Nsg24
NsbsS'who'
p7146
g0
(g1
g2
Ntp7147
Rp7148
(dp7149
g6
Nsg8
S'PERSON'
p7150
sg10
Nsg24
Nsbssg24
NsbsS'kind'
p7151
g0
(g1
g2
Ntp7152
Rp7153
(dp7154
g6
Nsg8
S'OTHER'
p7155
sg10
Nsg24
NsbsS'architect'
p7156
g0
(g1
g2
Ntp7157
Rp7158
(dp7159
g6
Nsg8
S'PERSON'
p7160
sg10
Nsg24
NsbsS'dana'
p7161
g0
(g1
g2
Ntp7162
Rp7163
(dp7164
g6
Nsg8
S'PERSON'
p7165
sg10
Nsg24
NsbsS'nominee'
p7166
g0
(g1
g2
Ntp7167
Rp7168
(dp7169
g6
Nsg8
S'PERSON'
p7170
sg10
Nsg24
NsbsS'pedometer'
p7171
g0
(g1
g2
Ntp7172
Rp7173
(dp7174
g6
Nsg8
S'OTHER'
p7175
sg10
Nsg24
NsbsS'antarctica'
p7176
g0
(g1
g2
Ntp7177
Rp7178
(dp7179
g6
Nsg8
S'OTHER'
p7180
sg10
Nsg24
NsbsS'concentration'
p7181
g0
(g1
g2
Ntp7182
Rp7183
(dp7184
g6
g16
sg8
S'LOCATION'
p7185
sg10
(dp7186
S'how'
p7187
g0
(g1
g2
Ntp7188
Rp7189
(dp7190
g6
Nsg8
S'NUMBER'
p7191
sg10
Nsg24
NsbsS'where'
p7192
g0
(g1
g2
Ntp7193
Rp7194
(dp7195
g6
Nsg8
g7185
sg10
Nsg24
Nsbssg24
NsbsS'mountain'
p7196
g0
(g1
g2
Ntp7197
Rp7198
(dp7199
g6
g16
sg8
S'LOCATION'
p7200
sg10
(dp7201
S'how'
p7202
g0
(g1
g2
Ntp7203
Rp7204
(dp7205
g6
Nsg8
S'NUMBER'
p7206
sg10
Nsg24
NsbsS'what'
p7207
g0
(g1
g2
Ntp7208
Rp7209
(dp7210
g6
Nsg8
S'LOCATION'
p7211
sg10
Nsg24
Nsbssg24
NsbsS'fiji'
p7212
g0
(g1
g2
Ntp7213
Rp7214
(dp7215
g6
Nsg8
S'NUMBER'
p7216
sg10
Nsg24
NsbsS'cherokee'
p7217
g0
(g1
g2
Ntp7218
Rp7219
(dp7220
g6
Nsg8
S'PERSON'
p7221
sg10
Nsg24
NsbsS'scotland'
p7222
g0
(g1
g2
Ntp7223
Rp7224
(dp7225
g6
Nsg8
S'LOCATION'
p7226
sg10
Nsg24
NsbsS'caesar'
p7227
g0
(g1
g2
Ntp7228
Rp7229
(dp7230
g6
Nsg8
S'PERSON'
p7231
sg10
Nsg24
NsbsS'depression'
p7232
g0
(g1
g2
Ntp7233
Rp7234
(dp7235
g6
Nsg8
S'DATE'
p7236
sg10
Nsg24
NsbsS'sondheim'
p7237
g0
(g1
g2
Ntp7238
Rp7239
(dp7240
g6
Nsg8
S'OTHER'
p7241
sg10
Nsg24
NsbsS'province'
p7242
g0
(g1
g2
Ntp7243
Rp7244
(dp7245
g6
Nsg8
S'LOCATION'
p7246
sg10
Nsg24
NsbsS'play'
p7247
g0
(g1
g2
Ntp7248
Rp7249
(dp7250
g6
Nsg8
S'OTHER'
p7251
sg10
Nsg24
NsbsS'godfather'
p7252
g0
(g1
g2
Ntp7253
Rp7254
(dp7255
g6
Nsg8
S'PERSON'
p7256
sg10
Nsg24
NsbsS'twirl'
p7257
g0
(g1
g2
Ntp7258
Rp7259
(dp7260
g6
Nsg8
S'OTHER'
p7261
sg10
Nsg24
NsbsS'eruption'
p7262
g0
(g1
g2
Ntp7263
Rp7264
(dp7265
g6
Nsg8
S'DATE'
p7266
sg10
Nsg24
NsbsS'cigarette'
p7267
g0
(g1
g2
Ntp7268
Rp7269
(dp7270
g6
Nsg8
S'PERSON'
p7271
sg10
Nsg24
NsbsS'nothing'
p7272
g0
(g1
g2
Ntp7273
Rp7274
(dp7275
g6
Nsg8
S'PERSON'
p7276
sg10
Nsg24
NsbsS'eskimo'
p7277
g0
(g1
g2
Ntp7278
Rp7279
(dp7280
g6
Nsg8
S'NUMBER'
p7281
sg10
Nsg24
NsbsS'oyster'
p7282
g0
(g1
g2
Ntp7283
Rp7284
(dp7285
g6
Nsg8
S'NUMBER'
p7286
sg10
Nsg24
NsbsS'salary'
p7287
g0
(g1
g2
Ntp7288
Rp7289
(dp7290
g6
Nsg8
S'MONEY'
p7291
sg10
Nsg24
NsbsS'rockefeller'
p7292
g0
(g1
g2
Ntp7293
Rp7294
(dp7295
g6
Nsg8
S'DATE'
p7296
sg10
Nsg24
NsbsS'bullseye'
p7297
g0
(g1
g2
Ntp7298
Rp7299
(dp7300
g6
Nsg8
S'NUMBER'
p7301
sg10
Nsg24
NsbsS'ku'
p7302
g0
(g1
g2
Ntp7303
Rp7304
(dp7305
g6
Nsg8
S'PERSON'
p7306
sg10
Nsg24
NsbsS'husband-and-wife'
p7307
g0
(g1
g2
Ntp7308
Rp7309
(dp7310
g6
Nsg8
S'PERSON'
p7311
sg10
Nsg24
NsbsS'thomas'
p7312
g0
(g1
g2
Ntp7313
Rp7314
(dp7315
g6
Nsg8
S'LOCATION'
p7316
sg10
Nsg24
NsbsS'golf'
p7317
g0
(g1
g2
Ntp7318
Rp7319
(dp7320
g6
Nsg8
S'OTHER'
p7321
sg10
Nsg24
NsbsS'phenomenon'
p7322
g0
(g1
g2
Ntp7323
Rp7324
(dp7325
g6
Nsg8
S'OTHER'
p7326
sg10
Nsg24
NsbsS'gold'
p7327
g0
(g1
g2
Ntp7328
Rp7329
(dp7330
g6
g16
sg8
S'PERSON'
p7331
sg10
(dp7332
S'what'
p7333
g0
(g1
g2
Ntp7334
Rp7335
(dp7336
g6
Nsg8
S'OTHER'
p7337
sg10
Nsg24
NsbsS'who'
p7338
g0
(g1
g2
Ntp7339
Rp7340
(dp7341
g6
Nsg8
S'PERSON'
p7342
sg10
Nsg24
Nsbssg24
NsbsS'kosovo'
p7343
g0
(g1
g2
Ntp7344
Rp7345
(dp7346
g6
Nsg8
S'LOCATION'
p7347
sg10
Nsg24
NsbsS'vader'
p7348
g0
(g1
g2
Ntp7349
Rp7350
(dp7351
g6
Nsg8
S'PERSON'
p7352
sg10
Nsg24
NsbsS'fine'
p7353
g0
(g1
g2
Ntp7354
Rp7355
(dp7356
g6
Nsg8
S'MONEY'
p7357
sg10
Nsg24
NsbsS'occupation'
p7358
g0
(g1
g2
Ntp7359
Rp7360
(dp7361
g6
Nsg8
S'PERSON'
p7362
sg10
Nsg24
NsbsS'ruin'
p7363
g0
(g1
g2
Ntp7364
Rp7365
(dp7366
g6
Nsg8
S'OTHER'
p7367
sg10
Nsg24
NsbsS'writer'
p7368
g0
(g1
g2
Ntp7369
Rp7370
(dp7371
g6
Nsg8
S'PERSON'
p7372
sg10
Nsg24
NsbsS'grace'
p7373
g0
(g1
g2
Ntp7374
Rp7375
(dp7376
g6
Nsg8
S'OTHER'
p7377
sg10
Nsg24
NsbsS'penalty'
p7378
g0
(g1
g2
Ntp7379
Rp7380
(dp7381
g6
Nsg8
S'OTHER'
p7382
sg10
Nsg24
NsbsS'wayne'
p7383
g0
(g1
g2
Ntp7384
Rp7385
(dp7386
g6
Nsg8
S'PERSON'
p7387
sg10
Nsg24
NsbsS'bernstein'
p7388
g0
(g1
g2
Ntp7389
Rp7390
(dp7391
g6
Nsg8
S'PERSON'
p7392
sg10
Nsg24
NsbsS'founding'
p7393
g0
(g1
g2
Ntp7394
Rp7395
(dp7396
g6
Nsg8
S'PERSON'
p7397
sg10
Nsg24
NsbsS'hiv'
p7398
g0
(g1
g2
Ntp7399
Rp7400
(dp7401
g6
Nsg8
S'NUMBER'
p7402
sg10
Nsg24
NsbsS'ferret'
p7403
g0
(g1
g2
Ntp7404
Rp7405
(dp7406
g6
Nsg8
S'TIME'
p7407
sg10
Nsg24
NsbsS'longest'
p7408
g0
(g1
g2
Ntp7409
Rp7410
(dp7411
g6
Nsg8
S'OTHER'
p7412
sg10
Nsg24
NsbsS'banner'
p7413
g0
(g1
g2
Ntp7414
Rp7415
(dp7416
g6
Nsg8
S'DATE'
p7417
sg10
Nsg24
NsbsS'alexander'
p7418
g0
(g1
g2
Ntp7419
Rp7420
(dp7421
g6
Nsg8
S'PERSON'
p7422
sg10
Nsg24
NsbsS'enemy'
p7423
g0
(g1
g2
Ntp7424
Rp7425
(dp7426
g6
Nsg8
S'PERSON'
p7427
sg10
Nsg24
NsbsS'warmup'
p7428
g0
(g1
g2
Ntp7429
Rp7430
(dp7431
g6
Nsg8
S'NUMBER'
p7432
sg10
Nsg24
NsbsS'fuel'
p7433
g0
(g1
g2
Ntp7434
Rp7435
(dp7436
g6
Nsg8
S'OTHER'
p7437
sg10
Nsg24
NsbsS'corgi'
p7438
g0
(g1
g2
Ntp7439
Rp7440
(dp7441
g6
Nsg8
S'OTHER'
p7442
sg10
Nsg24
NsbsS'vincent'
p7443
g0
(g1
g2
Ntp7444
Rp7445
(dp7446
g6
g16
sg8
S'NUMBER'
p7447
sg10
(dp7448
S'how'
p7449
g0
(g1
g2
Ntp7450
Rp7451
(dp7452
g6
Nsg8
g7447
sg10
Nsg24
NsbsS'what'
p7453
g0
(g1
g2
Ntp7454
Rp7455
(dp7456
g6
Nsg8
S'OTHER'
p7457
sg10
Nsg24
NsbsS'who'
p7458
g0
(g1
g2
Ntp7459
Rp7460
(dp7461
g6
Nsg8
S'PERSON'
p7462
sg10
Nsg24
Nsbssg24
NsbsS'river'
p7463
g0
(g1
g2
Ntp7464
Rp7465
(dp7466
g6
Nsg8
S'LOCATION'
p7467
sg10
Nsg24
NsbsS'orca'
p7468
g0
(g1
g2
Ntp7469
Rp7470
(dp7471
g6
Nsg8
S'OTHER'
p7472
sg10
Nsg24
NsbsS'art'
p7473
g0
(g1
g2
Ntp7474
Rp7475
(dp7476
g6
g16
sg8
S'DATE'
p7477
sg10
(dp7478
S'what'
p7479
g0
(g1
g2
Ntp7480
Rp7481
(dp7482
g6
Nsg8
S'PERSON'
p7483
sg10
Nsg24
NsbsS'when'
p7484
g0
(g1
g2
Ntp7485
Rp7486
(dp7487
g6
Nsg8
S'DATE'
p7488
sg10
Nsg24
Nsbssg24
NsbsS'creator'
p7489
g0
(g1
g2
Ntp7490
Rp7491
(dp7492
g6
Nsg8
S'PERSON'
p7493
sg10
Nsg24
NsbsS'appalachian'
p7494
g0
(g1
g2
Ntp7495
Rp7496
(dp7497
g6
Nsg8
S'TIME'
p7498
sg10
Nsg24
NsbsS'sex'
p7499
g0
(g1
g2
Ntp7500
Rp7501
(dp7502
g6
Nsg8
S'OTHER'
p7503
sg10
Nsg24
NsbsS'culture'
p7504
g0
(g1
g2
Ntp7505
Rp7506
(dp7507
g6
Nsg8
S'PERSON'
p7508
sg10
Nsg24
NsbsS'lion'
p7509
g0
(g1
g2
Ntp7510
Rp7511
(dp7512
g6
Nsg8
S'PERSON'
p7513
sg10
Nsg24
NsbsS'individual'
p7514
g0
(g1
g2
Ntp7515
Rp7516
(dp7517
g6
Nsg8
S'LOCATION'
p7518
sg10
Nsg24
NsbsS'sea'
p7519
g0
(g1
g2
Ntp7520
Rp7521
(dp7522
g6
Nsg8
S'LOCATION'
p7523
sg10
Nsg24
NsbsS'constellation'
p7524
g0
(g1
g2
Ntp7525
Rp7526
(dp7527
g6
Nsg8
S'LOCATION'
p7528
sg10
Nsg24
NsbsS'guinea'
p7529
g0
(g1
g2
Ntp7530
Rp7531
(dp7532
g6
g16
sg8
S'NUMBER'
p7533
sg10
(dp7534
S'how'
p7535
g0
(g1
g2
Ntp7536
Rp7537
(dp7538
g6
Nsg8
g7533
sg10
Nsg24
NsbsS'where'
p7539
g0
(g1
g2
Ntp7540
Rp7541
(dp7542
g6
Nsg8
S'LOCATION'
p7543
sg10
Nsg24
Nsbssg24
NsbsS'exchange'
p7544
g0
(g1
g2
Ntp7545
Rp7546
(dp7547
g6
Nsg8
S'MONEY'
p7548
sg10
Nsg24
NsbsS'crossword'
p7549
g0
(g1
g2
Ntp7550
Rp7551
(dp7552
g6
Nsg8
S'NUMBER'
p7553
sg10
Nsg24
NsbsS'won'
p7554
g0
(g1
g2
Ntp7555
Rp7556
(dp7557
g6
Nsg8
S'PERSON'
p7558
sg10
Nsg24
NsbsS'marriage'
p7559
g0
(g1
g2
Ntp7560
Rp7561
(dp7562
g6
Nsg8
S'OTHER'
p7563
sg10
Nsg24
NsbsS'europe'
p7564
g0
(g1
g2
Ntp7565
Rp7566
(dp7567
g6
g16
sg8
S'LOCATION'
p7568
sg10
(dp7569
S'how'
p7570
g0
(g1
g2
Ntp7571
Rp7572
(dp7573
g6
Nsg8
S'NUMBER'
p7574
sg10
Nsg24
NsbsS'what'
p7575
g0
(g1
g2
Ntp7576
Rp7577
(dp7578
g6
Nsg8
g7568
sg10
Nsg24
Nsbssg24
NsbsS'latin'
p7579
g0
(g1
g2
Ntp7580
Rp7581
(dp7582
g6
Nsg8
S'OTHER'
p7583
sg10
Nsg24
NsbsS'incident'
p7584
g0
(g1
g2
Ntp7585
Rp7586
(dp7587
g6
Nsg8
S'OTHER'
p7588
sg10
Nsg24
NsbsS'conservationist'
p7589
g0
(g1
g2
Ntp7590
Rp7591
(dp7592
g6
Nsg8
S'PERSON'
p7593
sg10
Nsg24
NsbsS'tristar'
p7594
g0
(g1
g2
Ntp7595
Rp7596
(dp7597
g6
Nsg8
S'NUMBER'
p7598
sg10
Nsg24
NsbsS'league'
p7599
g0
(g1
g2
Ntp7600
Rp7601
(dp7602
g6
Nsg8
S'PERSON'
p7603
sg10
Nsg24
NsbsS'c'
p7604
g0
(g1
g2
Ntp7605
Rp7606
(dp7607
g6
Nsg8
S'NUMBER'
p7608
sg10
Nsg24
NsbsS'restaurant'
p7609
g0
(g1
g2
Ntp7610
Rp7611
(dp7612
g6
Nsg8
S'LOCATION'
p7613
sg10
Nsg24
NsbsS'patti'
p7614
g0
(g1
g2
Ntp7615
Rp7616
(dp7617
g6
Nsg8
S'OTHER'
p7618
sg10
Nsg24
NsbsS'connection'
p7619
g0
(g1
g2
Ntp7620
Rp7621
(dp7622
g6
Nsg8
S'OTHER'
p7623
sg10
Nsg24
NsbsS'baseball'
p7624
g0
(g1
g2
Ntp7625
Rp7626
(dp7627
g6
g16
sg8
S'PERSON'
p7628
sg10
(dp7629
S'how'
p7630
g0
(g1
g2
Ntp7631
Rp7632
(dp7633
g6
Nsg8
S'NUMBER'
p7634
sg10
Nsg24
NsbsS'what'
p7635
g0
(g1
g2
Ntp7636
Rp7637
(dp7638
g6
Nsg8
S'PERSON'
p7639
sg10
Nsg24
Nsbssg24
NsbsS'prankster'
p7640
g0
(g1
g2
Ntp7641
Rp7642
(dp7643
g6
Nsg8
S'PERSON'
p7644
sg10
Nsg24
NsbsS'point'
p7645
g0
(g1
g2
Ntp7646
Rp7647
(dp7648
g6
Nsg8
S'LOCATION'
p7649
sg10
Nsg24
NsbsS'community'
p7650
g0
(g1
g2
Ntp7651
Rp7652
(dp7653
g6
Nsg8
S'TIME'
p7654
sg10
Nsg24
NsbsS'lake'
p7655
g0
(g1
g2
Ntp7656
Rp7657
(dp7658
g6
Nsg8
S'LOCATION'
p7659
sg10
Nsg24
NsbsS'tennessee'
p7660
g0
(g1
g2
Ntp7661
Rp7662
(dp7663
g6
Nsg8
S'OTHER'
p7664
sg10
Nsg24
NsbsS'church'
p7665
g0
(g1
g2
Ntp7666
Rp7667
(dp7668
g6
Nsg8
S'OTHER'
p7669
sg10
Nsg24
NsbsS'belt'
p7670
g0
(g1
g2
Ntp7671
Rp7672
(dp7673
g6
Nsg8
S'OTHER'
p7674
sg10
Nsg24
NsbsS'stamp'
p7675
g0
(g1
g2
Ntp7676
Rp7677
(dp7678
g6
Nsg8
S'MONEY'
p7679
sg10
Nsg24
NsbsS'trilogy'
p7680
g0
(g1
g2
Ntp7681
Rp7682
(dp7683
g6
Nsg8
S'PERSON'
p7684
sg10
Nsg24
NsbsS'secret'
p7685
g0
(g1
g2
Ntp7686
Rp7687
(dp7688
g6
Nsg8
S'PERSON'
p7689
sg10
Nsg24
NsbsS'ireland'
p7690
g0
(g1
g2
Ntp7691
Rp7692
(dp7693
g6
Nsg8
S'OTHER'
p7694
sg10
Nsg24
NsbsS'territory'
p7695
g0
(g1
g2
Ntp7696
Rp7697
(dp7698
g6
Nsg8
S'LOCATION'
p7699
sg10
Nsg24
NsbsS'meeting'
p7700
g0
(g1
g2
Ntp7701
Rp7702
(dp7703
g6
Nsg8
S'LOCATION'
p7704
sg10
Nsg24
NsbsS'resting'
p7705
g0
(g1
g2
Ntp7706
Rp7707
(dp7708
g6
Nsg8
S'NUMBER'
p7709
sg10
Nsg24
NsbsS'dialogue'
p7710
g0
(g1
g2
Ntp7711
Rp7712
(dp7713
g6
Nsg8
S'OTHER'
p7714
sg10
Nsg24
NsbsS'flight'
p7715
g0
(g1
g2
Ntp7716
Rp7717
(dp7718
g6
Nsg8
S'OTHER'
p7719
sg10
Nsg24
NsbsS'honorary'
p7720
g0
(g1
g2
Ntp7721
Rp7722
(dp7723
g6
Nsg8
S'PERSON'
p7724
sg10
Nsg24
NsbsS'gas'
p7725
g0
(g1
g2
Ntp7726
Rp7727
(dp7728
g6
g16
sg8
S'PERSON'
p7729
sg10
(dp7730
S'what'
p7731
g0
(g1
g2
Ntp7732
Rp7733
(dp7734
g6
Nsg8
S'OTHER'
p7735
sg10
Nsg24
NsbsS'who'
p7736
g0
(g1
g2
Ntp7737
Rp7738
(dp7739
g6
Nsg8
g7729
sg10
Nsg24
Nsbssg24
NsbsS'mine'
p7740
g0
(g1
g2
Ntp7741
Rp7742
(dp7743
g6
Nsg8
S'OTHER'
p7744
sg10
Nsg24
NsbsS'folklore'
p7745
g0
(g1
g2
Ntp7746
Rp7747
(dp7748
g6
Nsg8
S'OTHER'
p7749
sg10
Nsg24
NsbsS'hamill'
p7750
g0
(g1
g2
Ntp7751
Rp7752
(dp7753
g6
Nsg8
S'PERSON'
p7754
sg10
Nsg24
NsbsS'georgia'
p7755
g0
(g1
g2
Ntp7756
Rp7757
(dp7758
g6
Nsg8
S'LOCATION'
p7759
sg10
Nsg24
NsbsS'look'
p7760
g0
(g1
g2
Ntp7761
Rp7762
(dp7763
g6
g16
sg8
S'PERSON'
p7764
sg10
(dp7765
S'who'
p7766
g0
(g1
g2
Ntp7767
Rp7768
(dp7769
g6
Nsg8
S'PERSON'
p7770
sg10
Nsg24
NsbsS'where'
p7771
g0
(g1
g2
Ntp7772
Rp7773
(dp7774
g6
Nsg8
S'LOCATION'
p7775
sg10
Nsg24
Nsbssg24
NsbsS'frozen'
p7776
g0
(g1
g2
Ntp7777
Rp7778
(dp7779
g6
Nsg8
S'OTHER'
p7780
sg10
Nsg24
NsbsS'bill'
p7781
g0
(g1
g2
Ntp7782
Rp7783
(dp7784
g6
g16
sg8
S'PERSON'
p7785
sg10
(dp7786
S'how'
p7787
g0
(g1
g2
Ntp7788
Rp7789
(dp7790
g6
Nsg8
S'NUMBER'
p7791
sg10
Nsg24
NsbsS'what'
p7792
g0
(g1
g2
Ntp7793
Rp7794
(dp7795
g6
Nsg8
S'LOCATION'
p7796
sg10
Nsg24
NsbsS'who'
p7797
g0
(g1
g2
Ntp7798
Rp7799
(dp7800
g6
Nsg8
g7785
sg10
Nsg24
NsbsS'when'
p7801
g0
(g1
g2
Ntp7802
Rp7803
(dp7804
g6
Nsg8
S'DATE'
p7805
sg10
Nsg24
NsbsS'where'
p7806
g0
(g1
g2
Ntp7807
Rp7808
(dp7809
g6
Nsg8
S'LOCATION'
p7810
sg10
Nsg24
Nsbssg24
NsbsS'governor'
p7811
g0
(g1
g2
Ntp7812
Rp7813
(dp7814
g6
Nsg8
S'PERSON'
p7815
sg10
Nsg24
NsbsS'loop'
p7816
g0
(g1
g2
Ntp7817
Rp7818
(dp7819
g6
Nsg8
S'LOCATION'
p7820
sg10
Nsg24
NsbsS'pound'
p7821
g0
(g1
g2
Ntp7822
Rp7823
(dp7824
g6
Nsg8
S'NUMBER'
p7825
sg10
Nsg24
NsbsS'century'
p7826
g0
(g1
g2
Ntp7827
Rp7828
(dp7829
g6
g16
sg8
S'PERSON'
p7830
sg10
(dp7831
S'what'
p7832
g0
(g1
g2
Ntp7833
Rp7834
(dp7835
g6
Nsg8
S'DATE'
p7836
sg10
Nsg24
NsbsS'who'
p7837
g0
(g1
g2
Ntp7838
Rp7839
(dp7840
g6
Nsg8
S'PERSON'
p7841
sg10
Nsg24
Nsbssg24
NsbsS'triple'
p7842
g0
(g1
g2
Ntp7843
Rp7844
(dp7845
g6
Nsg8
S'PERSON'
p7846
sg10
Nsg24
NsbsS'eczema'
p7847
g0
(g1
g2
Ntp7848
Rp7849
(dp7850
g6
Nsg8
S'OTHER'
p7851
sg10
Nsg24
NsbsS'monroe'
p7852
g0
(g1
g2
Ntp7853
Rp7854
(dp7855
g6
Nsg8
S'PERSON'
p7856
sg10
Nsg24
NsbsS'barney'
p7857
g0
(g1
g2
Ntp7858
Rp7859
(dp7860
g6
Nsg8
S'LOCATION'
p7861
sg10
Nsg24
NsbsS'fraze'
p7862
g0
(g1
g2
Ntp7863
Rp7864
(dp7865
g6
Nsg8
S'DATE'
p7866
sg10
Nsg24
NsbsS'liston'
p7867
g0
(g1
g2
Ntp7868
Rp7869
(dp7870
g6
Nsg8
S'PERSON'
p7871
sg10
Nsg24
NsbsS'grand'
p7872
g0
(g1
g2
Ntp7873
Rp7874
(dp7875
g6
Nsg8
S'OTHER'
p7876
sg10
Nsg24
NsbsS'ruth'
p7877
g0
(g1
g2
Ntp7878
Rp7879
(dp7880
g6
g16
sg8
S'PERSON'
p7881
sg10
(dp7882
S'what'
p7883
g0
(g1
g2
Ntp7884
Rp7885
(dp7886
g6
Nsg8
g7881
sg10
Nsg24
NsbsS'when'
p7887
g0
(g1
g2
Ntp7888
Rp7889
(dp7890
g6
Nsg8
S'DATE'
p7891
sg10
Nsg24
Nsbssg24
NsbsS'composition'
p7892
g0
(g1
g2
Ntp7893
Rp7894
(dp7895
g6
Nsg8
S'OTHER'
p7896
sg10
Nsg24
NsbsS'yalta'
p7897
g0
(g1
g2
Ntp7898
Rp7899
(dp7900
g6
Nsg8
S'OTHER'
p7901
sg10
Nsg24
NsbsS'dime'
p7902
g0
(g1
g2
Ntp7903
Rp7904
(dp7905
g6
Nsg8
S'NUMBER'
p7906
sg10
Nsg24
NsbsS'huston'
p7907
g0
(g1
g2
Ntp7908
Rp7909
(dp7910
g6
Nsg8
S'OTHER'
p7911
sg10
Nsg24
NsbsS'backstreet'
p7912
g0
(g1
g2
Ntp7913
Rp7914
(dp7915
g6
Nsg8
S'PERSON'
p7916
sg10
Nsg24
NsbsS'nickname'
p7917
g0
(g1
g2
Ntp7918
Rp7919
(dp7920
g6
Nsg8
S'PERSON'
p7921
sg10
Nsg24
NsbsS'bob'
p7922
g0
(g1
g2
Ntp7923
Rp7924
(dp7925
g6
Nsg8
S'OTHER'
p7926
sg10
Nsg24
NsbsS'beanie'
p7927
g0
(g1
g2
Ntp7928
Rp7929
(dp7930
g6
Nsg8
S'NUMBER'
p7931
sg10
Nsg24
NsbsS'task'
p7932
g0
(g1
g2
Ntp7933
Rp7934
(dp7935
g6
Nsg8
S'PERSON'
p7936
sg10
Nsg24
NsbsS'database'
p7937
g0
(g1
g2
Ntp7938
Rp7939
(dp7940
g6
Nsg8
S'NUMBER'
p7941
sg10
Nsg24
NsbsS'analysis'
p7942
g0
(g1
g2
Ntp7943
Rp7944
(dp7945
g6
Nsg8
S'OTHER'
p7946
sg10
Nsg24
NsbsS'person'
p7947
g0
(g1
g2
Ntp7948
Rp7949
(dp7950
g6
g16
sg8
S'PERSON'
p7951
sg10
(dp7952
S'how'
p7953
g0
(g1
g2
Ntp7954
Rp7955
(dp7956
g6
Nsg8
S'TIME'
p7957
sg10
Nsg24
NsbsS'what'
p7958
g0
(g1
g2
Ntp7959
Rp7960
(dp7961
g6
Nsg8
S'PERSON'
p7962
sg10
Nsg24
NsbsS'who'
p7963
g0
(g1
g2
Ntp7964
Rp7965
(dp7966
g6
Nsg8
S'PERSON'
p7967
sg10
Nsg24
NsbsS'where'
p7968
g0
(g1
g2
Ntp7969
Rp7970
(dp7971
g6
Nsg8
S'LOCATION'
p7972
sg10
Nsg24
Nsbssg24
NsbsS'moby'
p7973
g0
(g1
g2
Ntp7974
Rp7975
(dp7976
g6
Nsg8
S'PERSON'
p7977
sg10
Nsg24
NsbsS'swiss'
p7978
g0
(g1
g2
Ntp7979
Rp7980
(dp7981
g6
Nsg8
S'LOCATION'
p7982
sg10
Nsg24
NsbsS'organization'
p7983
g0
(g1
g2
Ntp7984
Rp7985
(dp7986
g6
Nsg8
S'PERSON'
p7987
sg10
Nsg24
NsbsS'ozzie'
p7988
g0
(g1
g2
Ntp7989
Rp7990
(dp7991
g6
Nsg8
S'PERSON'
p7992
sg10
Nsg24
NsbsS'doody'
p7993
g0
(g1
g2
Ntp7994
Rp7995
(dp7996
g6
Nsg8
S'NUMBER'
p7997
sg10
Nsg24
NsbsS'ambassador'
p7998
g0
(g1
g2
Ntp7999
Rp8000
(dp8001
g6
g16
sg8
S'DATE'
p8002
sg10
(dp8003
S'who'
p8004
g0
(g1
g2
Ntp8005
Rp8006
(dp8007
g6
Nsg8
S'PERSON'
p8008
sg10
Nsg24
NsbsS'when'
p8009
g0
(g1
g2
Ntp8010
Rp8011
(dp8012
g6
Nsg8
g8002
sg10
Nsg24
Nsbssg24
NsbsS'livestock'
p8013
g0
(g1
g2
Ntp8014
Rp8015
(dp8016
g6
Nsg8
S'OTHER'
p8017
sg10
Nsg24
NsbsS'shape'
p8018
g0
(g1
g2
Ntp8019
Rp8020
(dp8021
g6
Nsg8
S'OTHER'
p8022
sg10
Nsg24
NsbsS'matterhorn'
p8023
g0
(g1
g2
Ntp8024
Rp8025
(dp8026
g6
Nsg8
S'NUMBER'
p8027
sg10
Nsg24
NsbsS'prince'
p8028
g0
(g1
g2
Ntp8029
Rp8030
(dp8031
g6
g16
sg8
S'PERSON'
p8032
sg10
(dp8033
S'how'
p8034
g0
(g1
g2
Ntp8035
Rp8036
(dp8037
g6
Nsg8
S'NUMBER'
p8038
sg10
Nsg24
NsbsS'what'
p8039
g0
(g1
g2
Ntp8040
Rp8041
(dp8042
g6
Nsg8
g8032
sg10
Nsg24
Nsbssg24
NsbsS'wage'
p8043
g0
(g1
g2
Ntp8044
Rp8045
(dp8046
g6
Nsg8
S'MONEY'
p8047
sg10
Nsg24
NsbsS'alternate'
p8048
g0
(g1
g2
Ntp8049
Rp8050
(dp8051
g6
Nsg8
S'OTHER'
p8052
sg10
Nsg24
NsbsS'zadora'
p8053
g0
(g1
g2
Ntp8054
Rp8055
(dp8056
g6
Nsg8
S'PERSON'
p8057
sg10
Nsg24
NsbsS'source'
p8058
g0
(g1
g2
Ntp8059
Rp8060
(dp8061
g6
Nsg8
S'OTHER'
p8062
sg10
Nsg24
NsbsS'location'
p8063
g0
(g1
g2
Ntp8064
Rp8065
(dp8066
g6
Nsg8
S'LOCATION'
p8067
sg10
Nsg24
NsbsS'circumcision'
p8068
g0
(g1
g2
Ntp8069
Rp8070
(dp8071
g6
Nsg8
S'OTHER'
p8072
sg10
Nsg24
NsbsS'niece'
p8073
g0
(g1
g2
Ntp8074
Rp8075
(dp8076
g6
Nsg8
S'PERSON'
p8077
sg10
Nsg24
NsbsS'australia'
p8078
g0
(g1
g2
Ntp8079
Rp8080
(dp8081
g6
g16
sg8
S'OTHER'
p8082
sg10
(dp8083
S'how'
p8084
g0
(g1
g2
Ntp8085
Rp8086
(dp8087
g6
Nsg8
S'NUMBER'
p8088
sg10
Nsg24
NsbsS'what'
p8089
g0
(g1
g2
Ntp8090
Rp8091
(dp8092
g6
Nsg8
g8082
sg10
Nsg24
Nsbssg24
NsbsS'march'
p8093
g0
(g1
g2
Ntp8094
Rp8095
(dp8096
g6
g16
sg8
S'OTHER'
p8097
sg10
(dp8098
S'how'
p8099
g0
(g1
g2
Ntp8100
Rp8101
(dp8102
g6
Nsg8
S'NUMBER'
p8103
sg10
Nsg24
NsbsS'what'
p8104
g0
(g1
g2
Ntp8105
Rp8106
(dp8107
g6
Nsg8
g8097
sg10
Nsg24
Nsbssg24
NsbsS'bid'
p8108
g0
(g1
g2
Ntp8109
Rp8110
(dp8111
g6
Nsg8
S'OTHER'
p8112
sg10
Nsg24
NsbsS'game'
p8113
g0
(g1
g2
Ntp8114
Rp8115
(dp8116
g6
g16
sg8
S'OTHER'
p8117
sg10
(dp8118
S'how'
p8119
g0
(g1
g2
Ntp8120
Rp8121
(dp8122
g6
Nsg8
S'NUMBER'
p8123
sg10
Nsg24
NsbsS'what'
p8124
g0
(g1
g2
Ntp8125
Rp8126
(dp8127
g6
Nsg8
S'OTHER'
p8128
sg10
Nsg24
NsbsS'who'
p8129
g0
(g1
g2
Ntp8130
Rp8131
(dp8132
g6
Nsg8
S'PERSON'
p8133
sg10
Nsg24
Nsbssg24
NsbsS'purveyor'
p8134
g0
(g1
g2
Ntp8135
Rp8136
(dp8137
g6
Nsg8
S'PERSON'
p8138
sg10
Nsg24
NsbsS'arthur'
p8139
g0
(g1
g2
Ntp8140
Rp8141
(dp8142
g6
Nsg8
S'PERSON'
p8143
sg10
Nsg24
NsbsS'eidologist'
p8144
g0
(g1
g2
Ntp8145
Rp8146
(dp8147
g6
Nsg8
S'OTHER'
p8148
sg10
Nsg24
NsbsS'judson'
p8149
g0
(g1
g2
Ntp8150
Rp8151
(dp8152
g6
Nsg8
S'PERSON'
p8153
sg10
Nsg24
NsbsS'back'
p8154
g0
(g1
g2
Ntp8155
Rp8156
(dp8157
g6
g16
sg8
S'OTHER'
p8158
sg10
(dp8159
S'what'
p8160
g0
(g1
g2
Ntp8161
Rp8162
(dp8163
g6
Nsg8
g8158
sg10
Nsg24
NsbsS'who'
p8164
g0
(g1
g2
Ntp8165
Rp8166
(dp8167
g6
Nsg8
S'PERSON'
p8168
sg10
Nsg24
Nsbssg24
NsbsS'coney'
p8169
g0
(g1
g2
Ntp8170
Rp8171
(dp8172
g6
Nsg8
S'NUMBER'
p8173
sg10
Nsg24
NsbsS'mighty'
p8174
g0
(g1
g2
Ntp8175
Rp8176
(dp8177
g6
Nsg8
S'PERSON'
p8178
sg10
Nsg24
NsbsS'scale'
p8179
g0
(g1
g2
Ntp8180
Rp8181
(dp8182
g6
Nsg8
S'OTHER'
p8183
sg10
Nsg24
NsbsS'religion'
p8184
g0
(g1
g2
Ntp8185
Rp8186
(dp8187
g6
Nsg8
S'OTHER'
p8188
sg10
Nsg24
NsbsS'civilization'
p8189
g0
(g1
g2
Ntp8190
Rp8191
(dp8192
g6
Nsg8
S'PERSON'
p8193
sg10
Nsg24
NsbsS'pea'
p8194
g0
(g1
g2
Ntp8195
Rp8196
(dp8197
g6
Nsg8
S'PERSON'
p8198
sg10
Nsg24
NsbsS'rum'
p8199
g0
(g1
g2
Ntp8200
Rp8201
(dp8202
g6
Nsg8
S'OTHER'
p8203
sg10
Nsg24
NsbsS'palmer'
p8204
g0
(g1
g2
Ntp8205
Rp8206
(dp8207
g6
Nsg8
S'PERSON'
p8208
sg10
Nsg24
NsbsS'santa'
p8209
g0
(g1
g2
Ntp8210
Rp8211
(dp8212
g6
Nsg8
S'LOCATION'
p8213
sg10
Nsg24
NsbsS'chairman'
p8214
g0
(g1
g2
Ntp8215
Rp8216
(dp8217
g6
Nsg8
S'PERSON'
p8218
sg10
Nsg24
NsbsS'vaccine'
p8219
g0
(g1
g2
Ntp8220
Rp8221
(dp8222
g6
Nsg8
S'OTHER'
p8223
sg10
Nsg24
NsbsS'faith'
p8224
g0
(g1
g2
Ntp8225
Rp8226
(dp8227
g6
Nsg8
S'PERSON'
p8228
sg10
Nsg24
NsbsS'zip'
p8229
g0
(g1
g2
Ntp8230
Rp8231
(dp8232
g6
g16
sg8
S'NUMBER'
p8233
sg10
(dp8234
S'how'
p8235
g0
(g1
g2
Ntp8236
Rp8237
(dp8238
g6
Nsg8
g8233
sg10
Nsg24
NsbsS'what'
p8239
g0
(g1
g2
Ntp8240
Rp8241
(dp8242
g6
Nsg8
S'PERSON'
p8243
sg10
Nsg24
Nsbssg24
NsbsS'anything'
p8244
g0
(g1
g2
Ntp8245
Rp8246
(dp8247
g6
Nsg8
S'LOCATION'
p8248
sg10
Nsg24
NsbsS'stuart'
p8249
g0
(g1
g2
Ntp8250
Rp8251
(dp8252
g6
Nsg8
S'OTHER'
p8253
sg10
Nsg24
NsbsS'germany'
p8254
g0
(g1
g2
Ntp8255
Rp8256
(dp8257
g6
Nsg8
S'NUMBER'
p8258
sg10
Nsg24
NsbsS'block'
p8259
g0
(g1
g2
Ntp8260
Rp8261
(dp8262
g6
Nsg8
S'PERSON'
p8263
sg10
Nsg24
NsbsS'seeing'
p8264
g0
(g1
g2
Ntp8265
Rp8266
(dp8267
g6
Nsg8
S'LOCATION'
p8268
sg10
Nsg24
NsbsS'doodyville'
p8269
g0
(g1
g2
Ntp8270
Rp8271
(dp8272
g6
Nsg8
S'PERSON'
p8273
sg10
Nsg24
NsbsS'clinton'
p8274
g0
(g1
g2
Ntp8275
Rp8276
(dp8277
g6
g16
sg8
S'LOCATION'
p8278
sg10
(dp8279
S'what'
p8280
g0
(g1
g2
Ntp8281
Rp8282
(dp8283
g6
Nsg8
S'OTHER'
p8284
sg10
Nsg24
NsbsS'where'
p8285
g0
(g1
g2
Ntp8286
Rp8287
(dp8288
g6
Nsg8
g8278
sg10
Nsg24
Nsbssg24
NsbsS'colorado'
p8289
g0
(g1
g2
Ntp8290
Rp8291
(dp8292
g6
Nsg8
S'LOCATION'
p8293
sg10
Nsg24
NsbsS'garbage'
p8294
g0
(g1
g2
Ntp8295
Rp8296
(dp8297
g6
Nsg8
S'PERSON'
p8298
sg10
Nsg24
NsbsS'hemingway'
p8299
g0
(g1
g2
Ntp8300
Rp8301
(dp8302
g6
Nsg8
S'OTHER'
p8303
sg10
Nsg24
NsbsS'comedienne'
p8304
g0
(g1
g2
Ntp8305
Rp8306
(dp8307
g6
Nsg8
S'PERSON'
p8308
sg10
Nsg24
NsbsS'steven'
p8309
g0
(g1
g2
Ntp8310
Rp8311
(dp8312
g6
Nsg8
S'NUMBER'
p8313
sg10
Nsg24
NsbsS'lesson'
p8314
g0
(g1
g2
Ntp8315
Rp8316
(dp8317
g6
Nsg8
S'LOCATION'
p8318
sg10
Nsg24
NsbsS'pentagon'
p8319
g0
(g1
g2
Ntp8320
Rp8321
(dp8322
g6
Nsg8
S'NUMBER'
p8323
sg10
Nsg24
NsbsS'jockey'
p8324
g0
(g1
g2
Ntp8325
Rp8326
(dp8327
g6
Nsg8
S'PERSON'
p8328
sg10
Nsg24
NsbsS'question'
p8329
g0
(g1
g2
Ntp8330
Rp8331
(dp8332
g6
Nsg8
S'PERSON'
p8333
sg10
Nsg24
NsbsS'bayer'
p8334
g0
(g1
g2
Ntp8335
Rp8336
(dp8337
g6
Nsg8
S'OTHER'
p8338
sg10
Nsg24
NsbsS'suit'
p8339
g0
(g1
g2
Ntp8340
Rp8341
(dp8342
g6
Nsg8
S'OTHER'
p8343
sg10
Nsg24
NsbsS'vienna'
p8344
g0
(g1
g2
Ntp8345
Rp8346
(dp8347
g6
Nsg8
S'LOCATION'
p8348
sg10
Nsg24
NsbsS'warlock'
p8349
g0
(g1
g2
Ntp8350
Rp8351
(dp8352
g6
Nsg8
S'OTHER'
p8353
sg10
Nsg24
NsbsS'byzantine'
p8354
g0
(g1
g2
Ntp8355
Rp8356
(dp8357
g6
Nsg8
S'PERSON'
p8358
sg10
Nsg24
NsbsS'bradbury'
p8359
g0
(g1
g2
Ntp8360
Rp8361
(dp8362
g6
g16
sg8
S'LOCATION'
p8363
sg10
(dp8364
S'what'
p8365
g0
(g1
g2
Ntp8366
Rp8367
(dp8368
g6
Nsg8
S'OTHER'
p8369
sg10
Nsg24
NsbsS'where'
p8370
g0
(g1
g2
Ntp8371
Rp8372
(dp8373
g6
Nsg8
g8363
sg10
Nsg24
Nsbssg24
NsbsS'loco-motion'
p8374
g0
(g1
g2
Ntp8375
Rp8376
(dp8377
g6
Nsg8
S'PERSON'
p8378
sg10
Nsg24
NsbsS'lifesaver'
p8379
g0
(g1
g2
Ntp8380
Rp8381
(dp8382
g6
Nsg8
S'OTHER'
p8383
sg10
Nsg24
NsbsS'line'
p8384
g0
(g1
g2
Ntp8385
Rp8386
(dp8387
g6
g16
sg8
S'PERSON'
p8388
sg10
(dp8389
S'how'
p8390
g0
(g1
g2
Ntp8391
Rp8392
(dp8393
g6
Nsg8
S'NUMBER'
p8394
sg10
Nsg24
NsbsS'what'
p8395
g0
(g1
g2
Ntp8396
Rp8397
(dp8398
g6
Nsg8
S'OTHER'
p8399
sg10
Nsg24
Nsbssg24
NsbsS'info'
p8400
g0
(g1
g2
Ntp8401
Rp8402
(dp8403
g6
Nsg8
S'LOCATION'
p8404
sg10
Nsg24
NsbsS'consist'
p8405
g0
(g1
g2
Ntp8406
Rp8407
(dp8408
g6
Nsg8
S'OTHER'
p8409
sg10
Nsg24
NsbsS'erica'
p8410
g0
(g1
g2
Ntp8411
Rp8412
(dp8413
g6
Nsg8
S'OTHER'
p8414
sg10
Nsg24
NsbsS'planet'
p8415
g0
(g1
g2
Ntp8416
Rp8417
(dp8418
g6
Nsg8
S'LOCATION'
p8419
sg10
Nsg24
NsbsS'un'
p8420
g0
(g1
g2
Ntp8421
Rp8422
(dp8423
g6
Nsg8
S'PERSON'
p8424
sg10
Nsg24
NsbsS'uk'
p8425
g0
(g1
g2
Ntp8426
Rp8427
(dp8428
g6
Nsg8
S'NUMBER'
p8429
sg10
Nsg24
NsbsS'z'
p8430
g0
(g1
g2
Ntp8431
Rp8432
(dp8433
g6
Nsg8
S'OTHER'
p8434
sg10
Nsg24
NsbsS'possession'
p8435
g0
(g1
g2
Ntp8436
Rp8437
(dp8438
g6
Nsg8
S'LOCATION'
p8439
sg10
Nsg24
NsbsS'edberg'
p8440
g0
(g1
g2
Ntp8441
Rp8442
(dp8443
g6
Nsg8
S'LOCATION'
p8444
sg10
Nsg24
NsbsS'flush'
p8445
g0
(g1
g2
Ntp8446
Rp8447
(dp8448
g6
Nsg8
S'DATE'
p8449
sg10
Nsg24
NsbsS'spain'
p8450
g0
(g1
g2
Ntp8451
Rp8452
(dp8453
g6
Nsg8
S'DATE'
p8454
sg10
Nsg24
NsbsS'scarlet'
p8455
g0
(g1
g2
Ntp8456
Rp8457
(dp8458
g6
Nsg8
S'PERSON'
p8459
sg10
Nsg24
NsbsS'naseem'
p8460
g0
(g1
g2
Ntp8461
Rp8462
(dp8463
g6
Nsg8
S'PERSON'
p8464
sg10
Nsg24
NsbsS'rainbow'
p8465
g0
(g1
g2
Ntp8466
Rp8467
(dp8468
g6
g16
sg8
S'NUMBER'
p8469
sg10
(dp8470
S'how'
p8471
g0
(g1
g2
Ntp8472
Rp8473
(dp8474
g6
Nsg8
S'NUMBER'
p8475
sg10
Nsg24
NsbsS'what'
p8476
g0
(g1
g2
Ntp8477
Rp8478
(dp8479
g6
Nsg8
S'OTHER'
p8480
sg10
Nsg24
Nsbssg24
NsbsS'lemon'
p8481
g0
(g1
g2
Ntp8482
Rp8483
(dp8484
g6
Nsg8
S'NUMBER'
p8485
sg10
Nsg24
NsbsS'endurance'
p8486
g0
(g1
g2
Ntp8487
Rp8488
(dp8489
g6
Nsg8
S'PERSON'
p8490
sg10
Nsg24
NsbsS'recetrack'
p8491
g0
(g1
g2
Ntp8492
Rp8493
(dp8494
g6
Nsg8
S'NUMBER'
p8495
sg10
Nsg24
NsbsS'income'
p8496
g0
(g1
g2
Ntp8497
Rp8498
(dp8499
g6
Nsg8
S'MONEY'
p8500
sg10
Nsg24
NsbsS'department'
p8501
g0
(g1
g2
Ntp8502
Rp8503
(dp8504
g6
Nsg8
S'PERSON'
p8505
sg10
Nsg24
NsbsS'mayonnaise'
p8506
g0
(g1
g2
Ntp8507
Rp8508
(dp8509
g6
Nsg8
S'OTHER'
p8510
sg10
Nsg24
NsbsS'jamiroquai'
p8511
g0
(g1
g2
Ntp8512
Rp8513
(dp8514
g6
Nsg8
S'LOCATION'
p8515
sg10
Nsg24
NsbsS'tablespoon'
p8516
g0
(g1
g2
Ntp8517
Rp8518
(dp8519
g6
Nsg8
S'NUMBER'
p8520
sg10
Nsg24
NsbsS'lucia'
p8521
g0
(g1
g2
Ntp8522
Rp8523
(dp8524
g6
Nsg8
S'LOCATION'
p8525
sg10
Nsg24
NsbsS'lens'
p8526
g0
(g1
g2
Ntp8527
Rp8528
(dp8529
g6
Nsg8
S'OTHER'
p8530
sg10
Nsg24
NsbsS'tenpin'
p8531
g0
(g1
g2
Ntp8532
Rp8533
(dp8534
g6
Nsg8
S'NUMBER'
p8535
sg10
Nsg24
NsbsS'desert'
p8536
g0
(g1
g2
Ntp8537
Rp8538
(dp8539
g6
Nsg8
S'LOCATION'
p8540
sg10
Nsg24
NsbsS'structure'
p8541
g0
(g1
g2
Ntp8542
Rp8543
(dp8544
g6
Nsg8
S'OTHER'
p8545
sg10
Nsg24
NsbsS'vice'
p8546
g0
(g1
g2
Ntp8547
Rp8548
(dp8549
g6
Nsg8
S'PERSON'
p8550
sg10
Nsg24
NsbsS'age'
p8551
g0
(g1
g2
Ntp8552
Rp8553
(dp8554
g6
Nsg8
S'TIME'
p8555
sg10
Nsg24
NsbsS'walker'
p8556
g0
(g1
g2
Ntp8557
Rp8558
(dp8559
g6
Nsg8
S'NUMBER'
p8560
sg10
Nsg24
NsbsS'menace'
p8561
g0
(g1
g2
Ntp8562
Rp8563
(dp8564
g6
g16
sg8
S'OTHER'
p8565
sg10
(dp8566
S'what'
p8567
g0
(g1
g2
Ntp8568
Rp8569
(dp8570
g6
Nsg8
g8565
sg10
Nsg24
NsbsS'who'
p8571
g0
(g1
g2
Ntp8572
Rp8573
(dp8574
g6
Nsg8
S'PERSON'
p8575
sg10
Nsg24
Nsbssg24
NsbsS'buffalo'
p8576
g0
(g1
g2
Ntp8577
Rp8578
(dp8579
g6
Nsg8
S'PERSON'
p8580
sg10
Nsg24
NsbsS'having'
p8581
g0
(g1
g2
Ntp8582
Rp8583
(dp8584
g6
Nsg8
S'MONEY'
p8585
sg10
Nsg24
NsbsS'once'
p8586
g0
(g1
g2
Ntp8587
Rp8588
(dp8589
g6
Nsg8
S'PERSON'
p8590
sg10
Nsg24
NsbsS'resistance'
p8591
g0
(g1
g2
Ntp8592
Rp8593
(dp8594
g6
Nsg8
S'PERSON'
p8595
sg10
Nsg24
NsbsS'ge'
p8596
g0
(g1
g2
Ntp8597
Rp8598
(dp8599
g6
Nsg8
S'NUMBER'
p8600
sg10
Nsg24
NsbsS'go'
p8601
g0
(g1
g2
Ntp8602
Rp8603
(dp8604
g6
Nsg8
S'DATE'
p8605
sg10
Nsg24
NsbsS'kilamanjaro'
p8606
g0
(g1
g2
Ntp8607
Rp8608
(dp8609
g6
Nsg8
S'NUMBER'
p8610
sg10
Nsg24
NsbsS'birthplace'
p8611
g0
(g1
g2
Ntp8612
Rp8613
(dp8614
g6
Nsg8
S'LOCATION'
p8615
sg10
Nsg24
NsbsS'simon'
p8616
g0
(g1
g2
Ntp8617
Rp8618
(dp8619
g6
Nsg8
S'OTHER'
p8620
sg10
Nsg24
NsbsS'vesuvius'
p8621
g0
(g1
g2
Ntp8622
Rp8623
(dp8624
g6
Nsg8
S'DATE'
p8625
sg10
Nsg24
NsbsS'literary'
p8626
g0
(g1
g2
Ntp8627
Rp8628
(dp8629
g6
Nsg8
S'PERSON'
p8630
sg10
Nsg24
NsbsS'maryland'
p8631
g0
(g1
g2
Ntp8632
Rp8633
(dp8634
g6
Nsg8
S'NUMBER'
p8635
sg10
Nsg24
NsbsS'ingredient'
p8636
g0
(g1
g2
Ntp8637
Rp8638
(dp8639
g6
Nsg8
S'OTHER'
p8640
sg10
Nsg24
NsbsS'ukulele'
p8641
g0
(g1
g2
Ntp8642
Rp8643
(dp8644
g6
Nsg8
S'LOCATION'
p8645
sg10
Nsg24
NsbsS'kennedy-nixon'
p8646
g0
(g1
g2
Ntp8647
Rp8648
(dp8649
g6
Nsg8
S'PERSON'
p8650
sg10
Nsg24
NsbsS'acreage'
p8651
g0
(g1
g2
Ntp8652
Rp8653
(dp8654
g6
Nsg8
S'NUMBER'
p8655
sg10
Nsg24
NsbsS'mixing'
p8656
g0
(g1
g2
Ntp8657
Rp8658
(dp8659
g6
Nsg8
S'OTHER'
p8660
sg10
Nsg24
NsbsS'tutu'
p8661
g0
(g1
g2
Ntp8662
Rp8663
(dp8664
g6
Nsg8
S'PERSON'
p8665
sg10
Nsg24
NsbsS'mauritania'
p8666
g0
(g1
g2
Ntp8667
Rp8668
(dp8669
g6
Nsg8
S'LOCATION'
p8670
sg10
Nsg24
NsbsS'gender'
p8671
g0
(g1
g2
Ntp8672
Rp8673
(dp8674
g6
Nsg8
S'OTHER'
p8675
sg10
Nsg24
NsbsS'michael'
p8676
g0
(g1
g2
Ntp8677
Rp8678
(dp8679
g6
g16
sg8
S'PERSON'
p8680
sg10
(dp8681
S'how'
p8682
g0
(g1
g2
Ntp8683
Rp8684
(dp8685
g6
Nsg8
S'NUMBER'
p8686
sg10
Nsg24
NsbsS'what'
p8687
g0
(g1
g2
Ntp8688
Rp8689
(dp8690
g6
Nsg8
S'PERSON'
p8691
sg10
Nsg24
Nsbssg24
NsbsS'try'
p8692
g0
(g1
g2
Ntp8693
Rp8694
(dp8695
g6
Nsg8
S'OTHER'
p8696
sg10
Nsg24
NsbsS'race'
p8697
g0
(g1
g2
Ntp8698
Rp8699
(dp8700
g6
g16
sg8
S'LOCATION'
p8701
sg10
(dp8702
S'what'
p8703
g0
(g1
g2
Ntp8704
Rp8705
(dp8706
g6
Nsg8
S'OTHER'
p8707
sg10
Nsg24
NsbsS'where'
p8708
g0
(g1
g2
Ntp8709
Rp8710
(dp8711
g6
Nsg8
g8701
sg10
Nsg24
Nsbssg24
NsbsS'wheatfield'
p8712
g0
(g1
g2
Ntp8713
Rp8714
(dp8715
g6
Nsg8
S'PERSON'
p8716
sg10
Nsg24
NsbsS'radio'
p8717
g0
(g1
g2
Ntp8718
Rp8719
(dp8720
g6
Nsg8
S'PERSON'
p8721
sg10
Nsg24
NsbsS'non-fiction'
p8722
g0
(g1
g2
Ntp8723
Rp8724
(dp8725
g6
Nsg8
S'OTHER'
p8726
sg10
Nsg24
NsbsS'malick'
p8727
g0
(g1
g2
Ntp8728
Rp8729
(dp8730
g6
Nsg8
S'PERSON'
p8731
sg10
Nsg24
NsbsS'carter'
p8732
g0
(g1
g2
Ntp8733
Rp8734
(dp8735
g6
g16
sg8
S'OTHER'
p8736
sg10
(dp8737
S'how'
p8738
g0
(g1
g2
Ntp8739
Rp8740
(dp8741
g6
Nsg8
S'TIME'
p8742
sg10
Nsg24
NsbsS'what'
p8743
g0
(g1
g2
Ntp8744
Rp8745
(dp8746
g6
Nsg8
g8736
sg10
Nsg24
Nsbssg24
NsbsS'crop'
p8747
g0
(g1
g2
Ntp8748
Rp8749
(dp8750
g6
Nsg8
S'OTHER'
p8751
sg10
Nsg24
NsbsS'video'
p8752
g0
(g1
g2
Ntp8753
Rp8754
(dp8755
g6
Nsg8
S'OTHER'
p8756
sg10
Nsg24
NsbsS'acid'
p8757
g0
(g1
g2
Ntp8758
Rp8759
(dp8760
g6
Nsg8
S'NUMBER'
p8761
sg10
Nsg24
NsbsS'folk'
p8762
g0
(g1
g2
Ntp8763
Rp8764
(dp8765
g6
Nsg8
S'PERSON'
p8766
sg10
Nsg24
NsbsS'victor'
p8767
g0
(g1
g2
Ntp8768
Rp8769
(dp8770
g6
g16
sg8
S'LOCATION'
p8771
sg10
(dp8772
S'who'
p8773
g0
(g1
g2
Ntp8774
Rp8775
(dp8776
g6
Nsg8
S'PERSON'
p8777
sg10
Nsg24
NsbsS'where'
p8778
g0
(g1
g2
Ntp8779
Rp8780
(dp8781
g6
Nsg8
g8771
sg10
Nsg24
Nsbssg24
NsbsS'power'
p8782
g0
(g1
g2
Ntp8783
Rp8784
(dp8785
g6
g16
sg8
S'NUMBER'
p8786
sg10
(dp8787
S'how'
p8788
g0
(g1
g2
Ntp8789
Rp8790
(dp8791
g6
Nsg8
S'NUMBER'
p8792
sg10
Nsg24
NsbsS'who'
p8793
g0
(g1
g2
Ntp8794
Rp8795
(dp8796
g6
Nsg8
S'PERSON'
p8797
sg10
Nsg24
Nsbssg24
NsbsS'chicago'
p8798
g0
(g1
g2
Ntp8799
Rp8800
(dp8801
g6
Nsg8
S'PERSON'
p8802
sg10
Nsg24
NsbsS'colonel'
p8803
g0
(g1
g2
Ntp8804
Rp8805
(dp8806
g6
Nsg8
S'OTHER'
p8807
sg10
Nsg24
NsbsS'capital'
p8808
g0
(g1
g2
Ntp8809
Rp8810
(dp8811
g6
Nsg8
S'LOCATION'
p8812
sg10
Nsg24
NsbsS'bird'
p8813
g0
(g1
g2
Ntp8814
Rp8815
(dp8816
g6
Nsg8
S'OTHER'
p8817
sg10
Nsg24
NsbsS'body'
p8818
g0
(g1
g2
Ntp8819
Rp8820
(dp8821
g6
g16
sg8
S'LOCATION'
p8822
sg10
(dp8823
S'how'
p8824
g0
(g1
g2
Ntp8825
Rp8826
(dp8827
g6
Nsg8
S'TIME'
p8828
sg10
Nsg24
NsbsS'what'
p8829
g0
(g1
g2
Ntp8830
Rp8831
(dp8832
g6
Nsg8
S'LOCATION'
p8833
sg10
Nsg24
Nsbssg24
NsbsS'degree'
p8834
g0
(g1
g2
Ntp8835
Rp8836
(dp8837
g6
Nsg8
S'PERSON'
p8838
sg10
Nsg24
NsbsS'leg'
p8839
g0
(g1
g2
Ntp8840
Rp8841
(dp8842
g6
Nsg8
S'OTHER'
p8843
sg10
Nsg24
NsbsS'commercial'
p8844
g0
(g1
g2
Ntp8845
Rp8846
(dp8847
g6
Nsg8
S'DATE'
p8848
sg10
Nsg24
NsbsS'leo'
p8849
g0
(g1
g2
Ntp8850
Rp8851
(dp8852
g6
Nsg8
S'PERSON'
p8853
sg10
Nsg24
NsbsS'sink'
p8854
g0
(g1
g2
Ntp8855
Rp8856
(dp8857
g6
Nsg8
S'LOCATION'
p8858
sg10
Nsg24
NsbsS'cyclist'
p8859
g0
(g1
g2
Ntp8860
Rp8861
(dp8862
g6
Nsg8
S'OTHER'
p8863
sg10
Nsg24
NsbsS'survivor'
p8864
g0
(g1
g2
Ntp8865
Rp8866
(dp8867
g6
Nsg8
S'PERSON'
p8868
sg10
Nsg24
NsbsS'alaska'
p8869
g0
(g1
g2
Ntp8870
Rp8871
(dp8872
g6
Nsg8
S'PERSON'
p8873
sg10
Nsg24
NsbsS'defeat'
p8874
g0
(g1
g2
Ntp8875
Rp8876
(dp8877
g6
Nsg8
S'PERSON'
p8878
sg10
Nsg24
NsbsS'climb'
p8879
g0
(g1
g2
Ntp8880
Rp8881
(dp8882
g6
Nsg8
S'LOCATION'
p8883
sg10
Nsg24
NsbsS'gene'
p8884
g0
(g1
g2
Ntp8885
Rp8886
(dp8887
g6
Nsg8
S'TIME'
p8888
sg10
Nsg24
NsbsS'maker'
p8889
g0
(g1
g2
Ntp8890
Rp8891
(dp8892
g6
Nsg8
S'PERSON'
p8893
sg10
Nsg24
NsbsS'sheila'
p8894
g0
(g1
g2
Ntp8895
Rp8896
(dp8897
g6
Nsg8
S'OTHER'
p8898
sg10
Nsg24
NsbsS'apple'
p8899
g0
(g1
g2
Ntp8900
Rp8901
(dp8902
g6
Nsg8
S'NUMBER'
p8903
sg10
Nsg24
NsbsS'clark'
p8904
g0
(g1
g2
Ntp8905
Rp8906
(dp8907
g6
Nsg8
S'DATE'
p8908
sg10
Nsg24
NsbsS'spy'
p8909
g0
(g1
g2
Ntp8910
Rp8911
(dp8912
g6
Nsg8
S'PERSON'
p8913
sg10
Nsg24
NsbsS'egypt'
p8914
g0
(g1
g2
Ntp8915
Rp8916
(dp8917
g6
Nsg8
S'OTHER'
p8918
sg10
Nsg24
NsbsS'clara'
p8919
g0
(g1
g2
Ntp8920
Rp8921
(dp8922
g6
Nsg8
S'MONEY'
p8923
sg10
Nsg24
NsbsS'nantucket'
p8924
g0
(g1
g2
Ntp8925
Rp8926
(dp8927
g6
Nsg8
S'OTHER'
p8928
sg10
Nsg24
NsbsS'composer'
p8929
g0
(g1
g2
Ntp8930
Rp8931
(dp8932
g6
Nsg8
S'PERSON'
p8933
sg10
Nsg24
NsbsS'singing'
p8934
g0
(g1
g2
Ntp8935
Rp8936
(dp8937
g6
Nsg8
S'PERSON'
p8938
sg10
Nsg24
NsbsS'use'
p8939
g0
(g1
g2
Ntp8940
Rp8941
(dp8942
g6
g16
sg8
S'DATE'
p8943
sg10
(dp8944
S'what'
p8945
g0
(g1
g2
Ntp8946
Rp8947
(dp8948
g6
Nsg8
S'OTHER'
p8949
sg10
Nsg24
NsbsS'when'
p8950
g0
(g1
g2
Ntp8951
Rp8952
(dp8953
g6
Nsg8
g8943
sg10
Nsg24
Nsbssg24
NsbsS'lottery'
p8954
g0
(g1
g2
Ntp8955
Rp8956
(dp8957
g6
Nsg8
S'NUMBER'
p8958
sg10
Nsg24
NsbsS'usa'
p8959
g0
(g1
g2
Ntp8960
Rp8961
(dp8962
g6
g16
sg8
S'PERSON'
p8963
sg10
(dp8964
S'how'
p8965
g0
(g1
g2
Ntp8966
Rp8967
(dp8968
g6
Nsg8
S'NUMBER'
p8969
sg10
Nsg24
NsbsS'what'
p8970
g0
(g1
g2
Ntp8971
Rp8972
(dp8973
g6
Nsg8
S'OTHER'
p8974
sg10
Nsg24
NsbsS'which'
p8975
g0
(g1
g2
Ntp8976
Rp8977
(dp8978
g6
Nsg8
g8963
sg10
Nsg24
Nsbssg24
NsbsS'nobel'
p8979
g0
(g1
g2
Ntp8980
Rp8981
(dp8982
g6
Nsg8
S'PERSON'
p8983
sg10
Nsg24
NsbsS'camera'
p8984
g0
(g1
g2
Ntp8985
Rp8986
(dp8987
g6
Nsg8
S'PERSON'
p8988
sg10
Nsg24
NsbsS'butler'
p8989
g0
(g1
g2
Ntp8990
Rp8991
(dp8992
g6
Nsg8
S'PERSON'
p8993
sg10
Nsg24
NsbsS'sort'
p8994
g0
(g1
g2
Ntp8995
Rp8996
(dp8997
g6
Nsg8
S'NUMBER'
p8998
sg10
Nsg24
NsbsS'missile'
p8999
g0
(g1
g2
Ntp9000
Rp9001
(dp9002
g6
Nsg8
S'OTHER'
p9003
sg10
Nsg24
NsbsS'pugilist'
p9004
g0
(g1
g2
Ntp9005
Rp9006
(dp9007
g6
Nsg8
S'PERSON'
p9008
sg10
Nsg24
NsbsS'rabbit'
p9009
g0
(g1
g2
Ntp9010
Rp9011
(dp9012
g6
Nsg8
S'OTHER'
p9013
sg10
Nsg24
NsbsS'baby'
p9014
g0
(g1
g2
Ntp9015
Rp9016
(dp9017
g6
Nsg8
S'NUMBER'
p9018
sg10
Nsg24
NsbsS'antichrist'
p9019
g0
(g1
g2
Ntp9020
Rp9021
(dp9022
g6
Nsg8
S'PERSON'
p9023
sg10
Nsg24
NsbsS'huxley'
p9024
g0
(g1
g2
Ntp9025
Rp9026
(dp9027
g6
Nsg8
S'DATE'
p9028
sg10
Nsg24
NsbsS'son-in-law'
p9029
g0
(g1
g2
Ntp9030
Rp9031
(dp9032
g6
Nsg8
S'PERSON'
p9033
sg10
Nsg24
NsbsS'britney'
p9034
g0
(g1
g2
Ntp9035
Rp9036
(dp9037
g6
Nsg8
S'TIME'
p9038
sg10
Nsg24
NsbsS'ride'
p9039
g0
(g1
g2
Ntp9040
Rp9041
(dp9042
g6
Nsg8
S'LOCATION'
p9043
sg10
Nsg24
NsbsS'control'
p9044
g0
(g1
g2
Ntp9045
Rp9046
(dp9047
g6
Nsg8
S'DATE'
p9048
sg10
Nsg24
NsbsS'process'
p9049
g0
(g1
g2
Ntp9050
Rp9051
(dp9052
g6
Nsg8
S'PERSON'
p9053
sg10
Nsg24
NsbsS'tootsie'
p9054
g0
(g1
g2
Ntp9055
Rp9056
(dp9057
g6
Nsg8
S'PERSON'
p9058
sg10
Nsg24
NsbsS'villain'
p9059
g0
(g1
g2
Ntp9060
Rp9061
(dp9062
g6
Nsg8
S'PERSON'
p9063
sg10
Nsg24
NsbsS'bend'
p9064
g0
(g1
g2
Ntp9065
Rp9066
(dp9067
g6
Nsg8
S'LOCATION'
p9068
sg10
Nsg24
NsbsS'hit'
p9069
g0
(g1
g2
Ntp9070
Rp9071
(dp9072
g6
Nsg8
S'PERSON'
p9073
sg10
Nsg24
NsbsS'taj'
p9074
g0
(g1
g2
Ntp9075
Rp9076
(dp9077
g6
g16
sg8
S'LOCATION'
p9078
sg10
(dp9079
S'what'
p9080
g0
(g1
g2
Ntp9081
Rp9082
(dp9083
g6
Nsg8
S'OTHER'
p9084
sg10
Nsg24
NsbsS'where'
p9085
g0
(g1
g2
Ntp9086
Rp9087
(dp9088
g6
Nsg8
g9078
sg10
Nsg24
Nsbssg24
NsbsS'chevrolet'
p9089
g0
(g1
g2
Ntp9090
Rp9091
(dp9092
g6
Nsg8
S'PERSON'
p9093
sg10
Nsg24
NsbsS'poetry'
p9094
g0
(g1
g2
Ntp9095
Rp9096
(dp9097
g6
Nsg8
S'PERSON'
p9098
sg10
Nsg24
NsbsS'hampshire'
p9099
g0
(g1
g2
Ntp9100
Rp9101
(dp9102
g6
Nsg8
S'LOCATION'
p9103
sg10
Nsg24
NsbsS'forest'
p9104
g0
(g1
g2
Ntp9105
Rp9106
(dp9107
g6
Nsg8
S'LOCATION'
p9108
sg10
Nsg24
NsbsS'stock'
p9109
g0
(g1
g2
Ntp9110
Rp9111
(dp9112
g6
g16
sg8
S'PERSON'
p9113
sg10
(dp9114
S'how'
p9115
g0
(g1
g2
Ntp9116
Rp9117
(dp9118
g6
Nsg8
S'NUMBER'
p9119
sg10
Nsg24
NsbsS'what'
p9120
g0
(g1
g2
Ntp9121
Rp9122
(dp9123
g6
Nsg8
S'OTHER'
p9124
sg10
Nsg24
NsbsS'who'
p9125
g0
(g1
g2
Ntp9126
Rp9127
(dp9128
g6
Nsg8
g9113
sg10
Nsg24
Nsbssg24
NsbsS'fare'
p9129
g0
(g1
g2
Ntp9130
Rp9131
(dp9132
g6
Nsg8
S'OTHER'
p9133
sg10
Nsg24
NsbsS'honda'
p9134
g0
(g1
g2
Ntp9135
Rp9136
(dp9137
g6
Nsg8
S'NUMBER'
p9138
sg10
Nsg24
NsbsS'watch'
p9139
g0
(g1
g2
Ntp9140
Rp9141
(dp9142
g6
Nsg8
S'PERCENT'
p9143
sg10
Nsg24
NsbsS'collection'
p9144
g0
(g1
g2
Ntp9145
Rp9146
(dp9147
g6
Nsg8
S'PERSON'
p9148
sg10
Nsg24
NsbsS'ronald'
p9149
g0
(g1
g2
Ntp9150
Rp9151
(dp9152
g6
Nsg8
S'PERSON'
p9153
sg10
Nsg24
NsbsS'tomato'
p9154
g0
(g1
g2
Ntp9155
Rp9156
(dp9157
g6
Nsg8
S'NUMBER'
p9158
sg10
Nsg24
NsbsS'boeing'
p9159
g0
(g1
g2
Ntp9160
Rp9161
(dp9162
g6
Nsg8
S'NUMBER'
p9163
sg10
Nsg24
NsbsS'daycare'
p9164
g0
(g1
g2
Ntp9165
Rp9166
(dp9167
g6
Nsg8
S'MONEY'
p9168
sg10
Nsg24
NsbsS'liner'
p9169
g0
(g1
g2
Ntp9170
Rp9171
(dp9172
g6
Nsg8
S'OTHER'
p9173
sg10
Nsg24
NsbsS'element'
p9174
g0
(g1
g2
Ntp9175
Rp9176
(dp9177
g6
g16
sg8
S'OTHER'
p9178
sg10
(dp9179
S'what'
p9180
g0
(g1
g2
Ntp9181
Rp9182
(dp9183
g6
Nsg8
S'OTHER'
p9184
sg10
Nsg24
NsbsS'where'
p9185
g0
(g1
g2
Ntp9186
Rp9187
(dp9188
g6
Nsg8
S'LOCATION'
p9189
sg10
Nsg24
Nsbssg24
NsbsS'writ'
p9190
g0
(g1
g2
Ntp9191
Rp9192
(dp9193
g6
Nsg8
S'OTHER'
p9194
sg10
Nsg24
NsbsS'alloy'
p9195
g0
(g1
g2
Ntp9196
Rp9197
(dp9198
g6
Nsg8
S'OTHER'
p9199
sg10
Nsg24
NsbsS'software'
p9200
g0
(g1
g2
Ntp9201
Rp9202
(dp9203
g6
g16
sg8
S'OTHER'
p9204
sg10
(dp9205
S'what'
p9206
g0
(g1
g2
Ntp9207
Rp9208
(dp9209
g6
Nsg8
g9204
sg10
Nsg24
NsbsS'who'
p9210
g0
(g1
g2
Ntp9211
Rp9212
(dp9213
g6
Nsg8
S'PERSON'
p9214
sg10
Nsg24
Nsbssg24
NsbsS'houston'
p9215
g0
(g1
g2
Ntp9216
Rp9217
(dp9218
g6
Nsg8
S'PERSON'
p9219
sg10
Nsg24
NsbsS'tuberculosis'
p9220
g0
(g1
g2
Ntp9221
Rp9222
(dp9223
g6
g16
sg8
S'NUMBER'
p9224
sg10
(dp9225
S'how'
p9226
g0
(g1
g2
Ntp9227
Rp9228
(dp9229
g6
Nsg8
S'NUMBER'
p9230
sg10
Nsg24
NsbsS'where'
p9231
g0
(g1
g2
Ntp9232
Rp9233
(dp9234
g6
Nsg8
S'LOCATION'
p9235
sg10
Nsg24
Nsbssg24
NsbsS'producer'
p9236
g0
(g1
g2
Ntp9237
Rp9238
(dp9239
g6
g16
sg8
S'PERSON'
p9240
sg10
(dp9241
S'what'
p9242
g0
(g1
g2
Ntp9243
Rp9244
(dp9245
g6
Nsg8
g9240
sg10
Nsg24
NsbsS'italy'
p9246
g0
(g1
g2
Ntp9247
Rp9248
(dp9249
g6
Nsg8
S'OTHER'
p9250
sg10
Nsg24
Nsbssg24
NsbsS'move'
p9251
g0
(g1
g2
Ntp9252
Rp9253
(dp9254
g6
Nsg8
S'OTHER'
p9255
sg10
Nsg24
NsbsS'meter'
p9256
g0
(g1
g2
Ntp9257
Rp9258
(dp9259
g6
Nsg8
S'OTHER'
p9260
sg10
Nsg24
NsbsS'sperm'
p9261
g0
(g1
g2
Ntp9262
Rp9263
(dp9264
g6
Nsg8
S'NUMBER'
p9265
sg10
Nsg24
NsbsS'costume'
p9266
g0
(g1
g2
Ntp9267
Rp9268
(dp9269
g6
Nsg8
S'PERSON'
p9270
sg10
Nsg24
NsbsS'galaxy'
p9271
g0
(g1
g2
Ntp9272
Rp9273
(dp9274
g6
Nsg8
S'NUMBER'
p9275
sg10
Nsg24
NsbsS'perfect'
p9276
g0
(g1
g2
Ntp9277
Rp9278
(dp9279
g6
g16
sg8
S'PERSON'
p9280
sg10
(dp9281
S'how'
p9282
g0
(g1
g2
Ntp9283
Rp9284
(dp9285
g6
Nsg8
S'NUMBER'
p9286
sg10
Nsg24
NsbsS'what'
p9287
g0
(g1
g2
Ntp9288
Rp9289
(dp9290
g6
Nsg8
g9280
sg10
Nsg24
Nsbssg24
NsbsS'underwater'
p9291
g0
(g1
g2
Ntp9292
Rp9293
(dp9294
g6
Nsg8
S'PERSON'
p9295
sg10
Nsg24
NsbsS'housewife'
p9296
g0
(g1
g2
Ntp9297
Rp9298
(dp9299
g6
Nsg8
S'PERSON'
p9300
sg10
Nsg24
NsbsS'labor'
p9301
g0
(g1
g2
Ntp9302
Rp9303
(dp9304
g6
g16
sg8
S'DATE'
p9305
sg10
(dp9306
S'what'
p9307
g0
(g1
g2
Ntp9308
Rp9309
(dp9310
g6
Nsg8
S'PERSON'
p9311
sg10
Nsg24
NsbsS'when'
p9312
g0
(g1
g2
Ntp9313
Rp9314
(dp9315
g6
Nsg8
g9305
sg10
Nsg24
Nsbssg24
NsbsS'tyler'
p9316
g0
(g1
g2
Ntp9317
Rp9318
(dp9319
g6
Nsg8
S'OTHER'
p9320
sg10
Nsg24
NsbsS'lp'
p9321
g0
(g1
g2
Ntp9322
Rp9323
(dp9324
g6
Nsg8
S'NUMBER'
p9325
sg10
Nsg24
NsbsS'latitude'
p9326
g0
(g1
g2
Ntp9327
Rp9328
(dp9329
g6
Nsg8
S'NUMBER'
p9330
sg10
Nsg24
NsbsS'hobby'
p9331
g0
(g1
g2
Ntp9332
Rp9333
(dp9334
g6
Nsg8
S'PERSON'
p9335
sg10
Nsg24
NsbsS'holiday'
p9336
g0
(g1
g2
Ntp9337
Rp9338
(dp9339
g6
Nsg8
S'OTHER'
p9340
sg10
Nsg24
NsbsS'dam'
p9341
g0
(g1
g2
Ntp9342
Rp9343
(dp9344
g6
Nsg8
S'LOCATION'
p9345
sg10
Nsg24
NsbsS'seawater'
p9346
g0
(g1
g2
Ntp9347
Rp9348
(dp9349
g6
Nsg8
S'OTHER'
p9350
sg10
Nsg24
NsbsS'snake'
p9351
g0
(g1
g2
Ntp9352
Rp9353
(dp9354
g6
Nsg8
S'OTHER'
p9355
sg10
Nsg24
NsbsS'flea'
p9356
g0
(g1
g2
Ntp9357
Rp9358
(dp9359
g6
Nsg8
S'NUMBER'
p9360
sg10
Nsg24
NsbsS'cage'
p9361
g0
(g1
g2
Ntp9362
Rp9363
(dp9364
g6
Nsg8
S'PERSON'
p9365
sg10
Nsg24
NsbsS'day'
p9366
g0
(g1
g2
Ntp9367
Rp9368
(dp9369
g6
g16
sg8
S'DATE'
p9370
sg10
(dp9371
S'what'
p9372
g0
(g1
g2
Ntp9373
Rp9374
(dp9375
g6
Nsg8
S'DATE'
p9376
sg10
Nsg24
NsbsS'boxing'
p9377
g0
(g1
g2
Ntp9378
Rp9379
(dp9380
g6
Nsg8
S'DATE'
p9381
sg10
Nsg24
NsbsS'who'
p9382
g0
(g1
g2
Ntp9383
Rp9384
(dp9385
g6
Nsg8
S'PERSON'
p9386
sg10
Nsg24
NsbsS'when'
p9387
g0
(g1
g2
Ntp9388
Rp9389
(dp9390
g6
Nsg8
S'DATE'
p9391
sg10
Nsg24
NsbsS'how'
p9392
g0
(g1
g2
Ntp9393
Rp9394
(dp9395
g6
Nsg8
S'NUMBER'
p9396
sg10
Nsg24
NsbsS'on what'
p9397
g0
(g1
g2
Ntp9398
Rp9399
(dp9400
g6
Nsg8
S'DATE'
p9401
sg10
Nsg24
NsbsS'in 1990'
p9402
g0
(g1
g2
Ntp9403
Rp9404
(dp9405
g6
Nsg8
g9370
sg10
Nsg24
Nsbssg24
NsbsS'tutankhamun'
p9406
g0
(g1
g2
Ntp9407
Rp9408
(dp9409
g6
Nsg8
S'PERSON'
p9410
sg10
Nsg24
NsbsS'university'
p9411
g0
(g1
g2
Ntp9412
Rp9413
(dp9414
g6
g16
sg8
S'NUMBER'
p9415
sg10
(dp9416
S'how'
p9417
g0
(g1
g2
Ntp9418
Rp9419
(dp9420
g6
Nsg8
S'NUMBER'
p9421
sg10
Nsg24
NsbsS'what'
p9422
g0
(g1
g2
Ntp9423
Rp9424
(dp9425
g6
Nsg8
S'PERSON'
p9426
sg10
Nsg24
NsbsS'where'
p9427
g0
(g1
g2
Ntp9428
Rp9429
(dp9430
g6
Nsg8
S'LOCATION'
p9431
sg10
Nsg24
NsbsS'approximately'
p9432
g0
(g1
g2
Ntp9433
Rp9434
(dp9435
g6
Nsg8
S'NUMBER'
p9436
sg10
Nsg24
Nsbssg24
NsbsS'nfl'
p9437
g0
(g1
g2
Ntp9438
Rp9439
(dp9440
g6
g16
sg8
S'PERSON'
p9441
sg10
(dp9442
S'what'
p9443
g0
(g1
g2
Ntp9444
Rp9445
(dp9446
g6
Nsg8
g9441
sg10
Nsg24
NsbsS'who'
p9447
g0
(g1
g2
Ntp9448
Rp9449
(dp9450
g6
Nsg8
S'PERSON'
p9451
sg10
Nsg24
NsbsS'when'
p9452
g0
(g1
g2
Ntp9453
Rp9454
(dp9455
g6
Nsg8
S'DATE'
p9456
sg10
Nsg24
Nsbssg24
NsbsS'slide'
p9457
g0
(g1
g2
Ntp9458
Rp9459
(dp9460
g6
Nsg8
S'NUMBER'
p9461
sg10
Nsg24
NsbsS'spielberg'
p9462
g0
(g1
g2
Ntp9463
Rp9464
(dp9465
g6
g16
sg8
S'OTHER'
p9466
sg10
(dp9467
S'what'
p9468
g0
(g1
g2
Ntp9469
Rp9470
(dp9471
g6
Nsg8
g9466
sg10
Nsg24
NsbsS'when'
p9472
g0
(g1
g2
Ntp9473
Rp9474
(dp9475
g6
Nsg8
S'DATE'
p9476
sg10
Nsg24
Nsbssg24
NsbsS'society'
p9477
g0
(g1
g2
Ntp9478
Rp9479
(dp9480
g6
Nsg8
S'PERSON'
p9481
sg10
Nsg24
NsbsS'frequency'
p9482
g0
(g1
g2
Ntp9483
Rp9484
(dp9485
g6
Nsg8
S'NUMBER'
p9486
sg10
Nsg24
NsbsS'spahn'
p9487
g0
(g1
g2
Ntp9488
Rp9489
(dp9490
g6
Nsg8
S'NUMBER'
p9491
sg10
Nsg24
NsbsS'fathom'
p9492
g0
(g1
g2
Ntp9493
Rp9494
(dp9495
g6
Nsg8
S'NUMBER'
p9496
sg10
Nsg24
NsbsS'www.questions.com'
p9497
g0
(g1
g2
Ntp9498
Rp9499
(dp9500
g6
Nsg8
S'DATE'
p9501
sg10
Nsg24
NsbsS'math'
p9502
g0
(g1
g2
Ntp9503
Rp9504
(dp9505
g6
Nsg8
S'LOCATION'
p9506
sg10
Nsg24
NsbsS'cricketer'
p9507
g0
(g1
g2
Ntp9508
Rp9509
(dp9510
g6
Nsg8
S'PERSON'
p9511
sg10
Nsg24
NsbsS'york'
p9512
g0
(g1
g2
Ntp9513
Rp9514
(dp9515
g6
Nsg8
S'PERSON'
p9516
sg10
Nsg24
NsbsS'philip'
p9517
g0
(g1
g2
Ntp9518
Rp9519
(dp9520
g6
Nsg8
S'PERSON'
p9521
sg10
Nsg24
NsbsS'princess'
p9522
g0
(g1
g2
Ntp9523
Rp9524
(dp9525
g6
Nsg8
S'DATE'
p9526
sg10
Nsg24
NsbsS'florida'
p9527
g0
(g1
g2
Ntp9528
Rp9529
(dp9530
g6
g16
sg8
S'PERSON'
p9531
sg10
(dp9532
S'who'
p9533
g0
(g1
g2
Ntp9534
Rp9535
(dp9536
g6
Nsg8
g9531
sg10
Nsg24
NsbsS'when'
p9537
g0
(g1
g2
Ntp9538
Rp9539
(dp9540
g6
Nsg8
S'DATE'
p9541
sg10
Nsg24
Nsbssg24
NsbsS'counterpart'
p9542
g0
(g1
g2
Ntp9543
Rp9544
(dp9545
g6
Nsg8
S'OTHER'
p9546
sg10
Nsg24
NsbsS'length'
p9547
g0
(g1
g2
Ntp9548
Rp9549
(dp9550
g6
Nsg8
S'NUMBER'
p9551
sg10
Nsg24
NsbsS'farrow'
p9552
g0
(g1
g2
Ntp9553
Rp9554
(dp9555
g6
Nsg8
S'PERSON'
p9556
sg10
Nsg24
NsbsS'south'
p9557
g0
(g1
g2
Ntp9558
Rp9559
(dp9560
g6
g16
sg8
S'NUMBER'
p9561
sg10
(dp9562
S'how'
p9563
g0
(g1
g2
Ntp9564
Rp9565
(dp9566
g6
Nsg8
S'NUMBER'
p9567
sg10
Nsg24
NsbsS'what'
p9568
g0
(g1
g2
Ntp9569
Rp9570
(dp9571
g6
Nsg8
S'LOCATION'
p9572
sg10
Nsg24
NsbsS'which'
p9573
g0
(g1
g2
Ntp9574
Rp9575
(dp9576
g6
Nsg8
S'PERSON'
p9577
sg10
Nsg24
NsbsS'in south'
p9578
g0
(g1
g2
Ntp9579
Rp9580
(dp9581
g6
Nsg8
S'NUMBER'
p9582
sg10
Nsg24
Nsbssg24
NsbsS'cross-your-heart'
p9583
g0
(g1
g2
Ntp9584
Rp9585
(dp9586
g6
Nsg8
S'PERSON'
p9587
sg10
Nsg24
NsbsS'bjorn'
p9588
g0
(g1
g2
Ntp9589
Rp9590
(dp9591
g6
Nsg8
S'NUMBER'
p9592
sg10
Nsg24
NsbsS'hurdle'
p9593
g0
(g1
g2
Ntp9594
Rp9595
(dp9596
g6
Nsg8
S'NUMBER'
p9597
sg10
Nsg24
NsbsS'ybarra'
p9598
g0
(g1
g2
Ntp9599
Rp9600
(dp9601
g6
Nsg8
S'PERSON'
p9602
sg10
Nsg24
NsbsS'drinker'
p9603
g0
(g1
g2
Ntp9604
Rp9605
(dp9606
g6
Nsg8
S'OTHER'
p9607
sg10
Nsg24
NsbsS'quality'
p9608
g0
(g1
g2
Ntp9609
Rp9610
(dp9611
g6
Nsg8
S'LOCATION'
p9612
sg10
Nsg24
NsbsS'unknown'
p9613
g0
(g1
g2
Ntp9614
Rp9615
(dp9616
g6
Nsg8
S'PERSON'
p9617
sg10
Nsg24
NsbsS'system'
p9618
g0
(g1
g2
Ntp9619
Rp9620
(dp9621
g6
Nsg8
S'OTHER'
p9622
sg10
Nsg24
NsbsS'fahrenheit'
p9623
g0
(g1
g2
Ntp9624
Rp9625
(dp9626
g6
Nsg8
S'NUMBER'
p9627
sg10
Nsg24
NsbsS'attack'
p9628
g0
(g1
g2
Ntp9629
Rp9630
(dp9631
g6
Nsg8
S'TIME'
p9632
sg10
Nsg24
NsbsS'sergeant'
p9633
g0
(g1
g2
Ntp9634
Rp9635
(dp9636
g6
Nsg8
S'PERSON'
p9637
sg10
Nsg24
NsbsS'ton'
p9638
g0
(g1
g2
Ntp9639
Rp9640
(dp9641
g6
Nsg8
S'MONEY'
p9642
sg10
Nsg24
NsbsS'beard'
p9643
g0
(g1
g2
Ntp9644
Rp9645
(dp9646
g6
Nsg8
S'PERSON'
p9647
sg10
Nsg24
NsbsS'stomach'
p9648
g0
(g1
g2
Ntp9649
Rp9650
(dp9651
g6
Nsg8
S'OTHER'
p9652
sg10
Nsg24
NsbsS'shelf'
p9653
g0
(g1
g2
Ntp9654
Rp9655
(dp9656
g6
Nsg8
S'NUMBER'
p9657
sg10
Nsg24
NsbsS'steel'
p9658
g0
(g1
g2
Ntp9659
Rp9660
(dp9661
g6
g16
sg8
S'OTHER'
p9662
sg10
(dp9663
S'when'
p9664
g0
(g1
g2
Ntp9665
Rp9666
(dp9667
g6
Nsg8
S'DATE'
p9668
sg10
Nsg24
NsbsS'what'
p9669
g0
(g1
g2
Ntp9670
Rp9671
(dp9672
g6
Nsg8
g9662
sg10
Nsg24
NsbsS'where'
p9673
g0
(g1
g2
Ntp9674
Rp9675
(dp9676
g6
Nsg8
S'LOCATION'
p9677
sg10
Nsg24
Nsbssg24
NsbsS'photograph'
p9678
g0
(g1
g2
Ntp9679
Rp9680
(dp9681
g6
Nsg8
S'LOCATION'
p9682
sg10
Nsg24
NsbsS'ben'
p9683
g0
(g1
g2
Ntp9684
Rp9685
(dp9686
g6
Nsg8
S'PERSON'
p9687
sg10
Nsg24
NsbsS'commodity'
p9688
g0
(g1
g2
Ntp9689
Rp9690
(dp9691
g6
Nsg8
S'OTHER'
p9692
sg10
Nsg24
NsbsS'roulette'
p9693
g0
(g1
g2
Ntp9694
Rp9695
(dp9696
g6
Nsg8
S'PERCENT'
p9697
sg10
Nsg24
NsbsS'inventor'
p9698
g0
(g1
g2
Ntp9699
Rp9700
(dp9701
g6
Nsg8
S'PERSON'
p9702
sg10
Nsg24
NsbsS'sculpture'
p9703
g0
(g1
g2
Ntp9704
Rp9705
(dp9706
g6
Nsg8
S'OTHER'
p9707
sg10
Nsg24
NsbsS'fowl'
p9708
g0
(g1
g2
Ntp9709
Rp9710
(dp9711
g6
Nsg8
S'OTHER'
p9712
sg10
Nsg24
NsbsS'tide'
p9713
g0
(g1
g2
Ntp9714
Rp9715
(dp9716
g6
Nsg8
S'NUMBER'
p9717
sg10
Nsg24
NsbsS'border'
p9718
g0
(g1
g2
Ntp9719
Rp9720
(dp9721
g6
g16
sg8
S'NUMBER'
p9722
sg10
(dp9723
S'how'
p9724
g0
(g1
g2
Ntp9725
Rp9726
(dp9727
g6
Nsg8
g9722
sg10
Nsg24
NsbsS'what'
p9728
g0
(g1
g2
Ntp9729
Rp9730
(dp9731
g6
Nsg8
S'LOCATION'
p9732
sg10
Nsg24
Nsbssg24
NsbsS'sinatra'
p9733
g0
(g1
g2
Ntp9734
Rp9735
(dp9736
g6
Nsg8
S'OTHER'
p9737
sg10
Nsg24
NsbsS'martha'
p9738
g0
(g1
g2
Ntp9739
Rp9740
(dp9741
g6
Nsg8
S'PERSON'
p9742
sg10
Nsg24
NsbsS'soap'
p9743
g0
(g1
g2
Ntp9744
Rp9745
(dp9746
g6
Nsg8
S'OTHER'
p9747
sg10
Nsg24
NsbsS'vegetation'
p9748
g0
(g1
g2
Ntp9749
Rp9750
(dp9751
g6
Nsg8
S'NUMBER'
p9752
sg10
Nsg24
NsbsS'sequel'
p9753
g0
(g1
g2
Ntp9754
Rp9755
(dp9756
g6
Nsg8
S'OTHER'
p9757
sg10
Nsg24
NsbsS'device'
p9758
g0
(g1
g2
Ntp9759
Rp9760
(dp9761
g6
Nsg8
S'OTHER'
p9762
sg10
Nsg24
NsbsS'highschool'
p9763
g0
(g1
g2
Ntp9764
Rp9765
(dp9766
g6
Nsg8
S'NUMBER'
p9767
sg10
Nsg24
NsbsS'class'
p9768
g0
(g1
g2
Ntp9769
Rp9770
(dp9771
g6
Nsg8
S'OTHER'
p9772
sg10
Nsg24
NsbsS'polyester'
p9773
g0
(g1
g2
Ntp9774
Rp9775
(dp9776
g6
Nsg8
S'OTHER'
p9777
sg10
Nsg24
NsbsS'url'
p9778
g0
(g1
g2
Ntp9779
Rp9780
(dp9781
g6
Nsg8
S'NUMBER'
p9782
sg10
Nsg24
NsbsS'stronger'
p9783
g0
(g1
g2
Ntp9784
Rp9785
(dp9786
g6
Nsg8
S'NUMBER'
p9787
sg10
Nsg24
NsbsS'disease'
p9788
g0
(g1
g2
Ntp9789
Rp9790
(dp9791
g6
Nsg8
S'OTHER'
p9792
sg10
Nsg24
NsbsS'movie'
p9793
g0
(g1
g2
Ntp9794
Rp9795
(dp9796
g6
g16
sg8
S'OTHER'
p9797
sg10
(dp9798
S'what'
p9799
g0
(g1
g2
Ntp9800
Rp9801
(dp9802
g6
Nsg8
S'OTHER'
p9803
sg10
Nsg24
NsbsS'who'
p9804
g0
(g1
g2
Ntp9805
Rp9806
(dp9807
g6
Nsg8
S'PERSON'
p9808
sg10
Nsg24
NsbsS'in what'
p9809
g0
(g1
g2
Ntp9810
Rp9811
(dp9812
g6
Nsg8
S'OTHER'
p9813
sg10
Nsg24
NsbsS'in the'
p9814
g0
(g1
g2
Ntp9815
Rp9816
(dp9817
g6
Nsg8
S'PERSON'
p9818
sg10
Nsg24
Nsbssg24
NsbsS'indoor'
p9819
g0
(g1
g2
Ntp9820
Rp9821
(dp9822
g6
Nsg8
S'OTHER'
p9823
sg10
Nsg24
NsbsS'fear'
p9824
g0
(g1
g2
Ntp9825
Rp9826
(dp9827
g6
Nsg8
S'OTHER'
p9828
sg10
Nsg24
NsbsS'staff'
p9829
g0
(g1
g2
Ntp9830
Rp9831
(dp9832
g6
Nsg8
S'PERSON'
p9833
sg10
Nsg24
NsbsS'winner'
p9834
g0
(g1
g2
Ntp9835
Rp9836
(dp9837
g6
Nsg8
S'OTHER'
p9838
sg10
Nsg24
NsbsS'bug'
p9839
g0
(g1
g2
Ntp9840
Rp9841
(dp9842
g6
Nsg8
S'OTHER'
p9843
sg10
Nsg24
NsbsS'tape'
p9844
g0
(g1
g2
Ntp9845
Rp9846
(dp9847
g6
Nsg8
S'LOCATION'
p9848
sg10
Nsg24
NsbsS'ayer'
p9849
g0
(g1
g2
Ntp9850
Rp9851
(dp9852
g6
Nsg8
S'LOCATION'
p9853
sg10
Nsg24
NsbsS'employee'
p9854
g0
(g1
g2
Ntp9855
Rp9856
(dp9857
g6
Nsg8
S'OTHER'
p9858
sg10
Nsg24
NsbsS'riding'
p9859
g0
(g1
g2
Ntp9860
Rp9861
(dp9862
g6
Nsg8
S'OTHER'
p9863
sg10
Nsg24
NsbsS'inhabit'
p9864
g0
(g1
g2
Ntp9865
Rp9866
(dp9867
g6
Nsg8
S'PERSON'
p9868
sg10
Nsg24
NsbsS'bear'
p9869
g0
(g1
g2
Ntp9870
Rp9871
(dp9872
g6
Nsg8
S'OTHER'
p9873
sg10
Nsg24
NsbsS'aykroyd'
p9874
g0
(g1
g2
Ntp9875
Rp9876
(dp9877
g6
Nsg8
S'OTHER'
p9878
sg10
Nsg24
NsbsS'abby'
p9879
g0
(g1
g2
Ntp9880
Rp9881
(dp9882
g6
Nsg8
S'PERSON'
p9883
sg10
Nsg24
NsbsS'gram'
p9884
g0
(g1
g2
Ntp9885
Rp9886
(dp9887
g6
Nsg8
S'NUMBER'
p9888
sg10
Nsg24
NsbsS'gran'
p9889
g0
(g1
g2
Ntp9890
Rp9891
(dp9892
g6
Nsg8
S'LOCATION'
p9893
sg10
Nsg24
NsbsS'ohio'
p9894
g0
(g1
g2
Ntp9895
Rp9896
(dp9897
g6
Nsg8
S'PERSON'
p9898
sg10
Nsg24
NsbsS'gibson'
p9899
g0
(g1
g2
Ntp9900
Rp9901
(dp9902
g6
Nsg8
S'OTHER'
p9903
sg10
Nsg24
NsbsS'humpty'
p9904
g0
(g1
g2
Ntp9905
Rp9906
(dp9907
g6
Nsg8
S'PERSON'
p9908
sg10
Nsg24
NsbsS'puddle'
p9909
g0
(g1
g2
Ntp9910
Rp9911
(dp9912
g6
Nsg8
S'PERSON'
p9913
sg10
Nsg24
NsbsS'taiwanese'
p9914
g0
(g1
g2
Ntp9915
Rp9916
(dp9917
g6
Nsg8
S'PERSON'
p9918
sg10
Nsg24
NsbsS'computer'
p9919
g0
(g1
g2
Ntp9920
Rp9921
(dp9922
g6
Nsg8
S'OTHER'
p9923
sg10
Nsg24
NsbsS'amtrak'
p9924
g0
(g1
g2
Ntp9925
Rp9926
(dp9927
g6
g16
sg8
S'LOCATION'
p9928
sg10
(dp9929
S'when'
p9930
g0
(g1
g2
Ntp9931
Rp9932
(dp9933
g6
Nsg8
S'DATE'
p9934
sg10
Nsg24
NsbsS'where'
p9935
g0
(g1
g2
Ntp9936
Rp9937
(dp9938
g6
Nsg8
g9928
sg10
Nsg24
Nsbssg24
NsbsS'calhoun'
p9939
g0
(g1
g2
Ntp9940
Rp9941
(dp9942
g6
Nsg8
S'OTHER'
p9943
sg10
Nsg24
NsbsS'genius'
p9944
g0
(g1
g2
Ntp9945
Rp9946
(dp9947
g6
Nsg8
S'PERSON'
p9948
sg10
Nsg24
NsbsS'state'
p9949
g0
(g1
g2
Ntp9950
Rp9951
(dp9952
g6
g16
sg8
S'LOCATION'
p9953
sg10
(dp9954
S'how'
p9955
g0
(g1
g2
Ntp9956
Rp9957
(dp9958
g6
Nsg8
S'NUMBER'
p9959
sg10
Nsg24
NsbsS'what'
p9960
g0
(g1
g2
Ntp9961
Rp9962
(dp9963
g6
Nsg8
S'LOCATION'
p9964
sg10
Nsg24
NsbsS'who'
p9965
g0
(g1
g2
Ntp9966
Rp9967
(dp9968
g6
Nsg8
S'PERSON'
p9969
sg10
Nsg24
NsbsS'in what'
p9970
g0
(g1
g2
Ntp9971
Rp9972
(dp9973
g6
Nsg8
S'LOCATION'
p9974
sg10
Nsg24
NsbsS'in which'
p9975
g0
(g1
g2
Ntp9976
Rp9977
(dp9978
g6
Nsg8
S'LOCATION'
p9979
sg10
Nsg24
Nsbssg24
NsbsS'rowan'
p9980
g0
(g1
g2
Ntp9981
Rp9982
(dp9983
g6
Nsg8
S'PERSON'
p9984
sg10
Nsg24
NsbsS'batmobile'
p9985
g0
(g1
g2
Ntp9986
Rp9987
(dp9988
g6
Nsg8
S'NUMBER'
p9989
sg10
Nsg24
NsbsS'wembley'
p9990
g0
(g1
g2
Ntp9991
Rp9992
(dp9993
g6
Nsg8
S'OTHER'
p9994
sg10
Nsg24
NsbsS'gemstone'
p9995
g0
(g1
g2
Ntp9996
Rp9997
(dp9998
g6
Nsg8
S'OTHER'
p9999
sg10
Nsg24
NsbsS'aspartame'
p10000
g0
(g1
g2
Ntp10001
Rp10002
(dp10003
g6
Nsg8
S'OTHER'
p10004
sg10
Nsg24
NsbsS'ability'
p10005
g0
(g1
g2
Ntp10006
Rp10007
(dp10008
g6
Nsg8
S'OTHER'
p10009
sg10
Nsg24
NsbsS'nickel-cadmium'
p10010
g0
(g1
g2
Ntp10011
Rp10012
(dp10013
g6
Nsg8
S'NUMBER'
p10014
sg10
Nsg24
NsbsS'job'
p10015
g0
(g1
g2
Ntp10016
Rp10017
(dp10018
g6
Nsg8
S'PERSON'
p10019
sg10
Nsg24
NsbsS'police'
p10020
g0
(g1
g2
Ntp10021
Rp10022
(dp10023
g6
Nsg8
S'PERSON'
p10024
sg10
Nsg24
NsbsS'barrett'
p10025
g0
(g1
g2
Ntp10026
Rp10027
(dp10028
g6
Nsg8
S'PERSON'
p10029
sg10
Nsg24
NsbsS'career'
p10030
g0
(g1
g2
Ntp10031
Rp10032
(dp10033
g6
Nsg8
S'PERSON'
p10034
sg10
Nsg24
NsbsS'gilbert'
p10035
g0
(g1
g2
Ntp10036
Rp10037
(dp10038
g6
Nsg8
S'OTHER'
p10039
sg10
Nsg24
NsbsS'drug'
p10040
g0
(g1
g2
Ntp10041
Rp10042
(dp10043
g6
Nsg8
S'OTHER'
p10044
sg10
Nsg24
NsbsS'succotash'
p10045
g0
(g1
g2
Ntp10046
Rp10047
(dp10048
g6
Nsg8
S'OTHER'
p10049
sg10
Nsg24
NsbsS'jersey'
p10050
g0
(g1
g2
Ntp10051
Rp10052
(dp10053
g6
Nsg8
S'OTHER'
p10054
sg10
Nsg24
NsbsS'opposition'
p10055
g0
(g1
g2
Ntp10056
Rp10057
(dp10058
g6
Nsg8
S'PERSON'
p10059
sg10
Nsg24
NsbsS'wall'
p10060
g0
(g1
g2
Ntp10061
Rp10062
(dp10063
g6
g16
sg8
S'LOCATION'
p10064
sg10
(dp10065
S'what'
p10066
g0
(g1
g2
Ntp10067
Rp10068
(dp10069
g6
Nsg8
g10064
sg10
Nsg24
NsbsS'when'
p10070
g0
(g1
g2
Ntp10071
Rp10072
(dp10073
g6
Nsg8
S'DATE'
p10074
sg10
Nsg24
Nsbssg24
NsbsS'lyricist'
p10075
g0
(g1
g2
Ntp10076
Rp10077
(dp10078
g6
Nsg8
S'PERSON'
p10079
sg10
Nsg24
NsbsS'cd'
p10080
g0
(g1
g2
Ntp10081
Rp10082
(dp10083
g6
Nsg8
S'OTHER'
p10084
sg10
Nsg24
NsbsS'qintex'
p10085
g0
(g1
g2
Ntp10086
Rp10087
(dp10088
g6
Nsg8
S'MONEY'
p10089
sg10
Nsg24
NsbsS'heimlich'
p10090
g0
(g1
g2
Ntp10091
Rp10092
(dp10093
g6
Nsg8
S'PERSON'
p10094
sg10
Nsg24
NsbsS'poem'
p10095
g0
(g1
g2
Ntp10096
Rp10097
(dp10098
g6
Nsg8
S'PERSON'
p10099
sg10
Nsg24
NsbsS'swimmer'
p10100
g0
(g1
g2
Ntp10101
Rp10102
(dp10103
g6
g16
sg8
S'PERSON'
p10104
sg10
(dp10105
S'what'
p10106
g0
(g1
g2
Ntp10107
Rp10108
(dp10109
g6
Nsg8
S'OTHER'
p10110
sg10
Nsg24
NsbsS'who'
p10111
g0
(g1
g2
Ntp10112
Rp10113
(dp10114
g6
Nsg8
g10104
sg10
Nsg24
Nsbssg24
NsbsS'trademark'
p10115
g0
(g1
g2
Ntp10116
Rp10117
(dp10118
g6
Nsg8
S'OTHER'
p10119
sg10
Nsg24
NsbsS'newscast'
p10120
g0
(g1
g2
Ntp10121
Rp10122
(dp10123
g6
Nsg8
S'PERSON'
p10124
sg10
Nsg24
NsbsS'treat'
p10125
g0
(g1
g2
Ntp10126
Rp10127
(dp10128
g6
Nsg8
S'OTHER'
p10129
sg10
Nsg24
NsbsS'poet'
p10130
g0
(g1
g2
Ntp10131
Rp10132
(dp10133
g6
Nsg8
S'PERSON'
p10134
sg10
Nsg24
NsbsS'nicolet'
p10135
g0
(g1
g2
Ntp10136
Rp10137
(dp10138
g6
Nsg8
S'PERSON'
p10139
sg10
Nsg24
NsbsS'liverpool'
p10140
g0
(g1
g2
Ntp10141
Rp10142
(dp10143
g6
Nsg8
S'LOCATION'
p10144
sg10
Nsg24
NsbsS'listing'
p10145
g0
(g1
g2
Ntp10146
Rp10147
(dp10148
g6
Nsg8
S'LOCATION'
p10149
sg10
Nsg24
NsbsS'ridder'
p10150
g0
(g1
g2
Ntp10151
Rp10152
(dp10153
g6
Nsg8
S'OTHER'
p10154
sg10
Nsg24
NsbsS'orange'
p10155
g0
(g1
g2
Ntp10156
Rp10157
(dp10158
g6
Nsg8
S'LOCATION'
p10159
sg10
Nsg24
NsbsS'smoking'
p10160
g0
(g1
g2
Ntp10161
Rp10162
(dp10163
g6
Nsg8
S'NUMBER'
p10164
sg10
Nsg24
NsbsS'painter'
p10165
g0
(g1
g2
Ntp10166
Rp10167
(dp10168
g6
Nsg8
S'PERSON'
p10169
sg10
Nsg24
NsbsS'novel'
p10170
g0
(g1
g2
Ntp10171
Rp10172
(dp10173
g6
Nsg8
S'OTHER'
p10174
sg10
Nsg24
NsbsS'irate'
p10175
g0
(g1
g2
Ntp10176
Rp10177
(dp10178
g6
Nsg8
S'OTHER'
p10179
sg10
Nsg24
NsbsS'antigua'
p10180
g0
(g1
g2
Ntp10181
Rp10182
(dp10183
g6
Nsg8
S'NUMBER'
p10184
sg10
Nsg24
NsbsS'wild'
p10185
g0
(g1
g2
Ntp10186
Rp10187
(dp10188
g6
Nsg8
S'PERSON'
p10189
sg10
Nsg24
NsbsS'mythology'
p10190
g0
(g1
g2
Ntp10191
Rp10192
(dp10193
g6
Nsg8
S'LOCATION'
p10194
sg10
Nsg24
NsbsS'nabokov'
p10195
g0
(g1
g2
Ntp10196
Rp10197
(dp10198
g6
Nsg8
S'OTHER'
p10199
sg10
Nsg24
NsbsS'chernobyl'
p10200
g0
(g1
g2
Ntp10201
Rp10202
(dp10203
g6
Nsg8
S'DATE'
p10204
sg10
Nsg24
NsbsS'layer'
p10205
g0
(g1
g2
Ntp10206
Rp10207
(dp10208
g6
Nsg8
S'OTHER'
p10209
sg10
Nsg24
NsbsS'site'
p10210
g0
(g1
g2
Ntp10211
Rp10212
(dp10213
g6
Nsg8
S'LOCATION'
p10214
sg10
Nsg24
NsbsS'surface'
p10215
g0
(g1
g2
Ntp10216
Rp10217
(dp10218
g6
Nsg8
S'NUMBER'
p10219
sg10
Nsg24
NsbsS'vw'
p10220
g0
(g1
g2
Ntp10221
Rp10222
(dp10223
g6
Nsg8
S'OTHER'
p10224
sg10
Nsg24
NsbsS'partner'
p10225
g0
(g1
g2
Ntp10226
Rp10227
(dp10228
g6
Nsg8
S'PERSON'
p10229
sg10
Nsg24
NsbsS'terrorist'
p10230
g0
(g1
g2
Ntp10231
Rp10232
(dp10233
g6
Nsg8
S'PERSON'
p10234
sg10
Nsg24
NsbsS'tsetse'
p10235
g0
(g1
g2
Ntp10236
Rp10237
(dp10238
g6
Nsg8
S'NUMBER'
p10239
sg10
Nsg24
NsbsS'pit'
p10240
g0
(g1
g2
Ntp10241
Rp10242
(dp10243
g6
Nsg8
S'PERSON'
p10244
sg10
Nsg24
NsbsS'administration'
p10245
g0
(g1
g2
Ntp10246
Rp10247
(dp10248
g6
Nsg8
S'PERSON'
p10249
sg10
Nsg24
NsbsS'roman'
p10250
g0
(g1
g2
Ntp10251
Rp10252
(dp10253
g6
Nsg8
S'PERSON'
p10254
sg10
Nsg24
NsbsS'member'
p10255
g0
(g1
g2
Ntp10256
Rp10257
(dp10258
g6
g16
sg8
S'PERSON'
p10259
sg10
(dp10260
S'how'
p10261
g0
(g1
g2
Ntp10262
Rp10263
(dp10264
g6
Nsg8
S'NUMBER'
p10265
sg10
Nsg24
NsbsS'what'
p10266
g0
(g1
g2
Ntp10267
Rp10268
(dp10269
g6
Nsg8
S'PERSON'
p10270
sg10
Nsg24
NsbsS'who'
p10271
g0
(g1
g2
Ntp10272
Rp10273
(dp10274
g6
Nsg8
g10259
sg10
Nsg24
NsbsS'which'
p10275
g0
(g1
g2
Ntp10276
Rp10277
(dp10278
g6
Nsg8
S'PERSON'
p10279
sg10
Nsg24
Nsbssg24
NsbsS'auto'
p10280
g0
(g1
g2
Ntp10281
Rp10282
(dp10283
g6
Nsg8
S'OTHER'
p10284
sg10
Nsg24
NsbsS'party'
p10285
g0
(g1
g2
Ntp10286
Rp10287
(dp10288
g6
g16
sg8
S'PERSON'
p10289
sg10
(dp10290
S'how'
p10291
g0
(g1
g2
Ntp10292
Rp10293
(dp10294
g6
Nsg8
S'MONEY'
p10295
sg10
Nsg24
NsbsS'what'
p10296
g0
(g1
g2
Ntp10297
Rp10298
(dp10299
g6
Nsg8
S'PERSON'
p10300
sg10
Nsg24
Nsbssg24
NsbsS'parthenon'
p10301
g0
(g1
g2
Ntp10302
Rp10303
(dp10304
g6
Nsg8
S'DATE'
p10305
sg10
Nsg24
NsbsS'ball'
p10306
g0
(g1
g2
Ntp10307
Rp10308
(dp10309
g6
g16
sg8
S'PERSON'
p10310
sg10
(dp10311
S'how'
p10312
g0
(g1
g2
Ntp10313
Rp10314
(dp10315
g6
Nsg8
S'TIME'
p10316
sg10
Nsg24
NsbsS'what'
p10317
g0
(g1
g2
Ntp10318
Rp10319
(dp10320
g6
Nsg8
S'OTHER'
p10321
sg10
Nsg24
NsbsS'who'
p10322
g0
(g1
g2
Ntp10323
Rp10324
(dp10325
g6
Nsg8
g10310
sg10
Nsg24
Nsbssg24
NsbsS'columbia'
p10326
g0
(g1
g2
Ntp10327
Rp10328
(dp10329
g6
Nsg8
S'PERSON'
p10330
sg10
Nsg24
NsbsS'zorro'
p10331
g0
(g1
g2
Ntp10332
Rp10333
(dp10334
g6
Nsg8
S'OTHER'
p10335
sg10
Nsg24
NsbsS'drink'
p10336
g0
(g1
g2
Ntp10337
Rp10338
(dp10339
g6
g16
sg8
S'OTHER'
p10340
sg10
(dp10341
S'what'
p10342
g0
(g1
g2
Ntp10343
Rp10344
(dp10345
g6
Nsg8
S'OTHER'
p10346
sg10
Nsg24
NsbsS'who'
p10347
g0
(g1
g2
Ntp10348
Rp10349
(dp10350
g6
Nsg8
S'PERSON'
p10351
sg10
Nsg24
NsbsS'which'
p10352
g0
(g1
g2
Ntp10353
Rp10354
(dp10355
g6
Nsg8
S'OTHER'
p10356
sg10
Nsg24
Nsbssg24
NsbsS'student'
p10357
g0
(g1
g2
Ntp10358
Rp10359
(dp10360
g6
Nsg8
S'NUMBER'
p10361
sg10
Nsg24
NsbsS'whale'
p10362
g0
(g1
g2
Ntp10363
Rp10364
(dp10365
g6
Nsg8
S'OTHER'
p10366
sg10
Nsg24
NsbsS'identity'
p10367
g0
(g1
g2
Ntp10368
Rp10369
(dp10370
g6
Nsg8
S'PERSON'
p10371
sg10
Nsg24
NsbsS'center'
p10372
g0
(g1
g2
Ntp10373
Rp10374
(dp10375
g6
g16
sg8
S'LOCATION'
p10376
sg10
(dp10377
S'what'
p10378
g0
(g1
g2
Ntp10379
Rp10380
(dp10381
g6
Nsg8
S'LOCATION'
p10382
sg10
Nsg24
NsbsS'who'
p10383
g0
(g1
g2
Ntp10384
Rp10385
(dp10386
g6
Nsg8
S'PERSON'
p10387
sg10
Nsg24
Nsbssg24
NsbsS'antonio'
p10388
g0
(g1
g2
Ntp10389
Rp10390
(dp10391
g6
Nsg8
S'PERSON'
p10392
sg10
Nsg24
NsbsS'english'
p10393
g0
(g1
g2
Ntp10394
Rp10395
(dp10396
g6
g16
sg8
S'PERSON'
p10397
sg10
(dp10398
S'what'
p10399
g0
(g1
g2
Ntp10400
Rp10401
(dp10402
g6
Nsg8
S'OTHER'
p10403
sg10
Nsg24
NsbsS'who'
p10404
g0
(g1
g2
Ntp10405
Rp10406
(dp10407
g6
Nsg8
g10397
sg10
Nsg24
Nsbssg24
NsbsS'soviet'
p10408
g0
(g1
g2
Ntp10409
Rp10410
(dp10411
g6
Nsg8
S'NUMBER'
p10412
sg10
Nsg24
NsbsS'deltiologist'
p10413
g0
(g1
g2
Ntp10414
Rp10415
(dp10416
g6
Nsg8
S'OTHER'
p10417
sg10
Nsg24
NsbsS'guitarist'
p10418
g0
(g1
g2
Ntp10419
Rp10420
(dp10421
g6
Nsg8
S'PERSON'
p10422
sg10
Nsg24
NsbsS'camel'
p10423
g0
(g1
g2
Ntp10424
Rp10425
(dp10426
g6
Nsg8
S'OTHER'
p10427
sg10
Nsg24
NsbsS'khrushchev'
p10428
g0
(g1
g2
Ntp10429
Rp10430
(dp10431
g6
Nsg8
S'PERSON'
p10432
sg10
Nsg24
NsbsS'web'
p10433
g0
(g1
g2
Ntp10434
Rp10435
(dp10436
g6
g16
sg8
S'LOCATION'
p10437
sg10
(dp10438
S'how'
p10439
g0
(g1
g2
Ntp10440
Rp10441
(dp10442
g6
Nsg8
S'TIME'
p10443
sg10
Nsg24
NsbsS'what'
p10444
g0
(g1
g2
Ntp10445
Rp10446
(dp10447
g6
Nsg8
S'LOCATION'
p10448
sg10
Nsg24
NsbsS'where'
p10449
g0
(g1
g2
Ntp10450
Rp10451
(dp10452
g6
Nsg8
g10437
sg10
Nsg24
Nsbssg24
NsbsS'bremer'
p10453
g0
(g1
g2
Ntp10454
Rp10455
(dp10456
g6
Nsg8
S'PERSON'
p10457
sg10
Nsg24
NsbsS'bell'
p10458
g0
(g1
g2
Ntp10459
Rp10460
(dp10461
g6
Nsg8
S'LOCATION'
p10462
sg10
Nsg24
NsbsS'patricia'
p10463
g0
(g1
g2
Ntp10464
Rp10465
(dp10466
g6
Nsg8
S'PERSON'
p10467
sg10
Nsg24
NsbsS'winnie'
p10468
g0
(g1
g2
Ntp10469
Rp10470
(dp10471
g6
Nsg8
S'OTHER'
p10472
sg10
Nsg24
NsbsS'crack'
p10473
g0
(g1
g2
Ntp10474
Rp10475
(dp10476
g6
Nsg8
S'OTHER'
p10477
sg10
Nsg24
NsbsS'punchbowl'
p10478
g0
(g1
g2
Ntp10479
Rp10480
(dp10481
g6
Nsg8
S'PERSON'
p10482
sg10
Nsg24
NsbsS'scoundrel'
p10483
g0
(g1
g2
Ntp10484
Rp10485
(dp10486
g6
Nsg8
S'PERSON'
p10487
sg10
Nsg24
NsbsS'gestapo'
p10488
g0
(g1
g2
Ntp10489
Rp10490
(dp10491
g6
Nsg8
S'PERSON'
p10492
sg10
Nsg24
NsbsS'myth'
p10493
g0
(g1
g2
Ntp10494
Rp10495
(dp10496
g6
Nsg8
S'LOCATION'
p10497
sg10
Nsg24
NsbsS'government'
p10498
g0
(g1
g2
Ntp10499
Rp10500
(dp10501
g6
Nsg8
S'PERSON'
p10502
sg10
Nsg24
NsbsS'chancellor'
p10503
g0
(g1
g2
Ntp10504
Rp10505
(dp10506
g6
Nsg8
S'PERSON'
p10507
sg10
Nsg24
NsbsS'utah'
p10508
g0
(g1
g2
Ntp10509
Rp10510
(dp10511
g6
Nsg8
S'NUMBER'
p10512
sg10
Nsg24
NsbsS'treehouse'
p10513
g0
(g1
g2
Ntp10514
Rp10515
(dp10516
g6
Nsg8
S'LOCATION'
p10517
sg10
Nsg24
NsbsS'leon'
p10518
g0
(g1
g2
Ntp10519
Rp10520
(dp10521
g6
Nsg8
S'OTHER'
p10522
sg10
Nsg24
NsbsS'desk'
p10523
g0
(g1
g2
Ntp10524
Rp10525
(dp10526
g6
Nsg8
S'LOCATION'
p10527
sg10
Nsg24
NsbsS'press'
p10528
g0
(g1
g2
Ntp10529
Rp10530
(dp10531
g6
Nsg8
S'PERSON'
p10532
sg10
Nsg24
NsbsS'success'
p10533
g0
(g1
g2
Ntp10534
Rp10535
(dp10536
g6
Nsg8
S'PERSON'
p10537
sg10
Nsg24
NsbsS'lose'
p10538
g0
(g1
g2
Ntp10539
Rp10540
(dp10541
g6
Nsg8
S'OTHER'
p10542
sg10
Nsg24
NsbsS'become'
p10543
g0
(g1
g2
Ntp10544
Rp10545
(dp10546
g6
Nsg8
S'DATE'
p10547
sg10
Nsg24
NsbsS'x-man'
p10548
g0
(g1
g2
Ntp10549
Rp10550
(dp10551
g6
Nsg8
S'PERSON'
p10552
sg10
Nsg24
NsbsS'habitat'
p10553
g0
(g1
g2
Ntp10554
Rp10555
(dp10556
g6
Nsg8
S'LOCATION'
p10557
sg10
Nsg24
NsbsS'shea'
p10558
g0
(g1
g2
Ntp10559
Rp10560
(dp10561
g6
g16
sg8
S'NUMBER'
p10562
sg10
(dp10563
S'how'
p10564
g0
(g1
g2
Ntp10565
Rp10566
(dp10567
g6
Nsg8
g10562
sg10
Nsg24
NsbsS'the'
p10568
g0
(g1
g2
Ntp10569
Rp10570
(dp10571
g6
Nsg8
S'NUMBER'
p10572
sg10
Nsg24
Nsbsg10558
g0
(g1
g2
Ntp10573
Rp10574
(dp10575
g6
Nsg8
S'TIME'
p10576
sg10
Nsg24
Nsbssg24
NsbsS'hair'
p10577
g0
(g1
g2
Ntp10578
Rp10579
(dp10580
g6
Nsg8
S'OTHER'
p10581
sg10
Nsg24
NsbsS'export'
p10582
g0
(g1
g2
Ntp10583
Rp10584
(dp10585
g6
Nsg8
S'NUMBER'
p10586
sg10
Nsg24
NsbsS'archenemy'
p10587
g0
(g1
g2
Ntp10588
Rp10589
(dp10590
g6
Nsg8
S'PERSON'
p10591
sg10
Nsg24
NsbsS'cleveland'
p10592
g0
(g1
g2
Ntp10593
Rp10594
(dp10595
g6
Nsg8
S'OTHER'
p10596
sg10
Nsg24
NsbsS'home'
p10597
g0
(g1
g2
Ntp10598
Rp10599
(dp10600
g6
g16
sg8
S'NUMBER'
p10601
sg10
(dp10602
S'how'
p10603
g0
(g1
g2
Ntp10604
Rp10605
(dp10606
g6
Nsg8
S'NUMBER'
p10607
sg10
Nsg24
NsbsS'what'
p10608
g0
(g1
g2
Ntp10609
Rp10610
(dp10611
g6
Nsg8
S'LOCATION'
p10612
sg10
Nsg24
NsbsS'who'
p10613
g0
(g1
g2
Ntp10614
Rp10615
(dp10616
g6
Nsg8
S'PERSON'
p10617
sg10
Nsg24
Nsbssg24
NsbsS'empire'
p10618
g0
(g1
g2
Ntp10619
Rp10620
(dp10621
g6
Nsg8
S'NUMBER'
p10622
sg10
Nsg24
NsbsS'peter'
p10623
g0
(g1
g2
Ntp10624
Rp10625
(dp10626
g6
g16
sg8
S'OTHER'
p10627
sg10
(dp10628
S'what'
p10629
g0
(g1
g2
Ntp10630
Rp10631
(dp10632
g6
Nsg8
g10627
sg10
Nsg24
NsbsS'who'
p10633
g0
(g1
g2
Ntp10634
Rp10635
(dp10636
g6
Nsg8
S'PERSON'
p10637
sg10
Nsg24
Nsbssg24
NsbsS'employment'
p10638
g0
(g1
g2
Ntp10639
Rp10640
(dp10641
g6
Nsg8
S'PERSON'
p10642
sg10
Nsg24
NsbsS'competitor'
p10643
g0
(g1
g2
Ntp10644
Rp10645
(dp10646
g6
Nsg8
S'PERSON'
p10647
sg10
Nsg24
NsbsS'lead'
p10648
g0
(g1
g2
Ntp10649
Rp10650
(dp10651
g6
Nsg8
S'PERSON'
p10652
sg10
Nsg24
NsbsS'hurricane'
p10653
g0
(g1
g2
Ntp10654
Rp10655
(dp10656
g6
Nsg8
S'OTHER'
p10657
sg10
Nsg24
NsbsS'duckling'
p10658
g0
(g1
g2
Ntp10659
Rp10660
(dp10661
g6
Nsg8
S'PERSON'
p10662
sg10
Nsg24
NsbsS'disk'
p10663
g0
(g1
g2
Ntp10664
Rp10665
(dp10666
g6
Nsg8
S'NUMBER'
p10667
sg10
Nsg24
NsbsS'leader'
p10668
g0
(g1
g2
Ntp10669
Rp10670
(dp10671
g6
Nsg8
S'PERSON'
p10672
sg10
Nsg24
NsbsS'murdock'
p10673
g0
(g1
g2
Ntp10674
Rp10675
(dp10676
g6
Nsg8
S'PERSON'
p10677
sg10
Nsg24
NsbsS'host'
p10678
g0
(g1
g2
Ntp10679
Rp10680
(dp10681
g6
Nsg8
S'PERSON'
p10682
sg10
Nsg24
NsbsS'refuge'
p10683
g0
(g1
g2
Ntp10684
Rp10685
(dp10686
g6
Nsg8
S'NUMBER'
p10687
sg10
Nsg24
NsbsS'science'
p10688
g0
(g1
g2
Ntp10689
Rp10690
(dp10691
g6
g16
sg8
S'OTHER'
p10692
sg10
(dp10693
S'what'
p10694
g0
(g1
g2
Ntp10695
Rp10696
(dp10697
g6
Nsg8
g10692
sg10
Nsg24
NsbsS'where'
p10698
g0
(g1
g2
Ntp10699
Rp10700
(dp10701
g6
Nsg8
S'LOCATION'
p10702
sg10
Nsg24
Nsbssg24
NsbsS'pike'
p10703
g0
(g1
g2
Ntp10704
Rp10705
(dp10706
g6
Nsg8
S'PERSON'
p10707
sg10
Nsg24
NsbsS'sister'
p10708
g0
(g1
g2
Ntp10709
Rp10710
(dp10711
g6
g16
sg8
S'PERSON'
p10712
sg10
(dp10713
S'what'
p10714
g0
(g1
g2
Ntp10715
Rp10716
(dp10717
g6
Nsg8
S'OTHER'
p10718
sg10
Nsg24
NsbsS'who'
p10719
g0
(g1
g2
Ntp10720
Rp10721
(dp10722
g6
Nsg8
g10712
sg10
Nsg24
Nsbssg24
NsbsS'universe'
p10723
g0
(g1
g2
Ntp10724
Rp10725
(dp10726
g6
Nsg8
S'NUMBER'
p10727
sg10
Nsg24
NsbsS'rodeo'
p10728
g0
(g1
g2
Ntp10729
Rp10730
(dp10731
g6
Nsg8
S'NUMBER'
p10732
sg10
Nsg24
NsbsS'tongue'
p10733
g0
(g1
g2
Ntp10734
Rp10735
(dp10736
g6
Nsg8
S'OTHER'
p10737
sg10
Nsg24
NsbsS'emperor'
p10738
g0
(g1
g2
Ntp10739
Rp10740
(dp10741
g6
Nsg8
S'PERSON'
p10742
sg10
Nsg24
NsbsS'swimming'
p10743
g0
(g1
g2
Ntp10744
Rp10745
(dp10746
g6
Nsg8
S'OTHER'
p10747
sg10
Nsg24
NsbsS'owe'
p10748
g0
(g1
g2
Ntp10749
Rp10750
(dp10751
g6
Nsg8
S'OTHER'
p10752
sg10
Nsg24
NsbsS'washington'
p10753
g0
(g1
g2
Ntp10754
Rp10755
(dp10756
g6
g16
sg8
S'LOCATION'
p10757
sg10
(dp10758
S'how'
p10759
g0
(g1
g2
Ntp10760
Rp10761
(dp10762
g6
Nsg8
S'TIME'
p10763
sg10
Nsg24
NsbsS'what'
p10764
g0
(g1
g2
Ntp10765
Rp10766
(dp10767
g6
Nsg8
S'PERSON'
p10768
sg10
Nsg24
NsbsS'where'
p10769
g0
(g1
g2
Ntp10770
Rp10771
(dp10772
g6
Nsg8
S'LOCATION'
p10773
sg10
Nsg24
Nsbssg24
NsbsS'weather'
p10774
g0
(g1
g2
Ntp10775
Rp10776
(dp10777
g6
Nsg8
S'PERSON'
p10778
sg10
Nsg24
NsbsS'female'
p10779
g0
(g1
g2
Ntp10780
Rp10781
(dp10782
g6
Nsg8
S'PERSON'
p10783
sg10
Nsg24
NsbsS'joyce'
p10784
g0
(g1
g2
Ntp10785
Rp10786
(dp10787
g6
Nsg8
S'NUMBER'
p10788
sg10
Nsg24
NsbsS'baskin'
p10789
g0
(g1
g2
Ntp10790
Rp10791
(dp10792
g6
Nsg8
S'NUMBER'
p10793
sg10
Nsg24
NsbsS'yankee'
p10794
g0
(g1
g2
Ntp10795
Rp10796
(dp10797
g6
Nsg8
S'PERSON'
p10798
sg10
Nsg24
NsbsS'mississippi'
p10799
g0
(g1
g2
Ntp10800
Rp10801
(dp10802
g6
Nsg8
S'OTHER'
p10803
sg10
Nsg24
NsbsS'museum'
p10804
g0
(g1
g2
Ntp10805
Rp10806
(dp10807
g6
Nsg8
S'LOCATION'
p10808
sg10
Nsg24
NsbsS'breeding'
p10809
g0
(g1
g2
Ntp10810
Rp10811
(dp10812
g6
Nsg8
S'OTHER'
p10813
sg10
Nsg24
NsbsS'cricket'
p10814
g0
(g1
g2
Ntp10815
Rp10816
(dp10817
g6
Nsg8
S'NUMBER'
p10818
sg10
Nsg24
NsbsS'north'
p10819
g0
(g1
g2
Ntp10820
Rp10821
(dp10822
g6
Nsg8
S'LOCATION'
p10823
sg10
Nsg24
NsbsS'brand'
p10824
g0
(g1
g2
Ntp10825
Rp10826
(dp10827
g6
Nsg8
S'OTHER'
p10828
sg10
Nsg24
NsbsS'kalahari'
p10829
g0
(g1
g2
Ntp10830
Rp10831
(dp10832
g6
Nsg8
S'LOCATION'
p10833
sg10
Nsg24
NsbsS'vichyssoise'
p10834
g0
(g1
g2
Ntp10835
Rp10836
(dp10837
g6
Nsg8
S'OTHER'
p10838
sg10
Nsg24
NsbsS'eat'
p10839
g0
(g1
g2
Ntp10840
Rp10841
(dp10842
g6
Nsg8
S'OTHER'
p10843
sg10
Nsg24
NsbsS'count'
p10844
g0
(g1
g2
Ntp10845
Rp10846
(dp10847
g6
Nsg8
S'PERSON'
p10848
sg10
Nsg24
NsbsS'made'
p10849
g0
(g1
g2
Ntp10850
Rp10851
(dp10852
g6
Nsg8
S'PERSON'
p10853
sg10
Nsg24
NsbsS'glory'
p10854
g0
(g1
g2
Ntp10855
Rp10856
(dp10857
g6
Nsg8
S'PERSON'
p10858
sg10
Nsg24
NsbsS'official'
p10859
g0
(g1
g2
Ntp10860
Rp10861
(dp10862
g6
g16
sg8
S'NUMBER'
p10863
sg10
(dp10864
S'how'
p10865
g0
(g1
g2
Ntp10866
Rp10867
(dp10868
g6
Nsg8
g10863
sg10
Nsg24
NsbsS'where'
p10869
g0
(g1
g2
Ntp10870
Rp10871
(dp10872
g6
Nsg8
S'LOCATION'
p10873
sg10
Nsg24
Nsbssg24
NsbsS'piece'
p10874
g0
(g1
g2
Ntp10875
Rp10876
(dp10877
g6
Nsg8
S'OTHER'
p10878
sg10
Nsg24
NsbsS'condiment'
p10879
g0
(g1
g2
Ntp10880
Rp10881
(dp10882
g6
Nsg8
S'OTHER'
p10883
sg10
Nsg24
NsbsS'menstruation'
p10884
g0
(g1
g2
Ntp10885
Rp10886
(dp10887
g6
Nsg8
S'DATE'
p10888
sg10
Nsg24
NsbsS'supreme'
p10889
g0
(g1
g2
Ntp10890
Rp10891
(dp10892
g6
Nsg8
S'PERSON'
p10893
sg10
Nsg24
NsbsS'beetle'
p10894
g0
(g1
g2
Ntp10895
Rp10896
(dp10897
g6
Nsg8
S'OTHER'
p10898
sg10
Nsg24
NsbsS'pig'
p10899
g0
(g1
g2
Ntp10900
Rp10901
(dp10902
g6
g16
sg8
S'TIME'
p10903
sg10
(dp10904
S'how'
p10905
g0
(g1
g2
Ntp10906
Rp10907
(dp10908
g6
Nsg8
g10903
sg10
Nsg24
NsbsS'what'
p10909
g0
(g1
g2
Ntp10910
Rp10911
(dp10912
g6
Nsg8
S'NUMBER'
p10913
sg10
Nsg24
Nsbssg24
NsbsS'replica'
p10914
g0
(g1
g2
Ntp10915
Rp10916
(dp10917
g6
Nsg8
S'NUMBER'
p10918
sg10
Nsg24
NsbsS'ink'
p10919
g0
(g1
g2
Ntp10920
Rp10921
(dp10922
g6
Nsg8
S'OTHER'
p10923
sg10
Nsg24
NsbsS'dawson'
p10924
g0
(g1
g2
Ntp10925
Rp10926
(dp10927
g6
Nsg8
S'PERSON'
p10928
sg10
Nsg24
NsbsS'education'
p10929
g0
(g1
g2
Ntp10930
Rp10931
(dp10932
g6
g16
sg8
S'LOCATION'
p10933
sg10
(dp10934
S'what'
p10935
g0
(g1
g2
Ntp10936
Rp10937
(dp10938
g6
Nsg8
S'OTHER'
p10939
sg10
Nsg24
NsbsS'where'
p10940
g0
(g1
g2
Ntp10941
Rp10942
(dp10943
g6
Nsg8
g10933
sg10
Nsg24
Nsbssg24
NsbsS'benelux'
p10944
g0
(g1
g2
Ntp10945
Rp10946
(dp10947
g6
Nsg8
S'LOCATION'
p10948
sg10
Nsg24
NsbsS'chromosome'
p10949
g0
(g1
g2
Ntp10950
Rp10951
(dp10952
g6
Nsg8
S'NUMBER'
p10953
sg10
Nsg24
NsbsS'variety'
p10954
g0
(g1
g2
Ntp10955
Rp10956
(dp10957
g6
Nsg8
S'OTHER'
p10958
sg10
Nsg24
NsbsS'corporation'
p10959
g0
(g1
g2
Ntp10960
Rp10961
(dp10962
g6
Nsg8
S'PERSON'
p10963
sg10
Nsg24
NsbsS'brandenburg'
p10964
g0
(g1
g2
Ntp10965
Rp10966
(dp10967
g6
Nsg8
S'DATE'
p10968
sg10
Nsg24
NsbsS'percent'
p10969
g0
(g1
g2
Ntp10970
Rp10971
(dp10972
g6
Nsg8
S'PERCENT'
p10973
sg10
Nsg24
NsbsS'entebbe'
p10974
g0
(g1
g2
Ntp10975
Rp10976
(dp10977
g6
Nsg8
S'NUMBER'
p10978
sg10
Nsg24
NsbsS'book'
p10979
g0
(g1
g2
Ntp10980
Rp10981
(dp10982
g6
g16
sg8
S'PERSON'
p10983
sg10
(dp10984
S'what'
p10985
g0
(g1
g2
Ntp10986
Rp10987
(dp10988
g6
Nsg8
S'OTHER'
p10989
sg10
Nsg24
NsbsS'who'
p10990
g0
(g1
g2
Ntp10991
Rp10992
(dp10993
g6
Nsg8
S'PERSON'
p10994
sg10
Nsg24
NsbsS'where'
p10995
g0
(g1
g2
Ntp10996
Rp10997
(dp10998
g6
Nsg8
S'LOCATION'
p10999
sg10
Nsg24
NsbsS'in what'
p11000
g0
(g1
g2
Ntp11001
Rp11002
(dp11003
g6
Nsg8
S'OTHER'
p11004
sg10
Nsg24
NsbsS'which'
p11005
g0
(g1
g2
Ntp11006
Rp11007
(dp11008
g6
Nsg8
S'OTHER'
p11009
sg10
Nsg24
Nsbssg24
NsbsS'boom'
p11010
g0
(g1
g2
Ntp11011
Rp11012
(dp11013
g6
Nsg8
S'OTHER'
p11014
sg10
Nsg24
NsbsS'boob'
p11015
g0
(g1
g2
Ntp11016
Rp11017
(dp11018
g6
Nsg8
S'OTHER'
p11019
sg10
Nsg24
NsbsS'canada'
p11020
g0
(g1
g2
Ntp11021
Rp11022
(dp11023
g6
Nsg8
S'OTHER'
p11024
sg10
Nsg24
NsbsS'junk'
p11025
g0
(g1
g2
Ntp11026
Rp11027
(dp11028
g6
Nsg8
S'MONEY'
p11029
sg10
Nsg24
NsbsS'francisco'
p11030
g0
(g1
g2
Ntp11031
Rp11032
(dp11033
g6
Nsg8
S'OTHER'
p11034
sg10
Nsg24
NsbsS'star'
p11035
g0
(g1
g2
Ntp11036
Rp11037
(dp11038
g6
g16
sg8
S'PERSON'
p11039
sg10
(dp11040
S'how'
p11041
g0
(g1
g2
Ntp11042
Rp11043
(dp11044
g6
Nsg8
S'NUMBER'
p11045
sg10
Nsg24
NsbsS'what'
p11046
g0
(g1
g2
Ntp11047
Rp11048
(dp11049
g6
Nsg8
S'PERSON'
p11050
sg10
Nsg24
NsbsS'who'
p11051
g0
(g1
g2
Ntp11052
Rp11053
(dp11054
g6
Nsg8
S'PERSON'
p11055
sg10
Nsg24
Nsbssg24
NsbsS'chance'
p11056
g0
(g1
g2
Ntp11057
Rp11058
(dp11059
g6
Nsg8
S'PERCENT'
p11060
sg10
Nsg24
NsbsS'nintendo'
p11061
g0
(g1
g2
Ntp11062
Rp11063
(dp11064
g6
Nsg8
S'OTHER'
p11065
sg10
Nsg24
NsbsS'inspiration'
p11066
g0
(g1
g2
Ntp11067
Rp11068
(dp11069
g6
Nsg8
S'PERSON'
p11070
sg10
Nsg24
NsbsS'frankfurt'
p11071
g0
(g1
g2
Ntp11072
Rp11073
(dp11074
g6
Nsg8
S'NUMBER'
p11075
sg10
Nsg24
Nsbssg24
Nsb.