ccopy_reg
_reconstructor
p0
(cnltk.classify.naivebayes
NaiveBayesClassifier
p1
c__builtin__
object
p2
Ntp3
Rp4
(dp5
S'_labels'
p6
(lp7
S'OTHER'
p8
aS'PERSON'
p9
aS'LOCATION'
p10
aS'NUMBER'
p11
aS'DATE'
p12
aS'TIME'
p13
aS'MONEY'
p14
aS'PERCENT'
p15
asS'_feature_probdist'
p16
(dp17
(g13
S'noun'
p18
tp19
g0
(cnltk.probability
ELEProbDist
p20
g2
Ntp21
Rp22
(dp23
S'_gamma'
p24
F0.5
sS'_N'
p25
I75
sS'_freqdist'
p26
g0
(cnltk.probability
FreqDist
p27
c__builtin__
dict
p28
(dp29
S''
p30
I15
sS'flies'
p31
I1
sS'revolution'
p32
I1
sS'office'
p33
I1
sS'show'
p34
I1
sS'community'
p35
I1
sS'pig'
p36
I1
sS'sunlight'
p37
I1
sS'human'
p38
I1
sS'church'
p39
I1
sS'cocaine'
p40
I1
sS'web'
p41
I1
sS'intercourse'
p42
I1
sS'person'
p43
I1
sS'tv'
p44
I1
sS'sun'
p45
I1
sS'decision'
p46
I1
sS'been'
p47
I1
sS'moon'
p48
I1
sS'attack'
p49
I1
sS'hen'
p50
I1
sS'puppy'
p51
I1
sS'eggs'
p52
I2
sS'hermit'
p53
I1
sS'body'
p54
I1
sS'life'
p55
I4
sS'quarts'
p56
I1
sS'gestation'
p57
I2
sS'ferret'
p58
I1
sS'blood'
p59
I2
sS'child'
p60
I1
sS'debt'
p61
I1
sS'artist'
p62
I2
sS'did'
p63
I4
sS'universe'
p64
I1
sS'age'
p65
I7
sS'dog'
p66
I1
sS'hiccup'
p67
I1
sS'trial'
p68
I1
sS'savings'
p69
I1
sS'materials'
p70
I1
sS'time'
p71
I4
stp72
Rp73
(dp74
g25
I75
sS'_max_cache'
p75
NsS'_item_cache'
p76
NsS'_Nr_cache'
p77
NsbsS'_bins'
p78
I1449
sS'_divisor'
p79
F799.5
sbs(g15
S'head'
p80
tp81
g0
(g20
g2
Ntp82
Rp83
(dp84
g24
F0.5
sg25
I27
sg26
g0
(g27
g28
(dp85
g30
I10
sS'rating'
p86
I1
sS'account'
p87
I1
sS'probability'
p88
I2
sS'chances'
p89
I2
sS'odds'
p90
I3
sS'percent'
p91
I1
sS'rate'
p92
I3
sS'chance'
p93
I1
sS'fraction'
p94
I2
sS'percentage'
p95
I1
stp96
Rp97
(dp98
g25
I27
sg75
Nsg76
Nsg77
Nsbsg78
I1487
sg79
F770.5
sbs(g11
g80
tp99
g0
(g20
g2
Ntp100
Rp101
(dp102
g24
F0.5
sg25
I505
sg26
g0
(g27
g28
(dp103
g30
I142
sS'colleges'
p104
I1
sS'code'
p105
I1
sS'office'
p106
I1
sS'queen'
p107
I1
sS'astronauts'
p108
I2
sS'years'
p109
I9
sS'sperm'
p110
I1
sS'colors'
p111
I4
sS'spaces'
p112
I2
sS'businesses'
p113
I1
sS'questions'
p114
I2
sS'cds'
p115
I1
sS'soldiers'
p116
I6
sS'speed'
p117
I3
sS'children'
p118
I1
sS'superbowls'
p119
I1
sS'layers'
p120
I1
sS'web'
p121
I1
sS'votes'
p122
I1
sS'vietnamese'
p123
I1
sS'electricity'
p124
I1
sS'megawatts'
p125
I1
sS'day'
p126
I3
sS'languages'
p127
I3
sS'degrees'
p128
I2
sS'teaspoon'
p129
I1
sS'thousands'
p130
I1
sS'wingspan'
p131
I1
sS'tiles'
p132
I1
sS'beatles'
p133
I1
sS'referees'
p134
I1
sS'runs'
p135
I2
sS'acreage'
p136
I1
sS'fingers'
p137
I1
sS'penny-farthings'
p138
I1
sS'words'
p139
I1
sS'hands'
p140
I1
sS'schools'
p141
I1
sS'quarters'
p142
I1
sS'wings'
p143
I1
sS'verses'
p144
I1
sS'school'
p145
I1
sS'sizes'
p146
I1
sS'chairs'
p147
I1
sS'james'
p148
I1
sS'countries'
p149
I4
sS'grammys'
p150
I1
sS'casinos'
p151
I1
sS'shots'
p152
I1
sS'corners'
p153
I1
sS'pizza'
p154
I1
sS'disks'
p155
I1
sS'jews'
p156
I1
sS'weight'
p157
I5
sS'people'
p158
I30
sS'elevators'
p159
I1
sS'energy'
p160
I1
sS'seats'
p161
I1
sS'villi'
p162
I1
sS'rate'
p163
I3
sS'frequency'
p164
I2
sS'meters'
p165
I2
sS'year'
p166
I1
sS'grooves'
p167
I2
sS'acid'
p168
I2
sS'dimensions'
p169
I1
sS'calcium'
p170
I1
sS'rings'
p171
I1
sS'mines'
p172
I1
sS'score'
p173
I3
sS'toll'
p174
I4
sS'squares'
p175
I1
sS'equivalent'
p176
I3
sS'u.s.'
p177
I3
sS'lakes'
p178
I1
sS'answers'
p179
I1
sS'hours'
p180
I1
sS'caffeine'
p181
I2
sS'englishmen'
p182
I1
sS'baseball'
p183
I1
sS'hostages'
p184
I1
sS'teaspoons'
p185
I1
sS'pitchers'
p186
I1
sS'cities'
p187
I1
sS'counties'
p188
I1
sS'digits'
p189
I3
sS'watts'
p190
I1
sS'generals'
p191
I1
sS'engines'
p192
I1
sS'stations'
p193
I1
sS'leos'
p194
I1
sS'months'
p195
I2
sS'calories'
p196
I4
sS'days'
p197
I1
sS'times'
p198
I6
sS'length'
p199
I2
sS'games'
p200
I1
sS'canadians'
p201
I1
sS'islands'
p202
I2
sS'size'
p203
I3
sS'members'
p204
I1
sS'scales'
p205
I1
sS'presidents'
p206
I1
sS'number'
p207
I13
sS'community'
p208
I1
sS'feet'
p209
I5
sS'newtons'
p210
I1
sS'americans'
p211
I3
sS'names'
p212
I1
sS'frames'
p213
I1
sS'earthworms'
p214
I1
sS'bends'
p215
I1
sS'flavors'
p216
I1
sS'statistics'
p217
I3
sS'temperature'
p218
I3
sS'zip'
p219
I1
sS'elephants'
p220
I1
sS'shillings'
p221
I1
sS'zeros'
p222
I1
sS'stars'
p223
I2
sS'films'
p224
I2
sS'syllables'
p225
I1
sS'sonnets'
p226
I1
sS'dogs'
p227
I1
sS'today'
p228
I1
sS'horses'
p229
I2
sS'mountains'
p230
I1
sS'head'
p231
I1
sS'stradivarius'
p232
I1
sS'continents'
p233
I1
sS'inches'
p234
I2
sS'brand'
p235
I1
sS'pitches'
p236
I1
sS'movies'
p237
I1
sS'boys'
p238
I1
sS'angles'
p239
I1
sS'7847'
p240
I1
sS'population'
p241
I19
sS'yards'
p242
I1
sS'states'
p243
I4
sS'waste'
p244
I1
sS'milligrams'
p245
I1
sS'longitude'
p246
I3
sS'record'
p247
I1
sS'iron'
p248
I1
sS'cards'
p249
I2
sS'college'
p250
I1
sS'minutes'
p251
I1
sS'dots'
p252
I2
sS'iq'
p253
I2
sS'pounds'
p254
I1
sS'eyes'
p255
I1
sS'high'
p256
I1
sS'horsepower'
p257
I2
sS'muscles'
p258
I2
sS'numbers'
p259
I1
sS'fiddlers'
p260
I1
sS'bones'
p261
I2
sS'cables'
p262
I1
sS'species'
p263
I1
sS'innings'
p264
I2
sS'par'
p265
I2
sS'revolutions'
p266
I1
sS'russians'
p267
I1
sS'lengths'
p268
I1
sS'snow'
p269
I1
sS'reactivity'
p270
I4
sS'actors'
p271
I1
sS'pins'
p272
I1
sS'colonies'
p273
I2
sS'events'
p274
I1
sS'vegetation'
p275
I1
sS'bells'
p276
I1
sS'elements'
p277
I1
sS'lawyers'
p278
I1
sS'brothers'
p279
I1
sS'students'
p280
I2
sS'juices'
p281
I1
sS'gutenberg'
p282
I1
sS'characters'
p283
I2
sS'oceans'
p284
I1
sS'sides'
p285
I3
sS'beanie'
p286
I1
sS'miles'
p287
I6
sS'phone'
p288
I1
sS'url'
p289
I2
sS'salt'
p290
I1
sS'holes'
p291
I1
sS'cherubs'
p292
I1
sS'points'
p293
I4
sS'time'
p294
I1
sS'hearts'
p295
I1
sS'wives'
p296
I1
sS'athletes'
p297
I1
sS'quantity'
p298
I1
stp299
Rp300
(dp301
g25
I505
sg75
Nsg76
Nsg77
Nsbsg78
I1487
sg79
F1248.5
sbs(g14
g80
tp302
g0
(g20
g2
Ntp303
Rp304
(dp305
g24
F0.5
sg25
I71
sg26
g0
(g27
g28
(dp306
g30
I30
sS'fare'
p307
I2
sS'money'
p308
I7
sS'price'
p309
I4
sS'provider'
p310
I2
sS'tax'
p311
I1
sS'caps'
p312
I1
sS'rate'
p313
I2
sS'cost'
p314
I4
sS'fine'
p315
I1
sS'salary'
p316
I6
sS'wage'
p317
I4
sS'debts'
p318
I1
sS'increase'
p319
I1
sS'amount'
p320
I1
sS'income'
p321
I3
sS'worth'
p322
I1
stp323
Rp324
(dp325
g25
I71
sg75
Nsg76
Nsg77
Nsbsg78
I1487
sg79
F814.5
sbs(g8
g18
tp326
g0
(g20
g2
Ntp327
Rp328
(dp329
g24
F0.5
sg25
I1250
sg26
g0
(g27
g28
(dp330
g30
I47
sS'melts'
p331
I1
sS'invent'
p332
I3
sS'crocodile'
p333
I1
sS'disc'
p334
I1
sS'publish'
p335
I1
sS'migrates'
p336
I1
sS'skin'
p337
I1
sS'dish'
p338
I1
sS'golf'
p339
I3
sS'centers'
p340
I1
sS'causes'
p341
I1
sS'looking'
p342
I1
sS'baseball'
p343
I1
sS'referring'
p344
I1
sS'tv'
p345
I12
sS'hump'
p346
I1
sS'technique'
p347
I3
sS'languages'
p348
I6
sS'fingernails'
p349
I1
sS'tail'
p350
I1
sS'program'
p351
I2
sS'terror'
p352
I1
sS'smile'
p353
I1
sS'ingredient'
p354
I1
sS'plants'
p355
I2
sS'family'
p356
I1
sS'woman'
p357
I1
sS'translations'
p358
I1
sS'jeroboams'
p359
I1
sS'sons'
p360
I1
sS'mixing'
p361
I2
sS'word'
p362
I14
sS'prize'
p363
I1
sS'level'
p364
I1
sS'did'
p365
I1
sS'gender'
p366
I1
sS'companies'
p367
I1
sS'occurs'
p368
I1
sS'race'
p369
I4
sS'car'
p370
I4
sS'refer'
p371
I1
sS'athlete'
p372
I1
sS'non-fiction'
p373
I1
sS'magazine'
p374
I6
sS'ten'
p375
I1
sS'crop'
p376
I2
sS'sign'
p377
I2
sS'chef'
p378
I1
sS'battle'
p379
I2
sS'titles'
p380
I1
sS'video'
p381
I1
sS'lawyer'
p382
I1
sS'fear'
p383
I62
sS'hymn'
p384
I1
sS'employ'
p385
I1
sS'constitution'
p386
I1
sS'clock'
p387
I1
sS'section'
p388
I1
sS'caffeine'
p389
I1
sS'dangles'
p390
I1
sS'tarantula'
p391
I1
sS'tips'
p392
I1
sS'tournaments'
p393
I1
sS'bird'
p394
I1
sS'body'
p395
I1
sS'hero'
p396
I2
sS'leg'
p397
I1
sS'men'
p398
I1
sS'commercial'
p399
I1
sS'dipsomaniac'
p400
I1
sS'operating'
p401
I2
sS'tragedy'
p402
I1
sS'box'
p403
I1
sS'substance'
p404
I3
sS'credit'
p405
I1
sS'products'
p406
I4
sS'advertising'
p407
I1
sS'birthstone'
p408
I1
sS'otters'
p409
I1
sS'classification'
p410
I1
sS'spermologer'
p411
I1
sS'respirator'
p412
I1
sS'names'
p413
I3
sS'tools'
p414
I1
sS'chefs'
p415
I1
sS'ladybugs'
p416
I1
sS'contains'
p417
I1
sS'arms'
p418
I1
sS'sports'
p419
I3
sS'symphony'
p420
I1
sS'call'
p421
I6
sS'films'
p422
I1
sS'type'
p423
I11
sS'sort'
p424
I1
sS'racoon'
p425
I1
sS'phobophobe'
p426
I1
sS'club'
p427
I1
sS'company'
p428
I2
sS'refrain'
p429
I1
sS'missile'
p430
I1
sS'glass'
p431
I1
sS'flag'
p432
I1
sS'rabbit'
p433
I2
sS'known'
p434
I2
sS'polyorchid'
p435
I1
sS'mascot'
p436
I1
sS'balls'
p437
I1
sS'animals'
p438
I8
sS'primate'
p439
I1
sS'science'
p440
I1
sS'ride'
p441
I1
sS'work'
p442
I1
sS'hardest'
p443
I1
sS'example'
p444
I2
sS'stubborn'
p445
I1
sS'eczema'
p446
I1
sS'assent'
p447
I1
sS'currency'
p448
I1
sS'foods'
p449
I2
sS'airplane'
p450
I2
sS'species'
p451
I3
sS'ceremony'
p452
I1
sS'damage'
p453
I1
sS'write'
p454
I3
sS'sword'
p455
I1
sS'creature'
p456
I3
sS'fare'
p457
I1
sS'plant'
p458
I4
sS'cocktail'
p459
I2
sS'clone'
p460
I1
sS'rites'
p461
I1
sS'accessory'
p462
I1
sS'conjugations'
p463
I1
sS'blood'
p464
I2
sS'philatelist'
p465
I1
sS'softball'
p466
I1
sS'date'
p467
I1
sS'eighth'
p468
I1
sS'types'
p469
I4
sS'man'
p470
I3
sS'noun'
p471
I1
sS'commodity'
p472
I2
sS'liner'
p473
I2
sS'element'
p474
I3
sS'tale'
p475
I2
sS'writ'
p476
I1
sS'keeps'
p477
I1
sS'alloy'
p478
I1
sS'swimming'
p479
I2
sS'playing'
p480
I1
sS'wine'
p481
I1
sS'no.'
p482
I1
sS'words'
p483
I5
sS'producer'
p484
I1
sS'produces'
p485
I1
sS'move'
p486
I1
sS'mission'
p487
I1
sS'meter'
p488
I2
sS'trade'
p489
I1
sS'paper'
p490
I1
sS'motorcycle'
p491
I1
sS'oven'
p492
I1
sS'signs'
p493
I1
sS'birds'
p494
I2
sS'limelight'
p495
I1
sS'group'
p496
I1
sS'handheld'
p497
I1
sS'forms'
p498
I1
sS'civil'
p499
I1
sS'distinguishing'
p500
I1
sS'constitutes'
p501
I1
sS'travelling'
p502
I1
sS'holiday'
p503
I1
sS'diseases'
p504
I1
sS'food'
p505
I7
sS'auto'
p506
I1
sS'killer'
p507
I1
sS'therapy'
p508
I1
sS'snake'
p509
I1
sS'resource'
p510
I1
sS'bread'
p511
I1
sS'articles'
p512
I2
sS'term'
p513
I19
sS'name'
p514
I70
sS'opera'
p515
I2
sS'potatoes'
p516
I1
sS'policeman'
p517
I1
sS'events'
p518
I4
sS'crops'
p519
I1
sS'predators'
p520
I1
sS'side'
p521
I2
sS'bone'
p522
I1
sS'mean'
p523
I1
sS'week'
p524
I1
sS'constipation'
p525
I1
sS'generation'
p526
I1
sS'series'
p527
I3
sS'spider'
p528
I1
sS'fires'
p529
I1
sS'ball'
p530
I1
sS'year'
p531
I1
sS'aids'
p532
I1
sS'event'
p533
I1
sS'album'
p534
I1
sS'gangland'
p535
I1
sS'space'
p536
I1
sS'four-player'
p537
I1
sS'vessels'
p538
I1
sS'research'
p539
I1
sS'wolverine'
p540
I1
sS'medicine'
p541
I2
sS'formula'
p542
I2
sS'correct'
p543
I2
sS'achievements'
p544
I1
sS'maneuver'
p545
I1
sS'monster'
p546
I1
sS'city'
p547
I1
sS'delicacy'
p548
I1
sS'seventh'
p549
I1
sS'horse'
p550
I2
sS'approaches'
p551
I1
sS'put'
p552
I1
sS'holidays'
p553
I2
sS'card'
p554
I7
sS'care'
p555
I1
sS'language'
p556
I9
sS'deck'
p557
I1
sS'starts'
p558
I1
sS'times'
p559
I1
sS'counterpart'
p560
I2
sS'thing'
p561
I3
sS'tennis'
p562
I2
sS'sentence'
p563
I1
sS'hearing'
p564
I1
sS'feet'
p565
I1
sS'defects'
p566
I1
sS'overalls'
p567
I1
sS'millions'
p568
I1
sS'razor'
p569
I1
sS'story'
p570
I1
sS'toy'
p571
I1
sS'silent'
p572
I1
sS'automobile'
p573
I1
sS'system'
p574
I3
sS'fiction'
p575
I1
sS'paint'
p576
I1
sS'corpus'
p577
I1
sS'syrup'
p578
I1
sS'dogs'
p579
I1
sS'eyes'
p580
I1
sS'murder'
p581
I1
sS'stomach'
p582
I1
sS'way'
p583
I7
sS'chemicals'
p584
I3
sS'part'
p585
I5
sS'cereal'
p586
I2
sS'translation'
p587
I1
sS'flowers'
p588
I1
sS'steel'
p589
I1
sS'distance'
p590
I1
sS'television'
p591
I2
sS'domestica'
p592
I1
sS'invention'
p593
I1
sS'marriage'
p594
I1
sS'cards'
p595
I2
sS'feeling'
p596
I1
sS'sculpture'
p597
I2
sS'fowl'
p598
I1
sS'modern'
p599
I1
sS'ages'
p600
I1
sS'mine'
p601
I1
sS'pedometer'
p602
I1
sS'tastes'
p603
I1
sS'shrubs'
p604
I1
sS'breakfast'
p605
I1
sS'contact'
p606
I1
sS'chess'
p607
I1
sS'chiropodist'
p608
I1
sS'divers'
p609
I1
sS'play'
p610
I4
sS'object'
p611
I1
sS'cigarette'
p612
I2
sS'letter'
p613
I6
sS'exercises'
p614
I1
sS'coin'
p615
I1
sS'class'
p616
I2
sS'synonym'
p617
I1
sS'disease'
p618
I10
sS'order'
p619
I1
sS'flog'
p620
I1
sS'dot'
p621
I1
sS'bomb'
p622
I1
sS'phenomenon'
p623
I2
sS'gold'
p624
I1
sS'tequila'
p625
I1
sS'queen'
p626
I1
sS'recipe'
p627
I2
sS'colors'
p628
I7
sS'radio'
p629
I2
sS'laments'
p630
I1
sS'chicken'
p631
I1
sS'albums'
p632
I1
sS'snack'
p633
I1
sS'dice'
p634
I1
sS'gulf'
p635
I1
sS'title'
p636
I1
sS'ruin'
p637
I1
sS'winner'
p638
I1
sS'penalty'
p639
I1
sS'theme'
p640
I2
sS'molecules'
p641
I1
sS'fuel'
p642
I2
sS'get'
p643
I1
sS'kind'
p644
I40
sS'bear'
p645
I1
sS'da'
p646
I1
sS'longest'
p647
I1
sS'joins'
p648
I1
sS'determines'
p649
I1
sS'bar'
p650
I1
sS'encounters'
p651
I1
sS'saliva'
p652
I1
sS'method'
p653
I2
sS'penguins'
p654
I1
sS'abolitionists'
p655
I1
sS'corgi'
p656
I1
sS'orca'
p657
I1
sS'hairy'
p658
I1
sS'disaster'
p659
I1
sS'ancients'
p660
I1
sS'humans'
p661
I1
sS'sex'
p662
I2
sS'computer'
p663
I5
sS'seal'
p664
I1
sS'sport'
p665
I18
sS'draws'
p666
I1
sS'ways'
p667
I6
sS'movie'
p668
I18
sS'exchange'
p669
I1
sS'state'
p670
I3
sS'gemstone'
p671
I1
sS'ends'
p672
I1
sS'ability'
p673
I1
sS'incident'
p674
I1
sS'wear'
p675
I2
sS'come'
p676
I1
sS'piece'
p677
I2
sS'drug'
p678
I3
sS'connection'
p679
I1
sS'games'
p680
I1
sS'berry'
p681
I1
sS'faces'
p682
I1
sS'witch'
p683
I1
sS'heliologist'
p684
I1
sS'statues'
p685
I1
sS'cancer'
p686
I2
sS'color'
p687
I30
sS'period'
p688
I1
sS'vessel'
p689
I1
sS'poll'
p690
I1
sS'belt'
p691
I1
sS'quit'
p692
I1
sS'cream'
p693
I1
sS'instrument'
p694
I7
sS'west'
p695
I1
sS'trademark'
p696
I2
sS'submarine'
p697
I1
sS'beer'
p698
I4
sS'treat'
p699
I1
sS'poet'
p700
I1
sS'incompetent'
p701
I1
sS'board'
p702
I1
sS'cyclist'
p703
I1
sS'dialogue'
p704
I1
sS'senses'
p705
I1
sS'flight'
p706
I1
sS'tiger'
p707
I1
sS'craft'
p708
I1
sS'lives'
p709
I1
sS'folklore'
p710
I1
sS'extant'
p711
I1
sS'ravens'
p712
I1
sS'sound'
p713
I1
sS'novel'
p714
I24
sS'gland'
p715
I1
sS'frozen'
p716
I1
sS'originate'
p717
I1
sS'cash'
p718
I1
sS'irate'
p719
I1
sS'droppings'
p720
I1
sS'newspaper'
p721
I3
sS'procedure'
p722
I1
sS'layer'
p723
I1
sS'prayer'
p724
I1
sS'player'
p725
I1
sS'full-length'
p726
I1
sS'haboob'
p727
I1
sS'perform'
p728
I1
sS'alphabet'
p729
I3
sS'bowl'
p730
I1
sS'member'
p731
I1
sS'document'
p732
I1
sS'composition'
p733
I1
sS'wheel'
p734
I1
sS'oil'
p735
I1
sS'drink'
p736
I14
sS'hand'
p737
I2
sS'fruit'
p738
I1
sS'vowel'
p739
I2
sS'whale'
p740
I1
sS'nickname'
p741
I1
sS'cartoon'
p742
I1
sS'tune'
p743
I1
sS'kid'
p744
I1
sS'peacocks'
p745
I1
sS'variety'
p746
I1
sS'materials'
p747
I1
sS'chronicles'
p748
I1
sS'components'
p749
I1
sS'twirl'
p750
I1
sS'deltiologist'
p751
I1
sS'advertises'
p752
I1
sS'plagues'
p753
I1
sS'livestock'
p754
I1
sS'camel'
p755
I1
sS'money'
p756
I3
sS'product'
p757
I11
sS'shape'
p758
I2
sS'fishing'
p759
I1
sS'flavor'
p760
I1
sS'adding'
p761
I1
sS'death'
p762
I1
sS'campaign'
p763
I1
sS'alternate'
p764
I1
sS'character'
p765
I1
sS'source'
p766
I1
sS'slits'
p767
I1
sS'treatment'
p768
I1
sS'crack'
p769
I1
sS'grow'
p770
I1
sS'tenses'
p771
I1
sS'sailors'
p772
I1
sS'bid'
p773
I1
sS'game'
p774
I8
sS'birth'
p775
I1
sS'world'
p776
I6
sS'wings'
p777
I1
sS'insert'
p778
I1
sS'nutrients'
p779
I1
sS'soap'
p780
I2
sS'communications'
p781
I1
sS'eidologist'
p782
I1
sS'clay'
p783
I1
sS'become'
p784
I1
sS'wonders'
p785
I1
sS'vats'
p786
I1
sS'pyramid-builders'
p787
I1
sS'methods'
p788
I1
sS'people'
p789
I5
sS'begin'
p790
I1
sS'competition'
p791
I2
sS'hair'
p792
I1
sS'brontosauruses'
p793
I1
sS'scale'
p794
I1
sS'lead'
p795
I1
sS'singing'
p796
I2
sS'hurricane'
p797
I1
sS'ice'
p798
I1
sS'religion'
p799
I2
sS'anti-aids'
p800
I1
sS'espionage'
p801
I1
sS'thighs'
p802
I1
sS'measures'
p803
I1
sS'rum'
p804
I2
sS'equivalent'
p805
I1
sS'lose'
p806
I1
sS'post'
p807
I1
sS'refers'
p808
I1
sS'vaccine'
p809
I1
sS'trophy'
p810
I1
sS'sister'
p811
I1
sS'resurrectionist'
p812
I1
sS'concerts'
p813
I1
sS'carries'
p814
I1
sS'camels'
p815
I1
sS'ox'
p816
I1
sS'emperor'
p817
I1
sS'hocks'
p818
I1
sS'software'
p819
I1
sS'letters'
p820
I1
sS'facility'
p821
I1
sS'owe'
p822
I1
sS'litmus'
p823
I1
sS'device'
p824
I2
sS'strip'
p825
I3
sS'ailment'
p826
I1
sS'vegetables'
p827
I1
sS'flying'
p828
I1
sS'secret'
p829
I1
sS'indoor'
p830
I1
sS'cats'
p831
I1
sS'stars'
p832
I1
sS'suit'
p833
I1
sS'breeding'
p834
I1
sS'war'
p835
I11
sS'opens'
p836
I1
sS'medium'
p837
I3
sS'amateur'
p838
I1
sS'form'
p839
I3
sS'brand'
p840
I6
sS'sequel'
p841
I3
sS'vichyssoise'
p842
I1
sS'principles'
p843
I1
sS'needles'
p844
I1
sS'line'
p845
I4
sS'eat'
p846
I2
sS'spice'
p847
I1
sS'manatees'
p848
I1
sS'middle'
p849
I1
sS'consist'
p850
I1
sS'devices'
p851
I1
sS'books'
p852
I1
sS'stories'
p853
I1
sS'zodiac'
p854
I1
sS'stages'
p855
I1
sS'condiment'
p856
I2
sS'taste'
p857
I2
sS'strips'
p858
I1
sS'dog'
p859
I3
sS'utensils'
p860
I1
sS'walks'
p861
I1
sS'ship'
p862
I2
sS'education'
p863
I1
sS'film'
p864
I25
sS'garment'
p865
I1
sS'ingredients'
p866
I1
sS'trials'
p867
I3
sS'flora'
p868
I1
sS'actor'
p869
I1
sS'snakes'
p870
I1
sS'book'
p871
I21
sS'boom'
p872
I1
sS'boob'
p873
I1
sS'elements'
p874
I4
sS'kinds'
p875
I2
sS'symbol'
p876
I3
sS'football'
p877
I1
sS'lens'
p878
I1
sS'chairbound'
p879
I1
sS'structure'
p880
I1
sS'age'
p881
I1
sS'vehicles'
p882
I1
sS'fastener'
p883
I1
sS'came'
p884
I1
sS'time'
p885
I2
sS'menace'
p886
I1
sS'requires'
p887
I1
sS'songs'
p888
I2
stp889
Rp890
(dp891
g25
I1250
sg75
Nsg76
Nsg77
Nsbsg78
I1449
sg79
F1974.5
sbs(g11
g18
tp892
g0
(g20
g2
Ntp893
Rp894
(dp895
g24
F0.5
sg25
I505
sg26
g0
(g27
g28
(dp896
g30
I28
sS'colleges'
p897
I1
sS'dollar'
p898
I2
sS'astronauts'
p899
I2
sS'fathom'
p900
I3
sS'spacecraft'
p901
I1
sS'spaces'
p902
I2
sS'businesses'
p903
I2
sS'shoe'
p904
I1
sS'cds'
p905
I1
sS'go'
p906
I1
sS'soldiers'
p907
I6
sS'kilamanjaro'
p908
I1
sS'children'
p909
I2
sS'layers'
p910
I2
sS'votes'
p911
I2
sS'electricity'
p912
I1
sS'megawatts'
p913
I1
sS'languages'
p914
I3
sS'teaspoon'
p915
I2
sS'thousands'
p916
I1
sS'tiles'
p917
I1
sS'oceans'
p918
I1
sS'trees'
p919
I1
sS'acreage'
p920
I1
sS'penny-farthings'
p921
I1
sS'words'
p922
I1
sS'years'
p923
I11
sS'verses'
p924
I1
sS'school'
p925
I1
sS'countries'
p926
I4
sS'did'
p927
I1
sS'bytes'
p928
I1
sS'colors'
p929
I4
sS'casinos'
p930
I1
sS'shots'
p931
I1
sS'inside'
p932
I1
sS'tenths'
p933
I1
sS'leaders'
p934
I1
sS'cheetahs'
p935
I1
sS'villi'
p936
I1
sS'rate'
p937
I1
sS'college'
p938
I1
sS'grooves'
p939
I2
sS'acid'
p940
I2
sS'movies'
p941
I1
sS'thunder'
p942
I1
sS'rings'
p943
I1
sS'fingers'
p944
I1
sS'liberty'
p945
I1
sS'score'
p946
I3
sS'galaxy'
p947
I1
sS'referees'
p948
I1
sS'claws'
p949
I1
sS'human'
p950
I2
sS'men'
p951
I3
sS'answers'
p952
I1
sS'hours'
p953
I2
sS'protection'
p954
I1
sS'baseball'
p955
I1
sS'yards'
p956
I1
sS'furlongs'
p957
I1
sS'cities'
p958
I1
sS'digits'
p959
I3
sS'tractors'
p960
I1
sS'airport'
p961
I1
sS'objects'
p962
I1
sS'games'
p963
I1
sS'canadians'
p964
I1
sS'kinds'
p965
I1
sS'members'
p966
I3
sS'scales'
p967
I1
sS'presidents'
p968
I2
sS'names'
p969
I1
sS'flavors'
p970
I2
sS'attendance'
p971
I1
sS'zip'
p972
I1
sS'poodle'
p973
I1
sS'vineyard'
p974
I1
sS'bees'
p975
I1
sS'counties'
p976
I1
sS'films'
p977
I2
sS'sonnets'
p978
I1
sS'milliseconds'
p979
I1
sS'dots'
p980
I2
sS'resting'
p981
I1
sS'diamond'
p982
I1
sS'propellers'
p983
I1
sS'pairs'
p984
I2
sS'telephone'
p985
I1
sS'phone'
p986
I4
sS'angles'
p987
I1
sS'baby'
p988
I1
sS'hole'
p989
I1
sS'emperors'
p990
I1
sS'car'
p991
I1
sS'calcium'
p992
I1
sS'gallons'
p993
I2
sS'pound'
p994
I1
sS'permutations'
p995
I1
sS'teaspoons'
p996
I1
sS'surface'
p997
I1
sS'states'
p998
I3
sS'neurons'
p999
I1
sS'numbers'
p1000
I1
sS'bones'
p1001
I2
sS'species'
p1002
I3
sS'revolutions'
p1003
I1
sS'bottles'
p1004
I1
sS'lengths'
p1005
I1
sS'maids'
p1006
I1
sS'oven'
p1007
I2
sS'amount'
p1008
I1
sS'member'
p1009
I1
sS'pins'
p1010
I1
sS'colonies'
p1011
I2
sS'spears'
p1012
I1
sS'events'
p1013
I1
sS'stock'
p1014
I1
sS'cherubs'
p1015
I1
sS'lawyers'
p1016
I1
sS'mountain'
p1017
I1
sS'fruit'
p1018
I1
sS'characters'
p1019
I2
sS'law'
p1020
I1
sS'types'
p1021
I4
sS'man'
p1022
I1
sS'varieties'
p1023
I2
sS'hearts'
p1024
I1
sS'wives'
p1025
I1
sS'athletes'
p1026
I1
sS'unemployment'
p1027
I2
sS'freckles'
p1028
I1
sS'quarters'
p1029
I1
sS'sperm'
p1030
I1
sS'questions'
p1031
I2
sS'seats'
p1032
I1
sS'speed'
p1033
I3
sS'superbowls'
p1034
I1
sS'web'
p1035
I1
sS'death'
p1036
I2
sS'drunk'
p1037
I1
sS'acres'
p1038
I1
sS'degrees'
p1039
I2
sS'latitude'
p1040
I3
sS'weeks'
p1041
I1
sS'wingspan'
p1042
I1
sS'bails'
p1043
I1
sS'nation'
p1044
I1
sS'records'
p1045
I1
sS'giraffe'
p1046
I1
sS'hands'
p1047
I1
sS'world'
p1048
I3
sS'wings'
p1049
I1
sS'pounds'
p1050
I1
sS'chairs'
p1051
I1
sS'corners'
p1052
I1
sS'disks'
p1053
I1
sS'cullions'
p1054
I1
sS'pizza'
p1055
I1
sS'jews'
p1056
I1
sS'weight'
p1057
I4
sS'people'
p1058
I35
sS'elevators'
p1059
I1
sS'companies'
p1060
I1
sS'energy'
p1061
I1
sS'frequency'
p1062
I2
sS'meters'
p1063
I2
sS'year'
p1064
I1
sS'home'
p1065
I3
sS'dimensions'
p1066
I1
sS'blacks'
p1067
I1
sS'mines'
p1068
I1
sS'moon'
p1069
I1
sS'students'
p1070
I2
sS'miles'
p1071
I9
sS'squares'
p1072
I1
sS'eggs'
p1073
I1
sS'highway'
p1074
I2
sS'millimeters'
p1075
I1
sS'equivalent'
p1076
I1
sS'lakes'
p1077
I1
sS'quart'
p1078
I1
sS'caffeine'
p1079
I2
sS'statistics'
p1080
I1
sS'hostages'
p1081
I1
sS'pitchers'
p1082
I1
sS'refuge'
p1083
I1
sS'chapter'
p1084
I4
sS'watts'
p1085
I1
sS'engines'
p1086
I1
sS'stations'
p1087
I1
sS'universe'
p1088
I2
sS'dollars'
p1089
I1
sS'months'
p1090
I2
sS'calories'
p1091
I4
sS'days'
p1092
I1
sS'times'
p1093
I11
sS'whitetail'
p1094
I1
sS'length'
p1095
I1
sS'extensions'
p1096
I2
sS'airline'
p1097
I1
sS'islands'
p1098
I2
sS'processor'
p1099
I1
sS'silver'
p1100
I1
sS'size'
p1101
I4
sS'letters'
p1102
I1
sS'student'
p1103
I1
sS'number'
p1104
I7
sS'rank'
p1105
I2
sS'copies'
p1106
I1
sS'feet'
p1107
I6
sS'frames'
p1108
I1
sS'earthworms'
p1109
I1
sS'bends'
p1110
I1
sS'city'
p1111
I1
sS'rows'
p1112
I2
sS'temperature'
p1113
I4
sS'elephants'
p1114
I1
sS'approximate'
p1115
I2
sS'shillings'
p1116
I1
sS'zeros'
p1117
I1
sS'stars'
p1118
I2
sS'syllables'
p1119
I1
sS'dogs'
p1120
I1
sS'mountains'
p1121
I1
sS'eyes'
p1122
I2
sS'muscles'
p1123
I2
sS'continents'
p1124
I1
sS'inches'
p1125
I4
sS'brand'
p1126
I1
sS'boys'
p1127
I1
sS'population'
p1128
I15
sS'waste'
p1129
I1
sS'warmup'
p1130
I1
sS'cells'
p1131
I1
sS'milligrams'
p1132
I1
sS'maximum'
p1133
I2
sS'war'
p1134
I1
sS'iron'
p1135
I1
sS'cards'
p1136
I3
sS'quadruplets'
p1137
I1
sS'minutes'
p1138
I1
sS'horses'
p1139
I2
sS'holes'
p1140
I1
sS'head'
p1141
I1
sS'pig'
p1142
I1
sS'boardwalk'
p1143
I1
sS'replica'
p1144
I1
sS'fiddlers'
p1145
I1
sS'horsepower'
p1146
I2
sS'border'
p1147
I1
sS'chromosome'
p1148
I2
sS'innings'
p1149
I2
sS'russians'
p1150
I1
sS'snow'
p1151
I1
sS'reactivity'
p1152
I4
sS'actors'
p1153
I1
sS'grammys'
p1154
I1
sS'vegetation'
p1155
I1
sS'elements'
p1156
I1
sS'star'
p1157
I1
sS'teats'
p1158
I1
sS'quarts'
p1159
I1
sS'teeth'
p1160
I1
sS'visitors'
p1161
I1
sS'sides'
p1162
I3
sS'cables'
p1163
I1
sS'stronger'
p1164
I1
sS'websites'
p1165
I1
sS'points'
p1166
I4
sS'time'
p1167
I1
sS'weigh'
p1168
I1
sS'salt'
p1169
I1
sS'quantity'
p1170
I1
stp1171
Rp1172
(dp1173
g25
I505
sg75
Nsg76
Nsg77
Nsbsg78
I1449
sg79
F1229.5
sbs(g10
g80
tp1174
g0
(g20
g2
Ntp1175
Rp1176
(dp1177
g24
F0.5
sg25
I835
sg26
g0
(g27
g28
(dp1178
g30
I121
sS'gates'
p1179
I2
sS'thomas'
p1180
I1
sS'mccheese'
p1181
I1
sS'bocci'
p1182
I1
sS'nations'
p1183
I1
sS'clinic'
p1184
I1
sS'tours'
p1185
I1
sS'makeup'
p1186
I1
sS'battle'
p1187
I1
sS'schoolhouse'
p1188
I1
sS'avenue'
p1189
I1
sS'continent'
p1190
I5
sS'web'
p1191
I1
sS'birthplace'
p1192
I3
sS'deserts'
p1193
I1
sS'gulf'
p1194
I1
sS'point'
p1195
I1
sS'lake'
p1196
I5
sS'woodstock'
p1197
I1
sS'location'
p1198
I4
sS'prison'
p1199
I1
sS'team'
p1200
I1
sS'goalie'
p1201
I1
sS'resources'
p1202
I1
sS'steel'
p1203
I1
sS'goes'
p1204
I1
sS'myth'
p1205
I1
sS'dam'
p1206
I1
sS'oceans'
p1207
I2
sS'nation'
p1208
I3
sS'stadium'
p1209
I2
sS'vegas'
p1210
I1
sS'tuberculosis'
p1211
I1
sS'world'
p1212
I1
sS'lincoln'
p1213
I1
sS'airports'
p1214
I1
sS'name'
p1215
I17
sS'countries'
p1216
I22
sS'university'
p1217
I2
sS'shape'
p1218
I1
sS'bay'
p1219
I2
sS'race'
p1220
I1
sS'steps'
p1221
I1
sS'explorer'
p1222
I1
sS'rock'
p1223
I1
sS'volcano'
p1224
I1
sS'river'
p1225
I17
sS'page'
p1226
I3
sS'battlefield'
p1227
I1
sS'square'
p1228
I1
sS'telescope'
p1229
I1
sS'reference'
p1230
I1
sS'apartments'
p1231
I1
sS'seas'
p1232
I1
sS'house'
p1233
I1
sS'library'
p1234
I1
sS'rivers'
p1235
I2
sS'orinoco'
p1236
I1
sS'zero'
p1237
I1
sS'street'
p1238
I3
sS'college'
p1239
I3
sS'sea'
p1240
I4
sS'home'
p1241
I1
sS'danube'
p1242
I1
sS'constellation'
p1243
I3
sS'aldrin'
p1244
I1
sS'zebras'
p1245
I1
sS'planet'
p1246
I4
sS'qatar'
p1247
I1
sS'mutombo'
p1248
I1
sS'sites'
p1249
I3
sS'stops'
p1250
I1
sS'seaport'
p1251
I3
sS'libraries'
p1252
I1
sS'state'
p1253
I51
sS'daniel'
p1254
I1
sS'olympics'
p1255
I2
sS'cobb'
p1256
I1
sS'diamonds'
p1257
I1
sS'nicholas'
p1258
I1
sS'glasgow'
p1259
I1
sS'body'
p1260
I1
sS'columbus'
p1261
I1
sS'stockyards'
p1262
I1
sS'pythagoras'
p1263
I1
sS'dwarf'
p1264
I1
sS'cars'
p1265
I1
sS'u.s.'
p1266
I2
sS'seine'
p1267
I1
sS'ranges'
p1268
I2
sS'groups'
p1269
I1
sS'address'
p1270
I9
sS'nationality'
p1271
I7
sS'canals'
p1272
I1
sS'cities'
p1273
I10
sS'luther'
p1274
I1
sS'stations'
p1275
I1
sS'institute'
p1276
I1
sS'country'
p1277
I104
sS'region'
p1278
I1
sS'adventures'
p1279
I1
sS'eels'
p1280
I1
sS'ports'
p1281
I1
sS'melbourne'
p1282
I1
sS'thing'
p1283
I1
sS'airport'
p1284
I5
sS'waterfall'
p1285
I1
sS'place'
p1286
I1
sS'islands'
p1287
I1
sS'castle'
p1288
I2
sS'hospital'
p1289
I1
sS'block'
p1290
I1
sS'nixon'
p1291
I1
sS'burma'
p1292
I1
sS'romania'
p1293
I1
sS'indians'
p1294
I1
sS'clinton'
p1295
I1
sS'tourists'
p1296
I2
sS'bell'
p1297
I1
sS'wall'
p1298
I1
sS'attractions'
p1299
I2
sS'guam'
p1300
I1
sS'washington'
p1301
I2
sS'county'
p1302
I3
sS'canyon'
p1303
I1
sS'blackhawks'
p1304
I1
sS'names'
p1305
I2
sS'amsterdam'
p1306
I1
sS'poe'
p1307
I1
sS'george'
p1308
I1
sS'coastlines'
p1309
I1
sS'trinidad'
p1310
I1
sS'canal'
p1311
I1
sS'city'
p1312
I75
sS'belize'
p1313
I1
sS'habitat'
p1314
I1
sS'area'
p1315
I2
sS'remains'
p1316
I1
sS'arch'
p1317
I1
sS'museum'
p1318
I5
sS'people'
p1319
I4
sS'desert'
p1320
I5
sS'snowman'
p1321
I1
sS'cotrubas'
p1322
I1
sS'valley'
p1323
I2
sS'meeting'
p1324
I1
sS'capital'
p1325
I19
sS'store'
p1326
I1
sS'website'
p1327
I6
sS'mountains'
p1328
I1
sS'direction'
p1329
I2
sS'strait'
p1330
I1
sS'way'
p1331
I1
sS'inuits'
p1332
I1
sS'passenger'
p1333
I1
sS'hotel'
p1334
I2
sS'montenegro'
p1335
I1
sS'singer'
p1336
I1
sS'landmark'
p1337
I2
sS'chocolate'
p1338
I1
sS'possession'
p1339
I1
sS'trail'
p1340
I1
sS'flag'
p1341
I1
sS'inoco'
p1342
I1
sS'coyote'
p1343
I1
sS'hole'
p1344
I1
sS'sound'
p1345
I1
sS'mahal'
p1346
I1
sS'room'
p1347
I1
sS'hour'
p1348
I1
sS'louisiana'
p1349
I1
sS'hyenas'
p1350
I1
sS'restaurant'
p1351
I2
sS'natick'
p1352
I1
sS'worth'
p1353
I1
sS'project'
p1354
I1
sS'mall'
p1355
I1
sS'individual'
p1356
I1
sS'island'
p1357
I14
sS'waterways'
p1358
I1
sS'mozambique'
p1359
I1
sS'loop'
p1360
I1
sS'bridge'
p1361
I4
sS'edberg'
p1362
I1
sS'gulliver'
p1363
I1
sS'palace'
p1364
I1
sS'rios'
p1365
I1
sS'tesla'
p1366
I1
sS'abstract'
p1367
I1
sS'breweries'
p1368
I1
sS'rubble'
p1369
I1
sS'site'
p1370
I4
sS'alley'
p1371
I1
sS'general'
p1372
I1
sS'states'
p1373
I6
sS'dew'
p1374
I1
sS'sport'
p1375
I1
sS'bend'
p1376
I1
sS'showers'
p1377
I1
sS'cathedral'
p1378
I2
sS'distributions'
p1379
I1
sS'chop'
p1380
I1
sS'native'
p1381
I1
sS'angelica'
p1382
I1
sS'information'
p1383
I1
sS'monarchy'
p1384
I1
sS'court'
p1385
I1
sS'ukulele'
p1386
I1
sS'helium'
p1387
I1
sS'hugo'
p1388
I1
sS'bowl'
p1389
I2
sS'davies'
p1390
I1
sS'hampshire'
p1391
I1
sS'zoo'
p1392
I1
sS'complex'
p1393
I1
sS'republic'
p1394
I2
sS'forest'
p1395
I1
sS'forces'
p1396
I1
sS'gate'
p1397
I1
sS'residence'
p1398
I1
sS'isle'
p1399
I1
sS'gamble'
p1400
I2
sS'province'
p1401
I2
sS'buildings'
p1402
I1
sS'star'
p1403
I2
sS'brothers'
p1404
I1
sS'mountain'
p1405
I10
sS'park'
p1406
I3
sS'town'
p1407
I4
sS'lucia'
p1408
I1
sS'callosum'
p1409
I2
sS'pigs'
p1410
I1
sS'peak'
p1411
I4
sS'stocks'
p1412
I1
sS'nickname'
p1413
I3
sS'gallery'
p1414
I1
sS'honecker'
p1415
I1
sS'building'
p1416
I8
sS'badu'
p1417
I1
sS'surfing'
p1418
I1
sS'center'
p1419
I2
sS'i'
p1420
I1
sS'camp'
p1421
I1
sS'drinks'
p1422
I1
sS'headquarters'
p1423
I4
sS'websites'
p1424
I1
sS'ocean'
p1425
I6
sS'lobsters'
p1426
I1
sS'chronicles'
p1427
I1
sS'walker'
p1428
I1
sS'bodies'
p1429
I1
sS'marvel'
p1430
I1
stp1431
Rp1432
(dp1433
g25
I835
sg75
Nsg76
Nsg77
Nsbsg78
I1487
sg79
F1578.5
sbs(g8
g80
tp1434
g0
(g20
g2
Ntp1435
Rp1436
(dp1437
g24
F0.5
sg25
I1250
sg26
g0
(g27
g28
(dp1438
g30
I158
sS'lack'
p1439
I1
sS'four'
p1440
I1
sS'crocodile'
p1441
I1
sS'gang'
p1442
I1
sS'skin'
p1443
I1
sS'dish'
p1444
I1
sS'bomb'
p1445
I1
sS'children'
p1446
I1
sS'simon'
p1447
I1
sS'baseball'
p1448
I1
sS'tv'
p1449
I14
sS'technique'
p1450
I2
sS'languages'
p1451
I3
sS'fingernails'
p1452
I1
sS'tail'
p1453
I1
sS'program'
p1454
I3
sS'terror'
p1455
I1
sS'ingredient'
p1456
I1
sS'plants'
p1457
I2
sS'woman'
p1458
I1
sS'song'
p1459
I6
sS'translations'
p1460
I1
sS'jeroboams'
p1461
I1
sS'jack'
p1462
I1
sS'word'
p1463
I17
sS'magic'
p1464
I1
sS'prize'
p1465
I1
sS'level'
p1466
I1
sS'crops'
p1467
I1
sS'gender'
p1468
I2
sS'notes'
p1469
I1
sS'companies'
p1470
I1
sS'belushi'
p1471
I1
sS'car'
p1472
I3
sS'mammal'
p1473
I3
sS'stingers'
p1474
I1
sS'olympic'
p1475
I1
sS'carter'
p1476
I1
sS'japanese'
p1477
I1
sS'crop'
p1478
I3
sS'sign'
p1479
I3
sS'chef'
p1480
I1
sS'battle'
p1481
I2
sS'titles'
p1482
I1
sS'video'
p1483
I2
sS'hymn'
p1484
I2
sS'constitution'
p1485
I1
sS'clock'
p1486
I1
sS'tarantula'
p1487
I1
sS'net'
p1488
I1
sS'tournaments'
p1489
I1
sS'bird'
p1490
I3
sS'body'
p1491
I1
sS'leg'
p1492
I1
sS'men'
p1493
I1
sS'french'
p1494
I1
sS'dipsomaniac'
p1495
I1
sS'operating'
p1496
I2
sS'yards'
p1497
I1
sS'goldfish'
p1498
I1
sS'tragedy'
p1499
I2
sS'hass'
p1500
I1
sS'luther'
p1501
I1
sS'substance'
p1502
I4
sS'products'
p1503
I3
sS'franklin'
p1504
I1
sS'birthstone'
p1505
I1
sS'otters'
p1506
I1
sS'classification'
p1507
I1
sS'spermologer'
p1508
I1
sS'respirator'
p1509
I1
sS'italians'
p1510
I1
sS'names'
p1511
I3
sS'tools'
p1512
I1
sS'chefs'
p1513
I1
sS'ladybugs'
p1514
I1
sS'indians'
p1515
I1
sS'symphony'
p1516
I1
sS'music'
p1517
I1
sS'films'
p1518
I2
sS'type'
p1519
I1
sS'household'
p1520
I2
sS'ballad'
p1521
I1
sS'sort'
p1522
I1
sS'playboy'
p1523
I1
sS'phobophobe'
p1524
I1
sS'shipwreck'
p1525
I1
sS'club'
p1526
I1
sS'company'
p1527
I1
sS'award'
p1528
I1
sS'glass'
p1529
I1
sS'flag'
p1530
I1
sS'adult'
p1531
I1
sS'rabbit'
p1532
I2
sS'shostakovich'
p1533
I1
sS'mascot'
p1534
I1
sS'balls'
p1535
I1
sS'animals'
p1536
I8
sS'primate'
p1537
I1
sS'science'
p1538
I1
sS'athlete'
p1539
I1
sS'work'
p1540
I1
sS'foods'
p1541
I3
sS'sweeter'
p1542
I1
sS'entertainer'
p1543
I1
sS'seagull'
p1544
I1
sS'example'
p1545
I1
sS'nino'
p1546
I1
sS'chip'
p1547
I1
sS'currency'
p1548
I1
sS'stroke'
p1549
I1
sS'best-seller'
p1550
I1
sS'airplane'
p1551
I2
sS'species'
p1552
I3
sS'damage'
p1553
I1
sS'chemical'
p1554
I1
sS'animal'
p1555
I17
sS'creature'
p1556
I4
sS'gaming'
p1557
I1
sS'plant'
p1558
I4
sS'cocktail'
p1559
I2
sS'singular'
p1560
I1
sS'may'
p1561
I2
sS'clone'
p1562
I1
sS'rites'
p1563
I1
sS'conjugations'
p1564
I1
sS'philatelist'
p1565
I1
sS'softball'
p1566
I1
sS'types'
p1567
I3
sS'man'
p1568
I2
sS'noun'
p1569
I1
sS'liquid'
p1570
I1
sS'liner'
p1571
I1
sS'element'
p1572
I2
sS'tale'
p1573
I1
sS'bakery'
p1574
I1
sS'alloy'
p1575
I1
sS'wine'
p1576
I1
sS'producer'
p1577
I1
sS'move'
p1578
I1
sS'mission'
p1579
I1
sS'meter'
p1580
I2
sS'trade'
p1581
I1
sS'sperm'
p1582
I2
sS'course'
p1583
I1
sS'paper'
p1584
I1
sS'oven'
p1585
I1
sS'signs'
p1586
I1
sS'magoo'
p1587
I1
sS'birds'
p1588
I2
sS'golfing'
p1589
I1
sS'forms'
p1590
I1
sS'holiday'
p1591
I1
sS'diseases'
p1592
I1
sS'food'
p1593
I8
sS'auto'
p1594
I1
sS'killer'
p1595
I1
sS'amendements'
p1596
I1
sS'therapy'
p1597
I1
sS'snake'
p1598
I1
sS'compound'
p1599
I1
sS'satellites'
p1600
I1
sS'clouds'
p1601
I1
sS'day'
p1602
I1
sS'articles'
p1603
I1
sS'term'
p1604
I18
sS'name'
p1605
I75
sS'opera'
p1606
I2
sS'january'
p1607
I1
sS'policeman'
p1608
I1
sS'drake'
p1609
I1
sS'events'
p1610
I3
sS'habits'
p1611
I1
sS'predators'
p1612
I1
sS'side'
p1613
I1
sS'bone'
p1614
I1
sS'wheel'
p1615
I1
sS'ailment'
p1616
I1
sS'generation'
p1617
I1
sS'series'
p1618
I1
sS'fish'
p1619
I1
sS'spider'
p1620
I1
sS'books'
p1621
I1
sS'year'
p1622
I1
sS'aids'
p1623
I1
sS'ribavirin'
p1624
I1
sS'marley'
p1625
I1
sS'event'
p1626
I2
sS'album'
p1627
I1
sS'flower'
p1628
I1
sS'god'
p1629
I1
sS'vessels'
p1630
I2
sS'strokes'
p1631
I1
sS'race'
p1632
I3
sS'medicine'
p1633
I1
sS'formula'
p1634
I3
sS'plural'
p1635
I1
sS'achievements'
p1636
I1
sS'maneuver'
p1637
I1
sS'monster'
p1638
I1
sS'delicacy'
p1639
I1
sS'descendents'
p1640
I1
sS'story'
p1641
I1
sS'approaches'
p1642
I1
sS'basketball'
p1643
I1
sS'cookie'
p1644
I1
sS'hand'
p1645
I1
sS'card'
p1646
I7
sS'soundtrack'
p1647
I1
sS'language'
p1648
I10
sS'garment'
p1649
I1
sS'counterpart'
p1650
I2
sS'thing'
p1651
I3
sS'soda'
p1652
I1
sS'stewart'
p1653
I1
sS'vowel'
p1654
I2
sS'feet'
p1655
I1
sS'owner'
p1656
I1
sS'overalls'
p1657
I1
sS'millions'
p1658
I1
sS'paine'
p1659
I1
sS'razor'
p1660
I1
sS'horse'
p1661
I2
sS'toy'
p1662
I1
sS'automobile'
p1663
I1
sS'system'
p1664
I2
sS'syrup'
p1665
I1
sS'genesis'
p1666
I1
sS'stars'
p1667
I1
sS'chemicals'
p1668
I3
sS'part'
p1669
I4
sS'cereal'
p1670
I4
sS'translation'
p1671
I1
sS'flowers'
p1672
I1
sS'symptom'
p1673
I1
sS'milton'
p1674
I1
sS'kind'
p1675
I3
sS'domestica'
p1676
I1
sS'johnson'
p1677
I1
sS'shampoo'
p1678
I1
sS'dogs'
p1679
I1
sS'invention'
p1680
I1
sS'cards'
p1681
I2
sS'outcome'
p1682
I1
sS'sculpture'
p1683
I2
sS'bridge'
p1684
I1
sS'fowl'
p1685
I1
sS'deodorant'
p1686
I1
sS'ages'
p1687
I1
sS'mine'
p1688
I1
sS'pedometer'
p1689
I1
sS'tastes'
p1690
I1
sS'shrubs'
p1691
I1
sS'spectacle'
p1692
I1
sS'allen'
p1693
I1
sS'handicraft'
p1694
I1
sS'harper'
p1695
I1
sS'chiropodist'
p1696
I1
sS'soap'
p1697
I2
sS'play'
p1698
I4
sS'thrilled'
p1699
I1
sS'object'
p1700
I1
sS'cigarette'
p1701
I2
sS'regular'
p1702
I1
sS'letter'
p1703
I5
sS'exercises'
p1704
I1
sS'coin'
p1705
I1
sS'class'
p1706
I2
sS'synonym'
p1707
I1
sS'cover'
p1708
I1
sS'dog'
p1709
I2
sS'scotch'
p1710
I1
sS'dot'
p1711
I1
sS'charley'
p1712
I1
sS'golf'
p1713
I1
sS'phenomenon'
p1714
I2
sS'show'
p1715
I1
sS'queen'
p1716
I2
sS'recipe'
p1717
I1
sS'colors'
p1718
I7
sS'fear'
p1719
I62
sS'albums'
p1720
I1
sS'livestock'
p1721
I1
sS'resource'
p1722
I1
sS'ruin'
p1723
I1
sS'winner'
p1724
I1
sS'penalty'
p1725
I1
sS'molecules'
p1726
I1
sS'fuel'
p1727
I2
sS'circle'
p1728
I1
sS'hit'
p1729
I1
sS'commodity'
p1730
I1
sS'bear'
p1731
I1
sS'words'
p1732
I4
sS'tips'
p1733
I1
sS'bar'
p1734
I1
sS'organ'
p1735
I1
sS'encounters'
p1736
I1
sS'saliva'
p1737
I1
sS'method'
p1738
I2
sS'penguins'
p1739
I1
sS'roger'
p1740
I1
sS'abolitionists'
p1741
I1
sS'disaster'
p1742
I1
sS'tree'
p1743
I1
sS'farrier'
p1744
I1
sS'ancients'
p1745
I1
sS'humans'
p1746
I1
sS'sex'
p1747
I2
sS'cologne'
p1748
I1
sS'computer'
p1749
I2
sS'seal'
p1750
I1
sS'explosive'
p1751
I1
sS'sport'
p1752
I17
sS'ways'
p1753
I6
sS'movie'
p1754
I17
sS'review'
p1755
I1
sS'stories'
p1756
I1
sS'gemstone'
p1757
I1
sS'latin'
p1758
I1
sS'tristan'
p1759
I1
sS'ability'
p1760
I1
sS't.v.'
p1761
I1
sS'first-aid'
p1762
I1
sS'piece'
p1763
I2
sS'drug'
p1764
I4
sS'connection'
p1765
I1
sS'games'
p1766
I2
sS'berry'
p1767
I1
sS'faces'
p1768
I1
sS'witch'
p1769
I1
sS'heliologist'
p1770
I1
sS'statues'
p1771
I1
sS'cancer'
p1772
I2
sS'color'
p1773
I28
sS'period'
p1774
I1
sS'cult'
p1775
I1
sS'pole'
p1776
I1
sS'vessel'
p1777
I1
sS'belt'
p1778
I1
sS'conference'
p1779
I1
sS'hawkins'
p1780
I1
sS'instrument'
p1781
I5
sS'trilogy'
p1782
I1
sS'trademark'
p1783
I2
sS'mark'
p1784
I1
sS'submarine'
p1785
I1
sS'beer'
p1786
I4
sS'treat'
p1787
I1
sS'board'
p1788
I2
sS'flight'
p1789
I1
sS'ridder'
p1790
I1
sS'locations'
p1791
I1
sS'tiger'
p1792
I1
sS'bible'
p1793
I1
sS'expedition'
p1794
I1
sS'ravens'
p1795
I1
sS'jell-o'
p1796
I1
sS'sound'
p1797
I1
sS'novel'
p1798
I22
sS'value'
p1799
I1
sS'droppings'
p1800
I1
sS'newspaper'
p1801
I4
sS'procedure'
p1802
I1
sS'layer'
p1803
I1
sS'calculator'
p1804
I1
sS'player'
p1805
I1
sS'alphabet'
p1806
I1
sS'bowl'
p1807
I1
sS'member'
p1808
I1
sS'esquire'
p1809
I1
sS'vegetable'
p1810
I2
sS'document'
p1811
I1
sS'composition'
p1812
I1
sS'week'
p1813
I1
sS'ball'
p1814
I2
sS'drink'
p1815
I17
sS'huston'
p1816
I1
sS'holidays'
p1817
I1
sS'fruit'
p1818
I1
sS'statue'
p1819
I1
sS'whale'
p1820
I2
sS'nickname'
p1821
I1
sS'tune'
p1822
I1
sS'kid'
p1823
I1
sS'smokey'
p1824
I1
sS'peacocks'
p1825
I1
sS'weapon'
p1826
I4
sS'variety'
p1827
I1
sS'game'
p1828
I7
sS'ocean'
p1829
I1
sS'materials'
p1830
I1
sS'components'
p1831
I1
sS'model'
p1832
I1
sS'musical'
p1833
I2
sS'deltiologist'
p1834
I1
sS'plagues'
p1835
I1
sS'traditions'
p1836
I1
sS'money'
p1837
I3
sS'racehorse'
p1838
I1
sS'basophobic'
p1839
I1
sS'product'
p1840
I8
sS'shape'
p1841
I2
sS'flavor'
p1842
I1
sS'ads'
p1843
I1
sS'alternate'
p1844
I1
sS'source'
p1845
I1
sS'treatment'
p1846
I1
sS'crack'
p1847
I1
sS'visine'
p1848
I1
sS'earthquakes'
p1849
I1
sS'metalious'
p1850
I1
sS'tenses'
p1851
I1
sS'format'
p1852
I2
sS'sailors'
p1853
I1
sS'bands'
p1854
I1
sS'bid'
p1855
I1
sS'suffering'
p1856
I1
sS'gama'
p1857
I1
sS'world'
p1858
I1
sS'knox'
p1859
I1
sS'boob'
p1860
I1
sS'meat'
p1861
I1
sS'kennedy'
p1862
I1
sS'eidologist'
p1863
I1
sS'clay'
p1864
I1
sS'wonders'
p1865
I2
sS'pyramid-builders'
p1866
I1
sS'jews'
p1867
I1
sS'people'
p1868
I1
sS'hair'
p1869
I3
sS'export'
p1870
I1
sS'brontosauruses'
p1871
I1
sS'hurricane'
p1872
I1
sS'ice'
p1873
I1
sS'religion'
p1874
I2
sS'shakespeare'
p1875
I1
sS'epic'
p1876
I1
sS'measures'
p1877
I1
sS'rum'
p1878
I1
sS'equivalent'
p1879
I1
sS'slaughter'
p1880
I1
sS'vaccine'
p1881
I1
sS'trophy'
p1882
I2
sS'maclaine'
p1883
I1
sS'resurrectionist'
p1884
I1
sS'concerts'
p1885
I1
sS'magazine'
p1886
I7
sS'camels'
p1887
I1
sS'cartier'
p1888
I1
sS'emperor'
p1889
I1
sS'software'
p1890
I1
sS'letters'
p1891
I1
sS'washington'
p1892
I1
sS'device'
p1893
I2
sS'brush'
p1894
I1
sS'strip'
p1895
I3
sS'methods'
p1896
I1
sS'vegetables'
p1897
I1
sS'tennis'
p1898
I1
sS'cats'
p1899
I2
sS'bros.'
p1900
I1
sS'way'
p1901
I9
sS'suit'
p1902
I1
sS'war'
p1903
I12
sS'warlock'
p1904
I1
sS'medium'
p1905
I3
sS'form'
p1906
I2
sS'brand'
p1907
I1
sS'sequel'
p1908
I3
sS'oil'
p1909
I1
sS'principles'
p1910
I1
sS'observances'
p1911
I1
sS'line'
p1912
I1
sS'ear'
p1913
I1
sS'spice'
p1914
I1
sS'manatees'
p1915
I1
sS'limit'
p1916
I1
sS'stages'
p1917
I1
sS'condiment'
p1918
I2
sS'palate'
p1919
I1
sS'classic'
p1920
I1
sS'taste'
p1921
I1
sS'strips'
p1922
I1
sS'disease'
p1923
I11
sS'gland'
p1924
I1
sS'majal'
p1925
I1
sS'ship'
p1926
I3
sS'film'
p1927
I23
sS'ingredients'
p1928
I1
sS'trials'
p1929
I2
sS'actor'
p1930
I1
sS'snakes'
p1931
I1
sS'field'
p1932
I1
sS'book'
p1933
I21
sS'jong'
p1934
I1
sS'mayonnaise'
p1935
I1
sS'elements'
p1936
I4
sS'kinds'
p1937
I1
sS'brothers'
p1938
I1
sS'congress'
p1939
I1
sS'symbol'
p1940
I3
sS'lens'
p1941
I1
sS'structure'
p1942
I1
sS'age'
p1943
I1
sS'vehicles'
p1944
I1
sS'flatfish'
p1945
I1
sS'feud'
p1946
I1
sS'fastener'
p1947
I1
sS'craft'
p1948
I1
sS'menace'
p1949
I1
sS'songs'
p1950
I2
stp1951
Rp1952
(dp1953
g25
I1250
sg75
Nsg76
Nsg77
Nsbsg78
I1487
sg79
F1993.5
sbs(g13
g80
tp1954
g0
(g20
g2
Ntp1955
Rp1956
(dp1957
g24
F0.5
sg25
I75
sg26
g0
(g27
g28
(dp1958
g30
I58
sS'expectancy'
p1959
I3
sS'span'
p1960
I1
sS'office'
p1961
I1
sS'time'
p1962
I4
sS'age'
p1963
I7
sS'period'
p1964
I1
stp1965
Rp1966
(dp1967
g25
I75
sg75
Nsg76
Nsg77
Nsbsg78
I1487
sg79
F818.5
sbs(g12
g18
tp1968
g0
(g20
g2
Ntp1969
Rp1970
(dp1971
g24
F0.5
sg25
I218
sg26
g0
(g27
g28
(dp1972
g30
I35
sS'ambassador'
p1973
I1
sS'show'
p1974
I1
sS'royal'
p1975
I1
sS'revolutionaries'
p1976
I1
sS'period'
p1977
I1
sS'month'
p1978
I6
sS'battle'
p1979
I1
sS'www.questions.com'
p1980
I1
sS'use'
p1981
I1
sS'group'
p1982
I1
sS'troops'
p1983
I1
sS'start'
p1984
I2
sS'visit'
p1985
I1
sS'live'
p1986
I1
sS'labor'
p1987
I1
sS'paint'
p1988
I1
sS'attack'
p1989
I1
sS'music'
p1990
I1
sS'teenager'
p1991
I1
sS'mutiny'
p1992
I1
sS'woman'
p1993
I1
sS'get'
p1994
I2
sS'fire'
p1995
I2
sS'season'
p1996
I3
sS'company'
p1997
I1
sS'broadcast'
p1998
I2
sS'glass'
p1999
I1
sS'railroad'
p2000
I1
sS'believe'
p2001
I1
sS'day'
p2002
I9
sS'women'
p2003
I1
sS'steel'
p2004
I1
sS'die'
p2005
I1
sS'air'
p2006
I2
sS'heart'
p2007
I1
sS'erupt'
p2008
I1
sS'become'
p2009
I3
sS'supercontinent'
p2010
I1
sS'control'
p2011
I1
sS'menstruation'
p2012
I1
sS'art'
p2013
I2
sS'concert'
p2014
I1
sS'century'
p2015
I3
sS'house'
p2016
I1
sS'year'
p2017
I44
sS'humans'
p2018
I1
sS'direct'
p2019
I1
sS'mormons'
p2020
I1
sS'born'
p2021
I9
sS'flush'
p2022
I1
sS'film'
p2023
I1
sS'neanderthal'
p2024
I1
sS'end'
p2025
I2
sS'camcorders'
p2026
I1
sS'publish'
p2027
I1
sS'write'
p2028
I1
sS'flood'
p2029
I1
sS'millennium'
p2030
I1
sS'test'
p2031
I1
sS'gate'
p2032
I1
sS'leader'
p2033
I1
sS'begin'
p2034
I3
sS'power'
p2035
I1
sS'eruption'
p2036
I3
sS'commercial'
p2037
I1
sS'combustion'
p2038
I1
sS'shorn'
p2039
I1
sS'date'
p2040
I13
sS'seasons'
p2041
I1
sS'come'
p2042
I1
sS'winter'
p2043
I2
sS'dates'
p2044
I1
sS'accident'
p2045
I1
sS'stricken'
p2046
I1
sS'birthday'
p2047
I4
sS'encyclopedia'
p2048
I1
sS'advertising'
p2049
I1
sS'time'
p2050
I6
sS'built'
p2051
I1
sS'painting'
p2052
I1
sS'vesuvius'
p2053
I1
stp2054
Rp2055
(dp2056
g25
I218
sg75
Nsg76
Nsg77
Nsbsg78
I1449
sg79
F942.5
sbs(g9
g80
tp2057
g0
(g20
g2
Ntp2058
Rp2059
(dp2060
g24
F0.5
sg25
I1223
sg26
g0
(g27
g28
(dp2061
g30
I132
sS'colleges'
p2062
I1
sS'coach'
p2063
I3
sS'founder'
p2064
I1
sS'ali'
p2065
I1
sS'themes'
p2066
I1
sS'manager'
p2067
I2
sS'battle'
p2068
I1
sS'chair'
p2069
I1
sS'captain'
p2070
I1
sS'children'
p2071
I1
sS'chain'
p2072
I2
sS'electricity'
p2073
I1
sS'jolson'
p2074
I1
sS'father'
p2075
I7
sS'crooner'
p2076
I1
sS'pride'
p2077
I1
sS'stonehenge'
p2078
I1
sS'woman'
p2079
I10
sS'song'
p2080
I2
sS'spumante'
p2081
I1
sS'railways'
p2082
I1
sS'sons'
p2083
I1
sS'diary'
p2084
I1
sS'surgeon'
p2085
I1
sS'tutu'
p2086
I2
sS'chapel'
p2087
I1
sS'school'
p2088
I5
sS'prize'
p2089
I1
sS'positions'
p2090
I1
sS'celebrity'
p2091
I1
sS'macdowell'
p2092
I1
sS'companies'
p2093
I2
sS'brother'
p2094
I2
sS'grandfather'
p2095
I1
sS'team'
p2096
I10
sS'radio'
p2097
I3
sS'guy'
p2098
I1
sS'astronaut'
p2099
I3
sS'athlete'
p2100
I1
sS'kemper'
p2101
I1
sS'malick'
p2102
I1
sS'force'
p2103
I2
sS'leaders'
p2104
I1
sS'maggio'
p2105
I1
sS'wrestling'
p2106
I1
sS'video'
p2107
I2
sS'lawyer'
p2108
I8
sS'nba'
p2109
I1
sS'monster'
p2110
I1
sS'golfer'
p2111
I3
sS'business'
p2112
I4
sS'journalist'
p2113
I1
sS'new'
p2114
I1
sS'badge'
p2115
I1
sS'admiral'
p2116
I1
sS'hero'
p2117
I1
sS'funeral'
p2118
I1
sS'theresa'
p2119
I1
sS'ranger'
p2120
I2
sS'dubliners'
p2121
I1
sS'baseball'
p2122
I10
sS'pub'
p2123
I1
sS'groups'
p2124
I1
sS'isps'
p2125
I1
sS'benson'
p2126
I1
sS'bible'
p2127
I1
sS'daughter'
p2128
I2
sS'survivor'
p2129
I1
sS'jinnah'
p2130
I1
sS'tv'
p2131
I8
sS'mentor'
p2132
I2
sS'residents'
p2133
I1
sS'patents'
p2134
I1
sS'holmes'
p2135
I1
sS'members'
p2136
I1
sS'presidents'
p2137
I2
sS'county'
p2138
I1
sS'names'
p2139
I11
sS'composer'
p2140
I3
sS'singing'
p2141
I3
sS'bra'
p2142
I1
sS'lime'
p2143
I1
sS'dna'
p2144
I1
sS'army'
p2145
I1
sS'wonderbra'
p2146
I1
sS'music'
p2147
I1
sS'butler'
p2148
I1
sS'angels'
p2149
I1
sS'faith'
p2150
I1
sS'tootsie'
p2151
I1
sS'company'
p2152
I24
sS'award'
p2153
I2
sS'chocolate'
p2154
I1
sS'stethoscope'
p2155
I1
sS'baby'
p2156
I1
sS'antichrist'
p2157
I1
sS'iii'
p2158
I1
sS'women'
p2159
I1
sS'word'
p2160
I1
sS'room'
p2161
I1
sS'rights'
p2162
I1
sS'barroom'
p2163
I1
sS'confucius'
p2164
I1
sS'worm'
p2165
I1
sS'morgan'
p2166
I1
sS'goodall'
p2167
I1
sS'example'
p2168
I1
sS'nino'
p2169
I1
sS'spy'
p2170
I2
sS'boyfriend'
p2171
I1
sS'performer'
p2172
I1
sS'figure'
p2173
I1
sS'hyatt'
p2174
I1
sS'process'
p2175
I1
sS'frickett'
p2176
I1
sS'villain'
p2177
I2
sS'numbers'
p2178
I1
sS'airplane'
p2179
I2
sS'voice'
p2180
I1
sS'freleng'
p2181
I1
sS'autobiography'
p2182
I3
sS'court'
p2183
I1
sS'machine'
p2184
I1
sS'writers'
p2185
I1
sS'cardinal'
p2186
I1
sS'skater'
p2187
I1
sS'cyberspace'
p2188
I1
sS'designer'
p2189
I2
sS'cupboard'
p2190
I1
sS'explorer'
p2191
I2
sS'information'
p2192
I1
sS'collection'
p2193
I1
sS'shores'
p2194
I1
sS'terrorist'
p2195
I1
sS'president'
p2196
I50
sS'lap'
p2197
I1
sS'man'
p2198
I6
sS'muppets'
p2199
I2
sS'doctor'
p2200
I3
sS'volleyball'
p2201
I1
sS'nebbish'
p2202
I1
sS'lindbergh'
p2203
I1
sS'order'
p2204
I1
sS'photoshop'
p2205
I1
sS'no.'
p2206
I1
sS'mutiny'
p2207
I1
sS'producer'
p2208
I3
sS'dumpty'
p2209
I2
sS'costume'
p2210
I1
sS'oswald'
p2211
I2
sS'mayor'
p2212
I4
sS'bunch'
p2213
I1
sS'self-portrait'
p2214
I1
sS'group'
p2215
I9
sS'shortstop'
p2216
I1
sS'ticker'
p2217
I1
sS'pines'
p2218
I1
sS'winners'
p2219
I1
sS'dwarfs'
p2220
I1
sS'gymnast'
p2221
I1
sS'founders'
p2222
I1
sS'speech'
p2223
I1
sS'norway'
p2224
I1
sS'fool'
p2225
I1
sS'hunter'
p2226
I2
sS'band'
p2227
I1
sS'party'
p2228
I3
sS'schools'
p2229
I1
sS'cage'
p2230
I1
sS'day'
p2231
I1
sS'd.a.'
p2232
I1
sS'mystery'
p2233
I1
sS'attorneys'
p2234
I1
sS'name'
p2235
I79
sS'mathematician'
p2236
I1
sS'university'
p2237
I5
sS'editor'
p2238
I3
sS'lawnmower'
p2239
I1
sS'paganini'
p2240
I1
sS'normans'
p2241
I1
sS'series'
p2242
I1
sS'kane'
p2243
I1
sS'hawaii'
p2244
I1
sS'society'
p2245
I1
sS'logo'
p2246
I1
sS'girl'
p2247
I1
sS'salesman'
p2248
I1
sS'message'
p2249
I1
sS'witness'
p2250
I1
sS'bacall'
p2251
I1
sS'network'
p2252
I1
sS'god'
p2253
I2
sS'horoscope'
p2254
I1
sS'opener'
p2255
I1
sS'fountain'
p2256
I1
sS'foundation'
p2257
I1
sS'theory'
p2258
I1
sS'barrier'
p2259
I1
sS'credit'
p2260
I1
sS'dracula'
p2261
I1
sS'hulk'
p2262
I1
sS'bulls'
p2263
I1
sS'darius'
p2264
I1
sS'putty'
p2265
I1
sS'plea'
p2266
I1
sS'explorers'
p2267
I1
sS'card'
p2268
I1
sS'revolutionary'
p2269
I1
sS'director'
p2270
I5
sS'hamed'
p2271
I1
sS'prophet'
p2272
I5
sS'florida'
p2273
I1
sS'david'
p2274
I1
sS'american'
p2275
I2
sS'gordon'
p2276
I1
sS'playwright'
p2277
I1
sS'superbowl'
p2278
I1
sS'fischer'
p2279
I1
sS'damocles'
p2280
I1
sS'primary'
p2281
I1
sS'feet'
p2282
I1
sS'sailor'
p2283
I1
sS'ybarra'
p2284
I1
sS'owner'
p2285
I1
sS'comic'
p2286
I1
sS'engineer'
p2287
I2
sS'corporal'
p2288
I1
sS'story'
p2289
I2
sS'toy'
p2290
I1
sS'lacan'
p2291
I1
sS'eriksen'
p2292
I1
sS'service'
p2293
I1
sS'automobile'
p2294
I1
sS'vocalist'
p2295
I1
sS'carson'
p2296
I1
sS'master'
p2297
I1
sS'sergeant'
p2298
I1
sS'store'
p2299
I3
sS'beard'
p2300
I1
sS'eyes'
p2301
I1
sS'labianca'
p2302
I1
sS'airwaves'
p2303
I1
sS'circumnavigator'
p2304
I1
sS'part'
p2305
I3
sS'jordan'
p2306
I1
sS'mules'
p2307
I1
sS'inventor'
p2308
I2
sS'charcter'
p2309
I1
sS'king'
p2310
I12
sS'television'
p2311
I1
sS'ben'
p2312
I1
sS'listeners'
p2313
I1
sS'architect'
p2314
I2
sS'friend'
p2315
I1
sS'prankster'
p2316
I1
sS'bridge'
p2317
I1
sS'surname'
p2318
I1
sS'clip'
p2319
I1
sS'astaire'
p2320
I1
sS'premier'
p2321
I1
sS'voices'
p2322
I1
sS'talking'
p2323
I1
sS'garfield'
p2324
I1
sS'comedian'
p2325
I9
sS'car'
p2326
I1
sS'realm'
p2327
I1
sS'cherokee'
p2328
I1
sS'steamboat'
p2329
I1
sS'parks'
p2330
I1
sS'caesar'
p2331
I2
sS'chairman'
p2332
I2
sS'forces'
p2333
I1
sS'president-to-be'
p2334
I1
sS'panties'
p2335
I1
sS'medals'
p2336
I1
sS'godfather'
p2337
I1
sS'phonograph'
p2338
I1
sS'cigarette'
p2339
I1
sS'swampy'
p2340
I1
sS'letter'
p2341
I1
sS'organization'
p2342
I7
sS'nothing'
p2343
I1
sS'ishmael'
p2344
I1
sS'dummy'
p2345
I1
sS'singer'
p2346
I5
sS'rogers'
p2347
I1
sS'duckling'
p2348
I1
sS'cover'
p2349
I1
sS'dog'
p2350
I1
sS'enterprise'
p2351
I1
sS'detective'
p2352
I1
sS'pope'
p2353
I2
sS'queen'
p2354
I3
sS'hamlet'
p2355
I1
sS'businesses'
p2356
I1
sS'finn'
p2357
I1
sS'nephew'
p2358
I1
sS'debate'
p2359
I1
sS'occupation'
p2360
I5
sS'witch'
p2361
I1
sS'title'
p2362
I4
sS'writer'
p2363
I5
sS'buxom'
p2364
I1
sS'viagra'
p2365
I1
sS'hockey'
p2366
I2
sS'money'
p2367
I1
sS'piano'
p2368
I1
sS'bernstein'
p2369
I1
sS'hit'
p2370
I1
sS'renaud'
p2371
I1
sS'tammy'
p2372
I1
sS'gogh'
p2373
I1
sS'abby'
p2374
I1
sS'collector'
p2375
I1
sS'bestselling'
p2376
I1
sS'airman'
p2377
I1
sS'artist'
p2378
I2
sS'fields'
p2379
I1
sS'husband'
p2380
I1
sS'secretary'
p2381
I2
sS'cohan'
p2382
I1
sS'creator'
p2383
I2
sS'nun'
p2384
I1
sS'culture'
p2385
I1
sS'lion'
p2386
I1
sS'college'
p2387
I10
sS'laureate'
p2388
I1
sS'genius'
p2389
I1
sS'fans'
p2390
I1
sS'bureau'
p2391
I1
sS'finger'
p2392
I1
sS'advertizing'
p2393
I1
sS'astroturf'
p2394
I1
sS'agencies'
p2395
I1
sS'boss'
p2396
I1
sS'guitar'
p2397
I1
sS'job'
p2398
I3
sS'conservationist'
p2399
I1
sS'police'
p2400
I2
sS'motto'
p2401
I1
sS'jfk'
p2402
I1
sS'horsemen'
p2403
I1
sS'superstar'
p2404
I1
sS'career'
p2405
I1
sS'challengers'
p2406
I1
sS'feminist'
p2407
I1
sS'monk'
p2408
I1
sS'thor'
p2409
I1
sS'players'
p2410
I1
sS'games'
p2411
I1
sS'napolean'
p2412
I1
sS'andrews'
p2413
I1
sS'opposition'
p2414
I1
sS'maclaine'
p2415
I1
sS'battery'
p2416
I1
sS'lyricist'
p2417
I1
sS'colony'
p2418
I1
sS'seizure'
p2419
I1
sS'mccain'
p2420
I1
sS'church'
p2421
I1
sS'table'
p2422
I1
sS'boat'
p2423
I1
sS'turkey'
p2424
I1
sS'poem'
p2425
I1
sS'nominee'
p2426
I1
sS'swimmer'
p2427
I1
sS'trademark'
p2428
I1
sS'newscast'
p2429
I1
sS'dictator'
p2430
I3
sS'hawking'
p2431
I1
sS'make-up'
p2432
I1
sS'poet'
p2433
I6
sS'nicolet'
p2434
I1
sS'naples'
p2435
I1
sS'engine'
p2436
I1
sS'life'
p2437
I2
sS'deodorant'
p2438
I1
sS'champion'
p2439
I1
sS'cobain'
p2440
I1
sS'league'
p2441
I3
sS'unsafe'
p2442
I1
sS'personas'
p2443
I1
sS'races'
p2444
I1
sS'minister'
p2445
I7
sS'child'
p2446
I2
sS'fellow'
p2447
I1
sS'painter'
p2448
I4
sS'quotation'
p2449
I1
sS'physician'
p2450
I1
sS'hughes'
p2451
I1
sS'look'
p2452
I1
sS'bill'
p2453
I1
sS'governor'
p2454
I3
sS'stalin'
p2455
I1
sS'thrillers'
p2456
I1
sS'santos-dumont'
p2457
I1
sS'potlatch'
p2458
I1
sS'pyramid'
p2459
I2
sS'resident'
p2460
I1
sS'commander'
p2461
I1
sS'player'
p2462
I1
sS'cone'
p2463
I1
sS'partner'
p2464
I1
sS'rams'
p2465
I1
sS'williams'
p2466
I2
sS'soldier'
p2467
I1
sS'wordsworth'
p2468
I1
sS'administration'
p2469
I1
sS'liston'
p2470
I1
sS'member'
p2471
I4
sS'picts'
p2472
I1
sS'strange'
p2473
I1
sS'speaker'
p2474
I1
sS'monarch'
p2475
I2
sS'powell'
p2476
I1
sS'daughters'
p2477
I1
sS'inventors'
p2478
I1
sS'commune'
p2479
I1
sS'oil'
p2480
I1
sS'appearances'
p2481
I1
sS'youngsters'
p2482
I1
sS'husbands'
p2483
I1
sS'characters'
p2484
I1
sS'senator'
p2485
I2
sS'nickname'
p2486
I8
sS'cartoon'
p2487
I2
sS'identity'
p2488
I3
sS'kid'
p2489
I2
sS'rommel'
p2490
I1
sS'task'
p2491
I1
sS'surfboard'
p2492
I1
sS'vice-president'
p2493
I3
sS'antonio'
p2494
I1
sS'person'
p2495
I9
sS'mother'
p2496
I4
sS'genie'
p2497
I1
sS'model'
p2498
I1
sS'ambassador'
p2499
I1
sS'agency'
p2500
I1
sS'monet'
p2501
I1
sS'khrushchev'
p2502
I1
sS'actress'
p2503
I13
sS'dose'
p2504
I1
sS'palpatine'
p2505
I1
sS'batteries'
p2506
I1
sS'harrison'
p2507
I1
sS'world'
p2508
I1
sS'death'
p2509
I1
sS'pendulum'
p2510
I1
sS'cup'
p2511
I1
sS'rose'
p2512
I1
sS'character'
p2513
I13
sS'pickering'
p2514
I2
sS'teenager'
p2515
I1
sS'citizen'
p2516
I3
sS'basketball'
p2517
I3
sS'scoundrel'
p2518
I1
sS'gestapo'
p2519
I1
sS'government'
p2520
I1
sS'couple'
p2521
I1
sS'advocate'
p2522
I1
sS'game'
p2523
I2
sS'boxer'
p2524
I2
sS'thucydides'
p2525
I1
sS'press'
p2526
I1
sS'picasso'
p2527
I1
sS'lady'
p2528
I1
sS'cinzano'
p2529
I1
sS'martyrs'
p2530
I1
sS'kennedy'
p2531
I1
sS'pillar'
p2532
I1
sS'commanders'
p2533
I1
sS'clown'
p2534
I1
sS'offices'
p2535
I1
sS'officer'
p2536
I1
sS'night'
p2537
I3
sS'judson'
p2538
I1
sS'x-man'
p2539
I1
sS'fatman'
p2540
I1
sS'www'
p2541
I1
sS'people'
p2542
I5
sS'oscars'
p2543
I2
sS'scrabble'
p2544
I1
sS'archenemy'
p2545
I1
sS'biographer'
p2546
I1
sS'novelist'
p2547
I2
sS'enemies'
p2548
I1
sS'competitor'
p2549
I1
sS'arch-enemy'
p2550
I1
sS'tools'
p2551
I1
sS'civilization'
p2552
I1
sS'cnn'
p2553
I1
sS'leader'
p2554
I14
sS'gandhi'
p2555
I1
sS'power'
p2556
I2
sS'bowling'
p2557
I1
sS'weir'
p2558
I1
sS'host'
p2559
I1
sS'lyrics'
p2560
I1
sS'super'
p2561
I1
sS'vaccine'
p2562
I1
sS'manufacturer'
p2563
I2
sS'pike'
p2564
I1
sS'sister'
p2565
I2
sS'son-in-law'
p2566
I2
sS'cowboy'
p2567
I2
sS'super-teams'
p2568
I1
sS'coronado'
p2569
I1
sS'airline'
p2570
I1
sS'congressman'
p2571
I1
sS'emperor'
p2572
I1
sS'nixon'
p2573
I1
sS'marlowe'
p2574
I1
sS'tribe'
p2575
I2
sS'image'
p2576
I1
sS'profession'
p2577
I4
sS'comedienne'
p2578
I2
sS'auh2o'
p2579
I1
sS'son'
p2580
I3
sS'rosanna-dana'
p2581
I1
sS'weather'
p2582
I1
sS'yankee'
p2583
I1
sS'jockey'
p2584
I2
sS'sculptress'
p2585
I1
sS'tennis'
p2586
I1
sS'question'
p2587
I1
sS'grange'
p2588
I1
sS'synthesizer'
p2589
I1
sS'author'
p2590
I8
sS'way'
p2591
I2
sS'jaws'
p2592
I1
sS'war'
p2593
I2
sS'jones'
p2594
I1
sS'head'
p2595
I2
sS'quetzalcoatl'
p2596
I1
sS'manufacturers'
p2597
I1
sS'prewett'
p2598
I1
sS'pitcher'
p2599
I1
sS'stereo'
p2600
I1
sS'line'
p2601
I1
sS'count'
p2602
I1
sS'rockefeller'
p2603
I1
sS'us'
p2604
I1
sS'record'
p2605
I4
sS'vatican'
p2606
I2
sS'stardust'
p2607
I1
sS'election'
p2608
I1
sS'moore'
p2609
I1
sS'cop'
p2610
I1
sS'toothbrush'
p2611
I1
sS'general'
p2612
I8
sS'laboratory'
p2613
I1
sS'nnp'
p2614
I1
sS'corporation'
p2615
I2
sS'guitarist'
p2616
I1
sS'actor'
p2617
I13
sS'bremer'
p2618
I1
sS'book'
p2619
I1
sS'role'
p2620
I6
sS'department'
p2621
I2
sS'pseudonym'
p2622
I2
sS'star'
p2623
I4
sS'brothers'
p2624
I2
sS'reign'
p2625
I1
sS'brandt'
p2626
I1
sS'ghost'
p2627
I1
sS'studio'
p2628
I1
sS'wife'
p2629
I2
sS'ottawa'
p2630
I1
sS'almanac'
p2631
I1
stp2632
Rp2633
(dp2634
g25
I1223
sg75
Nsg76
Nsg77
Nsbsg78
I1487
sg79
F1966.5
sbs(g10
g18
tp2635
g0
(g20
g2
Ntp2636
Rp2637
(dp2638
g24
F0.5
sg25
I835
sg26
g0
(g27
g28
(dp2639
g30
I97
sS'lobsters'
p2640
I1
sS'lyrics'
p2641
I3
sS'bocci'
p2642
I1
sS'actress'
p2643
I1
sS'hamlet'
p2644
I1
sS'seaport'
p2645
I3
sS'avenue'
p2646
I1
sS'find'
p2647
I1
sS'cartoon'
p2648
I1
sS'web'
p2649
I3
sS'birthplace'
p2650
I3
sS'group'
p2651
I3
sS'office'
p2652
I1
sS'gulf'
p2653
I1
sS'title'
p2654
I1
sS'point'
p2655
I1
sS'royal'
p2656
I1
sS'lake'
p2657
I2
sS'civil'
p2658
I1
sS'source'
p2659
I1
sS'book'
p2660
I1
sS'tape'
p2661
I1
sS'location'
p2662
I4
sS'prison'
p2663
I1
sS'piano'
p2664
I1
sS'soccer'
p2665
I1
sS'hat'
p2666
I1
sS'resources'
p2667
I1
sS'merchant'
p2668
I1
sS'case'
p2669
I2
sS'screensaver'
p2670
I1
sS'myth'
p2671
I1
sS'get'
p2672
I2
sS'surrounds'
p2673
I2
sS'dam'
p2674
I2
sS'capital'
p2675
I18
sS'photograph'
p2676
I1
sS'arch'
p2677
I1
sS'nation'
p2678
I3
sS'department'
p2679
I1
sS'tuberculosis'
p2680
I1
sS'world'
p2681
I10
sS'fractal'
p2682
I1
sS'suey'
p2683
I1
sS'room'
p2684
I1
sS'airports'
p2685
I1
sS'name'
p2686
I15
sS'countries'
p2687
I24
sS'opera'
p2688
I1
sS'glitters'
p2689
I1
sS'list'
p2690
I3
sS'hole'
p2691
I1
sS'bay'
p2692
I3
sS'miles'
p2693
I1
sS'steps'
p2694
I1
sS'cartoons'
p2695
I1
sS'rock'
p2696
I1
sS'found'
p2697
I1
sS'river'
p2698
I9
sS'ports'
p2699
I1
sS'province'
p2700
I2
sS'breweries'
p2701
I1
sS'art'
p2702
I1
sS'telescope'
p2703
I1
sS'ten'
p2704
I1
sS'apartments'
p2705
I1
sS'seas'
p2706
I1
sS'back'
p2707
I1
sS'rivers'
p2708
I2
sS'born'
p2709
I7
sS'street'
p2710
I3
sS'examples'
p2711
I1
sS'sea'
p2712
I5
sS'erupts'
p2713
I1
sS'home'
p2714
I6
sS'calendar'
p2715
I1
sS'sport'
p2716
I1
sS'constellation'
p2717
I3
sS'wander'
p2718
I1
sS'textiles'
p2719
I1
sS'guinea'
p2720
I1
sS'review'
p2721
I1
sS'sites'
p2722
I1
sS'research'
p2723
I1
sS'libraries'
p2724
I1
sS'state'
p2725
I54
sS'diamonds'
p2726
I1
sS'email'
p2727
I2
sS'subway'
p2728
I1
sS'body'
p2729
I3
sS'monarchs'
p2730
I1
sS'cars'
p2731
I1
sS'answers'
p2732
I1
sS'monsters'
p2733
I1
sS'statistics'
p2734
I1
sS'sink'
p2735
I1
sS'groups'
p2736
I1
sS'address'
p2737
I6
sS'directions'
p2738
I1
sS'nationality'
p2739
I8
sS'canals'
p2740
I1
sS'cities'
p2741
I9
sS'come'
p2742
I2
sS'flytrap'
p2743
I1
sS'deserts'
p2744
I1
sS'publisher'
p2745
I1
sS'zoo'
p2746
I1
sS'anything'
p2747
I1
sS'restaurant'
p2748
I2
sS'country'
p2749
I118
sS'region'
p2750
I1
sS'adventures'
p2751
I1
sS'thing'
p2752
I1
sS'airport'
p2753
I1
sS'place'
p2754
I3
sS'islands'
p2755
I1
sS'weird'
p2756
I1
sS'hospital'
p2757
I1
sS'seeing'
p2758
I1
sS'tennis'
p2759
I1
sS'bell'
p2760
I1
sS'wall'
p2761
I1
sS'attractions'
p2762
I2
sS'county'
p2763
I3
sS'snowboard'
p2764
I1
sS'names'
p2765
I3
sS'coastal'
p2766
I1
sS'strip'
p2767
I1
sS'schematics'
p2768
I1
sS'lesson'
p2769
I1
sS'continent'
p2770
I7
sS'post'
p2771
I1
sS'city'
p2772
I89
sS'basketball'
p2773
I1
sS'span'
p2774
I1
sS'habitat'
p2775
I1
sS'quality'
p2776
I1
sS'area'
p2777
I3
sS'remains'
p2778
I1
sS'nickname'
p2779
I2
sS'museum'
p2780
I3
sS'people'
p2781
I3
sS'desert'
p2782
I5
sS'draft'
p2783
I1
sS'seafaring'
p2784
I1
sS'way'
p2785
I1
sS'ridge'
p2786
I1
sS'corpus'
p2787
I2
sS'territory'
p2788
I1
sS'meeting'
p2789
I1
sS'tourists'
p2790
I1
sS'empty'
p2791
I1
sS'possession'
p2792
I1
sS'mountains'
p2793
I2
sS'direction'
p2794
I3
sS'stadium'
p2795
I1
sS'ash'
p2796
I1
sS'flying'
p2797
I1
sS'contains'
p2798
I1
sS'listing'
p2799
I1
sS'waterways'
p2800
I1
sS'lists'
p2801
I1
sS'site'
p2802
I4
sS'chemicals'
p2803
I1
sS'part'
p2804
I3
sS'pecan'
p2805
I1
sS'line'
p2806
I1
sS'surrender'
p2807
I1
sS'dialing'
p2808
I1
sS'town'
p2809
I3
sS'wide'
p2810
I1
sS'kind'
p2811
I1
sS'target'
p2812
I1
sS'science'
p2813
I1
sS'ride'
p2814
I1
sS'originate'
p2815
I2
sS'tree'
p2816
I1
sS'devices'
p2817
I1
sS'nations'
p2818
I1
sS'planet'
p2819
I4
sS'movies'
p2820
I1
sS'mall'
p2821
I1
sS'individual'
p2822
I1
sS'wrestler'
p2823
I1
sS'island'
p2824
I3
sS'mountain'
p2825
I12
sS'mythology'
p2826
I1
sS'display'
p2827
I1
sS'history'
p2828
I2
sS'bridge'
p2829
I3
sS'president'
p2830
I1
sS'pony'
p2831
I1
sS'tabs'
p2832
I1
sS'strait'
p2833
I1
sS'marijuana'
p2834
I1
sS'evidence'
p2835
I1
sS'states'
p2836
I5
sS'want'
p2837
I1
sS'southern'
p2838
I2
sS'concentration'
p2839
I1
sS'border'
p2840
I1
sS'eels'
p2841
I1
sS'tallest'
p2842
I1
sS'ukulele'
p2843
I1
sS'helium'
p2844
I1
sS'graduate'
p2845
I1
sS'website'
p2846
I1
sS'setting'
p2847
I1
sS'take'
p2848
I2
sS'online'
p2849
I2
sS'test'
p2850
I1
sS'residence'
p2851
I1
sS'status'
p2852
I1
sS'map'
p2853
I1
sS'begin'
p2854
I1
sS'hotel'
p2855
I1
sS'star'
p2856
I2
sS'brothers'
p2857
I2
sS'information'
p2858
I18
sS'singles'
p2859
I1
sS'park'
p2860
I2
sS'rail'
p2861
I1
sS'rain'
p2862
I1
sS'aborigines'
p2863
I1
sS'waterfall'
p2864
I1
sS'peak'
p2865
I1
sS'court'
p2866
I2
sS'stocks'
p2867
I1
sS'data'
p2868
I1
sS'grow'
p2869
I1
sS'building'
p2870
I4
sS'picture'
p2871
I1
sS'center'
p2872
I3
sS'attracts'
p2873
I1
sS'hang'
p2874
I1
sS'headquarters'
p2875
I4
sS'rule'
p2876
I1
sS'midi'
p2877
I1
sS'freeway'
p2878
I1
sS'person'
p2879
I1
sS'maintain'
p2880
I1
sS'official'
p2881
I1
sS'nuclear'
p2882
I1
sS'landmark'
p2883
I1
sS'comparisons'
p2884
I1
sS'spend'
p2885
I1
sS'bodies'
p2886
I1
sS'marvel'
p2887
I1
stp2888
Rp2889
(dp2890
g25
I835
sg75
Nsg76
Nsg77
Nsbsg78
I1449
sg79
F1559.5
sbs(g15
g18
tp2891
g0
(g20
g2
Ntp2892
Rp2893
(dp2894
g24
F0.5
sg25
I27
sg26
g0
(g27
g28
(dp2895
S'account'
p2896
I1
sS'target'
p2897
I1
sS'probability'
p2898
I2
sS'unemployment'
p2899
I1
sS'chances'
p2900
I2
sS'odds'
p2901
I3
sS'percent'
p2902
I2
sS'chance'
p2903
I1
sS'state'
p2904
I1
sS'fraction'
p2905
I2
sS'approval'
p2906
I1
sS'percentage'
p2907
I8
sS'children'
p2908
I2
stp2909
Rp2910
(dp2911
g25
I27
sg75
Nsg76
Nsg77
Nsbsg78
I1449
sg79
F751.5
sbs(g12
g80
tp2912
g0
(g20
g2
Ntp2913
Rp2914
(dp2915
g24
F0.5
sg25
I218
sg26
g0
(g27
g28
(dp2916
g30
I14
sS'ambassador'
p2917
I1
sS'helens'
p2918
I1
sS'clark'
p2919
I1
sS'show'
p2920
I1
sS'wall'
p2921
I1
sS'revolutionaries'
p2922
I1
sS'charles'
p2923
I1
sS'period'
p2924
I2
sS'month'
p2925
I3
sS'muhammad'
p2926
I1
sS'ussr'
p2927
I1
sS'americans'
p2928
I1
sS'hugo'
p2929
I1
sS'battle'
p2930
I2
sS'mill'
p2931
I1
sS'hitler'
p2932
I1
sS'transplant'
p2933
I1
sS'use'
p2934
I1
sS'group'
p2935
I1
sS'troops'
p2936
I1
sS'festival'
p2937
I1
sS'ruby'
p2938
I1
sS'attack'
p2939
I1
sS'labor'
p2940
I1
sS'window'
p2941
I1
sS'music'
p2942
I1
sS'teenager'
p2943
I1
sS'mutiny'
p2944
I1
sS'bill'
p2945
I1
sS'war'
p2946
I1
sS'engine'
p2947
I1
sS'israel'
p2948
I1
sS'woman'
p2949
I1
sS'fire'
p2950
I2
sS'dam'
p2951
I1
sS'company'
p2952
I1
sS'thatcher'
p2953
I1
sS'test'
p2954
I1
sS'slinky'
p2955
I1
sS'bible'
p2956
I1
sS'wedding'
p2957
I1
sS'railroad'
p2958
I1
sS'erected'
p2959
I1
sS'banner'
p2960
I1
sS'day'
p2961
I8
sS'bar-code'
p2962
I1
sS'nfl'
p2963
I1
sS'encyclopedia'
p2964
I1
sS'birthdate'
p2965
I1
sS'helen'
p2966
I2
sS'architecture'
p2967
I2
sS'man'
p2968
I1
sS'yemen'
p2969
I1
sS'amendment'
p2970
I1
sS'menstruation'
p2971
I1
sS'beethoven'
p2972
I2
sS'art'
p2973
I1
sS'osbourne'
p2974
I1
sS'century'
p2975
I3
sS'rousseau'
p2976
I1
sS'house'
p2977
I1
sS'fish'
p2978
I1
sS'humans'
p2979
I1
sS'spielberg'
p2980
I1
sS'mormons'
p2981
I1
sS'roosevelt'
p2982
I1
sS'year'
p2983
I45
sS'aeul'
p2984
I1
sS'depression'
p2985
I1
sS'toilet'
p2986
I1
sS'nostradamus'
p2987
I2
sS'christ'
p2988
I1
sS'amtrak'
p2989
I1
sS'barbie'
p2990
I1
sS'sun'
p2991
I1
sS'fraze'
p2992
I1
sS'concert'
p2993
I1
sS'www.questions.com'
p2994
I1
sS'flood'
p2995
I1
sS'millennium'
p2996
I1
sS'huxley'
p2997
I1
sS'season'
p2998
I4
sS'cnn'
p2999
I2
sS'gate'
p3000
I2
sS'ruth'
p3001
I1
sS'pastorius'
p3002
I1
sS'typewriter'
p3003
I1
sS'parthenon'
p3004
I1
sS'korea'
p3005
I1
sS'congress'
p3006
I1
sS'noriega'
p3007
I1
sS'journal'
p3008
I1
sS'eruption'
p3009
I1
sS'victoria'
p3010
I1
sS'control'
p3011
I1
sS'birthday'
p3012
I4
sS'awards'
p3013
I1
sS'date'
p3014
I13
sS'vesuvius'
p3015
I1
sS'weekend'
p3016
I1
sS'lindbergh'
p3017
I1
sS'camcorders'
p3018
I1
sS'broadcast'
p3019
I1
sS'dates'
p3020
I1
sS'accident'
p3021
I1
sS'pangaea'
p3022
I1
sS'i'
p3023
I1
sS'months'
p3024
I1
sS'florida'
p3025
I1
sS'rockefeller'
p3026
I1
sS'dow'
p3027
I1
sS'games'
p3028
I1
sS'advertising'
p3029
I1
sS'time'
p3030
I2
sS'shorn'
p3031
I1
sS'railway'
p3032
I1
sS'swimming'
p3033
I1
sS'microsoft'
p3034
I1
sS'nixon'
p3035
I3
stp3036
Rp3037
(dp3038
g25
I218
sg75
Nsg76
Nsg77
Nsbsg78
I1487
sg79
F961.5
sbs(g14
g18
tp3039
g0
(g20
g2
Ntp3040
Rp3041
(dp3042
g24
F0.5
sg25
I71
sg26
g0
(g27
g28
(dp3043
S'money'
p3044
I7
sS'cost'
p3045
I3
sS'year'
p3046
I1
sS'fine'
p3047
I1
sS'railroad'
p3048
I1
sS'wage'
p3049
I5
sS'beef'
p3050
I1
sS'stamp'
p3051
I2
sS'twenty'
p3052
I1
sS'debts'
p3053
I1
sS'increase'
p3054
I1
sS'state'
p3055
I1
sS'ton'
p3056
I1
sS'income'
p3057
I3
sS'party'
p3058
I1
sS'get'
p3059
I1
sS'fare'
p3060
I1
sS'junk'
p3061
I1
sS'exchange'
p3062
I2
sS'drugs'
p3063
I1
sS'price'
p3064
I4
sS'gas'
p3065
I1
sS'utilities'
p3066
I1
sS'tuberculosis'
p3067
I1
sS'ticket'
p3068
I2
sS'presidents'
p3069
I1
sS'bug'
p3070
I1
sS'salary'
p3071
I6
sS'daycare'
p3072
I2
sS'did'
p3073
I9
sS'tree'
p3074
I2
sS'contract'
p3075
I1
sS'person'
p3076
I1
sS'amount'
p3077
I2
sS'having'
p3078
I1
stp3079
Rp3080
(dp3081
g25
I71
sg75
Nsg76
Nsg77
Nsbsg78
I1449
sg79
F795.5
sbs(g9
g18
tp3082
g0
(g20
g2
Ntp3083
Rp3084
(dp3085
g24
F0.5
sg25
I1223
sg26
g0
(g27
g28
(dp3086
g30
I211
sS'husband-and-wife'
p3087
I1
sS'colleges'
p3088
I1
sS'coach'
p3089
I3
sS'founder'
p3090
I2
sS'show'
p3091
I2
sS'hands'
p3092
I1
sS'authors'
p3093
I1
sS'celebrities'
p3094
I2
sS'resistance'
p3095
I1
sS'invent'
p3096
I1
sS'leads'
p3097
I1
sS'code'
p3098
I1
sS'businesses'
p3099
I2
sS'liberty'
p3100
I1
sS'soldiers'
p3101
I2
sS'chair'
p3102
I1
sS'captain'
p3103
I1
sS'milk'
p3104
I1
sS'staff'
p3105
I1
sS'ballet'
p3106
I1
sS'apartment'
p3107
I1
sS'chain'
p3108
I1
sS'hunting'
p3109
I1
sS'title'
p3110
I8
sS'electricity'
p3111
I1
sS'writer'
p3112
I4
sS'father'
p3113
I8
sS'fans'
p3114
I1
sS'literary'
p3115
I1
sS'theme'
p3116
I1
sS'program'
p3117
I1
sS'black'
p3118
I5
sS'present'
p3119
I2
sS'crooner'
p3120
I1
sS'communist'
p3121
I1
sS'quotation'
p3122
I1
sS'fences'
p3123
I1
sS'road'
p3124
I1
sS'fax'
p3125
I1
sS'woman'
p3126
I12
sS'founding'
p3127
I1
sS'citizen'
p3128
I2
sS'king'
p3129
I4
sS'translations'
p3130
I1
sS'television'
p3131
I4
sS'bear'
p3132
I1
sS'millionaire'
p3133
I1
sS'sons'
p3134
I2
sS'diary'
p3135
I1
sS'borrower'
p3136
I1
sS'entries'
p3137
I1
sS'races'
p3138
I2
sS'surgeon'
p3139
I1
sS'dose'
p3140
I1
sS'prime'
p3141
I4
sS'school'
p3142
I3
sS'bestselling'
p3143
I1
sS'level'
p3144
I1
sS'positions'
p3145
I1
sS'marry'
p3146
I1
sS'companies'
p3147
I2
sS'brother'
p3148
I1
sS'grandfather'
p3149
I1
sS'yougurt'
p3150
I1
sS'sang'
p3151
I2
sS'shoplifts'
p3152
I1
sS'delegate'
p3153
I1
sS'team'
p3154
I6
sS'strip'
p3155
I3
sS'radio'
p3156
I4
sS'guy'
p3157
I1
sS'round'
p3158
I1
sS'husband'
p3159
I2
sS'secretary'
p3160
I1
sS'official'
p3161
I1
sS'temperance'
p3162
I1
sS'leaders'
p3163
I1
sS'ten'
p3164
I3
sS'creator'
p3165
I2
sS'canine'
p3166
I1
sS'seat'
p3167
I1
sS'culture'
p3168
I1
sS'computer'
p3169
I1
sS'college'
p3170
I9
sS'governor'
p3171
I2
sS'lawyer'
p3172
I9
sS'tender'
p3173
I1
sS'folk'
p3174
I1
sS'victor'
p3175
I1
sS'super-teams'
p3176
I1
sS'business'
p3177
I4
sS'movie'
p3178
I4
sS'section'
p3179
I1
sS'corporation'
p3180
I2
sS'havoc'
p3181
I1
sS'uniform'
p3182
I1
sS'election'
p3183
I2
sS'genius'
p3184
I1
sS'state'
p3185
I1
sS'won'
p3186
I1
sS'suspect'
p3187
I1
sS'finger'
p3188
I1
sS'leader'
p3189
I13
sS'occupation'
p3190
I5
sS'advertizing'
p3191
I1
sS'hero'
p3192
I1
sS'degree'
p3193
I1
sS'faith'
p3194
I2
sS'men'
p3195
I2
sS'boss'
p3196
I1
sS'guitar'
p3197
I1
sS'wild'
p3198
I1
sS'job'
p3199
I3
sS'dubliners'
p3200
I1
sS'baseball'
p3201
I16
sS'groups'
p3202
I1
sS'vice'
p3203
I2
sS'group'
p3204
I7
sS'motto'
p3205
I1
sS'boy'
p3206
I2
sS'voice'
p3207
I1
sS'daughter'
p3208
I2
sS'naval'
p3209
I1
sS'survivor'
p3210
I1
sS'joke'
p3211
I1
sS'trader'
p3212
I1
sS'host'
p3213
I2
sS'reports'
p3214
I1
sS'soldier'
p3215
I1
sS'jogging'
p3216
I1
sS'jockey'
p3217
I1
sS'figures'
p3218
I1
sS'defeat'
p3219
I1
sS'senator'
p3220
I1
sS'residents'
p3221
I1
sS'makes'
p3222
I1
sS'maker'
p3223
I1
sS'patents'
p3224
I1
sS'opposition'
p3225
I1
sS'cruiser'
p3226
I1
sS'presidents'
p3227
I3
sS'lyricist'
p3228
I1
sS'colony'
p3229
I1
sS'supreme'
p3230
I2
sS'pop'
p3231
I1
sS'twin'
p3232
I1
sS'names'
p3233
I6
sS'composer'
p3234
I3
sS'toys'
p3235
I1
sS'resident'
p3236
I1
sS'cocaine'
p3237
I1
sS'singing'
p3238
I2
sS'rugby'
p3239
I1
sS'conference'
p3240
I1
sS'poem'
p3241
I2
sS'spoke'
p3242
I1
sS'engines'
p3243
I2
sS'army'
p3244
I2
sS'acceptance'
p3245
I1
sS'sports'
p3246
I1
sS'newscast'
p3247
I1
sS'commission'
p3248
I1
sS'secret'
p3249
I1
sS'camera'
p3250
I1
sS'music'
p3251
I1
sS'card'
p3252
I1
sS'tv'
p3253
I12
sS'films'
p3254
I2
sS'markets'
p3255
I1
sS'abstract'
p3256
I1
sS'empty'
p3257
I1
sS'engine'
p3258
I2
sS'diamond'
p3259
I3
sS'door'
p3260
I1
sS'conductor'
p3261
I1
sS'league'
p3262
I2
sS'tennis'
p3263
I1
sS'company'
p3264
I23
sS'inventions'
p3265
I1
sS'gas'
p3266
I1
sS'buxom'
p3267
I1
sS'pugilist'
p3268
I1
sS'train'
p3269
I1
sS'stethoscope'
p3270
I1
sS'minister'
p3271
I5
sS'child'
p3272
I1
sS'superstar'
p3273
I2
sS'gold'
p3274
I2
sS'instructor'
p3275
I1
sS'painter'
p3276
I3
sS'women'
p3277
I1
sS'sound'
p3278
I1
sS'wood'
p3279
I1
sS'novel'
p3280
I1
sS'look'
p3281
I1
sS'presidency'
p3282
I1
sS'rights'
p3283
I1
sS'barroom'
p3284
I1
sS'work'
p3285
I1
sS'worm'
p3286
I1
sS'honeymooners'
p3287
I1
sS'monster'
p3288
I1
sS'criticizing'
p3289
I1
sS'male'
p3290
I1
sS'example'
p3291
I1
sS'spy'
p3292
I1
sS'compare'
p3293
I1
sS'pyramid'
p3294
I2
sS'bandleader'
p3295
I1
sS'figure'
p3296
I2
sS'century'
p3297
I2
sS'process'
p3298
I1
sS'telephone'
p3299
I1
sS'commander'
p3300
I1
sS'middle'
p3301
I3
sS'villain'
p3302
I2
sS'protects'
p3303
I1
sS'numbers'
p3304
I1
sS'partner'
p3305
I1
sS'hit'
p3306
I3
sS'airplane'
p3307
I2
sS'astronaut'
p3308
I3
sS'biography'
p3309
I1
sS'information'
p3310
I1
sS'court'
p3311
I1
sS'doctor'
p3312
I3
sS'holds'
p3313
I2
sS'administration'
p3314
I2
sS'tour'
p3315
I1
sS'endurance'
p3316
I1
sS'member'
p3317
I5
sS'winners'
p3318
I1
sS'monarch'
p3319
I3
sS'duel'
p3320
I1
sS'stock'
p3321
I1
sS'designer'
p3322
I2
sS'explorer'
p3323
I2
sS'autobiography'
p3324
I1
sS'fascist'
p3325
I1
sS'railways'
p3326
I1
sS'office'
p3327
I1
sS'youngsters'
p3328
I1
sS'despondent'
p3329
I1
sS'companion'
p3330
I1
sS'shores'
p3331
I1
sS'kidnaping'
p3332
I1
sS'director'
p3333
I6
sS'characters'
p3334
I1
sS'advertise'
p3335
I2
sS'polio'
p3336
I1
sS'data'
p3337
I1
sS'cartoon'
p3338
I5
sS'identity'
p3339
I1
sS'man'
p3340
I9
sS'task'
p3341
I1
sS'whores'
p3342
I1
sS'surfboard'
p3343
I1
sS'try'
p3344
I2
sS'author'
p3345
I9
sS'children'
p3346
I1
sS'person'
p3347
I9
sS'frequent'
p3348
I1
sS'mother'
p3349
I2
sS'organization'
p3350
I8
sS'model'
p3351
I1
sS'order'
p3352
I1
sS'ambassador'
p3353
I1
sS'abilities'
p3354
I1
sS'producer'
p3355
I1
sS'produces'
p3356
I1
sS'money'
p3357
I1
sS'wedding'
p3358
I1
sS'guitarist'
p3359
I1
sS'actress'
p3360
I12
sS'years'
p3361
I3
sS'press'
p3362
I1
sS'batteries'
p3363
I1
sS'paper'
p3364
I1
sS'costume'
p3365
I2
sS'replies'
p3366
I1
sS'mayor'
p3367
I5
sS'bombing'
p3368
I1
sS'underwater'
p3369
I1
sS'self-portrait'
p3370
I1
sS'police'
p3371
I5
sS'call'
p3372
I1
sS'queen'
p3373
I2
sS'character'
p3374
I11
sS'housewife'
p3375
I1
sS'labor'
p3376
I1
sS'blob'
p3377
I1
sS'personas'
p3378
I1
sS'founders'
p3379
I1
sS'role'
p3380
I4
sS'scoundrel'
p3381
I3
sS'niece'
p3382
I1
sS'fool'
p3383
I1
sS'missions'
p3384
I1
sS'gods'
p3385
I1
sS'government'
p3386
I1
sS'food'
p3387
I2
sS'chancellor'
p3388
I1
sS'wives'
p3389
I1
sS'band'
p3390
I2
sS'game'
p3391
I2
sS'boxer'
p3392
I3
sS'party'
p3393
I2
sS'schools'
p3394
I2
sS'world'
p3395
I10
sS'lady'
p3396
I1
sS'name'
p3397
I70
sS'cop'
p3398
I1
sS'term'
p3399
I1
sS'martyrs'
p3400
I1
sS'attorneys'
p3401
I1
sS'meat'
p3402
I1
sS'success'
p3403
I1
sS'university'
p3404
I5
sS'artist'
p3405
I1
sS'clown'
p3406
I1
sS'purveyor'
p3407
I1
sS'theory'
p3408
I1
sS'victory'
p3409
I1
sS'lawnmower'
p3410
I1
sS'loco-motion'
p3411
I1
sS'inventors'
p3412
I1
sS'celebrity'
p3413
I2
sS'x-man'
p3414
I1
sS'mean'
p3415
I1
sS'commanders'
p3416
I1
sS'people'
p3417
I9
sS'aerodynamics'
p3418
I1
sS'stern'
p3419
I1
sS'back'
p3420
I1
sS'borrow'
p3421
I1
sS'society'
p3422
I1
sS'books'
p3423
I1
sS'archenemy'
p3424
I1
sS'home'
p3425
I3
sS'girl'
p3426
I3
sS'perfume'
p3427
I1
sS'brothers'
p3428
I2
sS'living'
p3429
I3
sS'competitor'
p3430
I1
sS'network'
p3431
I1
sS'lead'
p3432
I2
sS'space'
p3433
I1
sS'trilogy'
p3434
I1
sS'vacuum'
p3435
I1
sS'horoscope'
p3436
I1
sS'opener'
p3437
I1
sS'fountain'
p3438
I1
sS'civilization'
p3439
I1
sS'electronics'
p3440
I1
sS'appearances'
p3441
I1
sS'maneuver'
p3442
I1
sS'cricketer'
p3443
I1
sS'power'
p3444
I2
sS'cars'
p3445
I1
sS'rock'
p3446
I2
sS'pub'
p3447
I1
sS'appointments'
p3448
I1
sS'protagonist'
p3449
I1
sS'plea'
p3450
I1
sS'poems'
p3451
I1
sS'pitchers'
p3452
I1
sS'explorers'
p3453
I1
sS'manufactures'
p3454
I1
sS'manufacturer'
p3455
I1
sS'husbands'
p3456
I1
sS'sister'
p3457
I2
sS'son-in-law'
p3458
I2
sS'deer'
p3459
I1
sS'cowboy'
p3460
I1
sS'jeep'
p3461
I1
sS'prophet'
p3462
I4
sS'newspapers'
p3463
I1
sS'door-to-door'
p3464
I1
sS'times'
p3465
I1
sS'thing'
p3466
I1
sS'airline'
p3467
I2
sS'islands'
p3468
I1
sS'backup'
p3469
I1
sS'block'
p3470
I1
sS'tribe'
p3471
I1
sS'playwright'
p3472
I1
sS'image'
p3473
I1
sS'cross-your-heart'
p3474
I1
sS'profession'
p3475
I4
sS'comedienne'
p3476
I2
sS'obscene'
p3477
I1
sS'son'
p3478
I4
sS'feet'
p3479
I1
sS'female'
p3480
I1
sS'president'
p3481
I20
sS'owner'
p3482
I1
sS'art'
p3483
I1
sS'message'
p3484
I1
sS'swimmer'
p3485
I1
sS'engineer'
p3486
I2
sS'bull'
p3487
I1
sS'toy'
p3488
I1
sS'nickname'
p3489
I7
sS'sculptress'
p3490
I1
sS'night'
p3491
I1
sS'question'
p3492
I1
sS'fast'
p3493
I1
sS'player'
p3494
I3
sS'fought'
p3495
I1
sS'master'
p3496
I1
sS'bounty'
p3497
I1
sS'dictator'
p3498
I2
sS'speaking'
p3499
I1
sS'head'
p3500
I3
sS'airwaves'
p3501
I1
sS'manufacturers'
p3502
I1
sS'circumnavigator'
p3503
I1
sS'pitcher'
p3504
I1
sS'oil'
p3505
I1
sS'cabinet'
p3506
I1
sS'poet'
p3507
I5
sS'part'
p3508
I3
sS'biochemists'
p3509
I1
sS'mules'
p3510
I1
sS'line'
p3511
I1
sS'surrender'
p3512
I1
sS'inventor'
p3513
I2
sS'count'
p3514
I1
sS'distance'
p3515
I1
sS'kind'
p3516
I5
sS'made'
p3517
I1
sS'glory'
p3518
I1
sS'players'
p3519
I2
sS'tree'
p3520
I1
sS'project'
p3521
I1
sS'listeners'
p3522
I1
sS'architect'
p3523
I2
sS'friend'
p3524
I2
sS'prankster'
p3525
I1
sS'exhibit'
p3526
I1
sS'promises'
p3527
I1
sS'surname'
p3528
I1
sS'nominee'
p3529
I1
sS'pro'
p3530
I1
sS'premier'
p3531
I1
sS'toothbrush'
p3532
I1
sS'strips'
p3533
I1
sS'voices'
p3534
I1
sS'talking'
p3535
I1
sS'regards'
p3536
I1
sS'rent'
p3537
I1
sS'girlfriend'
p3538
I1
sS'sells'
p3539
I1
sS'novelist'
p3540
I2
sS'film'
p3541
I6
sS'car'
p3542
I3
sS'sings'
p3543
I4
sS'fast-food'
p3544
I1
sS'dancing'
p3545
I1
sS'come-on'
p3546
I1
sS'lyrics'
p3547
I1
sS'agency'
p3548
I1
sS'fondness'
p3549
I1
sS'actor'
p3550
I18
sS'reality'
p3551
I1
sS'kennedy-nixon'
p3552
I1
sS'majority'
p3553
I2
sS'book'
p3554
I4
sS'actors'
p3555
I1
sS'chairman'
p3556
I2
sS'forces'
p3557
I1
sS'department'
p3558
I1
sS'panties'
p3559
I1
sS'honorary'
p3560
I1
sS'pseudonym'
p3561
I2
sS'conservationist'
p3562
I1
sS'play'
p3563
I1
sS'championship'
p3564
I1
sS'star'
p3565
I6
sS'games'
p3566
I1
sS'football'
p3567
I2
sS'phonograph'
p3568
I1
sS'cigarette'
p3569
I1
sS'stardom'
p3570
I1
sS'position'
p3571
I1
sS'heroine'
p3572
I2
sS'inspiration'
p3573
I1
sS'singer'
p3574
I1
sS'studio'
p3575
I1
sS'wife'
p3576
I3
sS'cover'
p3577
I1
sS'dog'
p3578
I1
sS'reputation'
p3579
I1
sS'time'
p3580
I1
sS'lives'
p3581
I3
sS'buffalo'
p3582
I1
sS'once'
p3583
I1
stp3584
Rp3585
(dp3586
g25
I1223
sg75
Nsg76
Nsg77
Nsbsg78
I1449
sg79
F1947.5
sbssS'_label_probdist'
p3587
g0
(g20
g2
Ntp3588
Rp3589
(dp3590
g24
F0.5
sg25
I4204
sg26
g0
(g27
g28
(dp3591
g14
I71
sg15
I27
sg11
I505
sg9
I1223
sg8
I1250
sg10
I835
sg13
I75
sg12
I218
stp3592
Rp3593
(dp3594
g25
I4204
sg75
Nsg76
(lp3595
(g8
I1250
tp3596
a(g9
I1223
tp3597
a(g10
I835
tp3598
a(g11
I505
tp3599
a(g12
I218
tp3600
a(g13
I75
tp3601
a(g14
I71
tp3602
a(g15
I27
tp3603
asg77
Nsbsg78
I8
sg79
F4208.0
sbsb.