ccopy_reg
_reconstructor
p0
(cnltk.classify.naivebayes
NaiveBayesClassifier
p1
c__builtin__
object
p2
Ntp3
Rp4
(dp5
S'_labels'
p6
(lp7
S'OTHER'
p8
aS'PERSON'
p9
aS'LOCATION'
p10
aS'NUMBER'
p11
aS'DATE'
p12
aS'ORGANIZATION'
p13
aS'TIME'
p14
aS'MONEY'
p15
aS'PERCENT'
p16
asS'_feature_probdist'
p17
(dp18
(g14
S'noun'
p19
tp20
g0
(cnltk.probability
ELEProbDist
p21
g2
Ntp22
Rp23
(dp24
S'_gamma'
p25
F0.5
sS'_N'
p26
I75
sS'_freqdist'
p27
g0
(cnltk.probability
FreqDist
p28
c__builtin__
dict
p29
(dp30
S''
p31
I15
sS'flies'
p32
I1
sS'revolution'
p33
I1
sS'office'
p34
I1
sS'show'
p35
I1
sS'community'
p36
I1
sS'pig'
p37
I1
sS'sunlight'
p38
I1
sS'human'
p39
I1
sS'church'
p40
I1
sS'cocaine'
p41
I1
sS'web'
p42
I1
sS'intercourse'
p43
I1
sS'person'
p44
I1
sS'tv'
p45
I1
sS'sun'
p46
I1
sS'decision'
p47
I1
sS'been'
p48
I1
sS'moon'
p49
I1
sS'attack'
p50
I1
sS'hen'
p51
I1
sS'puppy'
p52
I1
sS'eggs'
p53
I2
sS'hermit'
p54
I1
sS'body'
p55
I1
sS'life'
p56
I4
sS'quarts'
p57
I1
sS'gestation'
p58
I2
sS'ferret'
p59
I1
sS'blood'
p60
I2
sS'child'
p61
I1
sS'debt'
p62
I1
sS'artist'
p63
I2
sS'did'
p64
I4
sS'universe'
p65
I1
sS'age'
p66
I7
sS'dog'
p67
I1
sS'hiccup'
p68
I1
sS'trial'
p69
I1
sS'savings'
p70
I1
sS'materials'
p71
I1
sS'time'
p72
I4
stp73
Rp74
(dp75
g26
I75
sS'_max_cache'
p76
NsS'_item_cache'
p77
NsS'_Nr_cache'
p78
NsbsS'_bins'
p79
I1449
sS'_divisor'
p80
F799.5
sbs(g16
S'head'
p81
tp82
g0
(g21
g2
Ntp83
Rp84
(dp85
g25
F0.5
sg26
I27
sg27
g0
(g28
g29
(dp86
g31
I10
sS'rating'
p87
I1
sS'account'
p88
I1
sS'probability'
p89
I2
sS'chances'
p90
I2
sS'odds'
p91
I3
sS'percent'
p92
I1
sS'rate'
p93
I3
sS'chance'
p94
I1
sS'fraction'
p95
I2
sS'percentage'
p96
I1
stp97
Rp98
(dp99
g26
I27
sg76
Nsg77
Nsg78
Nsbsg79
I1487
sg80
F770.5
sbs(g11
g81
tp100
g0
(g21
g2
Ntp101
Rp102
(dp103
g25
F0.5
sg26
I505
sg27
g0
(g28
g29
(dp104
g31
I142
sS'colleges'
p105
I1
sS'code'
p106
I1
sS'office'
p107
I1
sS'queen'
p108
I1
sS'astronauts'
p109
I2
sS'years'
p110
I9
sS'sperm'
p111
I1
sS'colors'
p112
I4
sS'spaces'
p113
I2
sS'businesses'
p114
I1
sS'questions'
p115
I2
sS'cds'
p116
I1
sS'soldiers'
p117
I6
sS'speed'
p118
I3
sS'children'
p119
I1
sS'superbowls'
p120
I1
sS'layers'
p121
I1
sS'web'
p122
I1
sS'votes'
p123
I1
sS'vietnamese'
p124
I1
sS'electricity'
p125
I1
sS'megawatts'
p126
I1
sS'day'
p127
I3
sS'languages'
p128
I3
sS'degrees'
p129
I2
sS'teaspoon'
p130
I1
sS'thousands'
p131
I1
sS'wingspan'
p132
I1
sS'tiles'
p133
I1
sS'beatles'
p134
I1
sS'referees'
p135
I1
sS'runs'
p136
I2
sS'acreage'
p137
I1
sS'fingers'
p138
I1
sS'penny-farthings'
p139
I1
sS'words'
p140
I1
sS'hands'
p141
I1
sS'schools'
p142
I1
sS'quarters'
p143
I1
sS'wings'
p144
I1
sS'verses'
p145
I1
sS'school'
p146
I1
sS'sizes'
p147
I1
sS'chairs'
p148
I1
sS'james'
p149
I1
sS'countries'
p150
I4
sS'grammys'
p151
I1
sS'casinos'
p152
I1
sS'shots'
p153
I1
sS'corners'
p154
I1
sS'pizza'
p155
I1
sS'disks'
p156
I1
sS'jews'
p157
I1
sS'weight'
p158
I5
sS'people'
p159
I30
sS'elevators'
p160
I1
sS'energy'
p161
I1
sS'seats'
p162
I1
sS'villi'
p163
I1
sS'rate'
p164
I3
sS'frequency'
p165
I2
sS'meters'
p166
I2
sS'year'
p167
I1
sS'grooves'
p168
I2
sS'acid'
p169
I2
sS'dimensions'
p170
I1
sS'calcium'
p171
I1
sS'rings'
p172
I1
sS'mines'
p173
I1
sS'score'
p174
I3
sS'toll'
p175
I4
sS'squares'
p176
I1
sS'u.s.'
p177
I3
sS'equivalent'
p178
I3
sS'lakes'
p179
I1
sS'answers'
p180
I1
sS'hours'
p181
I1
sS'caffeine'
p182
I2
sS'englishmen'
p183
I1
sS'baseball'
p184
I1
sS'hostages'
p185
I1
sS'teaspoons'
p186
I1
sS'pitchers'
p187
I1
sS'cities'
p188
I1
sS'counties'
p189
I1
sS'digits'
p190
I3
sS'watts'
p191
I1
sS'generals'
p192
I1
sS'engines'
p193
I1
sS'stations'
p194
I1
sS'leos'
p195
I1
sS'months'
p196
I2
sS'calories'
p197
I4
sS'days'
p198
I1
sS'times'
p199
I6
sS'length'
p200
I2
sS'games'
p201
I1
sS'canadians'
p202
I1
sS'islands'
p203
I2
sS'size'
p204
I3
sS'members'
p205
I1
sS'scales'
p206
I1
sS'presidents'
p207
I1
sS'number'
p208
I13
sS'community'
p209
I1
sS'feet'
p210
I5
sS'newtons'
p211
I1
sS'americans'
p212
I3
sS'names'
p213
I1
sS'frames'
p214
I1
sS'earthworms'
p215
I1
sS'bends'
p216
I1
sS'flavors'
p217
I1
sS'statistics'
p218
I3
sS'temperature'
p219
I3
sS'zip'
p220
I1
sS'elephants'
p221
I1
sS'shillings'
p222
I1
sS'zeros'
p223
I1
sS'stars'
p224
I2
sS'films'
p225
I2
sS'syllables'
p226
I1
sS'sonnets'
p227
I1
sS'dogs'
p228
I1
sS'today'
p229
I1
sS'horses'
p230
I2
sS'mountains'
p231
I1
sS'head'
p232
I1
sS'stradivarius'
p233
I1
sS'continents'
p234
I1
sS'inches'
p235
I2
sS'brand'
p236
I1
sS'pitches'
p237
I1
sS'movies'
p238
I1
sS'boys'
p239
I1
sS'angles'
p240
I1
sS'7847'
p241
I1
sS'population'
p242
I19
sS'yards'
p243
I1
sS'states'
p244
I4
sS'waste'
p245
I1
sS'milligrams'
p246
I1
sS'longitude'
p247
I3
sS'record'
p248
I1
sS'iron'
p249
I1
sS'cards'
p250
I2
sS'college'
p251
I1
sS'minutes'
p252
I1
sS'dots'
p253
I2
sS'iq'
p254
I2
sS'pounds'
p255
I1
sS'eyes'
p256
I1
sS'high'
p257
I1
sS'horsepower'
p258
I2
sS'muscles'
p259
I2
sS'numbers'
p260
I1
sS'fiddlers'
p261
I1
sS'bones'
p262
I2
sS'cables'
p263
I1
sS'species'
p264
I1
sS'innings'
p265
I2
sS'par'
p266
I2
sS'revolutions'
p267
I1
sS'russians'
p268
I1
sS'lengths'
p269
I1
sS'snow'
p270
I1
sS'reactivity'
p271
I4
sS'actors'
p272
I1
sS'pins'
p273
I1
sS'colonies'
p274
I2
sS'events'
p275
I1
sS'vegetation'
p276
I1
sS'bells'
p277
I1
sS'elements'
p278
I1
sS'lawyers'
p279
I1
sS'brothers'
p280
I1
sS'students'
p281
I2
sS'juices'
p282
I1
sS'gutenberg'
p283
I1
sS'characters'
p284
I2
sS'oceans'
p285
I1
sS'sides'
p286
I3
sS'beanie'
p287
I1
sS'miles'
p288
I6
sS'phone'
p289
I1
sS'url'
p290
I2
sS'salt'
p291
I1
sS'holes'
p292
I1
sS'cherubs'
p293
I1
sS'points'
p294
I4
sS'time'
p295
I1
sS'hearts'
p296
I1
sS'wives'
p297
I1
sS'athletes'
p298
I1
sS'quantity'
p299
I1
stp300
Rp301
(dp302
g26
I505
sg76
Nsg77
Nsg78
Nsbsg79
I1487
sg80
F1248.5
sbs(g13
g19
tp303
g0
(g21
g2
Ntp304
Rp305
(dp306
g25
F0.5
sg26
I189
sg27
g0
(g28
g29
(dp307
g31
I4
sS'tribe'
p308
I1
sS'colleges'
p309
I1
sS'agency'
p310
I1
sS'producer'
p311
I1
sS'produces'
p312
I1
sS'football'
p313
I1
sS'businesses'
p314
I2
sS'president'
p315
I1
sS'super-teams'
p316
I1
sS'ballet'
p317
I1
sS'toy'
p318
I1
sS'group'
p319
I7
sS'hunting'
p320
I1
sS'fast'
p321
I1
sS'sports'
p322
I1
sS'camera'
p323
I1
sS'manufactures'
p324
I1
sS'engine'
p325
I2
sS'diamond'
p326
I3
sS'fast-food'
p327
I1
sS'government'
p328
I1
sS'food'
p329
I1
sS'company'
p330
I23
sS'railways'
p331
I1
sS'school'
p332
I3
sS'band'
p333
I1
sS'races'
p334
I1
sS'court'
p335
I1
sS'schools'
p336
I2
sS'world'
p337
I3
sS'championship'
p338
I1
sS'name'
p339
I9
sS'distance'
p340
I1
sS'kind'
p341
I4
sS'middle'
p342
I1
sS'meat'
p343
I1
sS'level'
p344
I1
sS'car'
p345
I2
sS'university'
p346
I5
sS'companies'
p347
I2
sS'purveyor'
p348
I1
sS'rock'
p349
I1
sS'radio'
p350
I2
sS'example'
p351
I1
sS'exhibit'
p352
I1
sS'supreme'
p353
I1
sS'pyramid'
p354
I1
sS'art'
p355
I1
sS'ten'
p356
I1
sS'people'
p357
I2
sS'tree'
p358
I1
sS'telephone'
p359
I1
sS'culture'
p360
I1
sS'computer'
p361
I1
sS'college'
p362
I9
sS'advertise'
p363
I2
sS'airplane'
p364
I2
sS'cocaine'
p365
I1
sS'competitor'
p366
I1
sS'network'
p367
I1
sS'corporation'
p368
I2
sS'manufacturers'
p369
I1
sS'administration'
p370
I1
sS'civilization'
p371
I1
sS'party'
p372
I2
sS'electronics'
p373
I1
sS'play'
p374
I1
sS'oil'
p375
I1
sS'business'
p376
I4
sS'fascist'
p377
I1
sS'cars'
p378
I1
sS'team'
p379
I6
sS'cigarette'
p380
I1
sS'baseball'
p381
I6
sS'groups'
p382
I1
sS'society'
p383
I1
sS'police'
p384
I5
sS'motto'
p385
I1
sS'nickname'
p386
I1
sS'television'
p387
I1
sS'card'
p388
I1
sS'manufacturer'
p389
I1
sS'league'
p390
I2
sS'engines'
p391
I1
sS'wife'
p392
I1
sS'airline'
p393
I2
sS'time'
p394
I1
sS'organization'
p395
I8
sS'residents'
p396
I1
sS'backup'
p397
I1
sS'frequent'
p398
I1
stp399
Rp400
(dp401
g26
I189
sg76
Nsg77
Nsg78
Nsbsg79
I1449
sg80
F913.5
sbs(g15
g81
tp402
g0
(g21
g2
Ntp403
Rp404
(dp405
g25
F0.5
sg26
I71
sg27
g0
(g28
g29
(dp406
g31
I30
sS'fare'
p407
I2
sS'money'
p408
I7
sS'price'
p409
I4
sS'provider'
p410
I2
sS'tax'
p411
I1
sS'caps'
p412
I1
sS'rate'
p413
I2
sS'cost'
p414
I4
sS'fine'
p415
I1
sS'salary'
p416
I6
sS'wage'
p417
I4
sS'debts'
p418
I1
sS'increase'
p419
I1
sS'amount'
p420
I1
sS'income'
p421
I3
sS'worth'
p422
I1
stp423
Rp424
(dp425
g26
I71
sg76
Nsg77
Nsg78
Nsbsg79
I1487
sg80
F814.5
sbs(g8
g19
tp426
g0
(g21
g2
Ntp427
Rp428
(dp429
g25
F0.5
sg26
I1250
sg27
g0
(g28
g29
(dp430
g31
I47
sS'melts'
p431
I1
sS'invent'
p432
I3
sS'crocodile'
p433
I1
sS'disc'
p434
I1
sS'publish'
p435
I1
sS'migrates'
p436
I1
sS'skin'
p437
I1
sS'dish'
p438
I1
sS'golf'
p439
I3
sS'centers'
p440
I1
sS'causes'
p441
I1
sS'looking'
p442
I1
sS'baseball'
p443
I1
sS'referring'
p444
I1
sS'tv'
p445
I12
sS'hump'
p446
I1
sS'technique'
p447
I3
sS'languages'
p448
I6
sS'fingernails'
p449
I1
sS'tail'
p450
I1
sS'program'
p451
I2
sS'terror'
p452
I1
sS'smile'
p453
I1
sS'ingredient'
p454
I1
sS'plants'
p455
I2
sS'family'
p456
I1
sS'woman'
p457
I1
sS'translations'
p458
I1
sS'jeroboams'
p459
I1
sS'sons'
p460
I1
sS'mixing'
p461
I2
sS'word'
p462
I14
sS'prize'
p463
I1
sS'level'
p464
I1
sS'did'
p465
I1
sS'gender'
p466
I1
sS'companies'
p467
I1
sS'occurs'
p468
I1
sS'race'
p469
I4
sS'car'
p470
I4
sS'refer'
p471
I1
sS'athlete'
p472
I1
sS'non-fiction'
p473
I1
sS'magazine'
p474
I6
sS'ten'
p475
I1
sS'crop'
p476
I2
sS'sign'
p477
I2
sS'chef'
p478
I1
sS'battle'
p479
I2
sS'titles'
p480
I1
sS'video'
p481
I1
sS'lawyer'
p482
I1
sS'fear'
p483
I62
sS'hymn'
p484
I1
sS'employ'
p485
I1
sS'constitution'
p486
I1
sS'clock'
p487
I1
sS'section'
p488
I1
sS'caffeine'
p489
I1
sS'dangles'
p490
I1
sS'tarantula'
p491
I1
sS'tips'
p492
I1
sS'tournaments'
p493
I1
sS'bird'
p494
I1
sS'body'
p495
I1
sS'hero'
p496
I2
sS'leg'
p497
I1
sS'men'
p498
I1
sS'commercial'
p499
I1
sS'dipsomaniac'
p500
I1
sS'operating'
p501
I2
sS'tragedy'
p502
I1
sS'box'
p503
I1
sS'substance'
p504
I3
sS'credit'
p505
I1
sS'products'
p506
I4
sS'advertising'
p507
I1
sS'birthstone'
p508
I1
sS'otters'
p509
I1
sS'classification'
p510
I1
sS'spermologer'
p511
I1
sS'respirator'
p512
I1
sS'names'
p513
I3
sS'tools'
p514
I1
sS'chefs'
p515
I1
sS'ladybugs'
p516
I1
sS'contains'
p517
I1
sS'arms'
p518
I1
sS'sports'
p519
I3
sS'symphony'
p520
I1
sS'call'
p521
I6
sS'films'
p522
I1
sS'type'
p523
I11
sS'sort'
p524
I1
sS'racoon'
p525
I1
sS'phobophobe'
p526
I1
sS'club'
p527
I1
sS'company'
p528
I2
sS'refrain'
p529
I1
sS'missile'
p530
I1
sS'glass'
p531
I1
sS'flag'
p532
I1
sS'rabbit'
p533
I2
sS'known'
p534
I2
sS'polyorchid'
p535
I1
sS'mascot'
p536
I1
sS'balls'
p537
I1
sS'animals'
p538
I8
sS'primate'
p539
I1
sS'science'
p540
I1
sS'ride'
p541
I1
sS'work'
p542
I1
sS'hardest'
p543
I1
sS'example'
p544
I2
sS'stubborn'
p545
I1
sS'eczema'
p546
I1
sS'assent'
p547
I1
sS'currency'
p548
I1
sS'foods'
p549
I2
sS'airplane'
p550
I2
sS'species'
p551
I3
sS'ceremony'
p552
I1
sS'damage'
p553
I1
sS'write'
p554
I3
sS'sword'
p555
I1
sS'creature'
p556
I3
sS'fare'
p557
I1
sS'plant'
p558
I4
sS'cocktail'
p559
I2
sS'clone'
p560
I1
sS'rites'
p561
I1
sS'accessory'
p562
I1
sS'conjugations'
p563
I1
sS'blood'
p564
I2
sS'philatelist'
p565
I1
sS'softball'
p566
I1
sS'date'
p567
I1
sS'eighth'
p568
I1
sS'types'
p569
I4
sS'man'
p570
I3
sS'noun'
p571
I1
sS'commodity'
p572
I2
sS'liner'
p573
I2
sS'element'
p574
I3
sS'tale'
p575
I2
sS'writ'
p576
I1
sS'keeps'
p577
I1
sS'alloy'
p578
I1
sS'swimming'
p579
I2
sS'playing'
p580
I1
sS'wine'
p581
I1
sS'no.'
p582
I1
sS'words'
p583
I5
sS'producer'
p584
I1
sS'produces'
p585
I1
sS'move'
p586
I1
sS'mission'
p587
I1
sS'meter'
p588
I2
sS'trade'
p589
I1
sS'paper'
p590
I1
sS'motorcycle'
p591
I1
sS'oven'
p592
I1
sS'signs'
p593
I1
sS'birds'
p594
I2
sS'limelight'
p595
I1
sS'group'
p596
I1
sS'handheld'
p597
I1
sS'forms'
p598
I1
sS'civil'
p599
I1
sS'distinguishing'
p600
I1
sS'constitutes'
p601
I1
sS'travelling'
p602
I1
sS'holiday'
p603
I1
sS'diseases'
p604
I1
sS'food'
p605
I7
sS'auto'
p606
I1
sS'killer'
p607
I1
sS'therapy'
p608
I1
sS'snake'
p609
I1
sS'resource'
p610
I1
sS'bread'
p611
I1
sS'articles'
p612
I2
sS'term'
p613
I19
sS'name'
p614
I70
sS'opera'
p615
I2
sS'potatoes'
p616
I1
sS'policeman'
p617
I1
sS'events'
p618
I4
sS'crops'
p619
I1
sS'predators'
p620
I1
sS'side'
p621
I2
sS'bone'
p622
I1
sS'mean'
p623
I1
sS'week'
p624
I1
sS'constipation'
p625
I1
sS'generation'
p626
I1
sS'garment'
p627
I1
sS'spider'
p628
I1
sS'fires'
p629
I1
sS'ball'
p630
I1
sS'year'
p631
I1
sS'aids'
p632
I1
sS'event'
p633
I1
sS'album'
p634
I1
sS'gangland'
p635
I1
sS'space'
p636
I1
sS'four-player'
p637
I1
sS'vessels'
p638
I1
sS'research'
p639
I1
sS'wolverine'
p640
I1
sS'medicine'
p641
I2
sS'formula'
p642
I2
sS'correct'
p643
I2
sS'achievements'
p644
I1
sS'maneuver'
p645
I1
sS'monster'
p646
I1
sS'city'
p647
I1
sS'delicacy'
p648
I1
sS'seventh'
p649
I1
sS'horse'
p650
I2
sS'approaches'
p651
I1
sS'put'
p652
I1
sS'holidays'
p653
I2
sS'card'
p654
I7
sS'care'
p655
I1
sS'language'
p656
I9
sS'deck'
p657
I1
sS'starts'
p658
I1
sS'times'
p659
I1
sS'counterpart'
p660
I2
sS'thing'
p661
I3
sS'tennis'
p662
I2
sS'sentence'
p663
I1
sS'hearing'
p664
I1
sS'feet'
p665
I1
sS'defects'
p666
I1
sS'overalls'
p667
I1
sS'millions'
p668
I1
sS'razor'
p669
I1
sS'story'
p670
I1
sS'toy'
p671
I1
sS'silent'
p672
I1
sS'automobile'
p673
I1
sS'system'
p674
I3
sS'fiction'
p675
I1
sS'paint'
p676
I1
sS'corpus'
p677
I1
sS'syrup'
p678
I1
sS'dogs'
p679
I1
sS'eyes'
p680
I1
sS'murder'
p681
I1
sS'stomach'
p682
I1
sS'way'
p683
I7
sS'chemicals'
p684
I3
sS'part'
p685
I5
sS'cereal'
p686
I2
sS'translation'
p687
I1
sS'flowers'
p688
I1
sS'steel'
p689
I1
sS'distance'
p690
I1
sS'television'
p691
I2
sS'domestica'
p692
I1
sS'invention'
p693
I1
sS'marriage'
p694
I1
sS'cards'
p695
I2
sS'feeling'
p696
I1
sS'sculpture'
p697
I2
sS'fowl'
p698
I1
sS'modern'
p699
I1
sS'ages'
p700
I1
sS'mine'
p701
I1
sS'pedometer'
p702
I1
sS'tastes'
p703
I1
sS'shrubs'
p704
I1
sS'breakfast'
p705
I1
sS'contact'
p706
I1
sS'chess'
p707
I1
sS'chiropodist'
p708
I1
sS'divers'
p709
I1
sS'play'
p710
I4
sS'object'
p711
I1
sS'cigarette'
p712
I2
sS'letter'
p713
I6
sS'exercises'
p714
I1
sS'coin'
p715
I1
sS'class'
p716
I2
sS'synonym'
p717
I1
sS'disease'
p718
I10
sS'order'
p719
I1
sS'flog'
p720
I1
sS'dot'
p721
I1
sS'bomb'
p722
I1
sS'phenomenon'
p723
I2
sS'gold'
p724
I1
sS'tequila'
p725
I1
sS'queen'
p726
I1
sS'recipe'
p727
I2
sS'colors'
p728
I7
sS'radio'
p729
I2
sS'laments'
p730
I1
sS'chicken'
p731
I1
sS'albums'
p732
I1
sS'snack'
p733
I1
sS'dice'
p734
I1
sS'gulf'
p735
I1
sS'title'
p736
I1
sS'series'
p737
I3
sS'ruin'
p738
I1
sS'winner'
p739
I1
sS'penalty'
p740
I1
sS'theme'
p741
I2
sS'molecules'
p742
I1
sS'fuel'
p743
I2
sS'get'
p744
I1
sS'kind'
p745
I40
sS'bear'
p746
I1
sS'da'
p747
I1
sS'longest'
p748
I1
sS'joins'
p749
I1
sS'determines'
p750
I1
sS'bar'
p751
I1
sS'encounters'
p752
I1
sS'saliva'
p753
I1
sS'method'
p754
I2
sS'penguins'
p755
I1
sS'abolitionists'
p756
I1
sS'corgi'
p757
I1
sS'orca'
p758
I1
sS'hairy'
p759
I1
sS'disaster'
p760
I1
sS'ancients'
p761
I1
sS'humans'
p762
I1
sS'sex'
p763
I2
sS'computer'
p764
I5
sS'seal'
p765
I1
sS'sport'
p766
I18
sS'draws'
p767
I1
sS'ways'
p768
I6
sS'movie'
p769
I18
sS'exchange'
p770
I1
sS'state'
p771
I3
sS'gemstone'
p772
I1
sS'ends'
p773
I1
sS'ability'
p774
I1
sS'incident'
p775
I1
sS'wear'
p776
I2
sS'come'
p777
I1
sS'piece'
p778
I2
sS'drug'
p779
I3
sS'connection'
p780
I1
sS'games'
p781
I1
sS'berry'
p782
I1
sS'faces'
p783
I1
sS'witch'
p784
I1
sS'heliologist'
p785
I1
sS'statues'
p786
I1
sS'cancer'
p787
I2
sS'color'
p788
I30
sS'period'
p789
I1
sS'vessel'
p790
I1
sS'poll'
p791
I1
sS'belt'
p792
I1
sS'quit'
p793
I1
sS'instrument'
p794
I7
sS'west'
p795
I1
sS'trademark'
p796
I2
sS'submarine'
p797
I1
sS'beer'
p798
I4
sS'treat'
p799
I1
sS'poet'
p800
I1
sS'incompetent'
p801
I1
sS'board'
p802
I1
sS'cyclist'
p803
I1
sS'dialogue'
p804
I1
sS'senses'
p805
I1
sS'flight'
p806
I1
sS'tiger'
p807
I1
sS'craft'
p808
I1
sS'lives'
p809
I1
sS'folklore'
p810
I1
sS'extant'
p811
I1
sS'ravens'
p812
I1
sS'sound'
p813
I1
sS'novel'
p814
I24
sS'gland'
p815
I1
sS'frozen'
p816
I1
sS'originate'
p817
I1
sS'cash'
p818
I1
sS'irate'
p819
I1
sS'droppings'
p820
I1
sS'newspaper'
p821
I3
sS'procedure'
p822
I1
sS'layer'
p823
I1
sS'prayer'
p824
I1
sS'player'
p825
I1
sS'full-length'
p826
I1
sS'haboob'
p827
I1
sS'perform'
p828
I1
sS'alphabet'
p829
I3
sS'bowl'
p830
I1
sS'member'
p831
I1
sS'document'
p832
I1
sS'composition'
p833
I1
sS'wheel'
p834
I1
sS'oil'
p835
I1
sS'drink'
p836
I14
sS'hand'
p837
I2
sS'fruit'
p838
I1
sS'vowel'
p839
I2
sS'whale'
p840
I1
sS'nickname'
p841
I1
sS'cartoon'
p842
I1
sS'tune'
p843
I1
sS'kid'
p844
I1
sS'peacocks'
p845
I1
sS'variety'
p846
I1
sS'materials'
p847
I1
sS'chronicles'
p848
I1
sS'components'
p849
I1
sS'twirl'
p850
I1
sS'deltiologist'
p851
I1
sS'advertises'
p852
I1
sS'plagues'
p853
I1
sS'livestock'
p854
I1
sS'camel'
p855
I1
sS'money'
p856
I3
sS'product'
p857
I11
sS'shape'
p858
I2
sS'fishing'
p859
I1
sS'flavor'
p860
I1
sS'adding'
p861
I1
sS'death'
p862
I1
sS'campaign'
p863
I1
sS'alternate'
p864
I1
sS'character'
p865
I1
sS'source'
p866
I1
sS'slits'
p867
I1
sS'treatment'
p868
I1
sS'crack'
p869
I1
sS'grow'
p870
I1
sS'tenses'
p871
I1
sS'sailors'
p872
I1
sS'bid'
p873
I1
sS'game'
p874
I8
sS'birth'
p875
I1
sS'world'
p876
I6
sS'wings'
p877
I1
sS'insert'
p878
I1
sS'nutrients'
p879
I1
sS'soap'
p880
I2
sS'communications'
p881
I1
sS'eidologist'
p882
I1
sS'clay'
p883
I1
sS'become'
p884
I1
sS'wonders'
p885
I1
sS'vats'
p886
I1
sS'pyramid-builders'
p887
I1
sS'methods'
p888
I1
sS'people'
p889
I5
sS'begin'
p890
I1
sS'competition'
p891
I2
sS'hair'
p892
I1
sS'brontosauruses'
p893
I1
sS'scale'
p894
I1
sS'lead'
p895
I1
sS'singing'
p896
I2
sS'hurricane'
p897
I1
sS'ice'
p898
I1
sS'religion'
p899
I2
sS'anti-aids'
p900
I1
sS'espionage'
p901
I1
sS'thighs'
p902
I1
sS'measures'
p903
I1
sS'rum'
p904
I2
sS'equivalent'
p905
I1
sS'lose'
p906
I1
sS'post'
p907
I1
sS'refers'
p908
I1
sS'vaccine'
p909
I1
sS'trophy'
p910
I1
sS'sister'
p911
I1
sS'resurrectionist'
p912
I1
sS'concerts'
p913
I1
sS'carries'
p914
I1
sS'camels'
p915
I1
sS'ox'
p916
I1
sS'emperor'
p917
I1
sS'hocks'
p918
I1
sS'software'
p919
I1
sS'letters'
p920
I1
sS'facility'
p921
I1
sS'owe'
p922
I1
sS'litmus'
p923
I1
sS'device'
p924
I2
sS'strip'
p925
I3
sS'ailment'
p926
I1
sS'vegetables'
p927
I1
sS'flying'
p928
I1
sS'secret'
p929
I1
sS'indoor'
p930
I1
sS'cats'
p931
I1
sS'stars'
p932
I1
sS'suit'
p933
I1
sS'breeding'
p934
I1
sS'war'
p935
I11
sS'opens'
p936
I1
sS'medium'
p937
I3
sS'amateur'
p938
I1
sS'form'
p939
I3
sS'brand'
p940
I6
sS'sequel'
p941
I3
sS'vichyssoise'
p942
I1
sS'principles'
p943
I1
sS'needles'
p944
I1
sS'line'
p945
I4
sS'eat'
p946
I2
sS'spice'
p947
I1
sS'manatees'
p948
I1
sS'middle'
p949
I1
sS'consist'
p950
I1
sS'devices'
p951
I1
sS'books'
p952
I1
sS'stories'
p953
I1
sS'zodiac'
p954
I1
sS'stages'
p955
I1
sS'condiment'
p956
I2
sS'taste'
p957
I2
sS'strips'
p958
I1
sS'dog'
p959
I3
sS'utensils'
p960
I1
sS'walks'
p961
I1
sS'ship'
p962
I2
sS'education'
p963
I1
sS'film'
p964
I25
sS'cream'
p965
I1
sS'ingredients'
p966
I1
sS'trials'
p967
I3
sS'flora'
p968
I1
sS'actor'
p969
I1
sS'snakes'
p970
I1
sS'book'
p971
I21
sS'boom'
p972
I1
sS'boob'
p973
I1
sS'elements'
p974
I4
sS'kinds'
p975
I2
sS'symbol'
p976
I3
sS'football'
p977
I1
sS'lens'
p978
I1
sS'chairbound'
p979
I1
sS'structure'
p980
I1
sS'age'
p981
I1
sS'vehicles'
p982
I1
sS'fastener'
p983
I1
sS'came'
p984
I1
sS'time'
p985
I2
sS'menace'
p986
I1
sS'requires'
p987
I1
sS'songs'
p988
I2
stp989
Rp990
(dp991
g26
I1250
sg76
Nsg77
Nsg78
Nsbsg79
I1449
sg80
F1974.5
sbs(g11
g19
tp992
g0
(g21
g2
Ntp993
Rp994
(dp995
g25
F0.5
sg26
I505
sg27
g0
(g28
g29
(dp996
g31
I28
sS'colleges'
p997
I1
sS'dollar'
p998
I2
sS'astronauts'
p999
I2
sS'fathom'
p1000
I3
sS'spacecraft'
p1001
I1
sS'spaces'
p1002
I2
sS'businesses'
p1003
I2
sS'shoe'
p1004
I1
sS'cds'
p1005
I1
sS'go'
p1006
I1
sS'soldiers'
p1007
I6
sS'kilamanjaro'
p1008
I1
sS'children'
p1009
I2
sS'layers'
p1010
I2
sS'votes'
p1011
I2
sS'electricity'
p1012
I1
sS'megawatts'
p1013
I1
sS'languages'
p1014
I3
sS'teaspoon'
p1015
I2
sS'thousands'
p1016
I1
sS'tiles'
p1017
I1
sS'oceans'
p1018
I1
sS'trees'
p1019
I1
sS'acreage'
p1020
I1
sS'penny-farthings'
p1021
I1
sS'words'
p1022
I1
sS'years'
p1023
I11
sS'verses'
p1024
I1
sS'school'
p1025
I1
sS'countries'
p1026
I4
sS'did'
p1027
I1
sS'bytes'
p1028
I1
sS'colors'
p1029
I4
sS'casinos'
p1030
I1
sS'shots'
p1031
I1
sS'inside'
p1032
I1
sS'tenths'
p1033
I1
sS'leaders'
p1034
I1
sS'cheetahs'
p1035
I1
sS'villi'
p1036
I1
sS'rate'
p1037
I1
sS'college'
p1038
I1
sS'grooves'
p1039
I2
sS'acid'
p1040
I2
sS'movies'
p1041
I1
sS'thunder'
p1042
I1
sS'rings'
p1043
I1
sS'fingers'
p1044
I1
sS'liberty'
p1045
I1
sS'score'
p1046
I3
sS'galaxy'
p1047
I1
sS'referees'
p1048
I1
sS'claws'
p1049
I1
sS'human'
p1050
I2
sS'men'
p1051
I3
sS'answers'
p1052
I1
sS'hours'
p1053
I2
sS'protection'
p1054
I1
sS'baseball'
p1055
I1
sS'yards'
p1056
I1
sS'furlongs'
p1057
I1
sS'cities'
p1058
I1
sS'digits'
p1059
I3
sS'tractors'
p1060
I1
sS'airport'
p1061
I1
sS'objects'
p1062
I1
sS'games'
p1063
I1
sS'canadians'
p1064
I1
sS'kinds'
p1065
I1
sS'members'
p1066
I3
sS'scales'
p1067
I1
sS'presidents'
p1068
I2
sS'names'
p1069
I1
sS'flavors'
p1070
I2
sS'attendance'
p1071
I1
sS'zip'
p1072
I1
sS'copies'
p1073
I1
sS'vineyard'
p1074
I1
sS'bees'
p1075
I1
sS'counties'
p1076
I1
sS'films'
p1077
I2
sS'sonnets'
p1078
I1
sS'milliseconds'
p1079
I1
sS'horses'
p1080
I2
sS'resting'
p1081
I1
sS'diamond'
p1082
I1
sS'propellers'
p1083
I1
sS'pairs'
p1084
I2
sS'telephone'
p1085
I1
sS'phone'
p1086
I4
sS'angles'
p1087
I1
sS'baby'
p1088
I1
sS'hole'
p1089
I1
sS'emperors'
p1090
I1
sS'car'
p1091
I1
sS'calcium'
p1092
I1
sS'gallons'
p1093
I2
sS'pound'
p1094
I1
sS'permutations'
p1095
I1
sS'teaspoons'
p1096
I1
sS'surface'
p1097
I1
sS'states'
p1098
I3
sS'neurons'
p1099
I1
sS'numbers'
p1100
I1
sS'bones'
p1101
I2
sS'species'
p1102
I3
sS'revolutions'
p1103
I1
sS'bottles'
p1104
I1
sS'lengths'
p1105
I1
sS'maids'
p1106
I1
sS'oven'
p1107
I2
sS'amount'
p1108
I1
sS'member'
p1109
I1
sS'pins'
p1110
I1
sS'colonies'
p1111
I2
sS'spears'
p1112
I1
sS'events'
p1113
I1
sS'stock'
p1114
I1
sS'cherubs'
p1115
I1
sS'lawyers'
p1116
I1
sS'mountain'
p1117
I1
sS'fruit'
p1118
I1
sS'characters'
p1119
I2
sS'law'
p1120
I1
sS'types'
p1121
I4
sS'man'
p1122
I1
sS'varieties'
p1123
I2
sS'hearts'
p1124
I1
sS'wives'
p1125
I1
sS'athletes'
p1126
I1
sS'unemployment'
p1127
I2
sS'freckles'
p1128
I1
sS'quarters'
p1129
I1
sS'sperm'
p1130
I1
sS'questions'
p1131
I2
sS'seats'
p1132
I1
sS'speed'
p1133
I3
sS'superbowls'
p1134
I1
sS'web'
p1135
I1
sS'death'
p1136
I2
sS'drunk'
p1137
I1
sS'acres'
p1138
I1
sS'degrees'
p1139
I2
sS'latitude'
p1140
I3
sS'weeks'
p1141
I1
sS'wingspan'
p1142
I1
sS'bails'
p1143
I1
sS'nation'
p1144
I1
sS'records'
p1145
I1
sS'giraffe'
p1146
I1
sS'hands'
p1147
I1
sS'world'
p1148
I3
sS'wings'
p1149
I1
sS'pounds'
p1150
I1
sS'chairs'
p1151
I1
sS'corners'
p1152
I1
sS'disks'
p1153
I1
sS'cullions'
p1154
I1
sS'pizza'
p1155
I1
sS'jews'
p1156
I1
sS'weight'
p1157
I4
sS'people'
p1158
I35
sS'elevators'
p1159
I1
sS'companies'
p1160
I1
sS'energy'
p1161
I1
sS'frequency'
p1162
I2
sS'meters'
p1163
I2
sS'year'
p1164
I1
sS'home'
p1165
I3
sS'dimensions'
p1166
I1
sS'blacks'
p1167
I1
sS'mines'
p1168
I1
sS'moon'
p1169
I1
sS'students'
p1170
I2
sS'miles'
p1171
I9
sS'squares'
p1172
I1
sS'eggs'
p1173
I1
sS'highway'
p1174
I2
sS'millimeters'
p1175
I1
sS'equivalent'
p1176
I1
sS'lakes'
p1177
I1
sS'quart'
p1178
I1
sS'caffeine'
p1179
I2
sS'statistics'
p1180
I1
sS'hostages'
p1181
I1
sS'pitchers'
p1182
I1
sS'refuge'
p1183
I1
sS'chapter'
p1184
I4
sS'watts'
p1185
I1
sS'engines'
p1186
I1
sS'stations'
p1187
I1
sS'universe'
p1188
I2
sS'dollars'
p1189
I1
sS'months'
p1190
I2
sS'calories'
p1191
I4
sS'days'
p1192
I1
sS'times'
p1193
I11
sS'whitetail'
p1194
I1
sS'length'
p1195
I1
sS'extensions'
p1196
I2
sS'airline'
p1197
I1
sS'islands'
p1198
I2
sS'processor'
p1199
I1
sS'silver'
p1200
I1
sS'size'
p1201
I4
sS'letters'
p1202
I1
sS'student'
p1203
I1
sS'number'
p1204
I7
sS'rank'
p1205
I2
sS'poodle'
p1206
I1
sS'feet'
p1207
I6
sS'frames'
p1208
I1
sS'earthworms'
p1209
I1
sS'bends'
p1210
I1
sS'city'
p1211
I1
sS'rows'
p1212
I2
sS'temperature'
p1213
I4
sS'elephants'
p1214
I1
sS'approximate'
p1215
I2
sS'shillings'
p1216
I1
sS'zeros'
p1217
I1
sS'stars'
p1218
I2
sS'syllables'
p1219
I1
sS'dogs'
p1220
I1
sS'mountains'
p1221
I1
sS'eyes'
p1222
I2
sS'muscles'
p1223
I2
sS'continents'
p1224
I1
sS'inches'
p1225
I4
sS'brand'
p1226
I1
sS'boys'
p1227
I1
sS'population'
p1228
I15
sS'waste'
p1229
I1
sS'warmup'
p1230
I1
sS'cells'
p1231
I1
sS'milligrams'
p1232
I1
sS'maximum'
p1233
I2
sS'war'
p1234
I1
sS'iron'
p1235
I1
sS'cards'
p1236
I3
sS'quadruplets'
p1237
I1
sS'minutes'
p1238
I1
sS'dots'
p1239
I2
sS'holes'
p1240
I1
sS'head'
p1241
I1
sS'pig'
p1242
I1
sS'boardwalk'
p1243
I1
sS'replica'
p1244
I1
sS'fiddlers'
p1245
I1
sS'horsepower'
p1246
I2
sS'border'
p1247
I1
sS'chromosome'
p1248
I2
sS'innings'
p1249
I2
sS'russians'
p1250
I1
sS'snow'
p1251
I1
sS'reactivity'
p1252
I4
sS'actors'
p1253
I1
sS'grammys'
p1254
I1
sS'vegetation'
p1255
I1
sS'elements'
p1256
I1
sS'star'
p1257
I1
sS'teats'
p1258
I1
sS'quarts'
p1259
I1
sS'teeth'
p1260
I1
sS'visitors'
p1261
I1
sS'sides'
p1262
I3
sS'cables'
p1263
I1
sS'stronger'
p1264
I1
sS'websites'
p1265
I1
sS'points'
p1266
I4
sS'time'
p1267
I1
sS'weigh'
p1268
I1
sS'salt'
p1269
I1
sS'quantity'
p1270
I1
stp1271
Rp1272
(dp1273
g26
I505
sg76
Nsg77
Nsg78
Nsbsg79
I1449
sg80
F1229.5
sbs(g10
g81
tp1274
g0
(g21
g2
Ntp1275
Rp1276
(dp1277
g25
F0.5
sg26
I835
sg27
g0
(g28
g29
(dp1278
g31
I121
sS'gates'
p1279
I2
sS'thomas'
p1280
I1
sS'mccheese'
p1281
I1
sS'bocci'
p1282
I1
sS'nations'
p1283
I1
sS'clinic'
p1284
I1
sS'tours'
p1285
I1
sS'makeup'
p1286
I1
sS'battle'
p1287
I1
sS'schoolhouse'
p1288
I1
sS'avenue'
p1289
I1
sS'continent'
p1290
I5
sS'web'
p1291
I1
sS'birthplace'
p1292
I3
sS'deserts'
p1293
I1
sS'gulf'
p1294
I1
sS'point'
p1295
I1
sS'lake'
p1296
I5
sS'woodstock'
p1297
I1
sS'landmark'
p1298
I2
sS'location'
p1299
I4
sS'prison'
p1300
I1
sS'team'
p1301
I1
sS'goalie'
p1302
I1
sS'resources'
p1303
I1
sS'steel'
p1304
I1
sS'goes'
p1305
I1
sS'myth'
p1306
I1
sS'dam'
p1307
I1
sS'oceans'
p1308
I2
sS'nation'
p1309
I3
sS'stadium'
p1310
I2
sS'vegas'
p1311
I1
sS'tuberculosis'
p1312
I1
sS'world'
p1313
I1
sS'lincoln'
p1314
I1
sS'airports'
p1315
I1
sS'name'
p1316
I17
sS'countries'
p1317
I22
sS'university'
p1318
I2
sS'shape'
p1319
I1
sS'bay'
p1320
I2
sS'race'
p1321
I1
sS'steps'
p1322
I1
sS'explorer'
p1323
I1
sS'rock'
p1324
I1
sS'volcano'
p1325
I1
sS'river'
p1326
I17
sS'page'
p1327
I3
sS'battlefield'
p1328
I1
sS'square'
p1329
I1
sS'telescope'
p1330
I1
sS'reference'
p1331
I1
sS'apartments'
p1332
I1
sS'seas'
p1333
I1
sS'house'
p1334
I1
sS'library'
p1335
I1
sS'rivers'
p1336
I2
sS'orinoco'
p1337
I1
sS'zero'
p1338
I1
sS'street'
p1339
I3
sS'college'
p1340
I3
sS'sea'
p1341
I4
sS'home'
p1342
I1
sS'danube'
p1343
I1
sS'constellation'
p1344
I3
sS'aldrin'
p1345
I1
sS'zebras'
p1346
I1
sS'planet'
p1347
I4
sS'qatar'
p1348
I1
sS'mutombo'
p1349
I1
sS'sites'
p1350
I3
sS'stops'
p1351
I1
sS'seaport'
p1352
I3
sS'libraries'
p1353
I1
sS'state'
p1354
I51
sS'daniel'
p1355
I1
sS'olympics'
p1356
I2
sS'cobb'
p1357
I1
sS'diamonds'
p1358
I1
sS'nicholas'
p1359
I1
sS'glasgow'
p1360
I1
sS'body'
p1361
I1
sS'columbus'
p1362
I1
sS'stockyards'
p1363
I1
sS'pythagoras'
p1364
I1
sS'dwarf'
p1365
I1
sS'cars'
p1366
I1
sS'u.s.'
p1367
I2
sS'seine'
p1368
I1
sS'ranges'
p1369
I2
sS'groups'
p1370
I1
sS'address'
p1371
I9
sS'nationality'
p1372
I7
sS'canals'
p1373
I1
sS'cities'
p1374
I10
sS'luther'
p1375
I1
sS'stations'
p1376
I1
sS'institute'
p1377
I1
sS'country'
p1378
I104
sS'region'
p1379
I1
sS'adventures'
p1380
I1
sS'eels'
p1381
I1
sS'ports'
p1382
I1
sS'melbourne'
p1383
I1
sS'thing'
p1384
I1
sS'airport'
p1385
I5
sS'waterfall'
p1386
I1
sS'place'
p1387
I1
sS'islands'
p1388
I1
sS'castle'
p1389
I2
sS'hospital'
p1390
I1
sS'block'
p1391
I1
sS'nixon'
p1392
I1
sS'burma'
p1393
I1
sS'romania'
p1394
I1
sS'indians'
p1395
I1
sS'clinton'
p1396
I1
sS'tourists'
p1397
I2
sS'bell'
p1398
I1
sS'wall'
p1399
I1
sS'attractions'
p1400
I2
sS'guam'
p1401
I1
sS'washington'
p1402
I2
sS'county'
p1403
I3
sS'canyon'
p1404
I1
sS'blackhawks'
p1405
I1
sS'names'
p1406
I2
sS'amsterdam'
p1407
I1
sS'poe'
p1408
I1
sS'george'
p1409
I1
sS'coastlines'
p1410
I1
sS'trinidad'
p1411
I1
sS'canal'
p1412
I1
sS'city'
p1413
I75
sS'belize'
p1414
I1
sS'habitat'
p1415
I1
sS'area'
p1416
I2
sS'remains'
p1417
I1
sS'arch'
p1418
I1
sS'museum'
p1419
I5
sS'people'
p1420
I4
sS'desert'
p1421
I5
sS'snowman'
p1422
I1
sS'cotrubas'
p1423
I1
sS'valley'
p1424
I2
sS'meeting'
p1425
I1
sS'capital'
p1426
I19
sS'store'
p1427
I1
sS'website'
p1428
I6
sS'mountains'
p1429
I1
sS'direction'
p1430
I2
sS'strait'
p1431
I1
sS'way'
p1432
I1
sS'inuits'
p1433
I1
sS'passenger'
p1434
I1
sS'hotel'
p1435
I2
sS'montenegro'
p1436
I1
sS'singer'
p1437
I1
sS'chocolate'
p1438
I1
sS'possession'
p1439
I1
sS'trail'
p1440
I1
sS'flag'
p1441
I1
sS'inoco'
p1442
I1
sS'coyote'
p1443
I1
sS'hole'
p1444
I1
sS'sound'
p1445
I1
sS'mahal'
p1446
I1
sS'room'
p1447
I1
sS'hour'
p1448
I1
sS'louisiana'
p1449
I1
sS'hyenas'
p1450
I1
sS'restaurant'
p1451
I2
sS'natick'
p1452
I1
sS'worth'
p1453
I1
sS'project'
p1454
I1
sS'mall'
p1455
I1
sS'individual'
p1456
I1
sS'island'
p1457
I14
sS'waterways'
p1458
I1
sS'mozambique'
p1459
I1
sS'loop'
p1460
I1
sS'bridge'
p1461
I4
sS'edberg'
p1462
I1
sS'gulliver'
p1463
I1
sS'palace'
p1464
I1
sS'rios'
p1465
I1
sS'tesla'
p1466
I1
sS'abstract'
p1467
I1
sS'breweries'
p1468
I1
sS'rubble'
p1469
I1
sS'site'
p1470
I4
sS'alley'
p1471
I1
sS'general'
p1472
I1
sS'states'
p1473
I6
sS'dew'
p1474
I1
sS'sport'
p1475
I1
sS'bend'
p1476
I1
sS'showers'
p1477
I1
sS'cathedral'
p1478
I2
sS'distributions'
p1479
I1
sS'chop'
p1480
I1
sS'native'
p1481
I1
sS'angelica'
p1482
I1
sS'information'
p1483
I1
sS'monarchy'
p1484
I1
sS'court'
p1485
I1
sS'ukulele'
p1486
I1
sS'helium'
p1487
I1
sS'hugo'
p1488
I1
sS'bowl'
p1489
I2
sS'davies'
p1490
I1
sS'hampshire'
p1491
I1
sS'zoo'
p1492
I1
sS'complex'
p1493
I1
sS'republic'
p1494
I2
sS'forest'
p1495
I1
sS'forces'
p1496
I1
sS'gate'
p1497
I1
sS'residence'
p1498
I1
sS'isle'
p1499
I1
sS'gamble'
p1500
I2
sS'province'
p1501
I2
sS'buildings'
p1502
I1
sS'star'
p1503
I2
sS'brothers'
p1504
I1
sS'mountain'
p1505
I10
sS'park'
p1506
I3
sS'town'
p1507
I4
sS'lucia'
p1508
I1
sS'callosum'
p1509
I2
sS'pigs'
p1510
I1
sS'peak'
p1511
I4
sS'stocks'
p1512
I1
sS'nickname'
p1513
I3
sS'gallery'
p1514
I1
sS'honecker'
p1515
I1
sS'building'
p1516
I8
sS'badu'
p1517
I1
sS'surfing'
p1518
I1
sS'center'
p1519
I2
sS'i'
p1520
I1
sS'camp'
p1521
I1
sS'drinks'
p1522
I1
sS'headquarters'
p1523
I4
sS'websites'
p1524
I1
sS'ocean'
p1525
I6
sS'lobsters'
p1526
I1
sS'chronicles'
p1527
I1
sS'walker'
p1528
I1
sS'bodies'
p1529
I1
sS'marvel'
p1530
I1
stp1531
Rp1532
(dp1533
g26
I835
sg76
Nsg77
Nsg78
Nsbsg79
I1487
sg80
F1578.5
sbs(g8
g81
tp1534
g0
(g21
g2
Ntp1535
Rp1536
(dp1537
g25
F0.5
sg26
I1250
sg27
g0
(g28
g29
(dp1538
g31
I158
sS'lack'
p1539
I1
sS'four'
p1540
I1
sS'crocodile'
p1541
I1
sS'gang'
p1542
I1
sS'skin'
p1543
I1
sS'dish'
p1544
I1
sS'bomb'
p1545
I1
sS'children'
p1546
I1
sS'simon'
p1547
I1
sS'baseball'
p1548
I1
sS'tv'
p1549
I14
sS'technique'
p1550
I2
sS'languages'
p1551
I3
sS'fingernails'
p1552
I1
sS'tail'
p1553
I1
sS'program'
p1554
I3
sS'terror'
p1555
I1
sS'ingredient'
p1556
I1
sS'plants'
p1557
I2
sS'woman'
p1558
I1
sS'song'
p1559
I6
sS'translations'
p1560
I1
sS'jeroboams'
p1561
I1
sS'jack'
p1562
I1
sS'word'
p1563
I17
sS'magic'
p1564
I1
sS'prize'
p1565
I1
sS'level'
p1566
I1
sS'crops'
p1567
I1
sS'gender'
p1568
I2
sS'notes'
p1569
I1
sS'companies'
p1570
I1
sS'belushi'
p1571
I1
sS'car'
p1572
I3
sS'mammal'
p1573
I3
sS'stingers'
p1574
I1
sS'olympic'
p1575
I1
sS'carter'
p1576
I1
sS'japanese'
p1577
I1
sS'crop'
p1578
I3
sS'sign'
p1579
I3
sS'chef'
p1580
I1
sS'battle'
p1581
I2
sS'titles'
p1582
I1
sS'video'
p1583
I2
sS'hymn'
p1584
I2
sS'constitution'
p1585
I1
sS'clock'
p1586
I1
sS'tarantula'
p1587
I1
sS'net'
p1588
I1
sS'tournaments'
p1589
I1
sS'bird'
p1590
I3
sS'body'
p1591
I1
sS'leg'
p1592
I1
sS'men'
p1593
I1
sS'french'
p1594
I1
sS'dipsomaniac'
p1595
I1
sS'operating'
p1596
I2
sS'yards'
p1597
I1
sS'goldfish'
p1598
I1
sS'tragedy'
p1599
I2
sS'hass'
p1600
I1
sS'luther'
p1601
I1
sS'substance'
p1602
I4
sS'products'
p1603
I3
sS'franklin'
p1604
I1
sS'birthstone'
p1605
I1
sS'otters'
p1606
I1
sS'classification'
p1607
I1
sS'spermologer'
p1608
I1
sS'respirator'
p1609
I1
sS'italians'
p1610
I1
sS'names'
p1611
I3
sS'tools'
p1612
I1
sS'chefs'
p1613
I1
sS'ladybugs'
p1614
I1
sS'indians'
p1615
I1
sS'symphony'
p1616
I1
sS'music'
p1617
I1
sS'films'
p1618
I2
sS'type'
p1619
I1
sS'household'
p1620
I2
sS'ballad'
p1621
I1
sS'sort'
p1622
I1
sS'playboy'
p1623
I1
sS'phobophobe'
p1624
I1
sS'shipwreck'
p1625
I1
sS'club'
p1626
I1
sS'company'
p1627
I1
sS'award'
p1628
I1
sS'glass'
p1629
I1
sS'flag'
p1630
I1
sS'adult'
p1631
I1
sS'rabbit'
p1632
I2
sS'shostakovich'
p1633
I1
sS'mascot'
p1634
I1
sS'balls'
p1635
I1
sS'animals'
p1636
I8
sS'primate'
p1637
I1
sS'science'
p1638
I1
sS'athlete'
p1639
I1
sS'work'
p1640
I1
sS'foods'
p1641
I3
sS'sweeter'
p1642
I1
sS'entertainer'
p1643
I1
sS'seagull'
p1644
I1
sS'example'
p1645
I1
sS'nino'
p1646
I1
sS'chip'
p1647
I1
sS'currency'
p1648
I1
sS'stroke'
p1649
I1
sS'best-seller'
p1650
I1
sS'airplane'
p1651
I2
sS'species'
p1652
I3
sS'damage'
p1653
I1
sS'chemical'
p1654
I1
sS'animal'
p1655
I17
sS'creature'
p1656
I4
sS'gaming'
p1657
I1
sS'plant'
p1658
I4
sS'cocktail'
p1659
I2
sS'singular'
p1660
I1
sS'may'
p1661
I2
sS'clone'
p1662
I1
sS'rites'
p1663
I1
sS'conjugations'
p1664
I1
sS'philatelist'
p1665
I1
sS'softball'
p1666
I1
sS'types'
p1667
I3
sS'man'
p1668
I2
sS'noun'
p1669
I1
sS'liquid'
p1670
I1
sS'liner'
p1671
I1
sS'element'
p1672
I2
sS'tale'
p1673
I1
sS'bakery'
p1674
I1
sS'alloy'
p1675
I1
sS'wine'
p1676
I1
sS'producer'
p1677
I1
sS'move'
p1678
I1
sS'mission'
p1679
I1
sS'meter'
p1680
I2
sS'trade'
p1681
I1
sS'sperm'
p1682
I2
sS'course'
p1683
I1
sS'paper'
p1684
I1
sS'oven'
p1685
I1
sS'signs'
p1686
I1
sS'magoo'
p1687
I1
sS'birds'
p1688
I2
sS'golfing'
p1689
I1
sS'forms'
p1690
I1
sS'holiday'
p1691
I1
sS'diseases'
p1692
I1
sS'food'
p1693
I8
sS'auto'
p1694
I1
sS'killer'
p1695
I1
sS'amendements'
p1696
I1
sS'therapy'
p1697
I1
sS'snake'
p1698
I1
sS'compound'
p1699
I1
sS'satellites'
p1700
I1
sS'clouds'
p1701
I1
sS'day'
p1702
I1
sS'articles'
p1703
I1
sS'term'
p1704
I18
sS'name'
p1705
I75
sS'opera'
p1706
I2
sS'january'
p1707
I1
sS'policeman'
p1708
I1
sS'drake'
p1709
I1
sS'events'
p1710
I3
sS'habits'
p1711
I1
sS'predators'
p1712
I1
sS'side'
p1713
I1
sS'bone'
p1714
I1
sS'wheel'
p1715
I1
sS'ailment'
p1716
I1
sS'generation'
p1717
I1
sS'series'
p1718
I1
sS'fish'
p1719
I1
sS'spider'
p1720
I1
sS'books'
p1721
I1
sS'year'
p1722
I1
sS'aids'
p1723
I1
sS'ribavirin'
p1724
I1
sS'marley'
p1725
I1
sS'event'
p1726
I2
sS'album'
p1727
I1
sS'flower'
p1728
I1
sS'god'
p1729
I1
sS'vessels'
p1730
I2
sS'strokes'
p1731
I1
sS'race'
p1732
I3
sS'medicine'
p1733
I1
sS'formula'
p1734
I3
sS'plural'
p1735
I1
sS'achievements'
p1736
I1
sS'maneuver'
p1737
I1
sS'monster'
p1738
I1
sS'delicacy'
p1739
I1
sS'descendents'
p1740
I1
sS'story'
p1741
I1
sS'approaches'
p1742
I1
sS'basketball'
p1743
I1
sS'cookie'
p1744
I1
sS'hand'
p1745
I1
sS'card'
p1746
I7
sS'soundtrack'
p1747
I1
sS'language'
p1748
I10
sS'garment'
p1749
I1
sS'counterpart'
p1750
I2
sS'thing'
p1751
I3
sS'soda'
p1752
I1
sS'stewart'
p1753
I1
sS'vowel'
p1754
I2
sS'feet'
p1755
I1
sS'owner'
p1756
I1
sS'overalls'
p1757
I1
sS'millions'
p1758
I1
sS'paine'
p1759
I1
sS'razor'
p1760
I1
sS'horse'
p1761
I2
sS'toy'
p1762
I1
sS'automobile'
p1763
I1
sS'system'
p1764
I2
sS'syrup'
p1765
I1
sS'genesis'
p1766
I1
sS'stars'
p1767
I1
sS'chemicals'
p1768
I3
sS'part'
p1769
I4
sS'cereal'
p1770
I4
sS'translation'
p1771
I1
sS'flowers'
p1772
I1
sS'symptom'
p1773
I1
sS'milton'
p1774
I1
sS'kind'
p1775
I3
sS'domestica'
p1776
I1
sS'johnson'
p1777
I1
sS'shampoo'
p1778
I1
sS'dogs'
p1779
I1
sS'invention'
p1780
I1
sS'cards'
p1781
I2
sS'outcome'
p1782
I1
sS'sculpture'
p1783
I2
sS'bridge'
p1784
I1
sS'fowl'
p1785
I1
sS'deodorant'
p1786
I1
sS'ages'
p1787
I1
sS'mine'
p1788
I1
sS'pedometer'
p1789
I1
sS'tastes'
p1790
I1
sS'shrubs'
p1791
I1
sS'spectacle'
p1792
I1
sS'allen'
p1793
I1
sS'handicraft'
p1794
I1
sS'harper'
p1795
I1
sS'chiropodist'
p1796
I1
sS'soap'
p1797
I2
sS'play'
p1798
I4
sS'thrilled'
p1799
I1
sS'object'
p1800
I1
sS'cigarette'
p1801
I2
sS'regular'
p1802
I1
sS'letter'
p1803
I5
sS'exercises'
p1804
I1
sS'coin'
p1805
I1
sS'class'
p1806
I2
sS'synonym'
p1807
I1
sS'cover'
p1808
I1
sS'dog'
p1809
I2
sS'scotch'
p1810
I1
sS'dot'
p1811
I1
sS'charley'
p1812
I1
sS'golf'
p1813
I1
sS'phenomenon'
p1814
I2
sS'show'
p1815
I1
sS'queen'
p1816
I2
sS'recipe'
p1817
I1
sS'colors'
p1818
I7
sS'fear'
p1819
I62
sS'albums'
p1820
I1
sS'livestock'
p1821
I1
sS'resource'
p1822
I1
sS'ruin'
p1823
I1
sS'winner'
p1824
I1
sS'penalty'
p1825
I1
sS'molecules'
p1826
I1
sS'fuel'
p1827
I2
sS'circle'
p1828
I1
sS'hit'
p1829
I1
sS'commodity'
p1830
I1
sS'bear'
p1831
I1
sS'words'
p1832
I4
sS'tips'
p1833
I1
sS'bar'
p1834
I1
sS'organ'
p1835
I1
sS'encounters'
p1836
I1
sS'saliva'
p1837
I1
sS'method'
p1838
I2
sS'penguins'
p1839
I1
sS'roger'
p1840
I1
sS'abolitionists'
p1841
I1
sS'disaster'
p1842
I1
sS'tree'
p1843
I1
sS'farrier'
p1844
I1
sS'ancients'
p1845
I1
sS'humans'
p1846
I1
sS'sex'
p1847
I2
sS'cologne'
p1848
I1
sS'computer'
p1849
I2
sS'seal'
p1850
I1
sS'explosive'
p1851
I1
sS'sport'
p1852
I17
sS'ways'
p1853
I6
sS'movie'
p1854
I17
sS'review'
p1855
I1
sS'stories'
p1856
I1
sS'gemstone'
p1857
I1
sS'latin'
p1858
I1
sS'tristan'
p1859
I1
sS'ability'
p1860
I1
sS't.v.'
p1861
I1
sS'first-aid'
p1862
I1
sS'piece'
p1863
I2
sS'drug'
p1864
I4
sS'connection'
p1865
I1
sS'games'
p1866
I2
sS'berry'
p1867
I1
sS'faces'
p1868
I1
sS'witch'
p1869
I1
sS'heliologist'
p1870
I1
sS'statues'
p1871
I1
sS'cancer'
p1872
I2
sS'color'
p1873
I28
sS'period'
p1874
I1
sS'cult'
p1875
I1
sS'pole'
p1876
I1
sS'vessel'
p1877
I1
sS'belt'
p1878
I1
sS'conference'
p1879
I1
sS'hawkins'
p1880
I1
sS'instrument'
p1881
I5
sS'trilogy'
p1882
I1
sS'trademark'
p1883
I2
sS'mark'
p1884
I1
sS'submarine'
p1885
I1
sS'beer'
p1886
I4
sS'treat'
p1887
I1
sS'board'
p1888
I2
sS'flight'
p1889
I1
sS'ridder'
p1890
I1
sS'locations'
p1891
I1
sS'tiger'
p1892
I1
sS'bible'
p1893
I1
sS'expedition'
p1894
I1
sS'ravens'
p1895
I1
sS'jell-o'
p1896
I1
sS'sound'
p1897
I1
sS'novel'
p1898
I22
sS'value'
p1899
I1
sS'droppings'
p1900
I1
sS'newspaper'
p1901
I4
sS'procedure'
p1902
I1
sS'layer'
p1903
I1
sS'calculator'
p1904
I1
sS'player'
p1905
I1
sS'alphabet'
p1906
I1
sS'bowl'
p1907
I1
sS'member'
p1908
I1
sS'esquire'
p1909
I1
sS'vegetable'
p1910
I2
sS'document'
p1911
I1
sS'composition'
p1912
I1
sS'week'
p1913
I1
sS'ball'
p1914
I2
sS'drink'
p1915
I17
sS'huston'
p1916
I1
sS'holidays'
p1917
I1
sS'fruit'
p1918
I1
sS'statue'
p1919
I1
sS'whale'
p1920
I2
sS'nickname'
p1921
I1
sS'tune'
p1922
I1
sS'kid'
p1923
I1
sS'smokey'
p1924
I1
sS'peacocks'
p1925
I1
sS'weapon'
p1926
I4
sS'variety'
p1927
I1
sS'game'
p1928
I7
sS'ocean'
p1929
I1
sS'materials'
p1930
I1
sS'components'
p1931
I1
sS'model'
p1932
I1
sS'musical'
p1933
I2
sS'deltiologist'
p1934
I1
sS'plagues'
p1935
I1
sS'traditions'
p1936
I1
sS'money'
p1937
I3
sS'racehorse'
p1938
I1
sS'basophobic'
p1939
I1
sS'product'
p1940
I8
sS'shape'
p1941
I2
sS'flavor'
p1942
I1
sS'ads'
p1943
I1
sS'alternate'
p1944
I1
sS'source'
p1945
I1
sS'treatment'
p1946
I1
sS'crack'
p1947
I1
sS'visine'
p1948
I1
sS'earthquakes'
p1949
I1
sS'metalious'
p1950
I1
sS'tenses'
p1951
I1
sS'format'
p1952
I2
sS'sailors'
p1953
I1
sS'bands'
p1954
I1
sS'bid'
p1955
I1
sS'suffering'
p1956
I1
sS'gama'
p1957
I1
sS'world'
p1958
I1
sS'knox'
p1959
I1
sS'boob'
p1960
I1
sS'meat'
p1961
I1
sS'kennedy'
p1962
I1
sS'eidologist'
p1963
I1
sS'clay'
p1964
I1
sS'wonders'
p1965
I2
sS'pyramid-builders'
p1966
I1
sS'jews'
p1967
I1
sS'people'
p1968
I1
sS'hair'
p1969
I3
sS'export'
p1970
I1
sS'brontosauruses'
p1971
I1
sS'hurricane'
p1972
I1
sS'ice'
p1973
I1
sS'religion'
p1974
I2
sS'shakespeare'
p1975
I1
sS'epic'
p1976
I1
sS'measures'
p1977
I1
sS'rum'
p1978
I1
sS'equivalent'
p1979
I1
sS'slaughter'
p1980
I1
sS'vaccine'
p1981
I1
sS'trophy'
p1982
I2
sS'maclaine'
p1983
I1
sS'resurrectionist'
p1984
I1
sS'concerts'
p1985
I1
sS'magazine'
p1986
I7
sS'camels'
p1987
I1
sS'cartier'
p1988
I1
sS'emperor'
p1989
I1
sS'software'
p1990
I1
sS'letters'
p1991
I1
sS'washington'
p1992
I1
sS'device'
p1993
I2
sS'brush'
p1994
I1
sS'strip'
p1995
I3
sS'methods'
p1996
I1
sS'vegetables'
p1997
I1
sS'tennis'
p1998
I1
sS'cats'
p1999
I2
sS'bros.'
p2000
I1
sS'way'
p2001
I9
sS'suit'
p2002
I1
sS'war'
p2003
I12
sS'warlock'
p2004
I1
sS'medium'
p2005
I3
sS'form'
p2006
I2
sS'brand'
p2007
I1
sS'sequel'
p2008
I3
sS'oil'
p2009
I1
sS'principles'
p2010
I1
sS'observances'
p2011
I1
sS'line'
p2012
I1
sS'ear'
p2013
I1
sS'spice'
p2014
I1
sS'manatees'
p2015
I1
sS'limit'
p2016
I1
sS'stages'
p2017
I1
sS'condiment'
p2018
I2
sS'palate'
p2019
I1
sS'classic'
p2020
I1
sS'taste'
p2021
I1
sS'strips'
p2022
I1
sS'disease'
p2023
I11
sS'gland'
p2024
I1
sS'majal'
p2025
I1
sS'ship'
p2026
I3
sS'film'
p2027
I23
sS'ingredients'
p2028
I1
sS'trials'
p2029
I2
sS'actor'
p2030
I1
sS'snakes'
p2031
I1
sS'field'
p2032
I1
sS'book'
p2033
I21
sS'jong'
p2034
I1
sS'mayonnaise'
p2035
I1
sS'elements'
p2036
I4
sS'kinds'
p2037
I1
sS'brothers'
p2038
I1
sS'congress'
p2039
I1
sS'symbol'
p2040
I3
sS'lens'
p2041
I1
sS'structure'
p2042
I1
sS'age'
p2043
I1
sS'vehicles'
p2044
I1
sS'flatfish'
p2045
I1
sS'feud'
p2046
I1
sS'fastener'
p2047
I1
sS'craft'
p2048
I1
sS'menace'
p2049
I1
sS'songs'
p2050
I2
stp2051
Rp2052
(dp2053
g26
I1250
sg76
Nsg77
Nsg78
Nsbsg79
I1487
sg80
F1993.5
sbs(g14
g81
tp2054
g0
(g21
g2
Ntp2055
Rp2056
(dp2057
g25
F0.5
sg26
I75
sg27
g0
(g28
g29
(dp2058
g31
I58
sS'expectancy'
p2059
I3
sS'span'
p2060
I1
sS'office'
p2061
I1
sS'time'
p2062
I4
sS'age'
p2063
I7
sS'period'
p2064
I1
stp2065
Rp2066
(dp2067
g26
I75
sg76
Nsg77
Nsg78
Nsbsg79
I1487
sg80
F818.5
sbs(g12
g19
tp2068
g0
(g21
g2
Ntp2069
Rp2070
(dp2071
g25
F0.5
sg26
I218
sg27
g0
(g28
g29
(dp2072
g31
I35
sS'ambassador'
p2073
I1
sS'show'
p2074
I1
sS'royal'
p2075
I1
sS'revolutionaries'
p2076
I1
sS'period'
p2077
I1
sS'month'
p2078
I6
sS'battle'
p2079
I1
sS'www.questions.com'
p2080
I1
sS'use'
p2081
I1
sS'group'
p2082
I1
sS'troops'
p2083
I1
sS'start'
p2084
I2
sS'visit'
p2085
I1
sS'live'
p2086
I1
sS'labor'
p2087
I1
sS'paint'
p2088
I1
sS'attack'
p2089
I1
sS'music'
p2090
I1
sS'teenager'
p2091
I1
sS'mutiny'
p2092
I1
sS'woman'
p2093
I1
sS'get'
p2094
I2
sS'fire'
p2095
I2
sS'season'
p2096
I3
sS'company'
p2097
I1
sS'broadcast'
p2098
I2
sS'glass'
p2099
I1
sS'railroad'
p2100
I1
sS'believe'
p2101
I1
sS'day'
p2102
I9
sS'women'
p2103
I1
sS'steel'
p2104
I1
sS'die'
p2105
I1
sS'air'
p2106
I2
sS'heart'
p2107
I1
sS'erupt'
p2108
I1
sS'become'
p2109
I3
sS'supercontinent'
p2110
I1
sS'control'
p2111
I1
sS'menstruation'
p2112
I1
sS'art'
p2113
I2
sS'concert'
p2114
I1
sS'century'
p2115
I3
sS'house'
p2116
I1
sS'year'
p2117
I44
sS'humans'
p2118
I1
sS'direct'
p2119
I1
sS'mormons'
p2120
I1
sS'born'
p2121
I9
sS'flush'
p2122
I1
sS'film'
p2123
I1
sS'neanderthal'
p2124
I1
sS'end'
p2125
I2
sS'camcorders'
p2126
I1
sS'publish'
p2127
I1
sS'write'
p2128
I1
sS'flood'
p2129
I1
sS'millennium'
p2130
I1
sS'test'
p2131
I1
sS'gate'
p2132
I1
sS'leader'
p2133
I1
sS'begin'
p2134
I3
sS'power'
p2135
I1
sS'eruption'
p2136
I3
sS'commercial'
p2137
I1
sS'combustion'
p2138
I1
sS'shorn'
p2139
I1
sS'date'
p2140
I13
sS'seasons'
p2141
I1
sS'come'
p2142
I1
sS'winter'
p2143
I2
sS'dates'
p2144
I1
sS'accident'
p2145
I1
sS'stricken'
p2146
I1
sS'birthday'
p2147
I4
sS'encyclopedia'
p2148
I1
sS'advertising'
p2149
I1
sS'time'
p2150
I6
sS'built'
p2151
I1
sS'painting'
p2152
I1
sS'vesuvius'
p2153
I1
stp2154
Rp2155
(dp2156
g26
I218
sg76
Nsg77
Nsg78
Nsbsg79
I1449
sg80
F942.5
sbs(g9
g81
tp2157
g0
(g21
g2
Ntp2158
Rp2159
(dp2160
g25
F0.5
sg26
I1034
sg27
g0
(g28
g29
(dp2161
g31
I111
sS'detective'
p2162
I1
sS'coach'
p2163
I3
sS'founder'
p2164
I1
sS'ali'
p2165
I1
sS'feminist'
p2166
I1
sS'queen'
p2167
I3
sS'people'
p2168
I3
sS'hamlet'
p2169
I1
sS'themes'
p2170
I1
sS'manager'
p2171
I2
sS'radio'
p2172
I1
sS'finn'
p2173
I1
sS'battle'
p2174
I1
sS'nephew'
p2175
I1
sS'chair'
p2176
I1
sS'captain'
p2177
I1
sS'children'
p2178
I1
sS'occupation'
p2179
I5
sS'baseball'
p2180
I8
sS'chain'
p2181
I1
sS'title'
p2182
I4
sS'electricity'
p2183
I1
sS'jolson'
p2184
I1
sS'father'
p2185
I7
sS'viagra'
p2186
I1
sS'hockey'
p2187
I1
sS'crooner'
p2188
I1
sS'pride'
p2189
I1
sS'pickering'
p2190
I2
sS'bestselling'
p2191
I1
sS'lady'
p2192
I1
sS'count'
p2193
I1
sS'stonehenge'
p2194
I1
sS'woman'
p2195
I10
sS'hit'
p2196
I1
sS'song'
p2197
I2
sS'renaud'
p2198
I1
sS'sons'
p2199
I1
sS'diary'
p2200
I1
sS'tammy'
p2201
I1
sS'gogh'
p2202
I1
sS'surgeon'
p2203
I1
sS'tutu'
p2204
I2
sS'abby'
p2205
I1
sS'chapel'
p2206
I1
sS'prize'
p2207
I1
sS'airman'
p2208
I1
sS'artist'
p2209
I2
sS'positions'
p2210
I1
sS'celebrity'
p2211
I1
sS'macdowell'
p2212
I1
sS'brother'
p2213
I2
sS'grandfather'
p2214
I1
sS'team'
p2215
I3
sS'guy'
p2216
I1
sS'astronaut'
p2217
I3
sS'athlete'
p2218
I1
sS'husband'
p2219
I1
sS'secretary'
p2220
I2
sS'kemper'
p2221
I1
sS'advocate'
p2222
I1
sS'malick'
p2223
I1
sS'force'
p2224
I1
sS'leaders'
p2225
I1
sS'cohan'
p2226
I1
sS'creator'
p2227
I2
sS'maggio'
p2228
I1
sS'horsemen'
p2229
I1
sS'wrestling'
p2230
I1
sS'nun'
p2231
I1
sS'lion'
p2232
I1
sS'video'
p2233
I2
sS'lawyer'
p2234
I8
sS'nba'
p2235
I1
sS'monster'
p2236
I1
sS'golfer'
p2237
I3
sS'power'
p2238
I2
sS'laureate'
p2239
I1
sS'debate'
p2240
I1
sS'election'
p2241
I1
sS'genius'
p2242
I1
sS'fans'
p2243
I1
sS'finger'
p2244
I1
sS'new'
p2245
I1
sS'badge'
p2246
I1
sS'admiral'
p2247
I1
sS'advertizing'
p2248
I1
sS'hero'
p2249
I1
sS'astroturf'
p2250
I1
sS'faith'
p2251
I1
sS'funeral'
p2252
I1
sS'theresa'
p2253
I1
sS'boss'
p2254
I1
sS'guitar'
p2255
I1
sS'ranger'
p2256
I2
sS'job'
p2257
I3
sS'dubliners'
p2258
I1
sS'witch'
p2259
I1
sS'pub'
p2260
I1
sS'opposition'
p2261
I1
sS'jockey'
p2262
I2
sS'benson'
p2263
I1
sS'jfk'
p2264
I1
sS'toothbrush'
p2265
I1
sS'goodall'
p2266
I1
sS'daughter'
p2267
I2
sS'survivor'
p2268
I1
sS'career'
p2269
I1
sS'jinnah'
p2270
I1
sS'cup'
p2271
I1
sS'monk'
p2272
I1
sS'rams'
p2273
I1
sS'gymnast'
p2274
I1
sS'games'
p2275
I1
sS'mentor'
p2276
I2
sS'rose'
p2277
I1
sS'napolean'
p2278
I1
sS'patents'
p2279
I1
sS'andrews'
p2280
I1
sS'holmes'
p2281
I1
sS'writer'
p2282
I5
sS'members'
p2283
I1
sS'maclaine'
p2284
I1
sS'potlatch'
p2285
I1
sS'battery'
p2286
I1
sS'presidents'
p2287
I2
sS'lyricist'
p2288
I1
sS'colony'
p2289
I1
sS'mccain'
p2290
I1
sS'pyramid'
p2291
I1
sS'husbands'
p2292
I1
sS'names'
p2293
I11
sS'composer'
p2294
I3
sS'church'
p2295
I1
sS'table'
p2296
I1
sS'singing'
p2297
I3
sS'bra'
p2298
I1
sS'lime'
p2299
I1
sS'turkey'
p2300
I1
sS'poem'
p2301
I1
sS'dna'
p2302
I1
sS'nominee'
p2303
I1
sS'swimmer'
p2304
I1
sS'thor'
p2305
I1
sS'newscast'
p2306
I1
sS'resident'
p2307
I1
sS'wonderbra'
p2308
I1
sS'music'
p2309
I1
sS'mutiny'
p2310
I1
sS'tv'
p2311
I8
sS'butler'
p2312
I1
sS'nicolet'
p2313
I1
sS'angels'
p2314
I1
sS'naples'
p2315
I1
sS'teenager'
p2316
I1
sS'engine'
p2317
I1
sS'life'
p2318
I2
sS'deodorant'
p2319
I1
sS'fellow'
p2320
I1
sS'champion'
p2321
I1
sS'cobain'
p2322
I1
sS'cop'
p2323
I1
sS'tootsie'
p2324
I1
sS'company'
p2325
I1
sS'citizen'
p2326
I3
sS'award'
p2327
I2
sS'buxom'
p2328
I1
sS'bible'
p2329
I1
sS'stethoscope'
p2330
I1
sS'minister'
p2331
I7
sS'child'
p2332
I2
sS'baby'
p2333
I1
sS'antichrist'
p2334
I1
sS'general'
p2335
I8
sS'iii'
p2336
I1
sS'painter'
p2337
I4
sS'women'
p2338
I1
sS'physician'
p2339
I1
sS'hughes'
p2340
I1
sS'bernstein'
p2341
I1
sS'word'
p2342
I1
sS'room'
p2343
I1
sS'rights'
p2344
I1
sS'barroom'
p2345
I1
sS'confucius'
p2346
I1
sS'bill'
p2347
I1
sS'worm'
p2348
I1
sS'governor'
p2349
I3
sS'stalin'
p2350
I1
sS'morgan'
p2351
I1
sS'thrillers'
p2352
I1
sS'santos-dumont'
p2353
I1
sS'nino'
p2354
I1
sS'cone'
p2355
I1
sS'spy'
p2356
I2
sS'inventor'
p2357
I2
sS'performer'
p2358
I1
sS'figure'
p2359
I1
sS'hyatt'
p2360
I1
sS'process'
p2361
I1
sS'speech'
p2362
I1
sS'frickett'
p2363
I1
sS'commander'
p2364
I1
sS'player'
p2365
I1
sS'villain'
p2366
I2
sS'numbers'
p2367
I1
sS'partner'
p2368
I1
sS'voice'
p2369
I1
sS'freleng'
p2370
I1
sS'autobiography'
p2371
I3
sS'terrorist'
p2372
I1
sS'doctor'
p2373
I3
sS'wordsworth'
p2374
I1
sS'liston'
p2375
I1
sS'machine'
p2376
I1
sS'picts'
p2377
I1
sS'writers'
p2378
I1
sS'cardinal'
p2379
I1
sS'skater'
p2380
I1
sS'monarch'
p2381
I2
sS'nnp'
p2382
I1
sS'powell'
p2383
I1
sS'daughters'
p2384
I1
sS'inventors'
p2385
I1
sS'cyberspace'
p2386
I1
sS'designer'
p2387
I2
sS'cupboard'
p2388
I1
sS'explorer'
p2389
I2
sS'information'
p2390
I1
sS'appearances'
p2391
I1
sS'soldier'
p2392
I1
sS'youngsters'
p2393
I1
sS'collection'
p2394
I1
sS'shores'
p2395
I1
sS'director'
p2396
I5
sS'characters'
p2397
I1
sS'senator'
p2398
I2
sS'president'
p2399
I49
sS'lap'
p2400
I1
sS'cartoon'
p2401
I2
sS'identity'
p2402
I3
sS'man'
p2403
I6
sS'rommel'
p2404
I1
sS'muppets'
p2405
I2
sS'surfboard'
p2406
I1
sS'vice-president'
p2407
I3
sS'author'
p2408
I8
sS'volleyball'
p2409
I1
sS'antonio'
p2410
I1
sS'person'
p2411
I9
sS'nebbish'
p2412
I1
sS'mother'
p2413
I4
sS'genie'
p2414
I1
sS'lindbergh'
p2415
I1
sS'order'
p2416
I1
sS'ambassador'
p2417
I1
sS'no.'
p2418
I1
sS'guitarist'
p2419
I1
sS'monet'
p2420
I1
sS'khrushchev'
p2421
I1
sS'actress'
p2422
I13
sS'dose'
p2423
I1
sS'palpatine'
p2424
I1
sS'batteries'
p2425
I1
sS'tennis'
p2426
I1
sS'costume'
p2427
I1
sS'harrison'
p2428
I1
sS'world'
p2429
I1
sS'oswald'
p2430
I2
sS'mayor'
p2431
I4
sS'bunch'
p2432
I1
sS'member'
p2433
I4
sS'self-portrait'
p2434
I1
sS'superstar'
p2435
I1
sS'shortstop'
p2436
I1
sS'ticker'
p2437
I1
sS'character'
p2438
I13
sS'pines'
p2439
I1
sS'winners'
p2440
I1
sS'dwarfs'
p2441
I1
sS'personas'
p2442
I1
sS'founders'
p2443
I1
sS'speaker'
p2444
I1
sS'cinzano'
p2445
I1
sS'norway'
p2446
I1
sS'gestapo'
p2447
I1
sS'fool'
p2448
I1
sS'couple'
p2449
I1
sS'credit'
p2450
I1
sS'hunter'
p2451
I2
sS'comedienne'
p2452
I2
sS'game'
p2453
I2
sS'boxer'
p2454
I2
sS'thucydides'
p2455
I1
sS'press'
p2456
I1
sS'picasso'
p2457
I1
sS'brothers'
p2458
I2
sS'cage'
p2459
I1
sS'day'
p2460
I1
sS'd.a.'
p2461
I1
sS'mystery'
p2462
I1
sS'martyrs'
p2463
I1
sS'attorneys'
p2464
I1
sS'name'
p2465
I69
sS'kennedy'
p2466
I1
sS'mathematician'
p2467
I1
sS'pillar'
p2468
I1
sS'commanders'
p2469
I1
sS'clown'
p2470
I1
sS'officer'
p2471
I1
sS'lawnmower'
p2472
I1
sS'paganini'
p2473
I1
sS'pseudonym'
p2474
I2
sS'normans'
p2475
I1
sS'x-man'
p2476
I1
sS'fatman'
p2477
I1
sS'www'
p2478
I1
sS'commune'
p2479
I1
sS'series'
p2480
I1
sS'kane'
p2481
I1
sS'hawaii'
p2482
I1
sS'oscars'
p2483
I2
sS'scrabble'
p2484
I1
sS'archenemy'
p2485
I1
sS'biographer'
p2486
I1
sS'laboratory'
p2487
I1
sS'girl'
p2488
I1
sS'salesman'
p2489
I1
sS'message'
p2490
I1
sS'witness'
p2491
I1
sS'bacall'
p2492
I1
sS'arch-enemy'
p2493
I1
sS'actor'
p2494
I13
sS'god'
p2495
I2
sS'quotation'
p2496
I1
sS'horoscope'
p2497
I1
sS'opener'
p2498
I1
sS'fountain'
p2499
I1
sS'boat'
p2500
I1
sS'cnn'
p2501
I1
sS'yankee'
p2502
I1
sS'leader'
p2503
I14
sS'gandhi'
p2504
I1
sS'foundation'
p2505
I1
sS'theory'
p2506
I1
sS'barrier'
p2507
I1
sS'dracula'
p2508
I1
sS'bowling'
p2509
I1
sS'weir'
p2510
I1
sS'hulk'
p2511
I1
sS'darius'
p2512
I1
sS'host'
p2513
I1
sS'putty'
p2514
I1
sS'plea'
p2515
I1
sS'judson'
p2516
I1
sS'lyrics'
p2517
I1
sS'explorers'
p2518
I1
sS'vaccine'
p2519
I1
sS'revolutionary'
p2520
I1
sS'pike'
p2521
I1
sS'sister'
p2522
I2
sS'journalist'
p2523
I1
sS'hamed'
p2524
I1
sS'son-in-law'
p2525
I2
sS'cowboy'
p2526
I2
sS'prophet'
p2527
I5
sS'florida'
p2528
I1
sS'david'
p2529
I1
sS'strange'
p2530
I1
sS'american'
p2531
I2
sS'coronado'
p2532
I1
sS'editor'
p2533
I3
sS'gordon'
p2534
I1
sS'congressman'
p2535
I1
sS'emperor'
p2536
I1
sS'book'
p2537
I1
sS'nixon'
p2538
I1
sS'marlowe'
p2539
I1
sS'playwright'
p2540
I1
sS'superbowl'
p2541
I1
sS'fischer'
p2542
I1
sS'damocles'
p2543
I1
sS'image'
p2544
I1
sS'profession'
p2545
I4
sS'primary'
p2546
I1
sS'auh2o'
p2547
I1
sS'son'
p2548
I3
sS'feet'
p2549
I1
sS'rosanna-dana'
p2550
I1
sS'sailor'
p2551
I1
sS'weather'
p2552
I1
sS'ybarra'
p2553
I1
sS'owner'
p2554
I1
sS'comic'
p2555
I1
sS'engineer'
p2556
I2
sS'corporal'
p2557
I1
sS'grange'
p2558
I1
sS'story'
p2559
I2
sS'basketball'
p2560
I3
sS'lacan'
p2561
I1
sS'eriksen'
p2562
I1
sS'fields'
p2563
I1
sS'nickname'
p2564
I7
sS'sculptress'
p2565
I1
sS'night'
p2566
I3
sS'question'
p2567
I1
sS'vocalist'
p2568
I1
sS'carson'
p2569
I1
sS'synthesizer'
p2570
I1
sS'master'
p2571
I1
sS'sergeant'
p2572
I1
sS'way'
p2573
I2
sS'jaws'
p2574
I1
sS'dictator'
p2575
I3
sS'kid'
p2576
I2
sS'war'
p2577
I2
sS'friend'
p2578
I1
sS'beard'
p2579
I1
sS'jones'
p2580
I1
sS'eyes'
p2581
I1
sS'labianca'
p2582
I1
sS'hawking'
p2583
I1
sS'airwaves'
p2584
I1
sS'prewett'
p2585
I1
sS'circumnavigator'
p2586
I1
sS'make-up'
p2587
I1
sS'pitcher'
p2588
I1
sS'task'
p2589
I1
sS'poet'
p2590
I6
sS'part'
p2591
I3
sS'jordan'
p2592
I1
sS'tools'
p2593
I1
sS'mules'
p2594
I1
sS'boyfriend'
p2595
I1
sS'charcter'
p2596
I1
sS'king'
p2597
I12
sS'television'
p2598
I1
sS'ben'
p2599
I1
sS'dog'
p2600
I1
sS'players'
p2601
I1
sS'us'
p2602
I1
sS'record'
p2603
I2
sS'listeners'
p2604
I1
sS'architect'
p2605
I2
sS'williams'
p2606
I2
sS'vatican'
p2607
I2
sS'stardust'
p2608
I1
sS'prankster'
p2609
I1
sS'bridge'
p2610
I1
sS'surname'
p2611
I1
sS'moore'
p2612
I1
sS'clip'
p2613
I1
sS'look'
p2614
I1
sS'astaire'
p2615
I1
sS'premier'
p2616
I1
sS'unsafe'
p2617
I1
sS'head'
p2618
I2
sS'voices'
p2619
I1
sS'talking'
p2620
I1
sS'garfield'
p2621
I1
sS'comedian'
p2622
I9
sS'novelist'
p2623
I2
sS'quetzalcoatl'
p2624
I1
sS'realm'
p2625
I1
sS'cherokee'
p2626
I1
sS'collector'
p2627
I1
sS'steamboat'
p2628
I1
sS'parks'
p2629
I1
sS'bremer'
p2630
I1
sS'caesar'
p2631
I2
sS'role'
p2632
I6
sS'chairman'
p2633
I2
sS'forces'
p2634
I1
sS'president-to-be'
p2635
I1
sS'department'
p2636
I1
sS'panties'
p2637
I1
sS'medals'
p2638
I1
sS'dumpty'
p2639
I2
sS'conservationist'
p2640
I1
sS'star'
p2641
I4
sS'godfather'
p2642
I1
sS'death'
p2643
I1
sS'phonograph'
p2644
I1
sS'pendulum'
p2645
I1
sS'swampy'
p2646
I1
sS'reign'
p2647
I1
sS'letter'
p2648
I1
sS'nothing'
p2649
I1
sS'pope'
p2650
I2
sS'model'
p2651
I1
sS'ishmael'
p2652
I1
sS'brandt'
p2653
I1
sS'ghost'
p2654
I1
sS'dummy'
p2655
I1
sS'singer'
p2656
I5
sS'studio'
p2657
I1
sS'rogers'
p2658
I1
sS'wife'
p2659
I2
sS'duckling'
p2660
I1
sS'cover'
p2661
I1
sS'rockefeller'
p2662
I1
sS'ottawa'
p2663
I1
sS'almanac'
p2664
I1
sS'enterprise'
p2665
I1
sS'scoundrel'
p2666
I1
stp2667
Rp2668
(dp2669
g26
I1034
sg76
Nsg77
Nsg78
Nsbsg79
I1487
sg80
F1777.5
sbs(g10
g19
tp2670
g0
(g21
g2
Ntp2671
Rp2672
(dp2673
g25
F0.5
sg26
I835
sg27
g0
(g28
g29
(dp2674
g31
I97
sS'lobsters'
p2675
I1
sS'lyrics'
p2676
I3
sS'bocci'
p2677
I1
sS'actress'
p2678
I1
sS'hamlet'
p2679
I1
sS'seaport'
p2680
I3
sS'avenue'
p2681
I1
sS'find'
p2682
I1
sS'cartoon'
p2683
I1
sS'web'
p2684
I3
sS'birthplace'
p2685
I3
sS'group'
p2686
I3
sS'office'
p2687
I1
sS'gulf'
p2688
I1
sS'title'
p2689
I1
sS'point'
p2690
I1
sS'royal'
p2691
I1
sS'lake'
p2692
I2
sS'civil'
p2693
I1
sS'source'
p2694
I1
sS'book'
p2695
I1
sS'tape'
p2696
I1
sS'location'
p2697
I4
sS'prison'
p2698
I1
sS'piano'
p2699
I1
sS'soccer'
p2700
I1
sS'hat'
p2701
I1
sS'resources'
p2702
I1
sS'merchant'
p2703
I1
sS'case'
p2704
I2
sS'screensaver'
p2705
I1
sS'myth'
p2706
I1
sS'get'
p2707
I2
sS'surrounds'
p2708
I2
sS'dam'
p2709
I2
sS'capital'
p2710
I18
sS'photograph'
p2711
I1
sS'arch'
p2712
I1
sS'nation'
p2713
I3
sS'department'
p2714
I1
sS'tuberculosis'
p2715
I1
sS'world'
p2716
I10
sS'fractal'
p2717
I1
sS'suey'
p2718
I1
sS'room'
p2719
I1
sS'airports'
p2720
I1
sS'name'
p2721
I15
sS'countries'
p2722
I24
sS'opera'
p2723
I1
sS'glitters'
p2724
I1
sS'list'
p2725
I3
sS'hole'
p2726
I1
sS'bay'
p2727
I3
sS'miles'
p2728
I1
sS'steps'
p2729
I1
sS'cartoons'
p2730
I1
sS'rock'
p2731
I1
sS'found'
p2732
I1
sS'river'
p2733
I9
sS'ports'
p2734
I1
sS'province'
p2735
I2
sS'breweries'
p2736
I1
sS'art'
p2737
I1
sS'telescope'
p2738
I1
sS'ten'
p2739
I1
sS'apartments'
p2740
I1
sS'seas'
p2741
I1
sS'back'
p2742
I1
sS'rivers'
p2743
I2
sS'born'
p2744
I7
sS'street'
p2745
I3
sS'examples'
p2746
I1
sS'sea'
p2747
I5
sS'erupts'
p2748
I1
sS'home'
p2749
I6
sS'calendar'
p2750
I1
sS'sport'
p2751
I1
sS'constellation'
p2752
I3
sS'wander'
p2753
I1
sS'textiles'
p2754
I1
sS'guinea'
p2755
I1
sS'review'
p2756
I1
sS'sites'
p2757
I1
sS'research'
p2758
I1
sS'libraries'
p2759
I1
sS'state'
p2760
I54
sS'diamonds'
p2761
I1
sS'email'
p2762
I2
sS'subway'
p2763
I1
sS'body'
p2764
I3
sS'monarchs'
p2765
I1
sS'tallest'
p2766
I1
sS'cars'
p2767
I1
sS'answers'
p2768
I1
sS'monsters'
p2769
I1
sS'statistics'
p2770
I1
sS'sink'
p2771
I1
sS'groups'
p2772
I1
sS'address'
p2773
I6
sS'directions'
p2774
I1
sS'nationality'
p2775
I8
sS'canals'
p2776
I1
sS'cities'
p2777
I9
sS'come'
p2778
I2
sS'flytrap'
p2779
I1
sS'deserts'
p2780
I1
sS'publisher'
p2781
I1
sS'zoo'
p2782
I1
sS'anything'
p2783
I1
sS'restaurant'
p2784
I2
sS'country'
p2785
I118
sS'region'
p2786
I1
sS'adventures'
p2787
I1
sS'thing'
p2788
I1
sS'airport'
p2789
I1
sS'place'
p2790
I3
sS'islands'
p2791
I1
sS'weird'
p2792
I1
sS'hospital'
p2793
I1
sS'seeing'
p2794
I1
sS'tennis'
p2795
I1
sS'bell'
p2796
I1
sS'wall'
p2797
I1
sS'attractions'
p2798
I2
sS'county'
p2799
I3
sS'snowboard'
p2800
I1
sS'names'
p2801
I3
sS'coastal'
p2802
I1
sS'strip'
p2803
I1
sS'schematics'
p2804
I1
sS'lesson'
p2805
I1
sS'continent'
p2806
I7
sS'post'
p2807
I1
sS'city'
p2808
I89
sS'basketball'
p2809
I1
sS'span'
p2810
I1
sS'habitat'
p2811
I1
sS'quality'
p2812
I1
sS'area'
p2813
I3
sS'remains'
p2814
I1
sS'nickname'
p2815
I2
sS'museum'
p2816
I3
sS'people'
p2817
I3
sS'desert'
p2818
I5
sS'draft'
p2819
I1
sS'seafaring'
p2820
I1
sS'way'
p2821
I1
sS'ridge'
p2822
I1
sS'corpus'
p2823
I2
sS'territory'
p2824
I1
sS'meeting'
p2825
I1
sS'tourists'
p2826
I1
sS'empty'
p2827
I1
sS'possession'
p2828
I1
sS'mountains'
p2829
I2
sS'direction'
p2830
I3
sS'stadium'
p2831
I1
sS'ash'
p2832
I1
sS'flying'
p2833
I1
sS'contains'
p2834
I1
sS'listing'
p2835
I1
sS'waterways'
p2836
I1
sS'lists'
p2837
I1
sS'site'
p2838
I4
sS'chemicals'
p2839
I1
sS'part'
p2840
I3
sS'pecan'
p2841
I1
sS'line'
p2842
I1
sS'surrender'
p2843
I1
sS'dialing'
p2844
I1
sS'town'
p2845
I3
sS'wide'
p2846
I1
sS'kind'
p2847
I1
sS'target'
p2848
I1
sS'science'
p2849
I1
sS'ride'
p2850
I1
sS'originate'
p2851
I2
sS'tree'
p2852
I1
sS'devices'
p2853
I1
sS'nations'
p2854
I1
sS'planet'
p2855
I4
sS'movies'
p2856
I1
sS'mall'
p2857
I1
sS'individual'
p2858
I1
sS'wrestler'
p2859
I1
sS'island'
p2860
I3
sS'mountain'
p2861
I12
sS'mythology'
p2862
I1
sS'display'
p2863
I1
sS'history'
p2864
I2
sS'bridge'
p2865
I3
sS'pony'
p2866
I1
sS'tabs'
p2867
I1
sS'strait'
p2868
I1
sS'marijuana'
p2869
I1
sS'evidence'
p2870
I1
sS'states'
p2871
I5
sS'want'
p2872
I1
sS'southern'
p2873
I2
sS'concentration'
p2874
I1
sS'border'
p2875
I1
sS'eels'
p2876
I1
sS'court'
p2877
I2
sS'ukulele'
p2878
I1
sS'helium'
p2879
I1
sS'graduate'
p2880
I1
sS'website'
p2881
I1
sS'setting'
p2882
I1
sS'take'
p2883
I2
sS'online'
p2884
I2
sS'test'
p2885
I1
sS'residence'
p2886
I1
sS'status'
p2887
I1
sS'map'
p2888
I1
sS'begin'
p2889
I1
sS'hotel'
p2890
I1
sS'star'
p2891
I2
sS'brothers'
p2892
I2
sS'information'
p2893
I18
sS'singles'
p2894
I1
sS'park'
p2895
I2
sS'rail'
p2896
I1
sS'rain'
p2897
I1
sS'aborigines'
p2898
I1
sS'waterfall'
p2899
I1
sS'peak'
p2900
I1
sS'president'
p2901
I1
sS'stocks'
p2902
I1
sS'data'
p2903
I1
sS'grow'
p2904
I1
sS'building'
p2905
I4
sS'picture'
p2906
I1
sS'center'
p2907
I3
sS'attracts'
p2908
I1
sS'hang'
p2909
I1
sS'headquarters'
p2910
I4
sS'rule'
p2911
I1
sS'midi'
p2912
I1
sS'freeway'
p2913
I1
sS'person'
p2914
I1
sS'maintain'
p2915
I1
sS'official'
p2916
I1
sS'nuclear'
p2917
I1
sS'landmark'
p2918
I1
sS'comparisons'
p2919
I1
sS'spend'
p2920
I1
sS'bodies'
p2921
I1
sS'marvel'
p2922
I1
stp2923
Rp2924
(dp2925
g26
I835
sg76
Nsg77
Nsg78
Nsbsg79
I1449
sg80
F1559.5
sbs(g16
g19
tp2926
g0
(g21
g2
Ntp2927
Rp2928
(dp2929
g25
F0.5
sg26
I27
sg27
g0
(g28
g29
(dp2930
S'account'
p2931
I1
sS'target'
p2932
I1
sS'probability'
p2933
I2
sS'unemployment'
p2934
I1
sS'chances'
p2935
I2
sS'odds'
p2936
I3
sS'percent'
p2937
I2
sS'chance'
p2938
I1
sS'state'
p2939
I1
sS'fraction'
p2940
I2
sS'approval'
p2941
I1
sS'percentage'
p2942
I8
sS'children'
p2943
I2
stp2944
Rp2945
(dp2946
g26
I27
sg76
Nsg77
Nsg78
Nsbsg79
I1449
sg80
F751.5
sbs(g12
g81
tp2947
g0
(g21
g2
Ntp2948
Rp2949
(dp2950
g25
F0.5
sg26
I218
sg27
g0
(g28
g29
(dp2951
g31
I14
sS'ambassador'
p2952
I1
sS'helens'
p2953
I1
sS'clark'
p2954
I1
sS'show'
p2955
I1
sS'wall'
p2956
I1
sS'revolutionaries'
p2957
I1
sS'charles'
p2958
I1
sS'period'
p2959
I2
sS'month'
p2960
I3
sS'muhammad'
p2961
I1
sS'ussr'
p2962
I1
sS'americans'
p2963
I1
sS'hugo'
p2964
I1
sS'battle'
p2965
I2
sS'mill'
p2966
I1
sS'hitler'
p2967
I1
sS'transplant'
p2968
I1
sS'use'
p2969
I1
sS'group'
p2970
I1
sS'troops'
p2971
I1
sS'festival'
p2972
I1
sS'ruby'
p2973
I1
sS'attack'
p2974
I1
sS'labor'
p2975
I1
sS'window'
p2976
I1
sS'music'
p2977
I1
sS'teenager'
p2978
I1
sS'mutiny'
p2979
I1
sS'bill'
p2980
I1
sS'war'
p2981
I1
sS'engine'
p2982
I1
sS'israel'
p2983
I1
sS'woman'
p2984
I1
sS'fire'
p2985
I2
sS'dam'
p2986
I1
sS'company'
p2987
I1
sS'thatcher'
p2988
I1
sS'test'
p2989
I1
sS'slinky'
p2990
I1
sS'bible'
p2991
I1
sS'wedding'
p2992
I1
sS'railroad'
p2993
I1
sS'erected'
p2994
I1
sS'banner'
p2995
I1
sS'day'
p2996
I8
sS'bar-code'
p2997
I1
sS'nfl'
p2998
I1
sS'encyclopedia'
p2999
I1
sS'birthdate'
p3000
I1
sS'helen'
p3001
I2
sS'architecture'
p3002
I2
sS'man'
p3003
I1
sS'yemen'
p3004
I1
sS'amendment'
p3005
I1
sS'menstruation'
p3006
I1
sS'beethoven'
p3007
I2
sS'art'
p3008
I1
sS'osbourne'
p3009
I1
sS'century'
p3010
I3
sS'rousseau'
p3011
I1
sS'house'
p3012
I1
sS'fish'
p3013
I1
sS'humans'
p3014
I1
sS'spielberg'
p3015
I1
sS'mormons'
p3016
I1
sS'roosevelt'
p3017
I1
sS'year'
p3018
I45
sS'aeul'
p3019
I1
sS'depression'
p3020
I1
sS'toilet'
p3021
I1
sS'nostradamus'
p3022
I2
sS'christ'
p3023
I1
sS'amtrak'
p3024
I1
sS'barbie'
p3025
I1
sS'sun'
p3026
I1
sS'fraze'
p3027
I1
sS'concert'
p3028
I1
sS'www.questions.com'
p3029
I1
sS'flood'
p3030
I1
sS'millennium'
p3031
I1
sS'huxley'
p3032
I1
sS'season'
p3033
I4
sS'cnn'
p3034
I2
sS'gate'
p3035
I2
sS'ruth'
p3036
I1
sS'pastorius'
p3037
I1
sS'typewriter'
p3038
I1
sS'parthenon'
p3039
I1
sS'korea'
p3040
I1
sS'congress'
p3041
I1
sS'noriega'
p3042
I1
sS'journal'
p3043
I1
sS'eruption'
p3044
I1
sS'victoria'
p3045
I1
sS'control'
p3046
I1
sS'birthday'
p3047
I4
sS'awards'
p3048
I1
sS'date'
p3049
I13
sS'vesuvius'
p3050
I1
sS'weekend'
p3051
I1
sS'lindbergh'
p3052
I1
sS'camcorders'
p3053
I1
sS'broadcast'
p3054
I1
sS'dates'
p3055
I1
sS'accident'
p3056
I1
sS'pangaea'
p3057
I1
sS'i'
p3058
I1
sS'months'
p3059
I1
sS'florida'
p3060
I1
sS'rockefeller'
p3061
I1
sS'dow'
p3062
I1
sS'games'
p3063
I1
sS'advertising'
p3064
I1
sS'time'
p3065
I2
sS'shorn'
p3066
I1
sS'railway'
p3067
I1
sS'swimming'
p3068
I1
sS'microsoft'
p3069
I1
sS'nixon'
p3070
I3
stp3071
Rp3072
(dp3073
g26
I218
sg76
Nsg77
Nsg78
Nsbsg79
I1487
sg80
F961.5
sbs(g15
g19
tp3074
g0
(g21
g2
Ntp3075
Rp3076
(dp3077
g25
F0.5
sg26
I71
sg27
g0
(g28
g29
(dp3078
S'money'
p3079
I7
sS'cost'
p3080
I3
sS'year'
p3081
I1
sS'fine'
p3082
I1
sS'railroad'
p3083
I1
sS'wage'
p3084
I5
sS'beef'
p3085
I1
sS'stamp'
p3086
I2
sS'twenty'
p3087
I1
sS'debts'
p3088
I1
sS'increase'
p3089
I1
sS'state'
p3090
I1
sS'ton'
p3091
I1
sS'income'
p3092
I3
sS'party'
p3093
I1
sS'get'
p3094
I1
sS'fare'
p3095
I1
sS'junk'
p3096
I1
sS'exchange'
p3097
I2
sS'drugs'
p3098
I1
sS'price'
p3099
I4
sS'gas'
p3100
I1
sS'utilities'
p3101
I1
sS'tuberculosis'
p3102
I1
sS'ticket'
p3103
I2
sS'presidents'
p3104
I1
sS'bug'
p3105
I1
sS'salary'
p3106
I6
sS'daycare'
p3107
I2
sS'did'
p3108
I9
sS'tree'
p3109
I2
sS'contract'
p3110
I1
sS'person'
p3111
I1
sS'amount'
p3112
I2
sS'having'
p3113
I1
stp3114
Rp3115
(dp3116
g26
I71
sg76
Nsg77
Nsg78
Nsbsg79
I1449
sg80
F795.5
sbs(g13
g81
tp3117
g0
(g21
g2
Ntp3118
Rp3119
(dp3120
g25
F0.5
sg26
I189
sg27
g0
(g28
g29
(dp3121
g31
I21
sS'tribe'
p3122
I2
sS'colleges'
p3123
I1
sS'agency'
p3124
I1
sS'producer'
p3125
I3
sS'photoshop'
p3126
I1
sS'money'
p3127
I1
sS'seizure'
p3128
I1
sS'county'
p3129
I1
sS'businesses'
p3130
I1
sS'president'
p3131
I1
sS'super-teams'
p3132
I1
sS'toy'
p3133
I1
sS'group'
p3134
I9
sS'chain'
p3135
I1
sS'service'
p3136
I1
sS'army'
p3137
I1
sS'automobile'
p3138
I1
sS'trademark'
p3139
I1
sS'hockey'
p3140
I1
sS'piano'
p3141
I1
sS'store'
p3142
I3
sS'government'
p3143
I1
sS'company'
p3144
I23
sS'spumante'
p3145
I1
sS'railways'
p3146
I1
sS'chocolate'
p3147
I1
sS'band'
p3148
I1
sS'races'
p3149
I1
sS'schools'
p3150
I1
sS'line'
p3151
I1
sS'school'
p3152
I5
sS'name'
p3153
I10
sS'society'
p3154
I1
sS'car'
p3155
I1
sS'university'
p3156
I5
sS'companies'
p3157
I2
sS'record'
p3158
I2
sS'offices'
p3159
I1
sS'team'
p3160
I7
sS'radio'
p3161
I2
sS'nickname'
p3162
I1
sS'example'
p3163
I1
sS'pyramid'
p3164
I1
sS'force'
p3165
I1
sS'people'
p3166
I2
sS'culture'
p3167
I1
sS'college'
p3168
I10
sS'logo'
p3169
I1
sS'airplane'
p3170
I2
sS'enemies'
p3171
I1
sS'competitor'
p3172
I1
sS'network'
p3173
I1
sS'corporation'
p3174
I2
sS'manufacturers'
p3175
I1
sS'administration'
p3176
I1
sS'civilization'
p3177
I1
sS'bureau'
p3178
I1
sS'department'
p3179
I1
sS'party'
p3180
I3
sS'oil'
p3181
I1
sS'business'
p3182
I4
sS'court'
p3183
I1
sS'agencies'
p3184
I1
sS'isps'
p3185
I1
sS'cigarette'
p3186
I1
sS'baseball'
p3187
I2
sS'groups'
p3188
I1
sS'police'
p3189
I2
sS'motto'
p3190
I1
sS'bulls'
p3191
I1
sS'super'
p3192
I1
sS'card'
p3193
I1
sS'manufacturer'
p3194
I2
sS'league'
p3195
I3
sS'stereo'
p3196
I1
sS'challengers'
p3197
I1
sS'airline'
p3198
I1
sS'organization'
p3199
I7
sS'residents'
p3200
I1
stp3201
Rp3202
(dp3203
g26
I189
sg76
Nsg77
Nsg78
Nsbsg79
I1487
sg80
F932.5
sbs(g9
g19
tp3204
g0
(g21
g2
Ntp3205
Rp3206
(dp3207
g25
F0.5
sg26
I1034
sg27
g0
(g28
g29
(dp3208
g31
I207
sS'husband-and-wife'
p3209
I1
sS'coach'
p3210
I3
sS'founder'
p3211
I2
sS'show'
p3212
I2
sS'authors'
p3213
I1
sS'celebrities'
p3214
I2
sS'resistance'
p3215
I1
sS'invent'
p3216
I1
sS'leads'
p3217
I1
sS'code'
p3218
I1
sS'radio'
p3219
I2
sS'liberty'
p3220
I1
sS'soldiers'
p3221
I2
sS'chair'
p3222
I1
sS'captain'
p3223
I1
sS'milk'
p3224
I1
sS'staff'
p3225
I1
sS'apartment'
p3226
I1
sS'chain'
p3227
I1
sS'title'
p3228
I8
sS'electricity'
p3229
I1
sS'writer'
p3230
I4
sS'father'
p3231
I8
sS'fans'
p3232
I1
sS'literary'
p3233
I1
sS'regards'
p3234
I1
sS'theme'
p3235
I1
sS'program'
p3236
I1
sS'black'
p3237
I5
sS'present'
p3238
I2
sS'crooner'
p3239
I1
sS'communist'
p3240
I1
sS'quotation'
p3241
I1
sS'fences'
p3242
I1
sS'fax'
p3243
I1
sS'woman'
p3244
I12
sS'hit'
p3245
I3
sS'citizen'
p3246
I2
sS'translations'
p3247
I1
sS'kind'
p3248
I1
sS'bear'
p3249
I1
sS'millionaire'
p3250
I1
sS'sons'
p3251
I2
sS'diary'
p3252
I1
sS'borrower'
p3253
I1
sS'entries'
p3254
I1
sS'races'
p3255
I1
sS'surgeon'
p3256
I1
sS'dose'
p3257
I1
sS'prime'
p3258
I4
sS'bestselling'
p3259
I1
sS'artist'
p3260
I1
sS'positions'
p3261
I1
sS'marry'
p3262
I1
sS'brother'
p3263
I1
sS'grandfather'
p3264
I1
sS'yougurt'
p3265
I1
sS'sang'
p3266
I2
sS'shoplifts'
p3267
I1
sS'delegate'
p3268
I1
sS'barroom'
p3269
I1
sS'guy'
p3270
I1
sS'round'
p3271
I1
sS'husband'
p3272
I2
sS'secretary'
p3273
I1
sS'official'
p3274
I1
sS'temperance'
p3275
I1
sS'leaders'
p3276
I1
sS'ten'
p3277
I2
sS'creator'
p3278
I2
sS'canine'
p3279
I1
sS'seat'
p3280
I1
sS'trilogy'
p3281
I1
sS'governor'
p3282
I2
sS'lawyer'
p3283
I9
sS'wife'
p3284
I2
sS'tender'
p3285
I1
sS'folk'
p3286
I1
sS'cricketer'
p3287
I1
sS'stardom'
p3288
I1
sS'movie'
p3289
I4
sS'section'
p3290
I1
sS'havoc'
p3291
I1
sS'uniform'
p3292
I1
sS'election'
p3293
I2
sS'genius'
p3294
I1
sS'state'
p3295
I1
sS'won'
p3296
I1
sS'suspect'
p3297
I1
sS'finger'
p3298
I1
sS'occupation'
p3299
I5
sS'advertizing'
p3300
I1
sS'hero'
p3301
I1
sS'degree'
p3302
I1
sS'faith'
p3303
I2
sS'men'
p3304
I2
sS'boss'
p3305
I1
sS'guitar'
p3306
I1
sS'wild'
p3307
I1
sS'job'
p3308
I3
sS'dubliners'
p3309
I1
sS'baseball'
p3310
I10
sS'opposition'
p3311
I1
sS'boy'
p3312
I2
sS'voice'
p3313
I1
sS'daughter'
p3314
I2
sS'naval'
p3315
I1
sS'survivor'
p3316
I1
sS'money'
p3317
I1
sS'joke'
p3318
I1
sS'trader'
p3319
I1
sS'host'
p3320
I2
sS'reports'
p3321
I1
sS'tv'
p3322
I12
sS'jogging'
p3323
I1
sS'games'
p3324
I1
sS'defeat'
p3325
I1
sS'senator'
p3326
I1
sS'makes'
p3327
I1
sS'maker'
p3328
I1
sS'patents'
p3329
I1
sS'conservationist'
p3330
I1
sS'cruiser'
p3331
I1
sS'presidents'
p3332
I3
sS'lyricist'
p3333
I1
sS'colony'
p3334
I1
sS'supreme'
p3335
I1
sS'pop'
p3336
I1
sS'twin'
p3337
I1
sS'martyrs'
p3338
I1
sS'husbands'
p3339
I1
sS'names'
p3340
I6
sS'composer'
p3341
I3
sS'toys'
p3342
I1
sS'resident'
p3343
I1
sS'singing'
p3344
I2
sS'rugby'
p3345
I1
sS'conference'
p3346
I1
sS'poem'
p3347
I2
sS'spoke'
p3348
I1
sS'engines'
p3349
I1
sS'army'
p3350
I2
sS'acceptance'
p3351
I1
sS'newscast'
p3352
I1
sS'commission'
p3353
I1
sS'secret'
p3354
I1
sS'wood'
p3355
I1
sS'music'
p3356
I1
sS'films'
p3357
I2
sS'markets'
p3358
I1
sS'abstract'
p3359
I1
sS'empty'
p3360
I1
sS'door'
p3361
I1
sS'conductor'
p3362
I1
sS'cop'
p3363
I1
sS'tennis'
p3364
I1
sS'honorary'
p3365
I1
sS'inventions'
p3366
I1
sS'gas'
p3367
I1
sS'buxom'
p3368
I1
sS'pugilist'
p3369
I1
sS'train'
p3370
I1
sS'stethoscope'
p3371
I1
sS'minister'
p3372
I5
sS'child'
p3373
I1
sS'superstar'
p3374
I2
sS'gold'
p3375
I2
sS'instructor'
p3376
I1
sS'painter'
p3377
I3
sS'women'
p3378
I1
sS'sound'
p3379
I1
sS'novel'
p3380
I1
sS'look'
p3381
I1
sS'presidency'
p3382
I1
sS'rights'
p3383
I1
sS'car'
p3384
I1
sS'work'
p3385
I1
sS'worm'
p3386
I1
sS'honeymooners'
p3387
I1
sS'criticizing'
p3388
I1
sS'male'
p3389
I1
sS'spy'
p3390
I1
sS'compare'
p3391
I1
sS'pyramid'
p3392
I1
sS'bandleader'
p3393
I1
sS'figures'
p3394
I1
sS'figure'
p3395
I2
sS'century'
p3396
I2
sS'process'
p3397
I1
sS'commander'
p3398
I1
sS'middle'
p3399
I2
sS'villain'
p3400
I2
sS'protects'
p3401
I1
sS'numbers'
p3402
I1
sS'partner'
p3403
I1
sS'founding'
p3404
I1
sS'astronaut'
p3405
I3
sS'biography'
p3406
I1
sS'information'
p3407
I1
sS'polio'
p3408
I1
sS'soldier'
p3409
I1
sS'holds'
p3410
I2
sS'administration'
p3411
I1
sS'tour'
p3412
I1
sS'endurance'
p3413
I1
sS'member'
p3414
I5
sS'winners'
p3415
I1
sS'monarch'
p3416
I3
sS'duel'
p3417
I1
sS'stock'
p3418
I1
sS'designer'
p3419
I2
sS'explorer'
p3420
I2
sS'autobiography'
p3421
I1
sS'kennedy-nixon'
p3422
I1
sS'appearances'
p3423
I1
sS'youngsters'
p3424
I1
sS'despondent'
p3425
I1
sS'companion'
p3426
I1
sS'shores'
p3427
I1
sS'kidnaping'
p3428
I1
sS'characters'
p3429
I1
sS'president'
p3430
I19
sS'data'
p3431
I1
sS'cartoon'
p3432
I5
sS'identity'
p3433
I1
sS'man'
p3434
I9
sS'task'
p3435
I1
sS'whores'
p3436
I1
sS'surfboard'
p3437
I1
sS'doctor'
p3438
I3
sS'children'
p3439
I1
sS'person'
p3440
I9
sS'road'
p3441
I1
sS'mother'
p3442
I2
sS'position'
p3443
I1
sS'model'
p3444
I1
sS'order'
p3445
I1
sS'ambassador'
p3446
I1
sS'abilities'
p3447
I1
sS'office'
p3448
I1
sS'gods'
p3449
I1
sS'wedding'
p3450
I1
sS'actress'
p3451
I12
sS'years'
p3452
I3
sS'batteries'
p3453
I1
sS'paper'
p3454
I1
sS'costume'
p3455
I2
sS'replies'
p3456
I1
sS'mayor'
p3457
I5
sS'bombing'
p3458
I1
sS'underwater'
p3459
I1
sS'self-portrait'
p3460
I1
sS'call'
p3461
I1
sS'queen'
p3462
I2
sS'character'
p3463
I11
sS'housewife'
p3464
I1
sS'labor'
p3465
I1
sS'blob'
p3466
I1
sS'personas'
p3467
I1
sS'founders'
p3468
I1
sS'role'
p3469
I4
sS'scoundrel'
p3470
I3
sS'chairman'
p3471
I2
sS'fool'
p3472
I1
sS'missions'
p3473
I1
sS'food'
p3474
I1
sS'chancellor'
p3475
I1
sS'wives'
p3476
I1
sS'band'
p3477
I1
sS'game'
p3478
I2
sS'boxer'
p3479
I3
sS'hands'
p3480
I1
sS'press'
p3481
I1
sS'world'
p3482
I7
sS'lady'
p3483
I1
sS'term'
p3484
I1
sS'panties'
p3485
I1
sS'attorneys'
p3486
I1
sS'name'
p3487
I61
sS'success'
p3488
I1
sS'commanders'
p3489
I1
sS'clown'
p3490
I1
sS'theory'
p3491
I1
sS'victory'
p3492
I1
sS'lawnmower'
p3493
I1
sS'loco-motion'
p3494
I1
sS'inventors'
p3495
I1
sS'celebrity'
p3496
I2
sS'x-man'
p3497
I1
sS'mean'
p3498
I1
sS'people'
p3499
I7
sS'aerodynamics'
p3500
I1
sS'stern'
p3501
I1
sS'back'
p3502
I1
sS'borrow'
p3503
I1
sS'books'
p3504
I1
sS'archenemy'
p3505
I1
sS'home'
p3506
I3
sS'girl'
p3507
I3
sS'perfume'
p3508
I1
sS'try'
p3509
I2
sS'lead'
p3510
I2
sS'space'
p3511
I1
sS'vacuum'
p3512
I1
sS'horoscope'
p3513
I1
sS'opener'
p3514
I1
sS'fountain'
p3515
I1
sS'leader'
p3516
I13
sS'maneuver'
p3517
I1
sS'monster'
p3518
I1
sS'power'
p3519
I2
sS'rock'
p3520
I1
sS'pub'
p3521
I1
sS'appointments'
p3522
I1
sS'protagonist'
p3523
I1
sS'plea'
p3524
I1
sS'poems'
p3525
I1
sS'pitchers'
p3526
I1
sS'explorers'
p3527
I1
sS'fondness'
p3528
I1
sS'director'
p3529
I6
sS'sister'
p3530
I2
sS'son-in-law'
p3531
I2
sS'deer'
p3532
I1
sS'cowboy'
p3533
I1
sS'jeep'
p3534
I1
sS'prophet'
p3535
I4
sS'newspapers'
p3536
I1
sS'door-to-door'
p3537
I1
sS'times'
p3538
I1
sS'thing'
p3539
I1
sS'islands'
p3540
I1
sS'block'
p3541
I1
sS'playwright'
p3542
I1
sS'image'
p3543
I1
sS'cross-your-heart'
p3544
I1
sS'profession'
p3545
I4
sS'comedienne'
p3546
I2
sS'obscene'
p3547
I1
sS'son'
p3548
I4
sS'feet'
p3549
I1
sS'female'
p3550
I1
sS'strip'
p3551
I3
sS'owner'
p3552
I1
sS'message'
p3553
I1
sS'swimmer'
p3554
I1
sS'engineer'
p3555
I2
sS'bull'
p3556
I1
sS'jockey'
p3557
I1
sS'nickname'
p3558
I6
sS'sculptress'
p3559
I1
sS'night'
p3560
I1
sS'question'
p3561
I1
sS'player'
p3562
I3
sS'fought'
p3563
I1
sS'master'
p3564
I1
sS'author'
p3565
I9
sS'bounty'
p3566
I1
sS'dictator'
p3567
I2
sS'speaking'
p3568
I1
sS'head'
p3569
I3
sS'airwaves'
p3570
I1
sS'circumnavigator'
p3571
I1
sS'pitcher'
p3572
I1
sS'cabinet'
p3573
I1
sS'poet'
p3574
I5
sS'part'
p3575
I3
sS'biochemists'
p3576
I1
sS'mules'
p3577
I1
sS'line'
p3578
I1
sS'surrender'
p3579
I1
sS'inventor'
p3580
I2
sS'count'
p3581
I1
sS'king'
p3582
I4
sS'television'
p3583
I3
sS'made'
p3584
I1
sS'glory'
p3585
I1
sS'players'
p3586
I2
sS'project'
p3587
I1
sS'listeners'
p3588
I1
sS'architect'
p3589
I2
sS'friend'
p3590
I2
sS'prankster'
p3591
I1
sS'promises'
p3592
I1
sS'surname'
p3593
I1
sS'nominee'
p3594
I1
sS'pro'
p3595
I1
sS'premier'
p3596
I1
sS'toothbrush'
p3597
I1
sS'strips'
p3598
I1
sS'voices'
p3599
I1
sS'talking'
p3600
I1
sS'rent'
p3601
I1
sS'girlfriend'
p3602
I1
sS'sells'
p3603
I1
sS'novelist'
p3604
I2
sS'film'
p3605
I6
sS'sings'
p3606
I4
sS'dancing'
p3607
I1
sS'come-on'
p3608
I1
sS'lyrics'
p3609
I1
sS'guitarist'
p3610
I1
sS'actor'
p3611
I18
sS'reality'
p3612
I1
sS'majority'
p3613
I2
sS'book'
p3614
I4
sS'actors'
p3615
I1
sS'niece'
p3616
I1
sS'forces'
p3617
I1
sS'department'
p3618
I1
sS'victor'
p3619
I1
sS'pseudonym'
p3620
I2
sS'star'
p3621
I6
sS'brothers'
p3622
I2
sS'living'
p3623
I3
sS'football'
p3624
I1
sS'phonograph'
p3625
I1
sS'heroine'
p3626
I2
sS'inspiration'
p3627
I1
sS'singer'
p3628
I1
sS'studio'
p3629
I1
sS'vice'
p3630
I2
sS'cover'
p3631
I1
sS'dog'
p3632
I1
sS'reputation'
p3633
I1
sS'lives'
p3634
I3
sS'buffalo'
p3635
I1
sS'once'
p3636
I1
stp3637
Rp3638
(dp3639
g26
I1034
sg76
Nsg77
Nsg78
Nsbsg79
I1449
sg80
F1758.5
sbssS'_label_probdist'
p3640
g0
(g21
g2
Ntp3641
Rp3642
(dp3643
g25
F0.5
sg26
I4204
sg27
g0
(g28
g29
(dp3644
g15
I71
sg16
I27
sg11
I505
sg9
I1034
sg8
I1250
sg10
I835
sg14
I75
sg12
I218
sg13
I189
stp3645
Rp3646
(dp3647
g26
I4204
sg76
Nsg77
(lp3648
(g8
I1250
tp3649
a(g9
I1034
tp3650
a(g10
I835
tp3651
a(g11
I505
tp3652
a(g12
I218
tp3653
a(g13
I189
tp3654
a(g14
I75
tp3655
a(g15
I71
tp3656
a(g16
I27
tp3657
asg78
Nsbsg79
I9
sg80
F4208.5
sbsb.