ccopy_reg
_reconstructor
p0
(cnltk.classify.naivebayes
NaiveBayesClassifier
p1
c__builtin__
object
p2
Ntp3
Rp4
(dp5
S'_labels'
p6
(lp7
S'OTHER'
p8
aS'PERSON'
p9
aS'LOCATION'
p10
aS'NUMBER'
p11
aS'DATE'
p12
aS'ORGANIZATION'
p13
aS'TIME'
p14
aS'MONEY'
p15
aS'PERCENT'
p16
asS'_feature_probdist'
p17
(dp18
(g8
S'first'
p19
tp20
g0
(cnltk.probability
ELEProbDist
p21
g2
Ntp22
Rp23
(dp24
S'_gamma'
p25
F0.5
sS'_N'
p26
I1250
sS'_freqdist'
p27
g0
(cnltk.probability
FreqDist
p28
c__builtin__
dict
p29
(dp30
S'musician'
p31
I1
sS'names'
p32
I1
sS'winnie'
p33
I1
sS'who'
p34
I2
sS'mississippi'
p35
I1
sS'at'
p36
I1
sS'in'
p37
I19
sS'madonna'
p38
I2
sS'ray'
p39
I2
sS'a'
p40
I1
sS'on'
p41
I2
sS'what'
p42
I1112
sS'italy'
p43
I1
sS'name'
p44
I34
sS'for'
p45
I1
sS'how'
p46
I7
sS'when'
p47
I1
sS'jude'
p48
I2
sS'to'
p49
I2
sS'garry'
p50
I1
sS'which'
p51
I43
sS'stuart'
p52
I2
sS'the'
p53
I6
sS'where'
p54
I2
sS'aspartame'
p55
I3
stp56
Rp57
(dp58
g26
I1250
sS'_max_cache'
p59
NsS'_item_cache'
p60
NsS'_Nr_cache'
p61
NsbsS'_bins'
p62
I48
sS'_divisor'
p63
F1274.0
sbs(g14
g19
tp64
g0
(g21
g2
Ntp65
Rp66
(dp67
g25
F0.5
sg26
I75
sg27
g0
(g28
g29
(dp68
S'on'
p69
I1
sS'what'
p70
I14
sS'at'
p71
I1
sS'how'
p72
I57
sS'shea'
p73
I1
sS'the'
p74
I1
stp75
Rp76
(dp77
g26
I75
sg59
Nsg60
Nsg61
Nsbsg62
I48
sg63
F99.0
sbs(g13
g19
tp78
g0
(g21
g2
Ntp79
Rp80
(dp81
g25
F0.5
sg26
I189
sg27
g0
(g28
g29
(dp82
S'what'
p83
I137
sS'name'
p84
I14
sS'who'
p85
I15
sS'when'
p86
I1
sS'rotary'
p87
I2
sS'woodrow'
p88
I1
sS'whom'
p89
I1
sS'which'
p90
I16
sS'in'
p91
I1
sS'the'
p92
I1
stp93
Rp94
(dp95
g26
I189
sg59
Nsg60
Nsg61
Nsbsg62
I48
sg63
F213.0
sbs(g9
g19
tp96
g0
(g21
g2
Ntp97
Rp98
(dp99
g25
F0.5
sg26
I1034
sg27
g0
(g28
g29
(dp100
S'whose'
p101
I14
sS'what'
p102
I396
sS'name'
p103
I35
sS'saddam'
p104
I1
sS'who'
p105
I542
sS'when'
p106
I3
sS'rotary'
p107
I1
sS'whom'
p108
I3
sS'silly'
p109
I1
sS'which'
p110
I30
sS'in'
p111
I3
sS'cnn'
p112
I1
sS'president'
p113
I1
sS'the'
p114
I2
sS'with'
p115
I1
stp116
Rp117
(dp118
g26
I1034
sg59
Nsg60
Nsg61
Nsbsg62
I48
sg63
F1058.0
sbs(g16
g19
tp119
g0
(g21
g2
Ntp120
Rp121
(dp122
g25
F0.5
sg26
I27
sg27
g0
(g28
g29
(dp123
S'of'
p124
I1
sS'what'
p125
I25
sS'independent'
p126
I1
stp127
Rp128
(dp129
g26
I27
sg59
Nsg60
Nsg61
Nsbsg62
I48
sg63
F51.0
sbs(g10
g19
tp130
g0
(g21
g2
Ntp131
Rp132
(dp133
g25
F0.5
sg26
I835
sg27
g0
(g28
g29
(dp134
S'on'
p135
I5
sS'what'
p136
I523
sS'jackson'
p137
I2
sS'name'
p138
I7
sS'kosovo'
p139
I1
sS'when'
p140
I1
sS'mississippi'
p141
I1
sS'which'
p142
I16
sS'in'
p143
I18
sS'mccarren'
p144
I1
sS'the'
p145
I4
sS'where'
p146
I255
sS'tell'
p147
I1
stp148
Rp149
(dp150
g26
I835
sg59
Nsg60
Nsg61
Nsbsg62
I48
sg63
F859.0
sbs(g15
g19
tp151
g0
(g21
g2
Ntp152
Rp153
(dp154
g25
F0.5
sg26
I71
sg27
g0
(g28
g29
(dp155
S'how'
p156
I32
sS'what'
p157
I37
sS'dialing'
p158
I1
sS'by'
p159
I1
stp160
Rp161
(dp162
g26
I71
sg59
Nsg60
Nsg61
Nsbsg62
I48
sg63
F95.0
sbs(g11
g19
tp163
g0
(g21
g2
Ntp164
Rp165
(dp166
g25
F0.5
sg26
I505
sg27
g0
(g28
g29
(dp167
S'a'
p168
I1
sS'on'
p169
I1
sS'what'
p170
I105
sS'about'
p171
I2
sS'approximately'
p172
I2
sS'how'
p173
I390
sS'in'
p174
I1
sS'the'
p175
I1
sS'where'
p176
I2
stp177
Rp178
(dp179
g26
I505
sg59
Nsg60
Nsg61
Nsbsg62
I48
sg63
F529.0
sbs(g12
g19
tp180
g0
(g21
g2
Ntp181
Rp182
(dp183
g25
F0.5
sg26
I218
sg27
g0
(g28
g29
(dp184
S'on'
p185
I4
sS'what'
p186
I63
sS'boxing'
p187
I1
sS'when'
p188
I124
sS'in'
p189
I20
sS'cnn'
p190
I2
sS'the'
p191
I3
sS'hitler'
p192
I1
stp193
Rp194
(dp195
g26
I218
sg59
Nsg60
Nsg61
Nsbsg62
I48
sg63
F242.0
sbssS'_label_probdist'
p196
g0
(g21
g2
Ntp197
Rp198
(dp199
g25
F0.5
sg26
I4204
sg27
g0
(g28
g29
(dp200
g15
I71
sg16
I27
sg11
I505
sg9
I1034
sg8
I1250
sg10
I835
sg14
I75
sg12
I218
sg13
I189
stp201
Rp202
(dp203
g26
I4204
sg59
Nsg60
(lp204
(g8
I1250
tp205
a(g9
I1034
tp206
a(g10
I835
tp207
a(g11
I505
tp208
a(g12
I218
tp209
a(g13
I189
tp210
a(g14
I75
tp211
a(g15
I71
tp212
a(g16
I27
tp213
asg61
Nsbsg62
I9
sg63
F4208.5
sbsb.