ccopy_reg
_reconstructor
p0
(cnltk.classify.decisiontree
DecisionTreeClassifier
p1
c__builtin__
object
p2
Ntp3
Rp4
(dp5
S'_fname'
p6
S'first'
p7
sS'_label'
p8
S'OTHER'
p9
sS'_decisions'
p10
(dp11
S'shea'
p12
g0
(g1
g2
Ntp13
Rp14
(dp15
g6
Nsg8
S'TIME'
p16
sg10
NsS'_default'
p17
NsbsS'winnie'
p18
g0
(g1
g2
Ntp19
Rp20
(dp21
g6
Nsg8
S'OTHER'
p22
sg10
Nsg17
NsbsS'jackson'
p23
g0
(g1
g2
Ntp24
Rp25
(dp26
g6
Nsg8
S'LOCATION'
p27
sg10
Nsg17
NsbsS'at'
p28
g0
(g1
g2
Ntp29
Rp30
(dp31
g6
Nsg8
S'TIME'
p32
sg10
Nsg17
NsbsS'in'
p33
g0
(g1
g2
Ntp34
Rp35
(dp36
g6
Nsg8
S'DATE'
p37
sg10
Nsg17
NsbsS'madonna'
p38
g0
(g1
g2
Ntp39
Rp40
(dp41
g6
Nsg8
S'OTHER'
p42
sg10
Nsg17
NsbsS'hitler'
p43
g0
(g1
g2
Ntp44
Rp45
(dp46
g6
Nsg8
S'DATE'
p47
sg10
Nsg17
NsbsS'ray'
p48
g0
(g1
g2
Ntp49
Rp50
(dp51
g6
Nsg8
S'OTHER'
p52
sg10
Nsg17
NsbsS'whose'
p53
g0
(g1
g2
Ntp54
Rp55
(dp56
g6
Nsg8
S'PERSON'
p57
sg10
Nsg17
NsbsS'what'
p58
g0
(g1
g2
Ntp59
Rp60
(dp61
g6
Nsg8
S'OTHER'
p62
sg10
Nsg17
NsbsS'italy'
p63
g0
(g1
g2
Ntp64
Rp65
(dp66
g6
Nsg8
S'OTHER'
p67
sg10
Nsg17
NsbsS'for'
p68
g0
(g1
g2
Ntp69
Rp70
(dp71
g6
Nsg8
S'OTHER'
p72
sg10
Nsg17
NsbsS'whom'
p73
g0
(g1
g2
Ntp74
Rp75
(dp76
g6
Nsg8
S'PERSON'
p77
sg10
Nsg17
NsbsS'boxing'
p78
g0
(g1
g2
Ntp79
Rp80
(dp81
g6
Nsg8
S'DATE'
p82
sg10
Nsg17
NsbsS'when'
p83
g0
(g1
g2
Ntp84
Rp85
(dp86
g6
Nsg8
S'DATE'
p87
sg10
Nsg17
NsbsS'approximately'
p88
g0
(g1
g2
Ntp89
Rp90
(dp91
g6
Nsg8
S'NUMBER'
p92
sg10
Nsg17
NsbsS'dialing'
p93
g0
(g1
g2
Ntp94
Rp95
(dp96
g6
Nsg8
S'MONEY'
p97
sg10
Nsg17
NsbsS'to'
p98
g0
(g1
g2
Ntp99
Rp100
(dp101
g6
Nsg8
S'OTHER'
p102
sg10
Nsg17
NsbsS'garry'
p103
g0
(g1
g2
Ntp104
Rp105
(dp106
g6
Nsg8
S'OTHER'
p107
sg10
Nsg17
NsbsS'which'
p108
g0
(g1
g2
Ntp109
Rp110
(dp111
g6
Nsg8
S'OTHER'
p112
sg10
Nsg17
NsbsS'cnn'
p113
g0
(g1
g2
Ntp114
Rp115
(dp116
g6
Nsg8
S'DATE'
p117
sg10
Nsg17
NsbsS'tell'
p118
g0
(g1
g2
Ntp119
Rp120
(dp121
g6
Nsg8
S'LOCATION'
p122
sg10
Nsg17
NsbsS'aspartame'
p123
g0
(g1
g2
Ntp124
Rp125
(dp126
g6
Nsg8
S'OTHER'
p127
sg10
Nsg17
NsbsS'independent'
p128
g0
(g1
g2
Ntp129
Rp130
(dp131
g6
Nsg8
S'PERCENT'
p132
sg10
Nsg17
NsbsS'who'
p133
g0
(g1
g2
Ntp134
Rp135
(dp136
g6
Nsg8
S'PERSON'
p137
sg10
Nsg17
NsbsS'saddam'
p138
g0
(g1
g2
Ntp139
Rp140
(dp141
g6
Nsg8
S'PERSON'
p142
sg10
Nsg17
NsbsS'musician'
p143
g0
(g1
g2
Ntp144
Rp145
(dp146
g6
Nsg8
S'OTHER'
p147
sg10
Nsg17
NsbsS'mississippi'
p148
g0
(g1
g2
Ntp149
Rp150
(dp151
g6
Nsg8
S'OTHER'
p152
sg10
Nsg17
NsbsS'woodrow'
p153
g0
(g1
g2
Ntp154
Rp155
(dp156
g6
Nsg8
S'ORGANIZATION'
p157
sg10
Nsg17
NsbsS'how'
p158
g0
(g1
g2
Ntp159
Rp160
(dp161
g6
Nsg8
S'NUMBER'
p162
sg10
Nsg17
NsbsS'president'
p163
g0
(g1
g2
Ntp164
Rp165
(dp166
g6
Nsg8
S'PERSON'
p167
sg10
Nsg17
NsbsS'with'
p168
g0
(g1
g2
Ntp169
Rp170
(dp171
g6
Nsg8
S'PERSON'
p172
sg10
Nsg17
NsbsS'by'
p173
g0
(g1
g2
Ntp174
Rp175
(dp176
g6
Nsg8
S'MONEY'
p177
sg10
Nsg17
NsbsS'a'
p178
g0
(g1
g2
Ntp179
Rp180
(dp181
g6
Nsg8
S'OTHER'
p182
sg10
Nsg17
NsbsS'on'
p183
g0
(g1
g2
Ntp184
Rp185
(dp186
g6
Nsg8
S'LOCATION'
p187
sg10
Nsg17
NsbsS'about'
p188
g0
(g1
g2
Ntp189
Rp190
(dp191
g6
Nsg8
S'NUMBER'
p192
sg10
Nsg17
NsbsS'name'
p193
g0
(g1
g2
Ntp194
Rp195
(dp196
g6
Nsg8
S'PERSON'
p197
sg10
Nsg17
NsbsS'of'
p198
g0
(g1
g2
Ntp199
Rp200
(dp201
g6
Nsg8
S'PERCENT'
p202
sg10
Nsg17
NsbsS'rotary'
p203
g0
(g1
g2
Ntp204
Rp205
(dp206
g6
Nsg8
S'ORGANIZATION'
p207
sg10
Nsg17
NsbsS'jude'
p208
g0
(g1
g2
Ntp209
Rp210
(dp211
g6
Nsg8
S'OTHER'
p212
sg10
Nsg17
NsbsS'silly'
p213
g0
(g1
g2
Ntp214
Rp215
(dp216
g6
Nsg8
S'PERSON'
p217
sg10
Nsg17
NsbsS'stuart'
p218
g0
(g1
g2
Ntp219
Rp220
(dp221
g6
Nsg8
S'OTHER'
p222
sg10
Nsg17
NsbsS'kosovo'
p223
g0
(g1
g2
Ntp224
Rp225
(dp226
g6
Nsg8
S'LOCATION'
p227
sg10
Nsg17
NsbsS'mccarren'
p228
g0
(g1
g2
Ntp229
Rp230
(dp231
g6
Nsg8
S'LOCATION'
p232
sg10
Nsg17
NsbsS'the'
p233
g0
(g1
g2
Ntp234
Rp235
(dp236
g6
Nsg8
S'OTHER'
p237
sg10
Nsg17
NsbsS'where'
p238
g0
(g1
g2
Ntp239
Rp240
(dp241
g6
Nsg8
S'LOCATION'
p242
sg10
Nsg17
NsbsS'names'
p243
g0
(g1
g2
Ntp244
Rp245
(dp246
g6
Nsg8
S'OTHER'
p247
sg10
Nsg17
Nsbssg17
Nsb.