ccopy_reg
_reconstructor
p0
(cnltk.classify.maxent
MaxentClassifier
p1
c__builtin__
object
p2
Ntp3
Rp4
(dp5
S'_logarithmic'
p6
I01
sS'_encoding'
p7
g0
(cnltk.classify.maxent
BinaryMaxentFeatureEncoding
p8
g2
Ntp9
Rp10
(dp11
S'_length'
p12
I93
sS'_labels'
p13
(lp14
S'MONEY'
p15
aS'PERCENT'
p16
aS'NUMBER'
p17
aS'PERSON'
p18
aS'OTHER'
p19
aS'LOCATION'
p20
aS'TIME'
p21
aS'DATE'
p22
aS'ORGANIZATION'
p23
asS'_unseen'
p24
NsS'_alwayson'
p25
NsS'_mapping'
p26
(dp27
(S'first'
p28
S'dialing'
p29
S'MONEY'
p30
tp31
I72
s(g28
S'how'
p32
g21
tp33
I19
s(g28
S'on'
p34
S'OTHER'
p35
tp36
I21
s(g28
S'with'
p37
S'PERSON'
p38
tp39
I76
s(g28
S'madonna'
p40
S'OTHER'
p41
tp42
I70
s(g28
S'who'
p43
S'ORGANIZATION'
p44
tp45
I20
s(g28
S'in'
p46
S'OTHER'
p47
tp48
I12
s(g28
S'the'
p49
S'ORGANIZATION'
p50
tp51
I60
s(g28
S'jackson'
p52
S'LOCATION'
p53
tp54
I79
s(g28
S'how'
p55
g15
tp56
I17
s(g28
S'cnn'
p57
S'DATE'
p58
tp59
I22
s(g28
S'to'
p60
S'OTHER'
p61
tp62
I24
s(g28
S'what'
p63
g18
tp64
I1
s(g28
S'in'
p65
S'NUMBER'
p66
tp67
I73
s(g28
S'the'
p68
S'NUMBER'
p69
tp70
I61
s(g28
S'president'
p71
S'PERSON'
p72
tp73
I91
s(g28
S'who'
p74
S'OTHER'
p75
tp76
I88
s(g28
S'on'
p77
S'TIME'
p78
tp79
I67
s(g28
S'what'
p80
S'DATE'
p81
tp82
I8
s(g28
S'rotary'
p83
S'PERSON'
p84
tp85
I87
s(g28
S'in'
p86
S'LOCATION'
p87
tp88
I25
s(g28
S'when'
p89
S'LOCATION'
p90
tp91
I71
s(g28
S'kosovo'
p92
S'LOCATION'
p93
tp94
I85
s(g28
S'by'
p95
S'MONEY'
p96
tp97
I83
s(g28
S'boxing'
p98
S'DATE'
p99
tp100
I43
s(g28
S'winnie'
p101
S'OTHER'
p102
tp103
I40
s(g28
S'woodrow'
p104
S'ORGANIZATION'
p105
tp106
I34
s(g28
S'silly'
p107
S'PERSON'
p108
tp109
I50
s(g28
S'independent'
p110
S'PERCENT'
p111
tp112
I81
s(g28
S'name'
p113
S'ORGANIZATION'
p114
tp115
I32
s(g28
S'which'
p116
S'ORGANIZATION'
p117
tp118
I11
s(g28
S'hitler'
p119
S'DATE'
p120
tp121
I86
s(g28
S'what'
p122
S'TIME'
p123
tp124
I39
s(g28
S'on'
p125
S'LOCATION'
p126
tp127
I41
s(g28
S'which'
p128
S'OTHER'
p129
tp130
I18
s(g28
S'tell'
p131
S'LOCATION'
p132
tp133
I46
s(g28
S'jude'
p134
S'OTHER'
p135
tp136
I42
s(g28
S'shea'
p137
S'TIME'
p138
tp139
I52
s(g28
S'when'
p140
S'OTHER'
p141
tp142
I58
s(g28
S'the'
p143
S'LOCATION'
p144
tp145
I62
s(g28
S'what'
p146
g19
tp147
I0
s(g28
S'name'
p148
S'OTHER'
p149
tp150
I9
s(g28
S'a'
p151
S'OTHER'
p152
tp153
I56
s(g28
S'what'
p154
g20
tp155
I6
s(g28
S'what'
p156
S'MONEY'
p157
tp158
I31
s(g28
S'about'
p159
S'NUMBER'
p160
tp161
I80
s(g28
S'whom'
p162
S'PERSON'
p163
tp164
I51
s(g28
S'which'
p165
S'LOCATION'
p166
tp167
I10
s(g28
S'a'
p168
S'NUMBER'
p169
tp170
I89
s(g28
S'in'
p171
S'ORGANIZATION'
p172
tp173
I54
s(g28
S'the'
p174
S'TIME'
p175
tp176
I35
s(g28
S'when'
p177
S'PERSON'
p178
tp179
I57
s(g28
S'where'
p180
S'NUMBER'
p181
tp182
I44
s(g28
S'which'
p183
S'PERSON'
p184
tp185
I16
s(g28
S'cnn'
p186
S'PERSON'
p187
tp188
I74
s(g28
S'on'
p189
S'NUMBER'
p190
tp191
I37
s(g28
S'name'
p192
S'LOCATION'
p193
tp194
I38
s(g28
S'when'
p195
g22
tp196
I4
s(g28
S'of'
p197
S'PERCENT'
p198
tp199
I47
s(g28
S'for'
p200
S'OTHER'
p201
tp202
I90
s(g28
S'the'
p203
S'OTHER'
p204
tp205
I14
s(g28
S'mccarren'
p206
S'LOCATION'
p207
tp208
I28
s(g28
S'aspartame'
p209
S'OTHER'
p210
tp211
I49
s(g28
S'rotary'
p212
S'ORGANIZATION'
p213
tp214
I84
s(g28
S'saddam'
p215
S'PERSON'
p216
tp217
I65
s(g28
S'mississippi'
p218
S'OTHER'
p219
tp220
I53
s(g28
S'names'
p221
S'OTHER'
p222
tp223
I92
s(g28
S'mississippi'
p224
S'LOCATION'
p225
tp226
I68
s(g28
S'ray'
p227
S'OTHER'
p228
tp229
I45
s(g28
S'where'
p230
S'OTHER'
p231
tp232
I26
s(g28
S'how'
p233
g17
tp234
I7
s(g28
S'garry'
p235
S'OTHER'
p236
tp237
I69
s(g28
S'whose'
p238
S'PERSON'
p239
tp240
I30
s(g28
S'in'
p241
S'PERSON'
p242
tp243
I78
s(g28
S'name'
p244
S'PERSON'
p245
tp246
I3
s(g28
S'italy'
p247
S'OTHER'
p248
tp249
I36
s(g28
S'approximately'
p250
S'NUMBER'
p251
tp252
I64
s(g28
S'when'
p253
S'ORGANIZATION'
p254
tp255
I55
s(g28
S'where'
p256
S'LOCATION'
p257
tp258
I13
s(g28
S'on'
p259
S'DATE'
p260
tp261
I63
s(g28
S'in'
p262
S'DATE'
p263
tp264
I15
s(g28
S'who'
p265
S'PERSON'
p266
tp267
I5
s(g28
S'the'
p268
S'PERSON'
p269
tp270
I66
s(g28
S'what'
p271
S'NUMBER'
p272
tp273
I23
s(g28
S'what'
p274
g23
tp275
I2
s(g28
S'what'
p276
g16
tp277
I29
s(g28
S'how'
p278
S'OTHER'
p279
tp280
I27
s(g28
S'the'
p281
S'DATE'
p282
tp283
I48
s(g28
S'stuart'
p284
S'OTHER'
p285
tp286
I82
s(g28
S'musician'
p287
S'OTHER'
p288
tp289
I59
s(g28
S'at'
p290
S'OTHER'
p291
tp292
I77
s(g28
S'whom'
p293
S'ORGANIZATION'
p294
tp295
I33
s(g28
S'at'
p296
S'TIME'
p297
tp298
I75
ssbsS'_weights'
p299
cnumpy.core.multiarray
_reconstruct
p300
(cnumpy
ndarray
p301
(I0
tp302
S'b'
p303
tp304
Rp305
(I1
(I93
tp306
cnumpy
dtype
p307
(S'f8'
p308
I0
I1
tp309
Rp310
(I3
S'<'
p311
NNNI-1
I-1
I0
tp312
bI00
S'YU\x96\x9b=l\x00@e\xcb\xc1jI\x06\xe2?\xf2\xd8\r\xe6R\xfa\xee\xbf\xbd \xec\xd6\xbbf\x1e@m\xd6\xb1K\x98(!@\xfc$\xcc\xe5\xa3Z"@\x9e$\x91\x91\xd2\xdd\xee?\xfc\x02\xfc\xadsJ!@i\xe5\x01\xa2\xe1\xb5\x00\xc08qp\xee\xe8;\x1e@\x03:\xc3;\x9e\xfe\x18@\x03:\xc3;\x9e\xfe\x18@`S%y\xca%\x1a@@y:\xaa\xf4e"@#B\xaf8\xc9`\x18@\xdb\x11\x1aH\x91q\x1a@\x1a\xfbg)F\x9f\x1c@\xcbS\x8a\\\xff&\x14@/\xc26\xfb\x1c\xb3\x1e@uV:{\xe0{\x17@(\xfed\xd8\xd0\x01\x10@\x18$\xb4E\xbf\xc9\x17@G\xaf\rf9\xb6!@\xdaC\xb0\xd4&\xa1\xf5\xbfP\xb8\x98\xa3)C#@\xd7\x1e-\x95\xea\xd5\x19@9\x1a\xca\x15c\xa3\x01@\xdd\xabh8u\xc3\x06@P\xb8\x98\xa3)C#@l`\x02\xb2\xbb`\x0b\xc0g\xb8\x98\xa3)C#@\x87X\x1a\xe2c\xda\x06\xc0\x02O/R\x14\x1d\x19@\x83N\x035s\xc3\x1d@/\xb8\x98\xa3)C#@\x92\xa5\x8e\x9f\x91\x13\x0c@P\xb8\x98\xa3)C#@\x18$\xb4E\xbf\xc9\x13@\x02O/R\x14\x1d\x15@\x10\xd2\xd0\xa2\xf1\x08\x11\xc0P\xb8\x98\xa3)C#@\xd1\xf5p\xcaf\x13\x1d@P\xb8\x98\xa3)C#@D\xb8\x98\xa3)C#@9\x1a\xca\x15c\xa3\x01@P\xb8\x98\xa3)C#@P\xb8\x98\xa3)C#@l\xb8\x98\xa3)C#@#B\xaf8\xc9`\x14@P\xb8\x98\xa3)C#@Z\xb8\x98\xa3)C#@\xef\x9e\xf5\xce9\r"@?\xb8\x98\xa3)C#@\xdf\xa6\x81\x9a\xb9\xe1 @G\x80\xba\x86\xd3O\x02@T~\xdd\x03_\x00\xfa?\xe7\xa6\x81\x9a\xb9\xe1 @\xd8\x9d\xbeS0\xae\t@T~\xdd\x03_\x00\xfa?P\xb8\x98\xa3)C#@\x92\xa5\x8e\x9f\x91\x13\x0c@\x92\xa5\x8e\x9f\x91\x13\x0c@\xc9R\xc7\xcf\xc8\t\x16@\x18$\xb4E\xbf\xc9\x1b@_\xb8\x98\xa3)C#@Z\xb8\x98\xa3)C#@\xc9R\xc7\xcf\xc8\t\x12@\x18$\xb4E\xbf\xc9\x13@\xdf\xa6\x81\x9a\xb9\xe1 @P\xb8\x98\xa3)C#@P\xb8\x98\xa3)C#@T~\xdd\x03_\x00\xfa?l\xb8\x98\xa3)C#@G\x80\xba\x86\xd3O\x02@\x8d^\x1b\xccrl\x1f@\xd4\xa6\x81\x9a\xb9\xe1 @Z\xb8\x98\xa3)C#@\xd4\xa6\x81\x9a\xb9\xe1 @\xfa^\x8aX\xd4\xfd\x0e@P\xb8\x98\xa3)C#@_\xb8\x98\xa3)C#@l\xb8\x98\xa3)C#@P\xb8\x98\xa3)C#@l\xb8\x98\xa3)C#@C\xaf\rf9\xb6!@P\xb8\x98\xa3)C#@D\xb8\x98\xa3)C#@\x85^\x1b\xccrl\x1f@\x96\xf4\x00\xab\xa3\x84\xf1?\xe7\xa6\x81\x9a\xb9\xe1 @P\xb8\x98\xa3)C#@Z\xb8\x98\xa3)C#@P\xb8\x98\xa3)C#@'
p313
tp314
bsb.